TMS320C2000 Assembler PC v6.4.4 Tue Feb 14 14:42:40 2017

Tools Copyright (c) 1996-2015 Texas Instruments Incorporated
C:\Users\a0221343\AppData\Local\Temp\0584010                         PAGE    1

       1              ;***************************************************************
       2              ;* TMS320C2000 C/C++ Codegen                         PC v6.4.4 *
       3              ;* Date/Time created: Tue Feb 14 14:42:40 2017                 *
       4              ;***************************************************************
       5                      .compiler_opts --cla_support=cla0 --float_support=fpu32 --hll_source=on --mem_model:code=flat --mem_m
       6        0002  FP      .set    XAR2
       7              
       8              $C$DW$CU        .dwtag  DW_TAG_compile_unit
       9                      .dwattr $C$DW$CU, DW_AT_name("C:/Users/a0221343/Git/bootROM/f28004x_bootrom/F28004x_ROM_dev_PG2.0/F28
      10                      .dwattr $C$DW$CU, DW_AT_producer("TI TMS320C2000 C/C++ Codegen PC v6.4.4 Copyright (c) 1996-2015 Texa
      11                      .dwattr $C$DW$CU, DW_AT_TI_version(0x01)
      12                      .dwattr $C$DW$CU, DW_AT_comp_dir("C:\Users\a0221343\Git\bootROM\f28004x_bootrom\F28004x_ROM_dev_PG2.0
      13              
      14              $C$DW$1 .dwtag  DW_TAG_subprogram, DW_AT_name("__addr32_read_uint16")
      15                      .dwattr $C$DW$1, DW_AT_TI_symbol_name("___addr32_read_uint16")
      16                      .dwattr $C$DW$1, DW_AT_type(*$C$DW$T$11)
      17                      .dwattr $C$DW$1, DW_AT_declaration
      18                      .dwattr $C$DW$1, DW_AT_external
      19              $C$DW$2 .dwtag  DW_TAG_formal_parameter
      20                      .dwattr $C$DW$2, DW_AT_type(*$C$DW$T$13)
      21                      .dwendtag $C$DW$1
      22              
      23                      .global _csum_rom
      24 00000000               .sect   ".CKSUMLOC"
      25                      .align  2
      26 00000000       _csum_rom:
      27 00000000 1644          .bits   1250884,32                      ; _csum_rom._total_ones @ 0
         00000001 0013 
      28 00000002 B434          .bits   46132,32                        ; _csum_rom._bit_column_cksum[0][0] @ 32
         00000003 0000 
      29 00000004 57E1          .bits   22497,32                        ; _csum_rom._bit_column_cksum[0][1] @ 64
         00000005 0000 
      30 00000006 0002          .bits   2,32                    ; _csum_rom._bit_column_cksum[0][2] @ 96
         00000007 0000 
      31 00000008 DAE1          .bits   56033,32                        ; _csum_rom._bit_column_cksum[1][0] @ 128
         00000009 0000 
      32 0000000a 9CFF          .bits   40191,32                        ; _csum_rom._bit_column_cksum[1][1] @ 160
         0000000b 0000 
      33 0000000c 0002          .bits   2,32                    ; _csum_rom._bit_column_cksum[1][2] @ 192
         0000000d 0000 
      34 0000000e 638C          .bits   25484,32                        ; _csum_rom._bit_column_cksum[2][0] @ 224
         0000000f 0000 
      35 00000010 9F7C          .bits   40828,32                        ; _csum_rom._bit_column_cksum[2][1] @ 256
         00000011 0000 
      36 00000012 0002          .bits   2,32                    ; _csum_rom._bit_column_cksum[2][2] @ 288
         00000013 0000 
      37 00000014 19FC          .bits   6652,32                 ; _csum_rom._bit_column_cksum[3][0] @ 320
         00000015 0000 
      38 00000016 5EDB          .bits   24283,32                        ; _csum_rom._bit_column_cksum[3][1] @ 352
         00000017 0000 
      39 00000018 0002          .bits   2,32                    ; _csum_rom._bit_column_cksum[3][2] @ 384
         00000019 0000 
      40 0000001a 6F33          .bits   28467,32                        ; _csum_rom._bit_column_cksum[4][0] @ 416
         0000001b 0000 
      41 0000001c 7778          .bits   30584,32                        ; _csum_rom._bit_column_cksum[4][1] @ 448
TMS320C2000 Assembler PC v6.4.4 Tue Feb 14 14:42:40 2017

Tools Copyright (c) 1996-2015 Texas Instruments Incorporated
C:\Users\a0221343\AppData\Local\Temp\0584010                         PAGE    2

         0000001d 0000 
      42 0000001e 0002          .bits   2,32                    ; _csum_rom._bit_column_cksum[4][2] @ 480
         0000001f 0000 
      43 00000020 5D5B          .bits   23899,32                        ; _csum_rom._bit_column_cksum[5][0] @ 512
         00000021 0000 
      44 00000022 C3DB          .bits   50139,32                        ; _csum_rom._bit_column_cksum[5][1] @ 544
         00000023 0000 
      45 00000024 0002          .bits   2,32                    ; _csum_rom._bit_column_cksum[5][2] @ 576
         00000025 0000 
      46 00000026 D35E          .bits   54110,32                        ; _csum_rom._bit_column_cksum[6][0] @ 608
         00000027 0000 
      47 00000028 8167          .bits   33127,32                        ; _csum_rom._bit_column_cksum[6][1] @ 640
         00000029 0000 
      48 0000002a 0002          .bits   2,32                    ; _csum_rom._bit_column_cksum[6][2] @ 672
         0000002b 0000 
      49 0000002c 3C8D          .bits   15501,32                        ; _csum_rom._bit_column_cksum[7][0] @ 704
         0000002d 0000 
      50 0000002e 64C7          .bits   25799,32                        ; _csum_rom._bit_column_cksum[7][1] @ 736
         0000002f 0000 
      51 00000030 0002          .bits   2,32                    ; _csum_rom._bit_column_cksum[7][2] @ 768
         00000031 0000 
      52 00000032 0000          .bits   0,32                    ; _csum_rom._row_weight_sum._highHalfMSW @ 800
         00000033 0000 
      53 00000034 00A0          .bits   160,32                  ; _csum_rom._row_weight_sum._highHalfLSW @ 832
         00000035 0000 
      54 00000036 A589          .bits   42377,32                        ; _csum_rom._row_weight_sum._lowHalfMSW @ 864
         00000037 0000 
      55 00000038 1D00          .bits   7424,32                 ; _csum_rom._row_weight_sum._lowHalfLSW @ 896
         00000039 0000 
      56 0000003a 0000          .bits   0,32                    ; _csum_rom._fact_weight_sum._highHalfMSW @ 928
         0000003b 0000 
      57 0000003c A526          .bits   42278,32                        ; _csum_rom._fact_weight_sum._highHalfLSW @ 960
         0000003d 0000 
      58 0000003e A412          .bits   42002,32                        ; _csum_rom._fact_weight_sum._lowHalfMSW @ 992
         0000003f 0000 
      59 00000040 5890          .bits   22672,32                        ; _csum_rom._fact_weight_sum._lowHalfLSW @ 1024
         00000041 0000 
      60              
      61              $C$DW$3 .dwtag  DW_TAG_variable, DW_AT_name("csum_rom")
      62                      .dwattr $C$DW$3, DW_AT_TI_symbol_name("_csum_rom")
      63                      .dwattr $C$DW$3, DW_AT_location[DW_OP_addr _csum_rom]
      64                      .dwattr $C$DW$3, DW_AT_type(*$C$DW$T$39)
      65                      .dwattr $C$DW$3, DW_AT_external
      66                      .global _pbist_csum_rom
      67 00000000               .sect   ".PBIST_CKSUMLOC"
      68                      .align  2
      69 00000000       _pbist_csum_rom:
      70 00000000 6CA4          .bits   224420,32                       ; _pbist_csum_rom._total_ones @ 0
         00000001 0003 
      71 00000002 629B          .bits   25243,32                        ; _pbist_csum_rom._bit_column_cksum[0][0] @ 32
         00000003 0000 
      72 00000004 16C0          .bits   5824,32                 ; _pbist_csum_rom._bit_column_cksum[0][1] @ 64
         00000005 0000 
      73 00000006 0000          .bits   0,32                    ; _pbist_csum_rom._bit_column_cksum[0][2] @ 96
         00000007 0000 
TMS320C2000 Assembler PC v6.4.4 Tue Feb 14 14:42:40 2017

Tools Copyright (c) 1996-2015 Texas Instruments Incorporated
C:\Users\a0221343\AppData\Local\Temp\0584010                         PAGE    3

      74 00000008 6E7D          .bits   28285,32                        ; _pbist_csum_rom._bit_column_cksum[1][0] @ 128
         00000009 0000 
      75 0000000a 1CB8          .bits   7352,32                 ; _pbist_csum_rom._bit_column_cksum[1][1] @ 160
         0000000b 0000 
      76 0000000c 0000          .bits   0,32                    ; _pbist_csum_rom._bit_column_cksum[1][2] @ 192
         0000000d 0000 
      77 0000000e 05EC          .bits   1516,32                 ; _pbist_csum_rom._bit_column_cksum[2][0] @ 224
         0000000f 0000 
      78 00000010 1B19          .bits   6937,32                 ; _pbist_csum_rom._bit_column_cksum[2][1] @ 256
         00000011 0000 
      79 00000012 0000          .bits   0,32                    ; _pbist_csum_rom._bit_column_cksum[2][2] @ 288
         00000013 0000 
      80 00000014 E790          .bits   59280,32                        ; _pbist_csum_rom._bit_column_cksum[3][0] @ 320
         00000015 0000 
      81 00000016 18CF          .bits   6351,32                 ; _pbist_csum_rom._bit_column_cksum[3][1] @ 352
         00000017 0000 
      82 00000018 0000          .bits   0,32                    ; _pbist_csum_rom._bit_column_cksum[3][2] @ 384
         00000019 0000 
      83 0000001a 886D          .bits   34925,32                        ; _pbist_csum_rom._bit_column_cksum[4][0] @ 416
         0000001b 0000 
      84 0000001c 166C          .bits   5740,32                 ; _pbist_csum_rom._bit_column_cksum[4][1] @ 448
         0000001d 0000 
      85 0000001e 0000          .bits   0,32                    ; _pbist_csum_rom._bit_column_cksum[4][2] @ 480
         0000001f 0000 
      86 00000020 5346          .bits   21318,32                        ; _pbist_csum_rom._bit_column_cksum[5][0] @ 512
         00000021 0000 
      87 00000022 1660          .bits   5728,32                 ; _pbist_csum_rom._bit_column_cksum[5][1] @ 544
         00000023 0000 
      88 00000024 0000          .bits   0,32                    ; _pbist_csum_rom._bit_column_cksum[5][2] @ 576
         00000025 0000 
      89 00000026 6331          .bits   25393,32                        ; _pbist_csum_rom._bit_column_cksum[6][0] @ 608
         00000027 0000 
      90 00000028 1686          .bits   5766,32                 ; _pbist_csum_rom._bit_column_cksum[6][1] @ 640
         00000029 0000 
      91 0000002a 0000          .bits   0,32                    ; _pbist_csum_rom._bit_column_cksum[6][2] @ 672
         0000002b 0000 
      92 0000002c B608          .bits   46600,32                        ; _pbist_csum_rom._bit_column_cksum[7][0] @ 704
         0000002d 0000 
      93 0000002e 174A          .bits   5962,32                 ; _pbist_csum_rom._bit_column_cksum[7][1] @ 736
         0000002f 0000 
      94 00000030 0000          .bits   0,32                    ; _pbist_csum_rom._bit_column_cksum[7][2] @ 768
         00000031 0000 
      95 00000032 0000          .bits   0,32                    ; _pbist_csum_rom._row_weight_sum._highHalfMSW @ 800
         00000033 0000 
      96 00000034 0006          .bits   6,32                    ; _pbist_csum_rom._row_weight_sum._highHalfLSW @ 832
         00000035 0000 
      97 00000036 0FED          .bits   4077,32                 ; _pbist_csum_rom._row_weight_sum._lowHalfMSW @ 864
         00000037 0000 
      98 00000038 C77D          .bits   51069,32                        ; _pbist_csum_rom._row_weight_sum._lowHalfLSW @ 896
         00000039 0000 
      99 0000003a 0000          .bits   0,32                    ; _pbist_csum_rom._fact_weight_sum._highHalfMSW @ 928
         0000003b 0000 
     100 0000003c 1C5D          .bits   7261,32                 ; _pbist_csum_rom._fact_weight_sum._highHalfLSW @ 960
         0000003d 0000 
     101 0000003e 5AE2          .bits   23266,32                        ; _pbist_csum_rom._fact_weight_sum._lowHalfMSW @ 992
TMS320C2000 Assembler PC v6.4.4 Tue Feb 14 14:42:40 2017

Tools Copyright (c) 1996-2015 Texas Instruments Incorporated
C:\Users\a0221343\AppData\Local\Temp\0584010                         PAGE    4

         0000003f 0000 
     102 00000040 97A4          .bits   38820,32                        ; _pbist_csum_rom._fact_weight_sum._lowHalfLSW @ 1024
         00000041 0000 
     103              
     104              $C$DW$4 .dwtag  DW_TAG_variable, DW_AT_name("pbist_csum_rom")
     105                      .dwattr $C$DW$4, DW_AT_TI_symbol_name("_pbist_csum_rom")
     106                      .dwattr $C$DW$4, DW_AT_location[DW_OP_addr _pbist_csum_rom]
     107                      .dwattr $C$DW$4, DW_AT_type(*$C$DW$T$39)
     108                      .dwattr $C$DW$4, DW_AT_external
     109              ;       C:\ti\ccsv6\tools\compiler\ti-cgt-c2000_6.4.4\bin\ac2000.exe -@C:\\Users\\a0221343\\AppData\\Local\\T
     110 00000000               .sect   ".text"
     111                      .clink
     112              
     113              $C$DW$5 .dwtag  DW_TAG_subprogram, DW_AT_name("SysCtl_disableWatchdog")
     114                      .dwattr $C$DW$5, DW_AT_low_pc(_SysCtl_disableWatchdog)
     115                      .dwattr $C$DW$5, DW_AT_high_pc(0x00)
     116                      .dwattr $C$DW$5, DW_AT_TI_symbol_name("_SysCtl_disableWatchdog")
     117                      .dwattr $C$DW$5, DW_AT_TI_begin_file("C:/Users/a0221343/Git/bootROM/f28004x_bootrom/F28004x_ROM_dev_P
     118                      .dwattr $C$DW$5, DW_AT_TI_begin_line(0x65e)
     119                      .dwattr $C$DW$5, DW_AT_TI_begin_column(0x01)
     120                      .dwattr $C$DW$5, DW_AT_TI_max_frame_size(-2)
     121                      .dwpsn  file "C:/Users/a0221343/Git/bootROM/f28004x_bootrom/F28004x_ROM_dev_PG2.0/F28004x_ROM/driverl
     122              
     123                      .dwfde $C$DW$CIE, _SysCtl_disableWatchdog
     124              
     125              ;***************************************************************
     126              ;* FNAME: _SysCtl_disableWatchdog       FR SIZE:   0           *
     127              ;*                                                             *
     128              ;* FUNCTION ENVIRONMENT                                        *
     129              ;*                                                             *
     130              ;* FUNCTION PROPERTIES                                         *
     131              ;*                            0 Parameter,  0 Auto,  0 SOE     *
     132              ;***************************************************************
     133              
     134 00000000       _SysCtl_disableWatchdog:
     135                      .dwcfi  cfa_offset, -2
     136                      .dwcfi  save_reg_to_mem, 26, 0
     137                      .dwpsn  file "C:/Users/a0221343/Git/bootROM/f28004x_bootrom/F28004x_ROM_dev_PG2.0/F28004x_ROM/driverl
     138 00000000 7622   EALLOW
     139                      .dwpsn  file "C:/Users/a0221343/Git/bootROM/f28004x_bootrom/F28004x_ROM_dev_PG2.0/F28004x_ROM/driverl
     140 00000001 F5A9          MOV       AL,*(0:0x7029)        ; [CPU_] |1637| 
         00000002 7029 
     141 00000003 5068          ORB       AL,#0x68              ; [CPU_] |1637| 
     142 00000004 F4A9          MOV       *(0:0x7029),AL        ; [CPU_] |1637| 
         00000005 7029 
     143                      .dwpsn  file "C:/Users/a0221343/Git/bootROM/f28004x_bootrom/F28004x_ROM_dev_PG2.0/F28004x_ROM/driverl
     144 00000006 761A   EDIS
     145                      .dwpsn  file "C:/Users/a0221343/Git/bootROM/f28004x_bootrom/F28004x_ROM_dev_PG2.0/F28004x_ROM/driverl
     146 00000007 FF69          SPM       #0                    ; [CPU_] 
     147              $C$DW$6 .dwtag  DW_TAG_TI_branch
     148                      .dwattr $C$DW$6, DW_AT_low_pc(0x00)
     149                      .dwattr $C$DW$6, DW_AT_TI_return
     150 00000008 0006          LRETR     ; [CPU_] 
     151                      ; return occurs ; [] 
     152                      .dwattr $C$DW$5, DW_AT_TI_end_file("C:/Users/a0221343/Git/bootROM/f28004x_bootrom/F28004x_ROM_dev_PG2
TMS320C2000 Assembler PC v6.4.4 Tue Feb 14 14:42:40 2017

Tools Copyright (c) 1996-2015 Texas Instruments Incorporated
C:\Users\a0221343\AppData\Local\Temp\0584010                         PAGE    5

     153                      .dwattr $C$DW$5, DW_AT_TI_end_line(0x668)
     154                      .dwattr $C$DW$5, DW_AT_TI_end_column(0x01)
     155                      .dwendentry
     156                      .dwendtag $C$DW$5
     157              
     158 00000000               .sect   ".CKSUMFUNCS"
     159                      .clink
     160                      .global _test_reserved_memory
     161              
     162              $C$DW$7 .dwtag  DW_TAG_subprogram, DW_AT_name("test_reserved_memory")
     163                      .dwattr $C$DW$7, DW_AT_low_pc(_test_reserved_memory)
     164                      .dwattr $C$DW$7, DW_AT_high_pc(0x00)
     165                      .dwattr $C$DW$7, DW_AT_TI_symbol_name("_test_reserved_memory")
     166                      .dwattr $C$DW$7, DW_AT_external
     167                      .dwattr $C$DW$7, DW_AT_type(*$C$DW$T$9)
     168                      .dwattr $C$DW$7, DW_AT_TI_begin_file("C:/Users/a0221343/Git/bootROM/f28004x_bootrom/F28004x_ROM_dev_P
     169                      .dwattr $C$DW$7, DW_AT_TI_begin_line(0x68)
     170                      .dwattr $C$DW$7, DW_AT_TI_begin_column(0x10)
     171                      .dwattr $C$DW$7, DW_AT_TI_max_frame_size(-4)
     172                      .dwpsn  file "C:/Users/a0221343/Git/bootROM/f28004x_bootrom/F28004x_ROM_dev_PG2.0/F28004x_ROM/bootROM
     173              
     174                      .dwfde $C$DW$CIE, _test_reserved_memory
     175              $C$DW$8 .dwtag  DW_TAG_formal_parameter, DW_AT_name("start")
     176                      .dwattr $C$DW$8, DW_AT_TI_symbol_name("_start")
     177                      .dwattr $C$DW$8, DW_AT_type(*$C$DW$T$13)
     178                      .dwattr $C$DW$8, DW_AT_location[DW_OP_reg0]
     179              $C$DW$9 .dwtag  DW_TAG_formal_parameter, DW_AT_name("end")
     180                      .dwattr $C$DW$9, DW_AT_TI_symbol_name("_end")
     181                      .dwattr $C$DW$9, DW_AT_type(*$C$DW$T$13)
     182                      .dwattr $C$DW$9, DW_AT_location[DW_OP_breg20 -6]
     183              
     184              ;***************************************************************
     185              ;* FNAME: _test_reserved_memory         FR SIZE:   2           *
     186              ;*                                                             *
     187              ;* FUNCTION ENVIRONMENT                                        *
     188              ;*                                                             *
     189              ;* FUNCTION PROPERTIES                                         *
     190              ;*                            0 Parameter,  2 Auto,  0 SOE     *
     191              ;***************************************************************
     192              
     193 00000000       _test_reserved_memory:
     194                      .dwcfi  cfa_offset, -2
     195                      .dwcfi  save_reg_to_mem, 26, 0
     196 00000000 FE02          ADDB      SP,#2                 ; [CPU_U] 
     197                      .dwcfi  cfa_offset, -4
     198              $C$DW$10        .dwtag  DW_TAG_variable, DW_AT_name("start")
     199                      .dwattr $C$DW$10, DW_AT_TI_symbol_name("_start")
     200                      .dwattr $C$DW$10, DW_AT_type(*$C$DW$T$13)
     201                      .dwattr $C$DW$10, DW_AT_location[DW_OP_breg20 -2]
     202 00000001 1E42          MOVL      *-SP[2],ACC           ; [CPU_] |105| 
     203                      .dwpsn  file "C:/Users/a0221343/Git/bootROM/f28004x_bootrom/F28004x_ROM_dev_PG2.0/F28004x_ROM/bootROM
     204 00000002 5608          AND       ACC,#65472 << 16      ; [CPU_] |106| 
         00000003 FFC0 
     205 00000004 EC18          BF        $C$L3,EQ              ; [CPU_] |106| 
     206                      ; branchcc occurs ; [] |106| 
TMS320C2000 Assembler PC v6.4.4 Tue Feb 14 14:42:40 2017

Tools Copyright (c) 1996-2015 Texas Instruments Incorporated
C:\Users\a0221343\AppData\Local\Temp\0584010                         PAGE    6

     207                      .dwpsn  file "C:/Users/a0221343/Git/bootROM/f28004x_bootrom/F28004x_ROM_dev_PG2.0/F28004x_ROM/bootROM
     208 00000005 0646          MOVL      ACC,*-SP[6]           ; [CPU_] |108| 
     209 00000006 0F42          CMPL      ACC,*-SP[2]           ; [CPU_] |108| 
     210 00000007 56C8          BF        $C$L6,LO              ; [CPU_] |108| 
         00000008 002A 
     211                      ; branchcc occurs ; [] |108| 
     212 00000009       $C$L1:    
     213                      .dwpsn  file "C:/Users/a0221343/Git/bootROM/f28004x_bootrom/F28004x_ROM_dev_PG2.0/F28004x_ROM/bootROM
     214 00000009 8A42          MOVL      XAR4,*-SP[2]          ; [CPU_] |110| 
     215 0000000a A8A9          MOVL      ACC,XAR4              ; [CPU_] |110| 
     216 0000000b 0901          ADDB      ACC,#1                ; [CPU_] |110| 
     217 0000000c 1E42          MOVL      *-SP[2],ACC           ; [CPU_] |110| 
     218 0000000d 92C4          MOV       AL,*+XAR4[0]          ; [CPU_] |110| 
     219 0000000e 88A9          MOVZ      AR6,AL                ; [CPU_] |110| 
     220 0000000f 8F00          MOVL      XAR4,#65535           ; [CPU_U] |110| 
         00000010 FFFF 
     221 00000011 A8A9          MOVL      ACC,XAR4              ; [CPU_] |110| 
     222 00000012 0FA6          CMPL      ACC,XAR6              ; [CPU_] |110| 
     223 00000013 EC04          BF        $C$L2,EQ              ; [CPU_] |110| 
     224                      ; branchcc occurs ; [] |110| 
     225                      .dwpsn  file "C:/Users/a0221343/Git/bootROM/f28004x_bootrom/F28004x_ROM_dev_PG2.0/F28004x_ROM/bootROM
     226 00000014 28A9          MOV       AL,#65535             ; [CPU_] |112| 
         00000015 FFFF 
     227 00000016 6F1C          B         $C$L7,UNC             ; [CPU_] |112| 
     228                      ; branch occurs ; [] |112| 
     229 00000017       $C$L2:    
     230                      .dwpsn  file "C:/Users/a0221343/Git/bootROM/f28004x_bootrom/F28004x_ROM_dev_PG2.0/F28004x_ROM/bootROM
     231 00000017 0646          MOVL      ACC,*-SP[6]           ; [CPU_] |108| 
     232 00000018 0F42          CMPL      ACC,*-SP[2]           ; [CPU_] |108| 
     233 00000019 56C7          BF        $C$L1,HIS             ; [CPU_] |108| 
         0000001a FFF0 
     234                      ; branchcc occurs ; [] |108| 
     235                      .dwpsn  file "C:/Users/a0221343/Git/bootROM/f28004x_bootrom/F28004x_ROM_dev_PG2.0/F28004x_ROM/bootROM
     236 0000001b 6F16          B         $C$L6,UNC             ; [CPU_] |115| 
     237                      ; branch occurs ; [] |115| 
     238 0000001c       $C$L3:    
     239                      .dwpsn  file "C:/Users/a0221343/Git/bootROM/f28004x_bootrom/F28004x_ROM_dev_PG2.0/F28004x_ROM/bootROM
     240 0000001c 0646          MOVL      ACC,*-SP[6]           ; [CPU_] |118| 
     241 0000001d 0F42          CMPL      ACC,*-SP[2]           ; [CPU_] |118| 
     242 0000001e 56C8          BF        $C$L6,LO              ; [CPU_] |118| 
         0000001f 0013 
     243                      ; branchcc occurs ; [] |118| 
     244 00000020       $C$L4:    
     245                      .dwpsn  file "C:/Users/a0221343/Git/bootROM/f28004x_bootrom/F28004x_ROM_dev_PG2.0/F28004x_ROM/bootROM
     246 00000020 8A42          MOVL      XAR4,*-SP[2]          ; [CPU_] |120| 
     247 00000021 A8A9          MOVL      ACC,XAR4              ; [CPU_] |120| 
     248 00000022 0901          ADDB      ACC,#1                ; [CPU_] |120| 
     249 00000023 1E42          MOVL      *-SP[2],ACC           ; [CPU_] |120| 
     250 00000024 88C4          MOVZ      AR6,*+XAR4[0]         ; [CPU_] |120| 
     251 00000025 8F00          MOVL      XAR4,#65535           ; [CPU_U] |120| 
         00000026 FFFF 
     252 00000027 A8A9          MOVL      ACC,XAR4              ; [CPU_] |120| 
     253 00000028 0FA6          CMPL      ACC,XAR6              ; [CPU_] |120| 
     254 00000029 EC04          BF        $C$L5,EQ              ; [CPU_] |120| 
     255                      ; branchcc occurs ; [] |120| 
TMS320C2000 Assembler PC v6.4.4 Tue Feb 14 14:42:40 2017

Tools Copyright (c) 1996-2015 Texas Instruments Incorporated
C:\Users\a0221343\AppData\Local\Temp\0584010                         PAGE    7

     256                      .dwpsn  file "C:/Users/a0221343/Git/bootROM/f28004x_bootrom/F28004x_ROM_dev_PG2.0/F28004x_ROM/bootROM
     257 0000002a 28A9          MOV       AL,#65535             ; [CPU_] |122| 
         0000002b FFFF 
     258 0000002c 6F06          B         $C$L7,UNC             ; [CPU_] |122| 
     259                      ; branch occurs ; [] |122| 
     260 0000002d       $C$L5:    
     261                      .dwpsn  file "C:/Users/a0221343/Git/bootROM/f28004x_bootrom/F28004x_ROM_dev_PG2.0/F28004x_ROM/bootROM
     262 0000002d 0646          MOVL      ACC,*-SP[6]           ; [CPU_] |118| 
     263 0000002e 0F42          CMPL      ACC,*-SP[2]           ; [CPU_] |118| 
     264 0000002f 56C7          BF        $C$L4,HIS             ; [CPU_] |118| 
         00000030 FFF1 
     265                      ; branchcc occurs ; [] |118| 
     266 00000031       $C$L6:    
     267                      .dwpsn  file "C:/Users/a0221343/Git/bootROM/f28004x_bootrom/F28004x_ROM_dev_PG2.0/F28004x_ROM/bootROM
     268 00000031 9A00          MOVB      AL,#0                 ; [CPU_] |126| 
     269 00000032       $C$L7:    
     270                      .dwpsn  file "C:/Users/a0221343/Git/bootROM/f28004x_bootrom/F28004x_ROM_dev_PG2.0/F28004x_ROM/bootROM
     271 00000032 FE82          SUBB      SP,#2                 ; [CPU_U] 
     272                      .dwcfi  cfa_offset, -2
     273              $C$DW$11        .dwtag  DW_TAG_TI_branch
     274                      .dwattr $C$DW$11, DW_AT_low_pc(0x00)
     275                      .dwattr $C$DW$11, DW_AT_TI_return
     276 00000033 0006          LRETR     ; [CPU_] 
     277                      ; return occurs ; [] 
     278                      .dwattr $C$DW$7, DW_AT_TI_end_file("C:/Users/a0221343/Git/bootROM/f28004x_bootrom/F28004x_ROM_dev_PG2
     279                      .dwattr $C$DW$7, DW_AT_TI_end_line(0x7f)
     280                      .dwattr $C$DW$7, DW_AT_TI_end_column(0x01)
     281                      .dwendentry
     282                      .dwendtag $C$DW$7
     283              
     284 00000034               .sect   ".CKSUMFUNCS"
     285                      .clink
     286                      .global _calculate_composite_checksum_on_rom
     287              
     288              $C$DW$12        .dwtag  DW_TAG_subprogram, DW_AT_name("calculate_composite_checksum_on_rom")
     289                      .dwattr $C$DW$12, DW_AT_low_pc(_calculate_composite_checksum_on_rom)
     290                      .dwattr $C$DW$12, DW_AT_high_pc(0x00)
     291                      .dwattr $C$DW$12, DW_AT_TI_symbol_name("_calculate_composite_checksum_on_rom")
     292                      .dwattr $C$DW$12, DW_AT_external
     293                      .dwattr $C$DW$12, DW_AT_type(*$C$DW$T$9)
     294                      .dwattr $C$DW$12, DW_AT_TI_begin_file("C:/Users/a0221343/Git/bootROM/f28004x_bootrom/F28004x_ROM_dev_
     295                      .dwattr $C$DW$12, DW_AT_TI_begin_line(0x94)
     296                      .dwattr $C$DW$12, DW_AT_TI_begin_column(0x10)
     297                      .dwattr $C$DW$12, DW_AT_TI_max_frame_size(-18)
     298                      .dwpsn  file "C:/Users/a0221343/Git/bootROM/f28004x_bootrom/F28004x_ROM_dev_PG2.0/F28004x_ROM/bootROM
     299              
     300                      .dwfde $C$DW$CIE, _calculate_composite_checksum_on_rom
     301              $C$DW$13        .dwtag  DW_TAG_formal_parameter, DW_AT_name("cksum")
     302                      .dwattr $C$DW$13, DW_AT_TI_symbol_name("_cksum")
     303                      .dwattr $C$DW$13, DW_AT_type(*$C$DW$T$32)
     304                      .dwattr $C$DW$13, DW_AT_location[DW_OP_reg12]
     305              $C$DW$14        .dwtag  DW_TAG_formal_parameter, DW_AT_name("mblock")
     306                      .dwattr $C$DW$14, DW_AT_TI_symbol_name("_mblock")
     307                      .dwattr $C$DW$14, DW_AT_type(*$C$DW$T$27)
     308                      .dwattr $C$DW$14, DW_AT_location[DW_OP_reg14]
TMS320C2000 Assembler PC v6.4.4 Tue Feb 14 14:42:40 2017

Tools Copyright (c) 1996-2015 Texas Instruments Incorporated
C:\Users\a0221343\AppData\Local\Temp\0584010                         PAGE    8

     309              $C$DW$15        .dwtag  DW_TAG_formal_parameter, DW_AT_name("total_mblocks")
     310                      .dwattr $C$DW$15, DW_AT_TI_symbol_name("_total_mblocks")
     311                      .dwattr $C$DW$15, DW_AT_type(*$C$DW$T$11)
     312                      .dwattr $C$DW$15, DW_AT_location[DW_OP_reg0]
     313              
     314              ;***************************************************************
     315              ;* FNAME: _calculate_composite_checksum_on_rom FR SIZE:  16           *
     316              ;*                                                             *
     317              ;* FUNCTION ENVIRONMENT                                        *
     318              ;*                                                             *
     319              ;* FUNCTION PROPERTIES                                         *
     320              ;*                            4 Parameter, 11 Auto,  0 SOE     *
     321              ;***************************************************************
     322              
     323 00000034       _calculate_composite_checksum_on_rom:
     324                      .dwcfi  cfa_offset, -2
     325                      .dwcfi  save_reg_to_mem, 26, 0
     326 00000034 FE10          ADDB      SP,#16                ; [CPU_U] 
     327                      .dwcfi  cfa_offset, -18
     328              $C$DW$16        .dwtag  DW_TAG_variable, DW_AT_name("cksum")
     329                      .dwattr $C$DW$16, DW_AT_TI_symbol_name("_cksum")
     330                      .dwattr $C$DW$16, DW_AT_type(*$C$DW$T$32)
     331                      .dwattr $C$DW$16, DW_AT_location[DW_OP_breg20 -6]
     332              $C$DW$17        .dwtag  DW_TAG_variable, DW_AT_name("mblock")
     333                      .dwattr $C$DW$17, DW_AT_TI_symbol_name("_mblock")
     334                      .dwattr $C$DW$17, DW_AT_type(*$C$DW$T$27)
     335                      .dwattr $C$DW$17, DW_AT_location[DW_OP_breg20 -8]
     336              $C$DW$18        .dwtag  DW_TAG_variable, DW_AT_name("total_mblocks")
     337                      .dwattr $C$DW$18, DW_AT_TI_symbol_name("_total_mblocks")
     338                      .dwattr $C$DW$18, DW_AT_type(*$C$DW$T$11)
     339                      .dwattr $C$DW$18, DW_AT_location[DW_OP_breg20 -9]
     340              $C$DW$19        .dwtag  DW_TAG_variable, DW_AT_name("i")
     341                      .dwattr $C$DW$19, DW_AT_TI_symbol_name("_i")
     342                      .dwattr $C$DW$19, DW_AT_type(*$C$DW$T$9)
     343                      .dwattr $C$DW$19, DW_AT_location[DW_OP_breg20 -10]
     344              $C$DW$20        .dwtag  DW_TAG_variable, DW_AT_name("offset")
     345                      .dwattr $C$DW$20, DW_AT_TI_symbol_name("_offset")
     346                      .dwattr $C$DW$20, DW_AT_type(*$C$DW$T$13)
     347                      .dwattr $C$DW$20, DW_AT_location[DW_OP_breg20 -12]
     348              $C$DW$21        .dwtag  DW_TAG_variable, DW_AT_name("lmblock")
     349                      .dwattr $C$DW$21, DW_AT_TI_symbol_name("_lmblock")
     350                      .dwattr $C$DW$21, DW_AT_type(*$C$DW$T$27)
     351                      .dwattr $C$DW$21, DW_AT_location[DW_OP_breg20 -14]
     352              $C$DW$22        .dwtag  DW_TAG_variable, DW_AT_name("result")
     353                      .dwattr $C$DW$22, DW_AT_TI_symbol_name("_result")
     354                      .dwattr $C$DW$22, DW_AT_type(*$C$DW$T$9)
     355                      .dwattr $C$DW$22, DW_AT_location[DW_OP_breg20 -15]
     356 00000035 9649          MOV       *-SP[9],AL            ; [CPU_] |149| 
     357 00000036 A048          MOVL      *-SP[8],XAR5          ; [CPU_] |149| 
     358 00000037 A846          MOVL      *-SP[6],XAR4          ; [CPU_] |149| 
     359                      .dwpsn  file "C:/Users/a0221343/Git/bootROM/f28004x_bootrom/F28004x_ROM_dev_PG2.0/F28004x_ROM/bootROM
     360 00000038 0200          MOVB      ACC,#0                ; [CPU_] |151| 
     361 00000039 1E4C          MOVL      *-SP[12],ACC          ; [CPU_] |151| 
     362                      .dwpsn  file "C:/Users/a0221343/Git/bootROM/f28004x_bootrom/F28004x_ROM_dev_PG2.0/F28004x_ROM/bootROM
     363 0000003a 1E4E          MOVL      *-SP[14],ACC          ; [CPU_] |152| 
TMS320C2000 Assembler PC v6.4.4 Tue Feb 14 14:42:40 2017

Tools Copyright (c) 1996-2015 Texas Instruments Incorporated
C:\Users\a0221343\AppData\Local\Temp\0584010                         PAGE    9

     364                      .dwpsn  file "C:/Users/a0221343/Git/bootROM/f28004x_bootrom/F28004x_ROM_dev_PG2.0/F28004x_ROM/bootROM
     365 0000003b 2B4F          MOV       *-SP[15],#0           ; [CPU_] |153| 
     366                      .dwpsn  file "C:/Users/a0221343/Git/bootROM/f28004x_bootrom/F28004x_ROM_dev_PG2.0/F28004x_ROM/bootROM
     367 0000003c BE00          MOVB      XAR6,#0               ; [CPU_] |155| 
     368 0000003d 0232          MOVB      ACC,#50               ; [CPU_] |155| 
     369 0000003e 0746          ADDL      ACC,*-SP[6]           ; [CPU_] |155| 
     370 0000003f 8AA9          MOVL      XAR4,ACC              ; [CPU_] |155| 
     371 00000040 C2C4          MOVL      *+XAR4[0],XAR6        ; [CPU_] |155| 
     372                      .dwpsn  file "C:/Users/a0221343/Git/bootROM/f28004x_bootrom/F28004x_ROM_dev_PG2.0/F28004x_ROM/bootROM
     373 00000041 0234          MOVB      ACC,#52               ; [CPU_] |156| 
     374 00000042 0746          ADDL      ACC,*-SP[6]           ; [CPU_] |156| 
     375 00000043 8AA9          MOVL      XAR4,ACC              ; [CPU_] |156| 
     376 00000044 C2C4          MOVL      *+XAR4[0],XAR6        ; [CPU_] |156| 
     377                      .dwpsn  file "C:/Users/a0221343/Git/bootROM/f28004x_bootrom/F28004x_ROM_dev_PG2.0/F28004x_ROM/bootROM
     378 00000045 0238          MOVB      ACC,#56               ; [CPU_] |157| 
     379 00000046 0746          ADDL      ACC,*-SP[6]           ; [CPU_] |157| 
     380 00000047 8AA9          MOVL      XAR4,ACC              ; [CPU_] |157| 
     381 00000048 C2C4          MOVL      *+XAR4[0],XAR6        ; [CPU_] |157| 
     382                      .dwpsn  file "C:/Users/a0221343/Git/bootROM/f28004x_bootrom/F28004x_ROM_dev_PG2.0/F28004x_ROM/bootROM
     383 00000049 0236          MOVB      ACC,#54               ; [CPU_] |158| 
     384 0000004a 0746          ADDL      ACC,*-SP[6]           ; [CPU_] |158| 
     385 0000004b 8AA9          MOVL      XAR4,ACC              ; [CPU_] |158| 
     386 0000004c C2C4          MOVL      *+XAR4[0],XAR6        ; [CPU_] |158| 
     387                      .dwpsn  file "C:/Users/a0221343/Git/bootROM/f28004x_bootrom/F28004x_ROM_dev_PG2.0/F28004x_ROM/bootROM
     388 0000004d 023A          MOVB      ACC,#58               ; [CPU_] |160| 
     389 0000004e 0746          ADDL      ACC,*-SP[6]           ; [CPU_] |160| 
     390 0000004f 8AA9          MOVL      XAR4,ACC              ; [CPU_] |160| 
     391 00000050 C2C4          MOVL      *+XAR4[0],XAR6        ; [CPU_] |160| 
     392                      .dwpsn  file "C:/Users/a0221343/Git/bootROM/f28004x_bootrom/F28004x_ROM_dev_PG2.0/F28004x_ROM/bootROM
     393 00000051 023C          MOVB      ACC,#60               ; [CPU_] |161| 
     394 00000052 0746          ADDL      ACC,*-SP[6]           ; [CPU_] |161| 
     395 00000053 8AA9          MOVL      XAR4,ACC              ; [CPU_] |161| 
     396 00000054 C2C4          MOVL      *+XAR4[0],XAR6        ; [CPU_] |161| 
     397                      .dwpsn  file "C:/Users/a0221343/Git/bootROM/f28004x_bootrom/F28004x_ROM_dev_PG2.0/F28004x_ROM/bootROM
     398 00000055 0240          MOVB      ACC,#64               ; [CPU_] |162| 
     399 00000056 0746          ADDL      ACC,*-SP[6]           ; [CPU_] |162| 
     400 00000057 8AA9          MOVL      XAR4,ACC              ; [CPU_] |162| 
     401 00000058 C2C4          MOVL      *+XAR4[0],XAR6        ; [CPU_] |162| 
     402                      .dwpsn  file "C:/Users/a0221343/Git/bootROM/f28004x_bootrom/F28004x_ROM_dev_PG2.0/F28004x_ROM/bootROM
     403 00000059 023E          MOVB      ACC,#62               ; [CPU_] |163| 
     404 0000005a 0746          ADDL      ACC,*-SP[6]           ; [CPU_] |163| 
     405 0000005b 8AA9          MOVL      XAR4,ACC              ; [CPU_] |163| 
     406 0000005c C2C4          MOVL      *+XAR4[0],XAR6        ; [CPU_] |163| 
     407                      .dwpsn  file "C:/Users/a0221343/Git/bootROM/f28004x_bootrom/F28004x_ROM_dev_PG2.0/F28004x_ROM/bootROM
     408 0000005d 8A46          MOVL      XAR4,*-SP[6]          ; [CPU_] |165| 
     409 0000005e 0200          MOVB      ACC,#0                ; [CPU_] |165| 
     410 0000005f 1EC4          MOVL      *+XAR4[0],ACC         ; [CPU_] |165| 
     411                      .dwpsn  file "C:/Users/a0221343/Git/bootROM/f28004x_bootrom/F28004x_ROM_dev_PG2.0/F28004x_ROM/bootROM
     412 00000060 0214          MOVB      ACC,#20               ; [CPU_] |167| 
     413 00000061 0746          ADDL      ACC,*-SP[6]           ; [CPU_] |167| 
     414 00000062 8AA9          MOVL      XAR4,ACC              ; [CPU_] |167| 
     415 00000063 020E          MOVB      ACC,#14               ; [CPU_] |167| 
     416 00000064 C2C4          MOVL      *+XAR4[0],XAR6        ; [CPU_] |167| 
     417 00000065 0746          ADDL      ACC,*-SP[6]           ; [CPU_] |167| 
     418 00000066 8AA9          MOVL      XAR4,ACC              ; [CPU_] |167| 
TMS320C2000 Assembler PC v6.4.4 Tue Feb 14 14:42:40 2017

Tools Copyright (c) 1996-2015 Texas Instruments Incorporated
C:\Users\a0221343\AppData\Local\Temp\0584010                         PAGE   10

     419 00000067 0208          MOVB      ACC,#8                ; [CPU_] |167| 
     420 00000068 C2C4          MOVL      *+XAR4[0],XAR6        ; [CPU_] |167| 
     421 00000069 0746          ADDL      ACC,*-SP[6]           ; [CPU_] |167| 
     422 0000006a 8AA9          MOVL      XAR4,ACC              ; [CPU_] |167| 
     423 0000006b C2C4          MOVL      *+XAR4[0],XAR6        ; [CPU_] |167| 
     424 0000006c 8A46          MOVL      XAR4,*-SP[6]          ; [CPU_] |167| 
     425 0000006d C2D4          MOVL      *+XAR4[2],XAR6        ; [CPU_] |167| 
     426                      .dwpsn  file "C:/Users/a0221343/Git/bootROM/f28004x_bootrom/F28004x_ROM_dev_PG2.0/F28004x_ROM/bootROM
     427 0000006e 022C          MOVB      ACC,#44               ; [CPU_] |168| 
     428 0000006f 0746          ADDL      ACC,*-SP[6]           ; [CPU_] |168| 
     429 00000070 8AA9          MOVL      XAR4,ACC              ; [CPU_] |168| 
     430 00000071 0226          MOVB      ACC,#38               ; [CPU_] |168| 
     431 00000072 C2C4          MOVL      *+XAR4[0],XAR6        ; [CPU_] |168| 
     432 00000073 0746          ADDL      ACC,*-SP[6]           ; [CPU_] |168| 
     433 00000074 8AA9          MOVL      XAR4,ACC              ; [CPU_] |168| 
     434 00000075 0220          MOVB      ACC,#32               ; [CPU_] |168| 
     435 00000076 C2C4          MOVL      *+XAR4[0],XAR6        ; [CPU_] |168| 
     436 00000077 0746          ADDL      ACC,*-SP[6]           ; [CPU_] |168| 
     437 00000078 8AA9          MOVL      XAR4,ACC              ; [CPU_] |168| 
     438 00000079 021A          MOVB      ACC,#26               ; [CPU_] |168| 
     439 0000007a C2C4          MOVL      *+XAR4[0],XAR6        ; [CPU_] |168| 
     440 0000007b 0746          ADDL      ACC,*-SP[6]           ; [CPU_] |168| 
     441 0000007c 8AA9          MOVL      XAR4,ACC              ; [CPU_] |168| 
     442 0000007d C2C4          MOVL      *+XAR4[0],XAR6        ; [CPU_] |168| 
     443                      .dwpsn  file "C:/Users/a0221343/Git/bootROM/f28004x_bootrom/F28004x_ROM_dev_PG2.0/F28004x_ROM/bootROM
     444 0000007e 0216          MOVB      ACC,#22               ; [CPU_] |170| 
     445 0000007f 0746          ADDL      ACC,*-SP[6]           ; [CPU_] |170| 
     446 00000080 8AA9          MOVL      XAR4,ACC              ; [CPU_] |170| 
     447 00000081 0210          MOVB      ACC,#16               ; [CPU_] |170| 
     448 00000082 C2C4          MOVL      *+XAR4[0],XAR6        ; [CPU_] |170| 
     449 00000083 0746          ADDL      ACC,*-SP[6]           ; [CPU_] |170| 
     450 00000084 8AA9          MOVL      XAR4,ACC              ; [CPU_] |170| 
     451 00000085 020A          MOVB      ACC,#10               ; [CPU_] |170| 
     452 00000086 C2C4          MOVL      *+XAR4[0],XAR6        ; [CPU_] |170| 
     453 00000087 0746          ADDL      ACC,*-SP[6]           ; [CPU_] |170| 
     454 00000088 8AA9          MOVL      XAR4,ACC              ; [CPU_] |170| 
     455 00000089 C2C4          MOVL      *+XAR4[0],XAR6        ; [CPU_] |170| 
     456 0000008a 8A46          MOVL      XAR4,*-SP[6]          ; [CPU_] |170| 
     457 0000008b C2E4          MOVL      *+XAR4[4],XAR6        ; [CPU_] |170| 
     458                      .dwpsn  file "C:/Users/a0221343/Git/bootROM/f28004x_bootrom/F28004x_ROM_dev_PG2.0/F28004x_ROM/bootROM
     459 0000008c 022E          MOVB      ACC,#46               ; [CPU_] |171| 
     460 0000008d 0746          ADDL      ACC,*-SP[6]           ; [CPU_] |171| 
     461 0000008e 8AA9          MOVL      XAR4,ACC              ; [CPU_] |171| 
     462 0000008f 0228          MOVB      ACC,#40               ; [CPU_] |171| 
     463 00000090 C2C4          MOVL      *+XAR4[0],XAR6        ; [CPU_] |171| 
     464 00000091 0746          ADDL      ACC,*-SP[6]           ; [CPU_] |171| 
     465 00000092 8AA9          MOVL      XAR4,ACC              ; [CPU_] |171| 
     466 00000093 0222          MOVB      ACC,#34               ; [CPU_] |171| 
     467 00000094 C2C4          MOVL      *+XAR4[0],XAR6        ; [CPU_] |171| 
     468 00000095 0746          ADDL      ACC,*-SP[6]           ; [CPU_] |171| 
     469 00000096 8AA9          MOVL      XAR4,ACC              ; [CPU_] |171| 
     470 00000097 021C          MOVB      ACC,#28               ; [CPU_] |171| 
     471 00000098 C2C4          MOVL      *+XAR4[0],XAR6        ; [CPU_] |171| 
     472 00000099 0746          ADDL      ACC,*-SP[6]           ; [CPU_] |171| 
     473 0000009a 8AA9          MOVL      XAR4,ACC              ; [CPU_] |171| 
TMS320C2000 Assembler PC v6.4.4 Tue Feb 14 14:42:40 2017

Tools Copyright (c) 1996-2015 Texas Instruments Incorporated
C:\Users\a0221343\AppData\Local\Temp\0584010                         PAGE   11

     474 0000009b C2C4          MOVL      *+XAR4[0],XAR6        ; [CPU_] |171| 
     475                      .dwpsn  file "C:/Users/a0221343/Git/bootROM/f28004x_bootrom/F28004x_ROM_dev_PG2.0/F28004x_ROM/bootROM
     476 0000009c 0218          MOVB      ACC,#24               ; [CPU_] |173| 
     477 0000009d 0746          ADDL      ACC,*-SP[6]           ; [CPU_] |173| 
     478 0000009e 8AA9          MOVL      XAR4,ACC              ; [CPU_] |173| 
     479 0000009f 0212          MOVB      ACC,#18               ; [CPU_] |173| 
     480 000000a0 C2C4          MOVL      *+XAR4[0],XAR6        ; [CPU_] |173| 
     481 000000a1 0746          ADDL      ACC,*-SP[6]           ; [CPU_] |173| 
     482 000000a2 8AA9          MOVL      XAR4,ACC              ; [CPU_] |173| 
     483 000000a3 020C          MOVB      ACC,#12               ; [CPU_] |173| 
     484 000000a4 C2C4          MOVL      *+XAR4[0],XAR6        ; [CPU_] |173| 
     485 000000a5 0746          ADDL      ACC,*-SP[6]           ; [CPU_] |173| 
     486 000000a6 8AA9          MOVL      XAR4,ACC              ; [CPU_] |173| 
     487 000000a7 C2C4          MOVL      *+XAR4[0],XAR6        ; [CPU_] |173| 
     488 000000a8 8A46          MOVL      XAR4,*-SP[6]          ; [CPU_] |173| 
     489 000000a9 C2F4          MOVL      *+XAR4[6],XAR6        ; [CPU_] |173| 
     490                      .dwpsn  file "C:/Users/a0221343/Git/bootROM/f28004x_bootrom/F28004x_ROM_dev_PG2.0/F28004x_ROM/bootROM
     491 000000aa 0230          MOVB      ACC,#48               ; [CPU_] |174| 
     492 000000ab 0746          ADDL      ACC,*-SP[6]           ; [CPU_] |174| 
     493 000000ac 8AA9          MOVL      XAR4,ACC              ; [CPU_] |174| 
     494 000000ad 022A          MOVB      ACC,#42               ; [CPU_] |174| 
     495 000000ae C2C4          MOVL      *+XAR4[0],XAR6        ; [CPU_] |174| 
     496 000000af 0746          ADDL      ACC,*-SP[6]           ; [CPU_] |174| 
     497 000000b0 8AA9          MOVL      XAR4,ACC              ; [CPU_] |174| 
     498 000000b1 0224          MOVB      ACC,#36               ; [CPU_] |174| 
     499 000000b2 C2C4          MOVL      *+XAR4[0],XAR6        ; [CPU_] |174| 
     500 000000b3 0746          ADDL      ACC,*-SP[6]           ; [CPU_] |174| 
     501 000000b4 8AA9          MOVL      XAR4,ACC              ; [CPU_] |174| 
     502 000000b5 021E          MOVB      ACC,#30               ; [CPU_] |174| 
     503 000000b6 C2C4          MOVL      *+XAR4[0],XAR6        ; [CPU_] |174| 
     504 000000b7 0746          ADDL      ACC,*-SP[6]           ; [CPU_] |174| 
     505 000000b8 8AA9          MOVL      XAR4,ACC              ; [CPU_] |174| 
     506 000000b9 C2C4          MOVL      *+XAR4[0],XAR6        ; [CPU_] |174| 
     507                      .dwpsn  file "C:/Users/a0221343/Git/bootROM/f28004x_bootrom/F28004x_ROM_dev_PG2.0/F28004x_ROM/bootROM
     508 000000ba 2B4A          MOV       *-SP[10],#0           ; [CPU_] |176| 
     509                      .dwpsn  file "C:/Users/a0221343/Git/bootROM/f28004x_bootrom/F28004x_ROM_dev_PG2.0/F28004x_ROM/bootROM
     510 000000bb 9249          MOV       AL,*-SP[9]            ; [CPU_] |176| 
     511 000000bc 544A          CMP       AL,*-SP[10]           ; [CPU_] |176| 
     512 000000bd 56C9          BF        $C$L11,LOS            ; [CPU_] |176| 
         000000be 002C 
     513                      ; branchcc occurs ; [] |176| 
     514 000000bf       $C$L8:    
     515                      .dwpsn  file "C:/Users/a0221343/Git/bootROM/f28004x_bootrom/F28004x_ROM_dev_PG2.0/F28004x_ROM/bootROM
     516 000000bf 28AC          MOV       T,#6                  ; [CPU_] |177| 
         000000c0 0006 
     517 000000c1 304A          MPYXU     ACC,T,*-SP[10]        ; [CPU_] |177| 
     518 000000c2 0748          ADDL      ACC,*-SP[8]           ; [CPU_] |177| 
     519 000000c3 1E4E          MOVL      *-SP[14],ACC          ; [CPU_] |177| 
     520                      .dwpsn  file "C:/Users/a0221343/Git/bootROM/f28004x_bootrom/F28004x_ROM_dev_PG2.0/F28004x_ROM/bootROM
     521 000000c4 8A4E          MOVL      XAR4,*-SP[14]         ; [CPU_] |178| 
     522 000000c5 92E4          MOV       AL,*+XAR4[4]          ; [CPU_] |178| 
     523 000000c6 ED11          BF        $C$L9,NEQ             ; [CPU_] |178| 
     524                      ; branchcc occurs ; [] |178| 
     525                      .dwpsn  file "C:/Users/a0221343/Git/bootROM/f28004x_bootrom/F28004x_ROM_dev_PG2.0/F28004x_ROM/bootROM
     526 000000c7 06D4          MOVL      ACC,*+XAR4[2]         ; [CPU_] |180| 
TMS320C2000 Assembler PC v6.4.4 Tue Feb 14 14:42:40 2017

Tools Copyright (c) 1996-2015 Texas Instruments Incorporated
C:\Users\a0221343\AppData\Local\Temp\0584010                         PAGE   12

     527 000000c8 1E42          MOVL      *-SP[2],ACC           ; [CPU_] |180| 
     528 000000c9 8A4E          MOVL      XAR4,*-SP[14]         ; [CPU_] |180| 
     529 000000ca 06C4          MOVL      ACC,*+XAR4[0]         ; [CPU_] |180| 
     530              $C$DW$23        .dwtag  DW_TAG_TI_branch
     531                      .dwattr $C$DW$23, DW_AT_low_pc(0x00)
     532                      .dwattr $C$DW$23, DW_AT_name("_test_reserved_memory")
     533                      .dwattr $C$DW$23, DW_AT_TI_call
     534 000000cb 7640+         LCR       #_test_reserved_memory ; [CPU_] |180| 
         000000cc 0000 
     535                      ; call occurs [#_test_reserved_memory] ; [] |180| 
     536 000000cd 964F          MOV       *-SP[15],AL           ; [CPU_] |180| 
     537                      .dwpsn  file "C:/Users/a0221343/Git/bootROM/f28004x_bootrom/F28004x_ROM_dev_PG2.0/F28004x_ROM/bootROM
     538 000000ce 884F          MOVZ      AR6,*-SP[15]          ; [CPU_] |181| 
     539 000000cf 8F00          MOVL      XAR4,#65535           ; [CPU_U] |181| 
         000000d0 FFFF 
     540 000000d1 A8A9          MOVL      ACC,XAR4              ; [CPU_] |181| 
     541 000000d2 0FA6          CMPL      ACC,XAR6              ; [CPU_] |181| 
     542 000000d3 ED11          BF        $C$L10,NEQ            ; [CPU_] |181| 
     543                      ; branchcc occurs ; [] |181| 
     544                      .dwpsn  file "C:/Users/a0221343/Git/bootROM/f28004x_bootrom/F28004x_ROM_dev_PG2.0/F28004x_ROM/bootROM
     545 000000d4 28A9          MOV       AL,#65535             ; [CPU_] |182| 
         000000d5 FFFF 
     546 000000d6 6F14          B         $C$L12,UNC            ; [CPU_] |182| 
     547                      ; branch occurs ; [] |182| 
     548 000000d7       $C$L9:    
     549                      .dwpsn  file "C:/Users/a0221343/Git/bootROM/f28004x_bootrom/F28004x_ROM_dev_PG2.0/F28004x_ROM/bootROM
     550 000000d7 92E4          MOV       AL,*+XAR4[4]          ; [CPU_] |184| 
     551 000000d8 5201          CMPB      AL,#1                 ; [CPU_] |184| 
     552 000000d9 ED0B          BF        $C$L10,NEQ            ; [CPU_] |184| 
     553                      ; branchcc occurs ; [] |184| 
     554                      .dwpsn  file "C:/Users/a0221343/Git/bootROM/f28004x_bootrom/F28004x_ROM_dev_PG2.0/F28004x_ROM/bootROM
     555 000000da 06D4          MOVL      ACC,*+XAR4[2]         ; [CPU_] |186| 
     556 000000db 1E42          MOVL      *-SP[2],ACC           ; [CPU_] |186| 
     557 000000dc 064C          MOVL      ACC,*-SP[12]          ; [CPU_] |186| 
     558 000000dd 1E44          MOVL      *-SP[4],ACC           ; [CPU_] |186| 
     559 000000de 8A4E          MOVL      XAR4,*-SP[14]         ; [CPU_] |186| 
     560 000000df 06C4          MOVL      ACC,*+XAR4[0]         ; [CPU_] |186| 
     561 000000e0 8A46          MOVL      XAR4,*-SP[6]          ; [CPU_] |186| 
     562              $C$DW$24        .dwtag  DW_TAG_TI_branch
     563                      .dwattr $C$DW$24, DW_AT_low_pc(0x00)
     564                      .dwattr $C$DW$24, DW_AT_name("_calculate_checksum")
     565                      .dwattr $C$DW$24, DW_AT_TI_call
     566 000000e1 7640+         LCR       #_calculate_checksum  ; [CPU_] |186| 
         000000e2 0279 
     567                      ; call occurs [#_calculate_checksum] ; [] |186| 
     568 000000e3 1E4C          MOVL      *-SP[12],ACC          ; [CPU_] |186| 
     569 000000e4       $C$L10:    
     570                      .dwpsn  file "C:/Users/a0221343/Git/bootROM/f28004x_bootrom/F28004x_ROM_dev_PG2.0/F28004x_ROM/bootROM
     571 000000e4 0A4A          INC       *-SP[10]              ; [CPU_] |176| 
     572                      .dwpsn  file "C:/Users/a0221343/Git/bootROM/f28004x_bootrom/F28004x_ROM_dev_PG2.0/F28004x_ROM/bootROM
     573 000000e5 9249          MOV       AL,*-SP[9]            ; [CPU_] |176| 
     574 000000e6 544A          CMP       AL,*-SP[10]           ; [CPU_] |176| 
     575 000000e7 56C6          BF        $C$L8,HI              ; [CPU_] |176| 
         000000e8 FFD8 
     576                      ; branchcc occurs ; [] |176| 
TMS320C2000 Assembler PC v6.4.4 Tue Feb 14 14:42:40 2017

Tools Copyright (c) 1996-2015 Texas Instruments Incorporated
C:\Users\a0221343\AppData\Local\Temp\0584010                         PAGE   13

     577 000000e9       $C$L11:    
     578                      .dwpsn  file "C:/Users/a0221343/Git/bootROM/f28004x_bootrom/F28004x_ROM_dev_PG2.0/F28004x_ROM/bootROM
     579 000000e9 9A00          MOVB      AL,#0                 ; [CPU_] |189| 
     580 000000ea       $C$L12:    
     581                      .dwpsn  file "C:/Users/a0221343/Git/bootROM/f28004x_bootrom/F28004x_ROM_dev_PG2.0/F28004x_ROM/bootROM
     582 000000ea FE90          SUBB      SP,#16                ; [CPU_U] 
     583                      .dwcfi  cfa_offset, -2
     584              $C$DW$25        .dwtag  DW_TAG_TI_branch
     585                      .dwattr $C$DW$25, DW_AT_low_pc(0x00)
     586                      .dwattr $C$DW$25, DW_AT_TI_return
     587 000000eb 0006          LRETR     ; [CPU_] 
     588                      ; return occurs ; [] 
     589                      .dwattr $C$DW$12, DW_AT_TI_end_file("C:/Users/a0221343/Git/bootROM/f28004x_bootrom/F28004x_ROM_dev_PG
     590                      .dwattr $C$DW$12, DW_AT_TI_end_line(0xbe)
     591                      .dwattr $C$DW$12, DW_AT_TI_end_column(0x01)
     592                      .dwendentry
     593                      .dwendtag $C$DW$12
     594              
     595 000000ec               .sect   ".CKSUMFUNCS"
     596                      .clink
     597                      .global _add_to_factorial_sum
     598              
     599              $C$DW$26        .dwtag  DW_TAG_subprogram, DW_AT_name("add_to_factorial_sum")
     600                      .dwattr $C$DW$26, DW_AT_low_pc(_add_to_factorial_sum)
     601                      .dwattr $C$DW$26, DW_AT_high_pc(0x00)
     602                      .dwattr $C$DW$26, DW_AT_TI_symbol_name("_add_to_factorial_sum")
     603                      .dwattr $C$DW$26, DW_AT_external
     604                      .dwattr $C$DW$26, DW_AT_TI_begin_file("C:/Users/a0221343/Git/bootROM/f28004x_bootrom/F28004x_ROM_dev_
     605                      .dwattr $C$DW$26, DW_AT_TI_begin_line(0xc1)
     606                      .dwattr $C$DW$26, DW_AT_TI_begin_column(0x06)
     607                      .dwattr $C$DW$26, DW_AT_TI_max_frame_size(-6)
     608                      .dwpsn  file "C:/Users/a0221343/Git/bootROM/f28004x_bootrom/F28004x_ROM_dev_PG2.0/F28004x_ROM/bootROM
     609              
     610                      .dwfde $C$DW$CIE, _add_to_factorial_sum
     611              $C$DW$27        .dwtag  DW_TAG_formal_parameter, DW_AT_name("fact_weight")
     612                      .dwattr $C$DW$27, DW_AT_TI_symbol_name("_fact_weight")
     613                      .dwattr $C$DW$27, DW_AT_type(*$C$DW$T$13)
     614                      .dwattr $C$DW$27, DW_AT_location[DW_OP_reg0]
     615              $C$DW$28        .dwtag  DW_TAG_formal_parameter, DW_AT_name("cksum")
     616                      .dwattr $C$DW$28, DW_AT_TI_symbol_name("_cksum")
     617                      .dwattr $C$DW$28, DW_AT_type(*$C$DW$T$32)
     618                      .dwattr $C$DW$28, DW_AT_location[DW_OP_reg12]
     619              
     620              ;***************************************************************
     621              ;* FNAME: _add_to_factorial_sum         FR SIZE:   4           *
     622              ;*                                                             *
     623              ;* FUNCTION ENVIRONMENT                                        *
     624              ;*                                                             *
     625              ;* FUNCTION PROPERTIES                                         *
     626              ;*                            0 Parameter,  4 Auto,  0 SOE     *
     627              ;***************************************************************
     628              
     629 000000ec       _add_to_factorial_sum:
     630                      .dwcfi  cfa_offset, -2
     631                      .dwcfi  save_reg_to_mem, 26, 0
TMS320C2000 Assembler PC v6.4.4 Tue Feb 14 14:42:40 2017

Tools Copyright (c) 1996-2015 Texas Instruments Incorporated
C:\Users\a0221343\AppData\Local\Temp\0584010                         PAGE   14

     632 000000ec FE04          ADDB      SP,#4                 ; [CPU_U] 
     633                      .dwcfi  cfa_offset, -6
     634              $C$DW$29        .dwtag  DW_TAG_variable, DW_AT_name("fact_weight")
     635                      .dwattr $C$DW$29, DW_AT_TI_symbol_name("_fact_weight")
     636                      .dwattr $C$DW$29, DW_AT_type(*$C$DW$T$13)
     637                      .dwattr $C$DW$29, DW_AT_location[DW_OP_breg20 -2]
     638              $C$DW$30        .dwtag  DW_TAG_variable, DW_AT_name("cksum")
     639                      .dwattr $C$DW$30, DW_AT_TI_symbol_name("_cksum")
     640                      .dwattr $C$DW$30, DW_AT_type(*$C$DW$T$32)
     641                      .dwattr $C$DW$30, DW_AT_location[DW_OP_breg20 -4]
     642 000000ed A844          MOVL      *-SP[4],XAR4          ; [CPU_] |194| 
     643 000000ee 1E42          MOVL      *-SP[2],ACC           ; [CPU_] |194| 
     644                      .dwpsn  file "C:/Users/a0221343/Git/bootROM/f28004x_bootrom/F28004x_ROM_dev_PG2.0/F28004x_ROM/bootROM
     645 000000ef 0240          MOVB      ACC,#64               ; [CPU_] |196| 
     646 000000f0 0744          ADDL      ACC,*-SP[4]           ; [CPU_] |196| 
     647 000000f1 8AA9          MOVL      XAR4,ACC              ; [CPU_] |196| 
     648 000000f2 0642          MOVL      ACC,*-SP[2]           ; [CPU_] |196| 
     649 000000f3 9100          ANDB      AH,#0                 ; [CPU_] |196| 
     650 000000f4 5601          ADDL      *+XAR4[0],ACC         ; [CPU_] |196| 
         000000f5 00C4 
     651                      .dwpsn  file "C:/Users/a0221343/Git/bootROM/f28004x_bootrom/F28004x_ROM_dev_PG2.0/F28004x_ROM/bootROM
     652 000000f6 0240          MOVB      ACC,#64               ; [CPU_] |199| 
     653 000000f7 0744          ADDL      ACC,*-SP[4]           ; [CPU_] |199| 
     654 000000f8 83A9          MOVL      XAR5,ACC              ; [CPU_] |199| 
     655 000000f9 8F00          MOVL      XAR4,#65535           ; [CPU_U] |199| 
         000000fa FFFF 
     656 000000fb A8A9          MOVL      ACC,XAR4              ; [CPU_] |199| 
     657 000000fc 0FC5          CMPL      ACC,*+XAR5[0]         ; [CPU_] |199| 
     658 000000fd 56C6          BF        $C$L13,HI             ; [CPU_] |199| 
         000000fe 0011 
     659                      ; branchcc occurs ; [] |199| 
     660                      .dwpsn  file "C:/Users/a0221343/Git/bootROM/f28004x_bootrom/F28004x_ROM_dev_PG2.0/F28004x_ROM/bootROM
     661 000000ff 023E          MOVB      ACC,#62               ; [CPU_] |201| 
     662 00000100 0744          ADDL      ACC,*-SP[4]           ; [CPU_] |201| 
     663 00000101 83A9          MOVL      XAR5,ACC              ; [CPU_] |201| 
     664 00000102 0240          MOVB      ACC,#64               ; [CPU_] |201| 
     665 00000103 0744          ADDL      ACC,*-SP[4]           ; [CPU_] |201| 
     666 00000104 8AA9          MOVL      XAR4,ACC              ; [CPU_] |201| 
     667 00000105 06C4          MOVL      ACC,*+XAR4[0]         ; [CPU_] |201| 
     668 00000106 0EA8          MOVU      ACC,AH                ; [CPU_] |201| 
     669 00000107 5601          ADDL      *+XAR5[0],ACC         ; [CPU_] |201| 
         00000108 00C5 
     670                      .dwpsn  file "C:/Users/a0221343/Git/bootROM/f28004x_bootrom/F28004x_ROM_dev_PG2.0/F28004x_ROM/bootROM
     671 00000109 0240          MOVB      ACC,#64               ; [CPU_] |202| 
     672 0000010a 0744          ADDL      ACC,*-SP[4]           ; [CPU_] |202| 
     673 0000010b 8AA9          MOVL      XAR4,ACC              ; [CPU_] |202| 
     674 0000010c 18CC          AND       *+XAR4[1],#0          ; [CPU_] |202| 
         0000010d 0000 
     675 0000010e       $C$L13:    
     676                      .dwpsn  file "C:/Users/a0221343/Git/bootROM/f28004x_bootrom/F28004x_ROM_dev_PG2.0/F28004x_ROM/bootROM
     677 0000010e 023E          MOVB      ACC,#62               ; [CPU_] |205| 
     678 0000010f 0744          ADDL      ACC,*-SP[4]           ; [CPU_] |205| 
     679 00000110 83A9          MOVL      XAR5,ACC              ; [CPU_] |205| 
     680 00000111 8F00          MOVL      XAR4,#65535           ; [CPU_U] |205| 
         00000112 FFFF 
TMS320C2000 Assembler PC v6.4.4 Tue Feb 14 14:42:40 2017

Tools Copyright (c) 1996-2015 Texas Instruments Incorporated
C:\Users\a0221343\AppData\Local\Temp\0584010                         PAGE   15

     681 00000113 A8A9          MOVL      ACC,XAR4              ; [CPU_] |205| 
     682 00000114 0FC5          CMPL      ACC,*+XAR5[0]         ; [CPU_] |205| 
     683 00000115 56C6          BF        $C$L14,HI             ; [CPU_] |205| 
         00000116 0011 
     684                      ; branchcc occurs ; [] |205| 
     685                      .dwpsn  file "C:/Users/a0221343/Git/bootROM/f28004x_bootrom/F28004x_ROM_dev_PG2.0/F28004x_ROM/bootROM
     686 00000117 023C          MOVB      ACC,#60               ; [CPU_] |207| 
     687 00000118 0744          ADDL      ACC,*-SP[4]           ; [CPU_] |207| 
     688 00000119 83A9          MOVL      XAR5,ACC              ; [CPU_] |207| 
     689 0000011a 023E          MOVB      ACC,#62               ; [CPU_] |207| 
     690 0000011b 0744          ADDL      ACC,*-SP[4]           ; [CPU_] |207| 
     691 0000011c 8AA9          MOVL      XAR4,ACC              ; [CPU_] |207| 
     692 0000011d 06C4          MOVL      ACC,*+XAR4[0]         ; [CPU_] |207| 
     693 0000011e 0EA8          MOVU      ACC,AH                ; [CPU_] |207| 
     694 0000011f 5601          ADDL      *+XAR5[0],ACC         ; [CPU_] |207| 
         00000120 00C5 
     695                      .dwpsn  file "C:/Users/a0221343/Git/bootROM/f28004x_bootrom/F28004x_ROM_dev_PG2.0/F28004x_ROM/bootROM
     696 00000121 023E          MOVB      ACC,#62               ; [CPU_] |208| 
     697 00000122 0744          ADDL      ACC,*-SP[4]           ; [CPU_] |208| 
     698 00000123 8AA9          MOVL      XAR4,ACC              ; [CPU_] |208| 
     699 00000124 18CC          AND       *+XAR4[1],#0          ; [CPU_] |208| 
         00000125 0000 
     700 00000126       $C$L14:    
     701                      .dwpsn  file "C:/Users/a0221343/Git/bootROM/f28004x_bootrom/F28004x_ROM_dev_PG2.0/F28004x_ROM/bootROM
     702 00000126 023C          MOVB      ACC,#60               ; [CPU_] |211| 
     703 00000127 0744          ADDL      ACC,*-SP[4]           ; [CPU_] |211| 
     704 00000128 83A9          MOVL      XAR5,ACC              ; [CPU_] |211| 
     705 00000129 8F00          MOVL      XAR4,#65535           ; [CPU_U] |211| 
         0000012a FFFF 
     706 0000012b A8A9          MOVL      ACC,XAR4              ; [CPU_] |211| 
     707 0000012c 0FC5          CMPL      ACC,*+XAR5[0]         ; [CPU_] |211| 
     708 0000012d 56C6          BF        $C$L15,HI             ; [CPU_] |211| 
         0000012e 0011 
     709                      ; branchcc occurs ; [] |211| 
     710                      .dwpsn  file "C:/Users/a0221343/Git/bootROM/f28004x_bootrom/F28004x_ROM_dev_PG2.0/F28004x_ROM/bootROM
     711 0000012f 023A          MOVB      ACC,#58               ; [CPU_] |213| 
     712 00000130 0744          ADDL      ACC,*-SP[4]           ; [CPU_] |213| 
     713 00000131 83A9          MOVL      XAR5,ACC              ; [CPU_] |213| 
     714 00000132 0240          MOVB      ACC,#64               ; [CPU_] |213| 
     715 00000133 0744          ADDL      ACC,*-SP[4]           ; [CPU_] |213| 
     716 00000134 8AA9          MOVL      XAR4,ACC              ; [CPU_] |213| 
     717 00000135 06C4          MOVL      ACC,*+XAR4[0]         ; [CPU_] |213| 
     718 00000136 0EA8          MOVU      ACC,AH                ; [CPU_] |213| 
     719 00000137 5601          ADDL      *+XAR5[0],ACC         ; [CPU_] |213| 
         00000138 00C5 
     720                      .dwpsn  file "C:/Users/a0221343/Git/bootROM/f28004x_bootrom/F28004x_ROM_dev_PG2.0/F28004x_ROM/bootROM
     721 00000139 023C          MOVB      ACC,#60               ; [CPU_] |214| 
     722 0000013a 0744          ADDL      ACC,*-SP[4]           ; [CPU_] |214| 
     723 0000013b 8AA9          MOVL      XAR4,ACC              ; [CPU_] |214| 
     724 0000013c 18CC          AND       *+XAR4[1],#0          ; [CPU_] |214| 
         0000013d 0000 
     725 0000013e       $C$L15:    
     726                      .dwpsn  file "C:/Users/a0221343/Git/bootROM/f28004x_bootrom/F28004x_ROM_dev_PG2.0/F28004x_ROM/bootROM
     727 0000013e 023E          MOVB      ACC,#62               ; [CPU_] |218| 
     728 0000013f 0744          ADDL      ACC,*-SP[4]           ; [CPU_] |218| 
TMS320C2000 Assembler PC v6.4.4 Tue Feb 14 14:42:40 2017

Tools Copyright (c) 1996-2015 Texas Instruments Incorporated
C:\Users\a0221343\AppData\Local\Temp\0584010                         PAGE   16

     729 00000140 8AA9          MOVL      XAR4,ACC              ; [CPU_] |218| 
     730 00000141 0642          MOVL      ACC,*-SP[2]           ; [CPU_] |218| 
     731 00000142 0EA8          MOVU      ACC,AH                ; [CPU_] |218| 
     732 00000143 5601          ADDL      *+XAR4[0],ACC         ; [CPU_] |218| 
         00000144 00C4 
     733                      .dwpsn  file "C:/Users/a0221343/Git/bootROM/f28004x_bootrom/F28004x_ROM_dev_PG2.0/F28004x_ROM/bootROM
     734 00000145 023E          MOVB      ACC,#62               ; [CPU_] |220| 
     735 00000146 0744          ADDL      ACC,*-SP[4]           ; [CPU_] |220| 
     736 00000147 83A9          MOVL      XAR5,ACC              ; [CPU_] |220| 
     737 00000148 8F00          MOVL      XAR4,#65535           ; [CPU_U] |220| 
         00000149 FFFF 
     738 0000014a A8A9          MOVL      ACC,XAR4              ; [CPU_] |220| 
     739 0000014b 0FC5          CMPL      ACC,*+XAR5[0]         ; [CPU_] |220| 
     740 0000014c 56C6          BF        $C$L16,HI             ; [CPU_] |220| 
         0000014d 0011 
     741                      ; branchcc occurs ; [] |220| 
     742                      .dwpsn  file "C:/Users/a0221343/Git/bootROM/f28004x_bootrom/F28004x_ROM_dev_PG2.0/F28004x_ROM/bootROM
     743 0000014e 023C          MOVB      ACC,#60               ; [CPU_] |222| 
     744 0000014f 0744          ADDL      ACC,*-SP[4]           ; [CPU_] |222| 
     745 00000150 83A9          MOVL      XAR5,ACC              ; [CPU_] |222| 
     746 00000151 023E          MOVB      ACC,#62               ; [CPU_] |222| 
     747 00000152 0744          ADDL      ACC,*-SP[4]           ; [CPU_] |222| 
     748 00000153 8AA9          MOVL      XAR4,ACC              ; [CPU_] |222| 
     749 00000154 06C4          MOVL      ACC,*+XAR4[0]         ; [CPU_] |222| 
     750 00000155 0EA8          MOVU      ACC,AH                ; [CPU_] |222| 
     751 00000156 5601          ADDL      *+XAR5[0],ACC         ; [CPU_] |222| 
         00000157 00C5 
     752                      .dwpsn  file "C:/Users/a0221343/Git/bootROM/f28004x_bootrom/F28004x_ROM_dev_PG2.0/F28004x_ROM/bootROM
     753 00000158 023E          MOVB      ACC,#62               ; [CPU_] |223| 
     754 00000159 0744          ADDL      ACC,*-SP[4]           ; [CPU_] |223| 
     755 0000015a 8AA9          MOVL      XAR4,ACC              ; [CPU_] |223| 
     756 0000015b 18CC          AND       *+XAR4[1],#0          ; [CPU_] |223| 
         0000015c 0000 
     757 0000015d       $C$L16:    
     758                      .dwpsn  file "C:/Users/a0221343/Git/bootROM/f28004x_bootrom/F28004x_ROM_dev_PG2.0/F28004x_ROM/bootROM
     759 0000015d 023C          MOVB      ACC,#60               ; [CPU_] |226| 
     760 0000015e 0744          ADDL      ACC,*-SP[4]           ; [CPU_] |226| 
     761 0000015f 83A9          MOVL      XAR5,ACC              ; [CPU_] |226| 
     762 00000160 8F00          MOVL      XAR4,#65535           ; [CPU_U] |226| 
         00000161 FFFF 
     763 00000162 A8A9          MOVL      ACC,XAR4              ; [CPU_] |226| 
     764 00000163 0FC5          CMPL      ACC,*+XAR5[0]         ; [CPU_] |226| 
     765 00000164 56C6          BF        $C$L17,HI             ; [CPU_] |226| 
         00000165 0011 
     766                      ; branchcc occurs ; [] |226| 
     767                      .dwpsn  file "C:/Users/a0221343/Git/bootROM/f28004x_bootrom/F28004x_ROM_dev_PG2.0/F28004x_ROM/bootROM
     768 00000166 023A          MOVB      ACC,#58               ; [CPU_] |228| 
     769 00000167 0744          ADDL      ACC,*-SP[4]           ; [CPU_] |228| 
     770 00000168 83A9          MOVL      XAR5,ACC              ; [CPU_] |228| 
     771 00000169 0240          MOVB      ACC,#64               ; [CPU_] |228| 
     772 0000016a 0744          ADDL      ACC,*-SP[4]           ; [CPU_] |228| 
     773 0000016b 8AA9          MOVL      XAR4,ACC              ; [CPU_] |228| 
     774 0000016c 06C4          MOVL      ACC,*+XAR4[0]         ; [CPU_] |228| 
     775 0000016d 0EA8          MOVU      ACC,AH                ; [CPU_] |228| 
     776 0000016e 5601          ADDL      *+XAR5[0],ACC         ; [CPU_] |228| 
TMS320C2000 Assembler PC v6.4.4 Tue Feb 14 14:42:40 2017

Tools Copyright (c) 1996-2015 Texas Instruments Incorporated
C:\Users\a0221343\AppData\Local\Temp\0584010                         PAGE   17

         0000016f 00C5 
     777                      .dwpsn  file "C:/Users/a0221343/Git/bootROM/f28004x_bootrom/F28004x_ROM_dev_PG2.0/F28004x_ROM/bootROM
     778 00000170 023C          MOVB      ACC,#60               ; [CPU_] |229| 
     779 00000171 0744          ADDL      ACC,*-SP[4]           ; [CPU_] |229| 
     780 00000172 8AA9          MOVL      XAR4,ACC              ; [CPU_] |229| 
     781 00000173 18CC          AND       *+XAR4[1],#0          ; [CPU_] |229| 
         00000174 0000 
     782                      .dwpsn  file "C:/Users/a0221343/Git/bootROM/f28004x_bootrom/F28004x_ROM_dev_PG2.0/F28004x_ROM/bootROM
     783 00000175       $C$L17:    
     784 00000175 FE84          SUBB      SP,#4                 ; [CPU_U] 
     785                      .dwcfi  cfa_offset, -2
     786              $C$DW$31        .dwtag  DW_TAG_TI_branch
     787                      .dwattr $C$DW$31, DW_AT_low_pc(0x00)
     788                      .dwattr $C$DW$31, DW_AT_TI_return
     789 00000176 0006          LRETR     ; [CPU_] 
     790                      ; return occurs ; [] 
     791                      .dwattr $C$DW$26, DW_AT_TI_end_file("C:/Users/a0221343/Git/bootROM/f28004x_bootrom/F28004x_ROM_dev_PG
     792                      .dwattr $C$DW$26, DW_AT_TI_end_line(0xe7)
     793                      .dwattr $C$DW$26, DW_AT_TI_end_column(0x01)
     794                      .dwendentry
     795                      .dwendtag $C$DW$26
     796              
     797 00000177               .sect   ".CKSUMFUNCS"
     798                      .clink
     799                      .global _add_to_row_weight_sum
     800              
     801              $C$DW$32        .dwtag  DW_TAG_subprogram, DW_AT_name("add_to_row_weight_sum")
     802                      .dwattr $C$DW$32, DW_AT_low_pc(_add_to_row_weight_sum)
     803                      .dwattr $C$DW$32, DW_AT_high_pc(0x00)
     804                      .dwattr $C$DW$32, DW_AT_TI_symbol_name("_add_to_row_weight_sum")
     805                      .dwattr $C$DW$32, DW_AT_external
     806                      .dwattr $C$DW$32, DW_AT_TI_begin_file("C:/Users/a0221343/Git/bootROM/f28004x_bootrom/F28004x_ROM_dev_
     807                      .dwattr $C$DW$32, DW_AT_TI_begin_line(0xe9)
     808                      .dwattr $C$DW$32, DW_AT_TI_begin_column(0x06)
     809                      .dwattr $C$DW$32, DW_AT_TI_max_frame_size(-6)
     810                      .dwpsn  file "C:/Users/a0221343/Git/bootROM/f28004x_bootrom/F28004x_ROM_dev_PG2.0/F28004x_ROM/bootROM
     811              
     812                      .dwfde $C$DW$CIE, _add_to_row_weight_sum
     813              $C$DW$33        .dwtag  DW_TAG_formal_parameter, DW_AT_name("ones_weight")
     814                      .dwattr $C$DW$33, DW_AT_TI_symbol_name("_ones_weight")
     815                      .dwattr $C$DW$33, DW_AT_type(*$C$DW$T$13)
     816                      .dwattr $C$DW$33, DW_AT_location[DW_OP_reg0]
     817              $C$DW$34        .dwtag  DW_TAG_formal_parameter, DW_AT_name("cksum")
     818                      .dwattr $C$DW$34, DW_AT_TI_symbol_name("_cksum")
     819                      .dwattr $C$DW$34, DW_AT_type(*$C$DW$T$32)
     820                      .dwattr $C$DW$34, DW_AT_location[DW_OP_reg12]
     821              
     822              ;***************************************************************
     823              ;* FNAME: _add_to_row_weight_sum        FR SIZE:   4           *
     824              ;*                                                             *
     825              ;* FUNCTION ENVIRONMENT                                        *
     826              ;*                                                             *
     827              ;* FUNCTION PROPERTIES                                         *
     828              ;*                            0 Parameter,  4 Auto,  0 SOE     *
     829              ;***************************************************************
TMS320C2000 Assembler PC v6.4.4 Tue Feb 14 14:42:40 2017

Tools Copyright (c) 1996-2015 Texas Instruments Incorporated
C:\Users\a0221343\AppData\Local\Temp\0584010                         PAGE   18

     830              
     831 00000177       _add_to_row_weight_sum:
     832                      .dwcfi  cfa_offset, -2
     833                      .dwcfi  save_reg_to_mem, 26, 0
     834 00000177 FE04          ADDB      SP,#4                 ; [CPU_U] 
     835                      .dwcfi  cfa_offset, -6
     836              $C$DW$35        .dwtag  DW_TAG_variable, DW_AT_name("ones_weight")
     837                      .dwattr $C$DW$35, DW_AT_TI_symbol_name("_ones_weight")
     838                      .dwattr $C$DW$35, DW_AT_type(*$C$DW$T$13)
     839                      .dwattr $C$DW$35, DW_AT_location[DW_OP_breg20 -2]
     840              $C$DW$36        .dwtag  DW_TAG_variable, DW_AT_name("cksum")
     841                      .dwattr $C$DW$36, DW_AT_TI_symbol_name("_cksum")
     842                      .dwattr $C$DW$36, DW_AT_type(*$C$DW$T$32)
     843                      .dwattr $C$DW$36, DW_AT_location[DW_OP_breg20 -4]
     844 00000178 A844          MOVL      *-SP[4],XAR4          ; [CPU_] |234| 
     845 00000179 1E42          MOVL      *-SP[2],ACC           ; [CPU_] |234| 
     846                      .dwpsn  file "C:/Users/a0221343/Git/bootROM/f28004x_bootrom/F28004x_ROM_dev_PG2.0/F28004x_ROM/bootROM
     847 0000017a 0238          MOVB      ACC,#56               ; [CPU_] |236| 
     848 0000017b 0744          ADDL      ACC,*-SP[4]           ; [CPU_] |236| 
     849 0000017c 8AA9          MOVL      XAR4,ACC              ; [CPU_] |236| 
     850 0000017d 0642          MOVL      ACC,*-SP[2]           ; [CPU_] |236| 
     851 0000017e 9100          ANDB      AH,#0                 ; [CPU_] |236| 
     852 0000017f 5601          ADDL      *+XAR4[0],ACC         ; [CPU_] |236| 
         00000180 00C4 
     853                      .dwpsn  file "C:/Users/a0221343/Git/bootROM/f28004x_bootrom/F28004x_ROM_dev_PG2.0/F28004x_ROM/bootROM
     854 00000181 0238          MOVB      ACC,#56               ; [CPU_] |239| 
     855 00000182 0744          ADDL      ACC,*-SP[4]           ; [CPU_] |239| 
     856 00000183 83A9          MOVL      XAR5,ACC              ; [CPU_] |239| 
     857 00000184 8F00          MOVL      XAR4,#65535           ; [CPU_U] |239| 
         00000185 FFFF 
     858 00000186 A8A9          MOVL      ACC,XAR4              ; [CPU_] |239| 
     859 00000187 0FC5          CMPL      ACC,*+XAR5[0]         ; [CPU_] |239| 
     860 00000188 56C6          BF        $C$L18,HI             ; [CPU_] |239| 
         00000189 0011 
     861                      ; branchcc occurs ; [] |239| 
     862                      .dwpsn  file "C:/Users/a0221343/Git/bootROM/f28004x_bootrom/F28004x_ROM_dev_PG2.0/F28004x_ROM/bootROM
     863 0000018a 0236          MOVB      ACC,#54               ; [CPU_] |241| 
     864 0000018b 0744          ADDL      ACC,*-SP[4]           ; [CPU_] |241| 
     865 0000018c 83A9          MOVL      XAR5,ACC              ; [CPU_] |241| 
     866 0000018d 0238          MOVB      ACC,#56               ; [CPU_] |241| 
     867 0000018e 0744          ADDL      ACC,*-SP[4]           ; [CPU_] |241| 
     868 0000018f 8AA9          MOVL      XAR4,ACC              ; [CPU_] |241| 
     869 00000190 06C4          MOVL      ACC,*+XAR4[0]         ; [CPU_] |241| 
     870 00000191 0EA8          MOVU      ACC,AH                ; [CPU_] |241| 
     871 00000192 5601          ADDL      *+XAR5[0],ACC         ; [CPU_] |241| 
         00000193 00C5 
     872                      .dwpsn  file "C:/Users/a0221343/Git/bootROM/f28004x_bootrom/F28004x_ROM_dev_PG2.0/F28004x_ROM/bootROM
     873 00000194 0238          MOVB      ACC,#56               ; [CPU_] |242| 
     874 00000195 0744          ADDL      ACC,*-SP[4]           ; [CPU_] |242| 
     875 00000196 8AA9          MOVL      XAR4,ACC              ; [CPU_] |242| 
     876 00000197 18CC          AND       *+XAR4[1],#0          ; [CPU_] |242| 
         00000198 0000 
     877 00000199       $C$L18:    
     878                      .dwpsn  file "C:/Users/a0221343/Git/bootROM/f28004x_bootrom/F28004x_ROM_dev_PG2.0/F28004x_ROM/bootROM
     879 00000199 0236          MOVB      ACC,#54               ; [CPU_] |245| 
TMS320C2000 Assembler PC v6.4.4 Tue Feb 14 14:42:40 2017

Tools Copyright (c) 1996-2015 Texas Instruments Incorporated
C:\Users\a0221343\AppData\Local\Temp\0584010                         PAGE   19

     880 0000019a 0744          ADDL      ACC,*-SP[4]           ; [CPU_] |245| 
     881 0000019b 83A9          MOVL      XAR5,ACC              ; [CPU_] |245| 
     882 0000019c 8F00          MOVL      XAR4,#65535           ; [CPU_U] |245| 
         0000019d FFFF 
     883 0000019e A8A9          MOVL      ACC,XAR4              ; [CPU_] |245| 
     884 0000019f 0FC5          CMPL      ACC,*+XAR5[0]         ; [CPU_] |245| 
     885 000001a0 56C6          BF        $C$L19,HI             ; [CPU_] |245| 
         000001a1 0011 
     886                      ; branchcc occurs ; [] |245| 
     887                      .dwpsn  file "C:/Users/a0221343/Git/bootROM/f28004x_bootrom/F28004x_ROM_dev_PG2.0/F28004x_ROM/bootROM
     888 000001a2 0234          MOVB      ACC,#52               ; [CPU_] |247| 
     889 000001a3 0744          ADDL      ACC,*-SP[4]           ; [CPU_] |247| 
     890 000001a4 83A9          MOVL      XAR5,ACC              ; [CPU_] |247| 
     891 000001a5 0236          MOVB      ACC,#54               ; [CPU_] |247| 
     892 000001a6 0744          ADDL      ACC,*-SP[4]           ; [CPU_] |247| 
     893 000001a7 8AA9          MOVL      XAR4,ACC              ; [CPU_] |247| 
     894 000001a8 06C4          MOVL      ACC,*+XAR4[0]         ; [CPU_] |247| 
     895 000001a9 0EA8          MOVU      ACC,AH                ; [CPU_] |247| 
     896 000001aa 5601          ADDL      *+XAR5[0],ACC         ; [CPU_] |247| 
         000001ab 00C5 
     897                      .dwpsn  file "C:/Users/a0221343/Git/bootROM/f28004x_bootrom/F28004x_ROM_dev_PG2.0/F28004x_ROM/bootROM
     898 000001ac 0236          MOVB      ACC,#54               ; [CPU_] |248| 
     899 000001ad 0744          ADDL      ACC,*-SP[4]           ; [CPU_] |248| 
     900 000001ae 8AA9          MOVL      XAR4,ACC              ; [CPU_] |248| 
     901 000001af 18CC          AND       *+XAR4[1],#0          ; [CPU_] |248| 
         000001b0 0000 
     902 000001b1       $C$L19:    
     903                      .dwpsn  file "C:/Users/a0221343/Git/bootROM/f28004x_bootrom/F28004x_ROM_dev_PG2.0/F28004x_ROM/bootROM
     904 000001b1 0234          MOVB      ACC,#52               ; [CPU_] |251| 
     905 000001b2 0744          ADDL      ACC,*-SP[4]           ; [CPU_] |251| 
     906 000001b3 83A9          MOVL      XAR5,ACC              ; [CPU_] |251| 
     907 000001b4 8F00          MOVL      XAR4,#65535           ; [CPU_U] |251| 
         000001b5 FFFF 
     908 000001b6 A8A9          MOVL      ACC,XAR4              ; [CPU_] |251| 
     909 000001b7 0FC5          CMPL      ACC,*+XAR5[0]         ; [CPU_] |251| 
     910 000001b8 56C6          BF        $C$L20,HI             ; [CPU_] |251| 
         000001b9 0011 
     911                      ; branchcc occurs ; [] |251| 
     912                      .dwpsn  file "C:/Users/a0221343/Git/bootROM/f28004x_bootrom/F28004x_ROM_dev_PG2.0/F28004x_ROM/bootROM
     913 000001ba 0232          MOVB      ACC,#50               ; [CPU_] |253| 
     914 000001bb 0744          ADDL      ACC,*-SP[4]           ; [CPU_] |253| 
     915 000001bc 83A9          MOVL      XAR5,ACC              ; [CPU_] |253| 
     916 000001bd 0238          MOVB      ACC,#56               ; [CPU_] |253| 
     917 000001be 0744          ADDL      ACC,*-SP[4]           ; [CPU_] |253| 
     918 000001bf 8AA9          MOVL      XAR4,ACC              ; [CPU_] |253| 
     919 000001c0 06C4          MOVL      ACC,*+XAR4[0]         ; [CPU_] |253| 
     920 000001c1 0EA8          MOVU      ACC,AH                ; [CPU_] |253| 
     921 000001c2 5601          ADDL      *+XAR5[0],ACC         ; [CPU_] |253| 
         000001c3 00C5 
     922                      .dwpsn  file "C:/Users/a0221343/Git/bootROM/f28004x_bootrom/F28004x_ROM_dev_PG2.0/F28004x_ROM/bootROM
     923 000001c4 0234          MOVB      ACC,#52               ; [CPU_] |254| 
     924 000001c5 0744          ADDL      ACC,*-SP[4]           ; [CPU_] |254| 
     925 000001c6 8AA9          MOVL      XAR4,ACC              ; [CPU_] |254| 
     926 000001c7 18CC          AND       *+XAR4[1],#0          ; [CPU_] |254| 
         000001c8 0000 
TMS320C2000 Assembler PC v6.4.4 Tue Feb 14 14:42:40 2017

Tools Copyright (c) 1996-2015 Texas Instruments Incorporated
C:\Users\a0221343\AppData\Local\Temp\0584010                         PAGE   20

     927 000001c9       $C$L20:    
     928                      .dwpsn  file "C:/Users/a0221343/Git/bootROM/f28004x_bootrom/F28004x_ROM_dev_PG2.0/F28004x_ROM/bootROM
     929 000001c9 0236          MOVB      ACC,#54               ; [CPU_] |258| 
     930 000001ca 0744          ADDL      ACC,*-SP[4]           ; [CPU_] |258| 
     931 000001cb 8AA9          MOVL      XAR4,ACC              ; [CPU_] |258| 
     932 000001cc 0642          MOVL      ACC,*-SP[2]           ; [CPU_] |258| 
     933 000001cd 0EA8          MOVU      ACC,AH                ; [CPU_] |258| 
     934 000001ce 5601          ADDL      *+XAR4[0],ACC         ; [CPU_] |258| 
         000001cf 00C4 
     935                      .dwpsn  file "C:/Users/a0221343/Git/bootROM/f28004x_bootrom/F28004x_ROM_dev_PG2.0/F28004x_ROM/bootROM
     936 000001d0 0236          MOVB      ACC,#54               ; [CPU_] |260| 
     937 000001d1 0744          ADDL      ACC,*-SP[4]           ; [CPU_] |260| 
     938 000001d2 83A9          MOVL      XAR5,ACC              ; [CPU_] |260| 
     939 000001d3 8F00          MOVL      XAR4,#65535           ; [CPU_U] |260| 
         000001d4 FFFF 
     940 000001d5 A8A9          MOVL      ACC,XAR4              ; [CPU_] |260| 
     941 000001d6 0FC5          CMPL      ACC,*+XAR5[0]         ; [CPU_] |260| 
     942 000001d7 56C6          BF        $C$L21,HI             ; [CPU_] |260| 
         000001d8 0011 
     943                      ; branchcc occurs ; [] |260| 
     944                      .dwpsn  file "C:/Users/a0221343/Git/bootROM/f28004x_bootrom/F28004x_ROM_dev_PG2.0/F28004x_ROM/bootROM
     945 000001d9 0234          MOVB      ACC,#52               ; [CPU_] |262| 
     946 000001da 0744          ADDL      ACC,*-SP[4]           ; [CPU_] |262| 
     947 000001db 83A9          MOVL      XAR5,ACC              ; [CPU_] |262| 
     948 000001dc 0236          MOVB      ACC,#54               ; [CPU_] |262| 
     949 000001dd 0744          ADDL      ACC,*-SP[4]           ; [CPU_] |262| 
     950 000001de 8AA9          MOVL      XAR4,ACC              ; [CPU_] |262| 
     951 000001df 06C4          MOVL      ACC,*+XAR4[0]         ; [CPU_] |262| 
     952 000001e0 0EA8          MOVU      ACC,AH                ; [CPU_] |262| 
     953 000001e1 5601          ADDL      *+XAR5[0],ACC         ; [CPU_] |262| 
         000001e2 00C5 
     954                      .dwpsn  file "C:/Users/a0221343/Git/bootROM/f28004x_bootrom/F28004x_ROM_dev_PG2.0/F28004x_ROM/bootROM
     955 000001e3 0236          MOVB      ACC,#54               ; [CPU_] |263| 
     956 000001e4 0744          ADDL      ACC,*-SP[4]           ; [CPU_] |263| 
     957 000001e5 8AA9          MOVL      XAR4,ACC              ; [CPU_] |263| 
     958 000001e6 18CC          AND       *+XAR4[1],#0          ; [CPU_] |263| 
         000001e7 0000 
     959 000001e8       $C$L21:    
     960                      .dwpsn  file "C:/Users/a0221343/Git/bootROM/f28004x_bootrom/F28004x_ROM_dev_PG2.0/F28004x_ROM/bootROM
     961 000001e8 0234          MOVB      ACC,#52               ; [CPU_] |266| 
     962 000001e9 0744          ADDL      ACC,*-SP[4]           ; [CPU_] |266| 
     963 000001ea 83A9          MOVL      XAR5,ACC              ; [CPU_] |266| 
     964 000001eb 8F00          MOVL      XAR4,#65535           ; [CPU_U] |266| 
         000001ec FFFF 
     965 000001ed A8A9          MOVL      ACC,XAR4              ; [CPU_] |266| 
     966 000001ee 0FC5          CMPL      ACC,*+XAR5[0]         ; [CPU_] |266| 
     967 000001ef 56C6          BF        $C$L22,HI             ; [CPU_] |266| 
         000001f0 0011 
     968                      ; branchcc occurs ; [] |266| 
     969                      .dwpsn  file "C:/Users/a0221343/Git/bootROM/f28004x_bootrom/F28004x_ROM_dev_PG2.0/F28004x_ROM/bootROM
     970 000001f1 0232          MOVB      ACC,#50               ; [CPU_] |268| 
     971 000001f2 0744          ADDL      ACC,*-SP[4]           ; [CPU_] |268| 
     972 000001f3 83A9          MOVL      XAR5,ACC              ; [CPU_] |268| 
     973 000001f4 0238          MOVB      ACC,#56               ; [CPU_] |268| 
     974 000001f5 0744          ADDL      ACC,*-SP[4]           ; [CPU_] |268| 
TMS320C2000 Assembler PC v6.4.4 Tue Feb 14 14:42:40 2017

Tools Copyright (c) 1996-2015 Texas Instruments Incorporated
C:\Users\a0221343\AppData\Local\Temp\0584010                         PAGE   21

     975 000001f6 8AA9          MOVL      XAR4,ACC              ; [CPU_] |268| 
     976 000001f7 06C4          MOVL      ACC,*+XAR4[0]         ; [CPU_] |268| 
     977 000001f8 0EA8          MOVU      ACC,AH                ; [CPU_] |268| 
     978 000001f9 5601          ADDL      *+XAR5[0],ACC         ; [CPU_] |268| 
         000001fa 00C5 
     979                      .dwpsn  file "C:/Users/a0221343/Git/bootROM/f28004x_bootrom/F28004x_ROM_dev_PG2.0/F28004x_ROM/bootROM
     980 000001fb 0234          MOVB      ACC,#52               ; [CPU_] |269| 
     981 000001fc 0744          ADDL      ACC,*-SP[4]           ; [CPU_] |269| 
     982 000001fd 8AA9          MOVL      XAR4,ACC              ; [CPU_] |269| 
     983 000001fe 18CC          AND       *+XAR4[1],#0          ; [CPU_] |269| 
         000001ff 0000 
     984                      .dwpsn  file "C:/Users/a0221343/Git/bootROM/f28004x_bootrom/F28004x_ROM_dev_PG2.0/F28004x_ROM/bootROM
     985 00000200       $C$L22:    
     986 00000200 FE84          SUBB      SP,#4                 ; [CPU_U] 
     987                      .dwcfi  cfa_offset, -2
     988              $C$DW$37        .dwtag  DW_TAG_TI_branch
     989                      .dwattr $C$DW$37, DW_AT_low_pc(0x00)
     990                      .dwattr $C$DW$37, DW_AT_TI_return
     991 00000201 0006          LRETR     ; [CPU_] 
     992                      ; return occurs ; [] 
     993                      .dwattr $C$DW$32, DW_AT_TI_end_file("C:/Users/a0221343/Git/bootROM/f28004x_bootrom/F28004x_ROM_dev_PG
     994                      .dwattr $C$DW$32, DW_AT_TI_end_line(0x10f)
     995                      .dwattr $C$DW$32, DW_AT_TI_end_column(0x01)
     996                      .dwendentry
     997                      .dwendtag $C$DW$32
     998              
     999 00000202               .sect   ".CKSUMFUNCS"
    1000                      .clink
    1001                      .global _add_to_bitcolumn_checksum
    1002              
    1003              $C$DW$38        .dwtag  DW_TAG_subprogram, DW_AT_name("add_to_bitcolumn_checksum")
    1004                      .dwattr $C$DW$38, DW_AT_low_pc(_add_to_bitcolumn_checksum)
    1005                      .dwattr $C$DW$38, DW_AT_high_pc(0x00)
    1006                      .dwattr $C$DW$38, DW_AT_TI_symbol_name("_add_to_bitcolumn_checksum")
    1007                      .dwattr $C$DW$38, DW_AT_external
    1008                      .dwattr $C$DW$38, DW_AT_type(*$C$DW$T$13)
    1009                      .dwattr $C$DW$38, DW_AT_TI_begin_file("C:/Users/a0221343/Git/bootROM/f28004x_bootrom/F28004x_ROM_dev_
    1010                      .dwattr $C$DW$38, DW_AT_TI_begin_line(0x112)
    1011                      .dwattr $C$DW$38, DW_AT_TI_begin_column(0x0f)
    1012                      .dwattr $C$DW$38, DW_AT_TI_max_frame_size(-6)
    1013                      .dwpsn  file "C:/Users/a0221343/Git/bootROM/f28004x_bootrom/F28004x_ROM_dev_PG2.0/F28004x_ROM/bootROM
    1014              
    1015                      .dwfde $C$DW$CIE, _add_to_bitcolumn_checksum
    1016              $C$DW$39        .dwtag  DW_TAG_formal_parameter, DW_AT_name("bitcolumn")
    1017                      .dwattr $C$DW$39, DW_AT_TI_symbol_name("_bitcolumn")
    1018                      .dwattr $C$DW$39, DW_AT_type(*$C$DW$T$13)
    1019                      .dwattr $C$DW$39, DW_AT_location[DW_OP_reg0]
    1020              $C$DW$40        .dwtag  DW_TAG_formal_parameter, DW_AT_name("bit_weight")
    1021                      .dwattr $C$DW$40, DW_AT_TI_symbol_name("_bit_weight")
    1022                      .dwattr $C$DW$40, DW_AT_type(*$C$DW$T$13)
    1023                      .dwattr $C$DW$40, DW_AT_location[DW_OP_breg20 -8]
    1024              $C$DW$41        .dwtag  DW_TAG_formal_parameter, DW_AT_name("cksum")
    1025                      .dwattr $C$DW$41, DW_AT_TI_symbol_name("_cksum")
    1026                      .dwattr $C$DW$41, DW_AT_type(*$C$DW$T$32)
    1027                      .dwattr $C$DW$41, DW_AT_location[DW_OP_reg12]
TMS320C2000 Assembler PC v6.4.4 Tue Feb 14 14:42:40 2017

Tools Copyright (c) 1996-2015 Texas Instruments Incorporated
C:\Users\a0221343\AppData\Local\Temp\0584010                         PAGE   22

    1028              
    1029              ;***************************************************************
    1030              ;* FNAME: _add_to_bitcolumn_checksum    FR SIZE:   4           *
    1031              ;*                                                             *
    1032              ;* FUNCTION ENVIRONMENT                                        *
    1033              ;*                                                             *
    1034              ;* FUNCTION PROPERTIES                                         *
    1035              ;*                            0 Parameter,  4 Auto,  0 SOE     *
    1036              ;***************************************************************
    1037              
    1038 00000202       _add_to_bitcolumn_checksum:
    1039                      .dwcfi  cfa_offset, -2
    1040                      .dwcfi  save_reg_to_mem, 26, 0
    1041 00000202 FE04          ADDB      SP,#4                 ; [CPU_U] 
    1042                      .dwcfi  cfa_offset, -6
    1043              $C$DW$42        .dwtag  DW_TAG_variable, DW_AT_name("bitcolumn")
    1044                      .dwattr $C$DW$42, DW_AT_TI_symbol_name("_bitcolumn")
    1045                      .dwattr $C$DW$42, DW_AT_type(*$C$DW$T$13)
    1046                      .dwattr $C$DW$42, DW_AT_location[DW_OP_breg20 -2]
    1047              $C$DW$43        .dwtag  DW_TAG_variable, DW_AT_name("cksum")
    1048                      .dwattr $C$DW$43, DW_AT_TI_symbol_name("_cksum")
    1049                      .dwattr $C$DW$43, DW_AT_type(*$C$DW$T$32)
    1050                      .dwattr $C$DW$43, DW_AT_location[DW_OP_breg20 -4]
    1051 00000203 A844          MOVL      *-SP[4],XAR4          ; [CPU_] |275| 
    1052 00000204 1E42          MOVL      *-SP[2],ACC           ; [CPU_] |275| 
    1053                      .dwpsn  file "C:/Users/a0221343/Git/bootROM/f28004x_bootrom/F28004x_ROM_dev_PG2.0/F28004x_ROM/bootROM
    1054 00000205 0206          MOVB      ACC,#6                ; [CPU_] |277| 
    1055 00000206 1EAC          MOVL      XT,ACC                ; [CPU_] |277| 
    1056 00000207 5644          IMPYL     ACC,XT,*-SP[2]        ; [CPU_] |277| 
         00000208 0042 
    1057 00000209 0744          ADDL      ACC,*-SP[4]           ; [CPU_] |277| 
    1058 0000020a 0902          ADDB      ACC,#2                ; [CPU_] |277| 
    1059 0000020b 8AA9          MOVL      XAR4,ACC              ; [CPU_] |277| 
    1060 0000020c 0648          MOVL      ACC,*-SP[8]           ; [CPU_] |277| 
    1061 0000020d 9100          ANDB      AH,#0                 ; [CPU_] |277| 
    1062 0000020e 5601          ADDL      *+XAR4[0],ACC         ; [CPU_] |277| 
         0000020f 00C4 
    1063                      .dwpsn  file "C:/Users/a0221343/Git/bootROM/f28004x_bootrom/F28004x_ROM_dev_PG2.0/F28004x_ROM/bootROM
    1064 00000210 5644          IMPYL     ACC,XT,*-SP[2]        ; [CPU_] |280| 
         00000211 0042 
    1065 00000212 0744          ADDL      ACC,*-SP[4]           ; [CPU_] |280| 
    1066 00000213 83A9          MOVL      XAR5,ACC              ; [CPU_] |280| 
    1067 00000214 8F00          MOVL      XAR4,#65535           ; [CPU_U] |280| 
         00000215 FFFF 
    1068 00000216 A8A9          MOVL      ACC,XAR4              ; [CPU_] |280| 
    1069 00000217 0FD5          CMPL      ACC,*+XAR5[2]         ; [CPU_] |280| 
    1070 00000218 56C6          BF        $C$L23,HI             ; [CPU_] |280| 
         00000219 0016 
    1071                      ; branchcc occurs ; [] |280| 
    1072                      .dwpsn  file "C:/Users/a0221343/Git/bootROM/f28004x_bootrom/F28004x_ROM_dev_PG2.0/F28004x_ROM/bootROM
    1073 0000021a 5644          IMPYL     ACC,XT,*-SP[2]        ; [CPU_] |282| 
         0000021b 0042 
    1074 0000021c 0744          ADDL      ACC,*-SP[4]           ; [CPU_] |282| 
    1075 0000021d 0902          ADDB      ACC,#2                ; [CPU_] |282| 
    1076 0000021e 83A9          MOVL      XAR5,ACC              ; [CPU_] |282| 
TMS320C2000 Assembler PC v6.4.4 Tue Feb 14 14:42:40 2017

Tools Copyright (c) 1996-2015 Texas Instruments Incorporated
C:\Users\a0221343\AppData\Local\Temp\0584010                         PAGE   23

    1077 0000021f 5644          IMPYL     ACC,XT,*-SP[2]        ; [CPU_] |282| 
         00000220 0042 
    1078 00000221 0744          ADDL      ACC,*-SP[4]           ; [CPU_] |282| 
    1079 00000222 8AA9          MOVL      XAR4,ACC              ; [CPU_] |282| 
    1080 00000223 06D4          MOVL      ACC,*+XAR4[2]         ; [CPU_] |282| 
    1081 00000224 0EA8          MOVU      ACC,AH                ; [CPU_] |282| 
    1082 00000225 5601          ADDL      *+XAR5[2],ACC         ; [CPU_] |282| 
         00000226 00D5 
    1083                      .dwpsn  file "C:/Users/a0221343/Git/bootROM/f28004x_bootrom/F28004x_ROM_dev_PG2.0/F28004x_ROM/bootROM
    1084 00000227 5644          IMPYL     ACC,XT,*-SP[2]        ; [CPU_] |283| 
         00000228 0042 
    1085 00000229 0744          ADDL      ACC,*-SP[4]           ; [CPU_] |283| 
    1086 0000022a 0902          ADDB      ACC,#2                ; [CPU_] |283| 
    1087 0000022b 8AA9          MOVL      XAR4,ACC              ; [CPU_] |283| 
    1088 0000022c 18CC          AND       *+XAR4[1],#0          ; [CPU_] |283| 
         0000022d 0000 
    1089 0000022e       $C$L23:    
    1090                      .dwpsn  file "C:/Users/a0221343/Git/bootROM/f28004x_bootrom/F28004x_ROM_dev_PG2.0/F28004x_ROM/bootROM
    1091 0000022e 5644          IMPYL     ACC,XT,*-SP[2]        ; [CPU_] |286| 
         0000022f 0042 
    1092 00000230 0744          ADDL      ACC,*-SP[4]           ; [CPU_] |286| 
    1093 00000231 83A9          MOVL      XAR5,ACC              ; [CPU_] |286| 
    1094 00000232 8F00          MOVL      XAR4,#65535           ; [CPU_U] |286| 
         00000233 FFFF 
    1095 00000234 A8A9          MOVL      ACC,XAR4              ; [CPU_] |286| 
    1096 00000235 0FE5          CMPL      ACC,*+XAR5[4]         ; [CPU_] |286| 
    1097 00000236 56C6          BF        $C$L24,HI             ; [CPU_] |286| 
         00000237 0016 
    1098                      ; branchcc occurs ; [] |286| 
    1099                      .dwpsn  file "C:/Users/a0221343/Git/bootROM/f28004x_bootrom/F28004x_ROM_dev_PG2.0/F28004x_ROM/bootROM
    1100 00000238 5644          IMPYL     ACC,XT,*-SP[2]        ; [CPU_] |288| 
         00000239 0042 
    1101 0000023a 0744          ADDL      ACC,*-SP[4]           ; [CPU_] |288| 
    1102 0000023b 0902          ADDB      ACC,#2                ; [CPU_] |288| 
    1103 0000023c 83A9          MOVL      XAR5,ACC              ; [CPU_] |288| 
    1104 0000023d 5644          IMPYL     ACC,XT,*-SP[2]        ; [CPU_] |288| 
         0000023e 0042 
    1105 0000023f 0744          ADDL      ACC,*-SP[4]           ; [CPU_] |288| 
    1106 00000240 8AA9          MOVL      XAR4,ACC              ; [CPU_] |288| 
    1107 00000241 06E4          MOVL      ACC,*+XAR4[4]         ; [CPU_] |288| 
    1108 00000242 0EA8          MOVU      ACC,AH                ; [CPU_] |288| 
    1109 00000243 5601          ADDL      *+XAR5[4],ACC         ; [CPU_] |288| 
         00000244 00E5 
    1110                      .dwpsn  file "C:/Users/a0221343/Git/bootROM/f28004x_bootrom/F28004x_ROM_dev_PG2.0/F28004x_ROM/bootROM
    1111 00000245 5644          IMPYL     ACC,XT,*-SP[2]        ; [CPU_] |289| 
         00000246 0042 
    1112 00000247 0744          ADDL      ACC,*-SP[4]           ; [CPU_] |289| 
    1113 00000248 0902          ADDB      ACC,#2                ; [CPU_] |289| 
    1114 00000249 8AA9          MOVL      XAR4,ACC              ; [CPU_] |289| 
    1115 0000024a 18DC          AND       *+XAR4[3],#0          ; [CPU_] |289| 
         0000024b 0000 
    1116 0000024c       $C$L24:    
    1117                      .dwpsn  file "C:/Users/a0221343/Git/bootROM/f28004x_bootrom/F28004x_ROM_dev_PG2.0/F28004x_ROM/bootROM
    1118 0000024c 5644          IMPYL     ACC,XT,*-SP[2]        ; [CPU_] |293| 
         0000024d 0042 
TMS320C2000 Assembler PC v6.4.4 Tue Feb 14 14:42:40 2017

Tools Copyright (c) 1996-2015 Texas Instruments Incorporated
C:\Users\a0221343\AppData\Local\Temp\0584010                         PAGE   24

    1119 0000024e 0744          ADDL      ACC,*-SP[4]           ; [CPU_] |293| 
    1120 0000024f 0902          ADDB      ACC,#2                ; [CPU_] |293| 
    1121 00000250 8AA9          MOVL      XAR4,ACC              ; [CPU_] |293| 
    1122 00000251 0648          MOVL      ACC,*-SP[8]           ; [CPU_] |293| 
    1123 00000252 0EA8          MOVU      ACC,AH                ; [CPU_] |293| 
    1124 00000253 5601          ADDL      *+XAR4[2],ACC         ; [CPU_] |293| 
         00000254 00D4 
    1125                      .dwpsn  file "C:/Users/a0221343/Git/bootROM/f28004x_bootrom/F28004x_ROM_dev_PG2.0/F28004x_ROM/bootROM
    1126 00000255 5644          IMPYL     ACC,XT,*-SP[2]        ; [CPU_] |295| 
         00000256 0042 
    1127 00000257 0744          ADDL      ACC,*-SP[4]           ; [CPU_] |295| 
    1128 00000258 83A9          MOVL      XAR5,ACC              ; [CPU_] |295| 
    1129 00000259 8F00          MOVL      XAR4,#65535           ; [CPU_U] |295| 
         0000025a FFFF 
    1130 0000025b A8A9          MOVL      ACC,XAR4              ; [CPU_] |295| 
    1131 0000025c 0FE5          CMPL      ACC,*+XAR5[4]         ; [CPU_] |295| 
    1132 0000025d 56C6          BF        $C$L25,HI             ; [CPU_] |295| 
         0000025e 0016 
    1133                      ; branchcc occurs ; [] |295| 
    1134                      .dwpsn  file "C:/Users/a0221343/Git/bootROM/f28004x_bootrom/F28004x_ROM_dev_PG2.0/F28004x_ROM/bootROM
    1135 0000025f 5644          IMPYL     ACC,XT,*-SP[2]        ; [CPU_] |297| 
         00000260 0042 
    1136 00000261 0744          ADDL      ACC,*-SP[4]           ; [CPU_] |297| 
    1137 00000262 0902          ADDB      ACC,#2                ; [CPU_] |297| 
    1138 00000263 83A9          MOVL      XAR5,ACC              ; [CPU_] |297| 
    1139 00000264 5644          IMPYL     ACC,XT,*-SP[2]        ; [CPU_] |297| 
         00000265 0042 
    1140 00000266 0744          ADDL      ACC,*-SP[4]           ; [CPU_] |297| 
    1141 00000267 8AA9          MOVL      XAR4,ACC              ; [CPU_] |297| 
    1142 00000268 06E4          MOVL      ACC,*+XAR4[4]         ; [CPU_] |297| 
    1143 00000269 0EA8          MOVU      ACC,AH                ; [CPU_] |297| 
    1144 0000026a 5601          ADDL      *+XAR5[4],ACC         ; [CPU_] |297| 
         0000026b 00E5 
    1145                      .dwpsn  file "C:/Users/a0221343/Git/bootROM/f28004x_bootrom/F28004x_ROM_dev_PG2.0/F28004x_ROM/bootROM
    1146 0000026c 5644          IMPYL     ACC,XT,*-SP[2]        ; [CPU_] |298| 
         0000026d 0042 
    1147 0000026e 0744          ADDL      ACC,*-SP[4]           ; [CPU_] |298| 
    1148 0000026f 0902          ADDB      ACC,#2                ; [CPU_] |298| 
    1149 00000270 8AA9          MOVL      XAR4,ACC              ; [CPU_] |298| 
    1150 00000271 18DC          AND       *+XAR4[3],#0          ; [CPU_] |298| 
         00000272 0000 
    1151 00000273       $C$L25:    
    1152                      .dwpsn  file "C:/Users/a0221343/Git/bootROM/f28004x_bootrom/F28004x_ROM_dev_PG2.0/F28004x_ROM/bootROM
    1153 00000273 0648          MOVL      ACC,*-SP[8]           ; [CPU_] |301| 
    1154 00000274 1901          SUBB      ACC,#1                ; [CPU_] |301| 
    1155 00000275 FF32          LSL       ACC,3                 ; [CPU_] |301| 
    1156 00000276 0742          ADDL      ACC,*-SP[2]           ; [CPU_] |301| 
    1157                      .dwpsn  file "C:/Users/a0221343/Git/bootROM/f28004x_bootrom/F28004x_ROM_dev_PG2.0/F28004x_ROM/bootROM
    1158 00000277 FE84          SUBB      SP,#4                 ; [CPU_U] 
    1159                      .dwcfi  cfa_offset, -2
    1160              $C$DW$44        .dwtag  DW_TAG_TI_branch
    1161                      .dwattr $C$DW$44, DW_AT_low_pc(0x00)
    1162                      .dwattr $C$DW$44, DW_AT_TI_return
    1163 00000278 0006          LRETR     ; [CPU_] 
    1164                      ; return occurs ; [] 
TMS320C2000 Assembler PC v6.4.4 Tue Feb 14 14:42:40 2017

Tools Copyright (c) 1996-2015 Texas Instruments Incorporated
C:\Users\a0221343\AppData\Local\Temp\0584010                         PAGE   25

    1165                      .dwattr $C$DW$38, DW_AT_TI_end_file("C:/Users/a0221343/Git/bootROM/f28004x_bootrom/F28004x_ROM_dev_PG
    1166                      .dwattr $C$DW$38, DW_AT_TI_end_line(0x12e)
    1167                      .dwattr $C$DW$38, DW_AT_TI_end_column(0x01)
    1168                      .dwendentry
    1169                      .dwendtag $C$DW$38
    1170              
    1171 00000279               .sect   ".CKSUMFUNCS"
    1172                      .clink
    1173                      .global _calculate_checksum
    1174              
    1175              $C$DW$45        .dwtag  DW_TAG_subprogram, DW_AT_name("calculate_checksum")
    1176                      .dwattr $C$DW$45, DW_AT_low_pc(_calculate_checksum)
    1177                      .dwattr $C$DW$45, DW_AT_high_pc(0x00)
    1178                      .dwattr $C$DW$45, DW_AT_TI_symbol_name("_calculate_checksum")
    1179                      .dwattr $C$DW$45, DW_AT_external
    1180                      .dwattr $C$DW$45, DW_AT_type(*$C$DW$T$13)
    1181                      .dwattr $C$DW$45, DW_AT_TI_begin_file("C:/Users/a0221343/Git/bootROM/f28004x_bootrom/F28004x_ROM_dev_
    1182                      .dwattr $C$DW$45, DW_AT_TI_begin_line(0x130)
    1183                      .dwattr $C$DW$45, DW_AT_TI_begin_column(0x0f)
    1184                      .dwattr $C$DW$45, DW_AT_TI_max_frame_size(-22)
    1185                      .dwpsn  file "C:/Users/a0221343/Git/bootROM/f28004x_bootrom/F28004x_ROM_dev_PG2.0/F28004x_ROM/bootROM
    1186              
    1187                      .dwfde $C$DW$CIE, _calculate_checksum
    1188              $C$DW$46        .dwtag  DW_TAG_formal_parameter, DW_AT_name("start")
    1189                      .dwattr $C$DW$46, DW_AT_TI_symbol_name("_start")
    1190                      .dwattr $C$DW$46, DW_AT_type(*$C$DW$T$13)
    1191                      .dwattr $C$DW$46, DW_AT_location[DW_OP_reg0]
    1192              $C$DW$47        .dwtag  DW_TAG_formal_parameter, DW_AT_name("end")
    1193                      .dwattr $C$DW$47, DW_AT_TI_symbol_name("_end")
    1194                      .dwattr $C$DW$47, DW_AT_type(*$C$DW$T$13)
    1195                      .dwattr $C$DW$47, DW_AT_location[DW_OP_breg20 -24]
    1196              $C$DW$48        .dwtag  DW_TAG_formal_parameter, DW_AT_name("offset")
    1197                      .dwattr $C$DW$48, DW_AT_TI_symbol_name("_offset")
    1198                      .dwattr $C$DW$48, DW_AT_type(*$C$DW$T$13)
    1199                      .dwattr $C$DW$48, DW_AT_location[DW_OP_breg20 -26]
    1200              $C$DW$49        .dwtag  DW_TAG_formal_parameter, DW_AT_name("cksum")
    1201                      .dwattr $C$DW$49, DW_AT_TI_symbol_name("_cksum")
    1202                      .dwattr $C$DW$49, DW_AT_type(*$C$DW$T$32)
    1203                      .dwattr $C$DW$49, DW_AT_location[DW_OP_reg12]
    1204              
    1205              ;***************************************************************
    1206              ;* FNAME: _calculate_checksum           FR SIZE:  20           *
    1207              ;*                                                             *
    1208              ;* FUNCTION ENVIRONMENT                                        *
    1209              ;*                                                             *
    1210              ;* FUNCTION PROPERTIES                                         *
    1211              ;*                            2 Parameter, 17 Auto,  0 SOE     *
    1212              ;***************************************************************
    1213              
    1214 00000279       _calculate_checksum:
    1215                      .dwcfi  cfa_offset, -2
    1216                      .dwcfi  save_reg_to_mem, 26, 0
    1217 00000279 FE14          ADDB      SP,#20                ; [CPU_U] 
    1218                      .dwcfi  cfa_offset, -22
    1219              $C$DW$50        .dwtag  DW_TAG_variable, DW_AT_name("start")
TMS320C2000 Assembler PC v6.4.4 Tue Feb 14 14:42:40 2017

Tools Copyright (c) 1996-2015 Texas Instruments Incorporated
C:\Users\a0221343\AppData\Local\Temp\0584010                         PAGE   26

    1220                      .dwattr $C$DW$50, DW_AT_TI_symbol_name("_start")
    1221                      .dwattr $C$DW$50, DW_AT_type(*$C$DW$T$13)
    1222                      .dwattr $C$DW$50, DW_AT_location[DW_OP_breg20 -4]
    1223              $C$DW$51        .dwtag  DW_TAG_variable, DW_AT_name("cksum")
    1224                      .dwattr $C$DW$51, DW_AT_TI_symbol_name("_cksum")
    1225                      .dwattr $C$DW$51, DW_AT_type(*$C$DW$T$32)
    1226                      .dwattr $C$DW$51, DW_AT_location[DW_OP_breg20 -6]
    1227              $C$DW$52        .dwtag  DW_TAG_variable, DW_AT_name("data")
    1228                      .dwattr $C$DW$52, DW_AT_TI_symbol_name("_data")
    1229                      .dwattr $C$DW$52, DW_AT_type(*$C$DW$T$44)
    1230                      .dwattr $C$DW$52, DW_AT_location[DW_OP_breg20 -7]
    1231              $C$DW$53        .dwtag  DW_TAG_variable, DW_AT_name("byte_value")
    1232                      .dwattr $C$DW$53, DW_AT_TI_symbol_name("_byte_value")
    1233                      .dwattr $C$DW$53, DW_AT_type(*$C$DW$T$44)
    1234                      .dwattr $C$DW$53, DW_AT_location[DW_OP_breg20 -8]
    1235              $C$DW$54        .dwtag  DW_TAG_variable, DW_AT_name("byte_count")
    1236                      .dwattr $C$DW$54, DW_AT_TI_symbol_name("_byte_count")
    1237                      .dwattr $C$DW$54, DW_AT_type(*$C$DW$T$44)
    1238                      .dwattr $C$DW$54, DW_AT_location[DW_OP_breg20 -9]
    1239              $C$DW$55        .dwtag  DW_TAG_variable, DW_AT_name("byte_offset")
    1240                      .dwattr $C$DW$55, DW_AT_TI_symbol_name("_byte_offset")
    1241                      .dwattr $C$DW$55, DW_AT_type(*$C$DW$T$57)
    1242                      .dwattr $C$DW$55, DW_AT_location[DW_OP_breg20 -12]
    1243              $C$DW$56        .dwtag  DW_TAG_variable, DW_AT_name("ones_weight")
    1244                      .dwattr $C$DW$56, DW_AT_TI_symbol_name("_ones_weight")
    1245                      .dwattr $C$DW$56, DW_AT_type(*$C$DW$T$57)
    1246                      .dwattr $C$DW$56, DW_AT_location[DW_OP_breg20 -14]
    1247              $C$DW$57        .dwtag  DW_TAG_variable, DW_AT_name("ones_fact_weight")
    1248                      .dwattr $C$DW$57, DW_AT_TI_symbol_name("_ones_fact_weight")
    1249                      .dwattr $C$DW$57, DW_AT_type(*$C$DW$T$57)
    1250                      .dwattr $C$DW$57, DW_AT_location[DW_OP_breg20 -16]
    1251              $C$DW$58        .dwtag  DW_TAG_variable, DW_AT_name("nibble_count")
    1252                      .dwattr $C$DW$58, DW_AT_TI_symbol_name("_nibble_count")
    1253                      .dwattr $C$DW$58, DW_AT_type(*$C$DW$T$57)
    1254                      .dwattr $C$DW$58, DW_AT_location[DW_OP_breg20 -18]
    1255              $C$DW$59        .dwtag  DW_TAG_variable, DW_AT_name("nibble_offset")
    1256                      .dwattr $C$DW$59, DW_AT_TI_symbol_name("_nibble_offset")
    1257                      .dwattr $C$DW$59, DW_AT_type(*$C$DW$T$47)
    1258                      .dwattr $C$DW$59, DW_AT_location[DW_OP_breg20 -19]
    1259 0000027a A846          MOVL      *-SP[6],XAR4          ; [CPU_] |305| 
    1260 0000027b 1E44          MOVL      *-SP[4],ACC           ; [CPU_] |305| 
    1261                      .dwpsn  file "C:/Users/a0221343/Git/bootROM/f28004x_bootrom/F28004x_ROM_dev_PG2.0/F28004x_ROM/bootROM
    1262 0000027c 2B47          MOV       *-SP[7],#0            ; [CPU_] |306| 
    1263                      .dwpsn  file "C:/Users/a0221343/Git/bootROM/f28004x_bootrom/F28004x_ROM_dev_PG2.0/F28004x_ROM/bootROM
    1264 0000027d 2B48          MOV       *-SP[8],#0            ; [CPU_] |307| 
    1265                      .dwpsn  file "C:/Users/a0221343/Git/bootROM/f28004x_bootrom/F28004x_ROM_dev_PG2.0/F28004x_ROM/bootROM
    1266 0000027e 2B49          MOV       *-SP[9],#0            ; [CPU_] |308| 
    1267                      .dwpsn  file "C:/Users/a0221343/Git/bootROM/f28004x_bootrom/F28004x_ROM_dev_PG2.0/F28004x_ROM/bootROM
    1268 0000027f 0200          MOVB      ACC,#0                ; [CPU_] |309| 
    1269 00000280 1E4C          MOVL      *-SP[12],ACC          ; [CPU_] |309| 
    1270                      .dwpsn  file "C:/Users/a0221343/Git/bootROM/f28004x_bootrom/F28004x_ROM_dev_PG2.0/F28004x_ROM/bootROM
    1271 00000281 1E4E          MOVL      *-SP[14],ACC          ; [CPU_] |310| 
    1272                      .dwpsn  file "C:/Users/a0221343/Git/bootROM/f28004x_bootrom/F28004x_ROM_dev_PG2.0/F28004x_ROM/bootROM
    1273 00000282 1E50          MOVL      *-SP[16],ACC          ; [CPU_] |311| 
    1274                      .dwpsn  file "C:/Users/a0221343/Git/bootROM/f28004x_bootrom/F28004x_ROM_dev_PG2.0/F28004x_ROM/bootROM
TMS320C2000 Assembler PC v6.4.4 Tue Feb 14 14:42:40 2017

Tools Copyright (c) 1996-2015 Texas Instruments Incorporated
C:\Users\a0221343\AppData\Local\Temp\0584010                         PAGE   27

    1275 00000283 1E52          MOVL      *-SP[18],ACC          ; [CPU_] |312| 
    1276                      .dwpsn  file "C:/Users/a0221343/Git/bootROM/f28004x_bootrom/F28004x_ROM_dev_PG2.0/F28004x_ROM/bootROM
    1277 00000284 2B53          MOV       *-SP[19],#0           ; [CPU_] |313| 
    1278                      .dwpsn  file "C:/Users/a0221343/Git/bootROM/f28004x_bootrom/F28004x_ROM_dev_PG2.0/F28004x_ROM/bootROM
    1279 00000285 0658          MOVL      ACC,*-SP[24]          ; [CPU_] |315| 
    1280 00000286 0F44          CMPL      ACC,*-SP[4]           ; [CPU_] |315| 
    1281 00000287 56C8          BF        $C$L48,LO             ; [CPU_] |315| 
         00000288 02FE 
    1282                      ; branchcc occurs ; [] |315| 
    1283 00000289       $C$L26:    
    1284                      .dwpsn  file "C:/Users/a0221343/Git/bootROM/f28004x_bootrom/F28004x_ROM_dev_PG2.0/F28004x_ROM/bootROM
    1285 00000289 0644          MOVL      ACC,*-SP[4]           ; [CPU_] |317| 
    1286 0000028a 5608          AND       ACC,#65472 << 16      ; [CPU_] |317| 
         0000028b FFC0 
    1287 0000028c EC08          BF        $C$L27,EQ             ; [CPU_] |317| 
    1288                      ; branchcc occurs ; [] |317| 
    1289                      .dwpsn  file "C:/Users/a0221343/Git/bootROM/f28004x_bootrom/F28004x_ROM_dev_PG2.0/F28004x_ROM/bootROM
    1290 0000028d 8A44          MOVL      XAR4,*-SP[4]          ; [CPU_] |319| 
    1291 0000028e A8A9          MOVL      ACC,XAR4              ; [CPU_] |319| 
    1292 0000028f 0901          ADDB      ACC,#1                ; [CPU_] |319| 
    1293 00000290 1E44          MOVL      *-SP[4],ACC           ; [CPU_] |319| 
    1294 00000291 92C4          MOV       AL,*+XAR4[0]          ; [CPU_] |319| 
    1295 00000292 9647          MOV       *-SP[7],AL            ; [CPU_] |319| 
    1296                      .dwpsn  file "C:/Users/a0221343/Git/bootROM/f28004x_bootrom/F28004x_ROM_dev_PG2.0/F28004x_ROM/bootROM
    1297 00000293 6F07          B         $C$L28,UNC            ; [CPU_] |320| 
    1298                      ; branch occurs ; [] |320| 
    1299 00000294       $C$L27:    
    1300                      .dwpsn  file "C:/Users/a0221343/Git/bootROM/f28004x_bootrom/F28004x_ROM_dev_PG2.0/F28004x_ROM/bootROM
    1301 00000294 8A44          MOVL      XAR4,*-SP[4]          ; [CPU_] |323| 
    1302 00000295 A8A9          MOVL      ACC,XAR4              ; [CPU_] |323| 
    1303 00000296 0901          ADDB      ACC,#1                ; [CPU_] |323| 
    1304 00000297 1E44          MOVL      *-SP[4],ACC           ; [CPU_] |323| 
    1305 00000298 92C4          MOV       AL,*+XAR4[0]          ; [CPU_] |323| 
    1306 00000299 9647          MOV       *-SP[7],AL            ; [CPU_] |323| 
    1307 0000029a       $C$L28:    
    1308                      .dwpsn  file "C:/Users/a0221343/Git/bootROM/f28004x_bootrom/F28004x_ROM_dev_PG2.0/F28004x_ROM/bootROM
    1309 0000029a 56BF          MOVB      *-SP[9],#1,UNC        ; [CPU_] |326| 
         0000029b 0149 
    1310                      .dwpsn  file "C:/Users/a0221343/Git/bootROM/f28004x_bootrom/F28004x_ROM_dev_PG2.0/F28004x_ROM/bootROM
    1311 0000029c 9249          MOV       AL,*-SP[9]            ; [CPU_] |326| 
    1312 0000029d 5203          CMPB      AL,#3                 ; [CPU_] |326| 
    1313 0000029e 56C7          BF        $C$L47,HIS            ; [CPU_] |326| 
         0000029f 02E0 
    1314                      ; branchcc occurs ; [] |326| 
    1315 000002a0       $C$L29:    
    1316                      .dwpsn  file "C:/Users/a0221343/Git/bootROM/f28004x_bootrom/F28004x_ROM_dev_PG2.0/F28004x_ROM/bootROM
    1317 000002a0 0E49          MOVU      ACC,*-SP[9]           ; [CPU_] |328| 
    1318 000002a1 075A          ADDL      ACC,*-SP[26]          ; [CPU_] |328| 
    1319 000002a2 1E4C          MOVL      *-SP[12],ACC          ; [CPU_] |328| 
    1320                      .dwpsn  file "C:/Users/a0221343/Git/bootROM/f28004x_bootrom/F28004x_ROM_dev_PG2.0/F28004x_ROM/bootROM
    1321 000002a3 0201          MOVB      ACC,#1                ; [CPU_] |329| 
    1322 000002a4 1E50          MOVL      *-SP[16],ACC          ; [CPU_] |329| 
    1323                      .dwpsn  file "C:/Users/a0221343/Git/bootROM/f28004x_bootrom/F28004x_ROM_dev_PG2.0/F28004x_ROM/bootROM
    1324 000002a5 9247          MOV       AL,*-SP[7]            ; [CPU_] |331| 
    1325 000002a6 90FF          ANDB      AL,#0xff              ; [CPU_] |331| 
TMS320C2000 Assembler PC v6.4.4 Tue Feb 14 14:42:40 2017

Tools Copyright (c) 1996-2015 Texas Instruments Incorporated
C:\Users\a0221343\AppData\Local\Temp\0584010                         PAGE   28

    1326 000002a7 9648          MOV       *-SP[8],AL            ; [CPU_] |331| 
    1327                      .dwpsn  file "C:/Users/a0221343/Git/bootROM/f28004x_bootrom/F28004x_ROM_dev_PG2.0/F28004x_ROM/bootROM
    1328 000002a8 9247          MOV       AL,*-SP[7]            ; [CPU_] |332| 
    1329 000002a9 FFC7          LSR       AL,8                  ; [CPU_] |332| 
    1330 000002aa 9647          MOV       *-SP[7],AL            ; [CPU_] |332| 
    1331                      .dwpsn  file "C:/Users/a0221343/Git/bootROM/f28004x_bootrom/F28004x_ROM_dev_PG2.0/F28004x_ROM/bootROM
    1332 000002ab 0200          MOVB      ACC,#0                ; [CPU_] |333| 
    1333 000002ac 1E4E          MOVL      *-SP[14],ACC          ; [CPU_] |333| 
    1334                      .dwpsn  file "C:/Users/a0221343/Git/bootROM/f28004x_bootrom/F28004x_ROM_dev_PG2.0/F28004x_ROM/bootROM
    1335 000002ad 2B53          MOV       *-SP[19],#0           ; [CPU_] |335| 
    1336                      .dwpsn  file "C:/Users/a0221343/Git/bootROM/f28004x_bootrom/F28004x_ROM_dev_PG2.0/F28004x_ROM/bootROM
    1337 000002ae 9253          MOV       AL,*-SP[19]           ; [CPU_] |335| 
    1338 000002af 5204          CMPB      AL,#4                 ; [CPU_] |335| 
    1339 000002b0 56C6          BF        $C$L46,HI             ; [CPU_] |335| 
         000002b1 02C5 
    1340                      ; branchcc occurs ; [] |335| 
    1341 000002b2       $C$L30:    
    1342                      .dwpsn  file "C:/Users/a0221343/Git/bootROM/f28004x_bootrom/F28004x_ROM_dev_PG2.0/F28004x_ROM/bootROM
    1343 000002b2 0201          MOVB      ACC,#1                ; [CPU_] |337| 
    1344 000002b3 0752          ADDL      ACC,*-SP[18]          ; [CPU_] |337| 
    1345 000002b4 1E52          MOVL      *-SP[18],ACC          ; [CPU_] |337| 
    1346                      .dwpsn  file "C:/Users/a0221343/Git/bootROM/f28004x_bootrom/F28004x_ROM_dev_PG2.0/F28004x_ROM/bootROM
    1347 000002b5 9248          MOV       AL,*-SP[8]            ; [CPU_] |338| 
    1348 000002b6 900F          ANDB      AL,#0x0f              ; [CPU_] |338| 
    1349 000002b7 56C1          BF        $C$L45,EQ             ; [CPU_] |338| 
         000002b8 02AF 
    1350                      ; branchcc occurs ; [] |338| 
    1351                      .dwpsn  file "C:/Users/a0221343/Git/bootROM/f28004x_bootrom/F28004x_ROM_dev_PG2.0/F28004x_ROM/bootROM
    1352                      .dwpsn  file "C:/Users/a0221343/Git/bootROM/f28004x_bootrom/F28004x_ROM_dev_PG2.0/F28004x_ROM/bootROM
    1353 000002b9 9248          MOV       AL,*-SP[8]            ; [CPU_] |342| 
    1354 000002ba 900F          ANDB      AL,#0x0f              ; [CPU_] |342| 
    1355 000002bb 5201          CMPB      AL,#1                 ; [CPU_] |342| 
    1356 000002bc ED17          BF        $C$L31,NEQ            ; [CPU_] |342| 
    1357                      ; branchcc occurs ; [] |342| 
    1358                      .dwpsn  file "C:/Users/a0221343/Git/bootROM/f28004x_bootrom/F28004x_ROM_dev_PG2.0/F28004x_ROM/bootROM
    1359 000002bd 8A46          MOVL      XAR4,*-SP[6]          ; [CPU_] |344| 
    1360 000002be 0201          MOVB      ACC,#1                ; [CPU_] |344| 
    1361 000002bf 5601          ADDL      *+XAR4[0],ACC         ; [CPU_] |344| 
         000002c0 00C4 
    1362                      .dwpsn  file "C:/Users/a0221343/Git/bootROM/f28004x_bootrom/F28004x_ROM_dev_PG2.0/F28004x_ROM/bootROM
    1363 000002c1 C44C          MOVL      XAR6,*-SP[12]         ; [CPU_] |345| 
    1364 000002c2 0E53          MOVU      ACC,*-SP[19]          ; [CPU_] |345| 
    1365 000002c3 C242          MOVL      *-SP[2],XAR6          ; [CPU_] |345| 
    1366 000002c4 8A46          MOVL      XAR4,*-SP[6]          ; [CPU_] |345| 
    1367              $C$DW$60        .dwtag  DW_TAG_TI_branch
    1368                      .dwattr $C$DW$60, DW_AT_low_pc(0x00)
    1369                      .dwattr $C$DW$60, DW_AT_name("_add_to_bitcolumn_checksum")
    1370                      .dwattr $C$DW$60, DW_AT_TI_call
    1371 000002c5 7640+         LCR       #_add_to_bitcolumn_checksum ; [CPU_] |345| 
         000002c6 0202 
    1372                      ; call occurs [#_add_to_bitcolumn_checksum] ; [] |345| 
    1373 000002c7 5601          ADDL      *-SP[14],ACC          ; [CPU_] |345| 
         000002c8 004E 
    1374                      .dwpsn  file "C:/Users/a0221343/Git/bootROM/f28004x_bootrom/F28004x_ROM_dev_PG2.0/F28004x_ROM/bootROM
    1375 000002c9 8A52          MOVL      XAR4,*-SP[18]         ; [CPU_] |346| 
TMS320C2000 Assembler PC v6.4.4 Tue Feb 14 14:42:40 2017

Tools Copyright (c) 1996-2015 Texas Instruments Incorporated
C:\Users\a0221343\AppData\Local\Temp\0584010                         PAGE   29

    1376 000002ca 0201          MOVB      ACC,#1                ; [CPU_] |346| 
    1377 000002cb 0752          ADDL      ACC,*-SP[18]          ; [CPU_] |346| 
    1378 000002cc DC81          SUBB      XAR4,#1               ; [CPU_] |346| 
    1379 000002cd 1EAC          MOVL      XT,ACC                ; [CPU_] |346| 
    1380 000002ce 5665          IMPYXUL   P,XT,XAR4             ; [CPU_] |346| 
         000002cf 00A4 
    1381 000002d0 A950          MOVL      *-SP[16],P            ; [CPU_] |346| 
    1382                      .dwpsn  file "C:/Users/a0221343/Git/bootROM/f28004x_bootrom/F28004x_ROM_dev_PG2.0/F28004x_ROM/bootROM
    1383 000002d1 FFEF          B         $C$L45,UNC            ; [CPU_] |347| 
         000002d2 0295 
    1384                      ; branch occurs ; [] |347| 
    1385 000002d3       $C$L31:    
    1386                      .dwpsn  file "C:/Users/a0221343/Git/bootROM/f28004x_bootrom/F28004x_ROM_dev_PG2.0/F28004x_ROM/bootROM
    1387 000002d3 9248          MOV       AL,*-SP[8]            ; [CPU_] |348| 
    1388 000002d4 900F          ANDB      AL,#0x0f              ; [CPU_] |348| 
    1389 000002d5 5202          CMPB      AL,#2                 ; [CPU_] |348| 
    1390 000002d6 ED19          BF        $C$L32,NEQ            ; [CPU_] |348| 
    1391                      ; branchcc occurs ; [] |348| 
    1392                      .dwpsn  file "C:/Users/a0221343/Git/bootROM/f28004x_bootrom/F28004x_ROM_dev_PG2.0/F28004x_ROM/bootROM
    1393 000002d7 8A46          MOVL      XAR4,*-SP[6]          ; [CPU_] |350| 
    1394 000002d8 0201          MOVB      ACC,#1                ; [CPU_] |350| 
    1395 000002d9 5601          ADDL      *+XAR4[0],ACC         ; [CPU_] |350| 
         000002da 00C4 
    1396                      .dwpsn  file "C:/Users/a0221343/Git/bootROM/f28004x_bootrom/F28004x_ROM_dev_PG2.0/F28004x_ROM/bootROM
    1397 000002db C44C          MOVL      XAR6,*-SP[12]         ; [CPU_] |351| 
    1398 000002dc 9253          MOV       AL,*-SP[19]           ; [CPU_] |351| 
    1399 000002dd C242          MOVL      *-SP[2],XAR6          ; [CPU_] |351| 
    1400 000002de 8A46          MOVL      XAR4,*-SP[6]          ; [CPU_] |351| 
    1401 000002df 9C01          ADDB      AL,#1                 ; [CPU_] |351| 
    1402 000002e0 0EA9          MOVU      ACC,AL                ; [CPU_] |351| 
    1403              $C$DW$61        .dwtag  DW_TAG_TI_branch
    1404                      .dwattr $C$DW$61, DW_AT_low_pc(0x00)
    1405                      .dwattr $C$DW$61, DW_AT_name("_add_to_bitcolumn_checksum")
    1406                      .dwattr $C$DW$61, DW_AT_TI_call
    1407 000002e1 7640+         LCR       #_add_to_bitcolumn_checksum ; [CPU_] |351| 
         000002e2 0202 
    1408                      ; call occurs [#_add_to_bitcolumn_checksum] ; [] |351| 
    1409 000002e3 5601          ADDL      *-SP[14],ACC          ; [CPU_] |351| 
         000002e4 004E 
    1410                      .dwpsn  file "C:/Users/a0221343/Git/bootROM/f28004x_bootrom/F28004x_ROM_dev_PG2.0/F28004x_ROM/bootROM
    1411 000002e5 8A52          MOVL      XAR4,*-SP[18]         ; [CPU_] |352| 
    1412 000002e6 0202          MOVB      ACC,#2                ; [CPU_] |352| 
    1413 000002e7 0752          ADDL      ACC,*-SP[18]          ; [CPU_] |352| 
    1414 000002e8 DC81          SUBB      XAR4,#1               ; [CPU_] |352| 
    1415 000002e9 1EAC          MOVL      XT,ACC                ; [CPU_] |352| 
    1416 000002ea 5665          IMPYXUL   P,XT,XAR4             ; [CPU_] |352| 
         000002eb 00A4 
    1417 000002ec A950          MOVL      *-SP[16],P            ; [CPU_] |352| 
    1418                      .dwpsn  file "C:/Users/a0221343/Git/bootROM/f28004x_bootrom/F28004x_ROM_dev_PG2.0/F28004x_ROM/bootROM
    1419 000002ed FFEF          B         $C$L45,UNC            ; [CPU_] |353| 
         000002ee 0279 
    1420                      ; branch occurs ; [] |353| 
    1421 000002ef       $C$L32:    
    1422                      .dwpsn  file "C:/Users/a0221343/Git/bootROM/f28004x_bootrom/F28004x_ROM_dev_PG2.0/F28004x_ROM/bootROM
    1423 000002ef 9248          MOV       AL,*-SP[8]            ; [CPU_] |354| 
TMS320C2000 Assembler PC v6.4.4 Tue Feb 14 14:42:40 2017

Tools Copyright (c) 1996-2015 Texas Instruments Incorporated
C:\Users\a0221343\AppData\Local\Temp\0584010                         PAGE   30

    1424 000002f0 900F          ANDB      AL,#0x0f              ; [CPU_] |354| 
    1425 000002f1 5203          CMPB      AL,#3                 ; [CPU_] |354| 
    1426 000002f2 ED27          BF        $C$L33,NEQ            ; [CPU_] |354| 
    1427                      ; branchcc occurs ; [] |354| 
    1428                      .dwpsn  file "C:/Users/a0221343/Git/bootROM/f28004x_bootrom/F28004x_ROM_dev_PG2.0/F28004x_ROM/bootROM
    1429 000002f3 8A46          MOVL      XAR4,*-SP[6]          ; [CPU_] |356| 
    1430 000002f4 0202          MOVB      ACC,#2                ; [CPU_] |356| 
    1431 000002f5 5601          ADDL      *+XAR4[0],ACC         ; [CPU_] |356| 
         000002f6 00C4 
    1432                      .dwpsn  file "C:/Users/a0221343/Git/bootROM/f28004x_bootrom/F28004x_ROM_dev_PG2.0/F28004x_ROM/bootROM
    1433 000002f7 C44C          MOVL      XAR6,*-SP[12]         ; [CPU_] |357| 
    1434 000002f8 0E53          MOVU      ACC,*-SP[19]          ; [CPU_] |357| 
    1435 000002f9 C242          MOVL      *-SP[2],XAR6          ; [CPU_] |357| 
    1436 000002fa 8A46          MOVL      XAR4,*-SP[6]          ; [CPU_] |357| 
    1437              $C$DW$62        .dwtag  DW_TAG_TI_branch
    1438                      .dwattr $C$DW$62, DW_AT_low_pc(0x00)
    1439                      .dwattr $C$DW$62, DW_AT_name("_add_to_bitcolumn_checksum")
    1440                      .dwattr $C$DW$62, DW_AT_TI_call
    1441 000002fb 7640+         LCR       #_add_to_bitcolumn_checksum ; [CPU_] |357| 
         000002fc 0202 
    1442                      ; call occurs [#_add_to_bitcolumn_checksum] ; [] |357| 
    1443 000002fd 5601          ADDL      *-SP[14],ACC          ; [CPU_] |357| 
         000002fe 004E 
    1444                      .dwpsn  file "C:/Users/a0221343/Git/bootROM/f28004x_bootrom/F28004x_ROM_dev_PG2.0/F28004x_ROM/bootROM
    1445 000002ff C44C          MOVL      XAR6,*-SP[12]         ; [CPU_] |358| 
    1446 00000300 9253          MOV       AL,*-SP[19]           ; [CPU_] |358| 
    1447 00000301 C242          MOVL      *-SP[2],XAR6          ; [CPU_] |358| 
    1448 00000302 8A46          MOVL      XAR4,*-SP[6]          ; [CPU_] |358| 
    1449 00000303 9C01          ADDB      AL,#1                 ; [CPU_] |358| 
    1450 00000304 0EA9          MOVU      ACC,AL                ; [CPU_] |358| 
    1451              $C$DW$63        .dwtag  DW_TAG_TI_branch
    1452                      .dwattr $C$DW$63, DW_AT_low_pc(0x00)
    1453                      .dwattr $C$DW$63, DW_AT_name("_add_to_bitcolumn_checksum")
    1454                      .dwattr $C$DW$63, DW_AT_TI_call
    1455 00000305 7640+         LCR       #_add_to_bitcolumn_checksum ; [CPU_] |358| 
         00000306 0202 
    1456                      ; call occurs [#_add_to_bitcolumn_checksum] ; [] |358| 
    1457 00000307 5601          ADDL      *-SP[14],ACC          ; [CPU_] |358| 
         00000308 004E 
    1458                      .dwpsn  file "C:/Users/a0221343/Git/bootROM/f28004x_bootrom/F28004x_ROM_dev_PG2.0/F28004x_ROM/bootROM
    1459 00000309 0201          MOVB      ACC,#1                ; [CPU_] |360| 
    1460 0000030a 0752          ADDL      ACC,*-SP[18]          ; [CPU_] |360| 
    1461 0000030b 1EAC          MOVL      XT,ACC                ; [CPU_] |360| 
    1462 0000030c 5665          IMPYXUL   P,XT,*-SP[16]         ; [CPU_] |360| 
         0000030d 0050 
    1463 0000030e A950          MOVL      *-SP[16],P            ; [CPU_] |360| 
    1464                      .dwpsn  file "C:/Users/a0221343/Git/bootROM/f28004x_bootrom/F28004x_ROM_dev_PG2.0/F28004x_ROM/bootROM
    1465 0000030f 0652          MOVL      ACC,*-SP[18]          ; [CPU_] |361| 
    1466 00000310 9B00          MOVB      AH,#0                 ; [CPU_] |361| 
    1467 00000311 9001          ANDB      AL,#0x01              ; [CPU_] |361| 
    1468 00000312 0902          ADDB      ACC,#2                ; [CPU_] |361| 
    1469 00000313 1EAC          MOVL      XT,ACC                ; [CPU_] |361| 
    1470 00000314 5665          IMPYXUL   P,XT,*-SP[16]         ; [CPU_] |361| 
         00000315 0050 
    1471 00000316 A950          MOVL      *-SP[16],P            ; [CPU_] |361| 
TMS320C2000 Assembler PC v6.4.4 Tue Feb 14 14:42:40 2017

Tools Copyright (c) 1996-2015 Texas Instruments Incorporated
C:\Users\a0221343\AppData\Local\Temp\0584010                         PAGE   31

    1472                      .dwpsn  file "C:/Users/a0221343/Git/bootROM/f28004x_bootrom/F28004x_ROM_dev_PG2.0/F28004x_ROM/bootROM
    1473 00000317 FFEF          B         $C$L45,UNC            ; [CPU_] |362| 
         00000318 024F 
    1474                      ; branch occurs ; [] |362| 
    1475 00000319       $C$L33:    
    1476                      .dwpsn  file "C:/Users/a0221343/Git/bootROM/f28004x_bootrom/F28004x_ROM_dev_PG2.0/F28004x_ROM/bootROM
    1477 00000319 9248          MOV       AL,*-SP[8]            ; [CPU_] |363| 
    1478 0000031a 900F          ANDB      AL,#0x0f              ; [CPU_] |363| 
    1479 0000031b 5204          CMPB      AL,#4                 ; [CPU_] |363| 
    1480 0000031c ED19          BF        $C$L34,NEQ            ; [CPU_] |363| 
    1481                      ; branchcc occurs ; [] |363| 
    1482                      .dwpsn  file "C:/Users/a0221343/Git/bootROM/f28004x_bootrom/F28004x_ROM_dev_PG2.0/F28004x_ROM/bootROM
    1483 0000031d 8A46          MOVL      XAR4,*-SP[6]          ; [CPU_] |365| 
    1484 0000031e 0201          MOVB      ACC,#1                ; [CPU_] |365| 
    1485 0000031f 5601          ADDL      *+XAR4[0],ACC         ; [CPU_] |365| 
         00000320 00C4 
    1486                      .dwpsn  file "C:/Users/a0221343/Git/bootROM/f28004x_bootrom/F28004x_ROM_dev_PG2.0/F28004x_ROM/bootROM
    1487 00000321 C44C          MOVL      XAR6,*-SP[12]         ; [CPU_] |366| 
    1488 00000322 9253          MOV       AL,*-SP[19]           ; [CPU_] |366| 
    1489 00000323 C242          MOVL      *-SP[2],XAR6          ; [CPU_] |366| 
    1490 00000324 8A46          MOVL      XAR4,*-SP[6]          ; [CPU_] |366| 
    1491 00000325 9C02          ADDB      AL,#2                 ; [CPU_] |366| 
    1492 00000326 0EA9          MOVU      ACC,AL                ; [CPU_] |366| 
    1493              $C$DW$64        .dwtag  DW_TAG_TI_branch
    1494                      .dwattr $C$DW$64, DW_AT_low_pc(0x00)
    1495                      .dwattr $C$DW$64, DW_AT_name("_add_to_bitcolumn_checksum")
    1496                      .dwattr $C$DW$64, DW_AT_TI_call
    1497 00000327 7640+         LCR       #_add_to_bitcolumn_checksum ; [CPU_] |366| 
         00000328 0202 
    1498                      ; call occurs [#_add_to_bitcolumn_checksum] ; [] |366| 
    1499 00000329 5601          ADDL      *-SP[14],ACC          ; [CPU_] |366| 
         0000032a 004E 
    1500                      .dwpsn  file "C:/Users/a0221343/Git/bootROM/f28004x_bootrom/F28004x_ROM_dev_PG2.0/F28004x_ROM/bootROM
    1501 0000032b 8A52          MOVL      XAR4,*-SP[18]         ; [CPU_] |368| 
    1502 0000032c 0203          MOVB      ACC,#3                ; [CPU_] |368| 
    1503 0000032d 0752          ADDL      ACC,*-SP[18]          ; [CPU_] |368| 
    1504 0000032e DC81          SUBB      XAR4,#1               ; [CPU_] |368| 
    1505 0000032f 1EAC          MOVL      XT,ACC                ; [CPU_] |368| 
    1506 00000330 5665          IMPYXUL   P,XT,XAR4             ; [CPU_] |368| 
         00000331 00A4 
    1507 00000332 A950          MOVL      *-SP[16],P            ; [CPU_] |368| 
    1508                      .dwpsn  file "C:/Users/a0221343/Git/bootROM/f28004x_bootrom/F28004x_ROM_dev_PG2.0/F28004x_ROM/bootROM
    1509 00000333 FFEF          B         $C$L45,UNC            ; [CPU_] |370| 
         00000334 0233 
    1510                      ; branch occurs ; [] |370| 
    1511 00000335       $C$L34:    
    1512                      .dwpsn  file "C:/Users/a0221343/Git/bootROM/f28004x_bootrom/F28004x_ROM_dev_PG2.0/F28004x_ROM/bootROM
    1513 00000335 9248          MOV       AL,*-SP[8]            ; [CPU_] |371| 
    1514 00000336 900F          ANDB      AL,#0x0f              ; [CPU_] |371| 
    1515 00000337 5205          CMPB      AL,#5                 ; [CPU_] |371| 
    1516 00000338 ED27          BF        $C$L35,NEQ            ; [CPU_] |371| 
    1517                      ; branchcc occurs ; [] |371| 
    1518                      .dwpsn  file "C:/Users/a0221343/Git/bootROM/f28004x_bootrom/F28004x_ROM_dev_PG2.0/F28004x_ROM/bootROM
    1519 00000339 8A46          MOVL      XAR4,*-SP[6]          ; [CPU_] |373| 
    1520 0000033a 0202          MOVB      ACC,#2                ; [CPU_] |373| 
TMS320C2000 Assembler PC v6.4.4 Tue Feb 14 14:42:40 2017

Tools Copyright (c) 1996-2015 Texas Instruments Incorporated
C:\Users\a0221343\AppData\Local\Temp\0584010                         PAGE   32

    1521 0000033b 5601          ADDL      *+XAR4[0],ACC         ; [CPU_] |373| 
         0000033c 00C4 
    1522                      .dwpsn  file "C:/Users/a0221343/Git/bootROM/f28004x_bootrom/F28004x_ROM_dev_PG2.0/F28004x_ROM/bootROM
    1523 0000033d C44C          MOVL      XAR6,*-SP[12]         ; [CPU_] |374| 
    1524 0000033e 0E53          MOVU      ACC,*-SP[19]          ; [CPU_] |374| 
    1525 0000033f C242          MOVL      *-SP[2],XAR6          ; [CPU_] |374| 
    1526 00000340 8A46          MOVL      XAR4,*-SP[6]          ; [CPU_] |374| 
    1527              $C$DW$65        .dwtag  DW_TAG_TI_branch
    1528                      .dwattr $C$DW$65, DW_AT_low_pc(0x00)
    1529                      .dwattr $C$DW$65, DW_AT_name("_add_to_bitcolumn_checksum")
    1530                      .dwattr $C$DW$65, DW_AT_TI_call
    1531 00000341 7640+         LCR       #_add_to_bitcolumn_checksum ; [CPU_] |374| 
         00000342 0202 
    1532                      ; call occurs [#_add_to_bitcolumn_checksum] ; [] |374| 
    1533 00000343 5601          ADDL      *-SP[14],ACC          ; [CPU_] |374| 
         00000344 004E 
    1534                      .dwpsn  file "C:/Users/a0221343/Git/bootROM/f28004x_bootrom/F28004x_ROM_dev_PG2.0/F28004x_ROM/bootROM
    1535 00000345 C44C          MOVL      XAR6,*-SP[12]         ; [CPU_] |375| 
    1536 00000346 9253          MOV       AL,*-SP[19]           ; [CPU_] |375| 
    1537 00000347 C242          MOVL      *-SP[2],XAR6          ; [CPU_] |375| 
    1538 00000348 8A46          MOVL      XAR4,*-SP[6]          ; [CPU_] |375| 
    1539 00000349 9C02          ADDB      AL,#2                 ; [CPU_] |375| 
    1540 0000034a 0EA9          MOVU      ACC,AL                ; [CPU_] |375| 
    1541              $C$DW$66        .dwtag  DW_TAG_TI_branch
    1542                      .dwattr $C$DW$66, DW_AT_low_pc(0x00)
    1543                      .dwattr $C$DW$66, DW_AT_name("_add_to_bitcolumn_checksum")
    1544                      .dwattr $C$DW$66, DW_AT_TI_call
    1545 0000034b 7640+         LCR       #_add_to_bitcolumn_checksum ; [CPU_] |375| 
         0000034c 0202 
    1546                      ; call occurs [#_add_to_bitcolumn_checksum] ; [] |375| 
    1547 0000034d 5601          ADDL      *-SP[14],ACC          ; [CPU_] |375| 
         0000034e 004E 
    1548                      .dwpsn  file "C:/Users/a0221343/Git/bootROM/f28004x_bootrom/F28004x_ROM_dev_PG2.0/F28004x_ROM/bootROM
    1549 0000034f 0201          MOVB      ACC,#1                ; [CPU_] |377| 
    1550 00000350 0752          ADDL      ACC,*-SP[18]          ; [CPU_] |377| 
    1551 00000351 1EAC          MOVL      XT,ACC                ; [CPU_] |377| 
    1552 00000352 5665          IMPYXUL   P,XT,*-SP[16]         ; [CPU_] |377| 
         00000353 0050 
    1553 00000354 A950          MOVL      *-SP[16],P            ; [CPU_] |377| 
    1554                      .dwpsn  file "C:/Users/a0221343/Git/bootROM/f28004x_bootrom/F28004x_ROM_dev_PG2.0/F28004x_ROM/bootROM
    1555 00000355 0652          MOVL      ACC,*-SP[18]          ; [CPU_] |378| 
    1556 00000356 9B00          MOVB      AH,#0                 ; [CPU_] |378| 
    1557 00000357 9001          ANDB      AL,#0x01              ; [CPU_] |378| 
    1558 00000358 0903          ADDB      ACC,#3                ; [CPU_] |378| 
    1559 00000359 1EAC          MOVL      XT,ACC                ; [CPU_] |378| 
    1560 0000035a 5665          IMPYXUL   P,XT,*-SP[16]         ; [CPU_] |378| 
         0000035b 0050 
    1561 0000035c A950          MOVL      *-SP[16],P            ; [CPU_] |378| 
    1562                      .dwpsn  file "C:/Users/a0221343/Git/bootROM/f28004x_bootrom/F28004x_ROM_dev_PG2.0/F28004x_ROM/bootROM
    1563 0000035d FFEF          B         $C$L45,UNC            ; [CPU_] |379| 
         0000035e 0209 
    1564                      ; branch occurs ; [] |379| 
    1565 0000035f       $C$L35:    
    1566                      .dwpsn  file "C:/Users/a0221343/Git/bootROM/f28004x_bootrom/F28004x_ROM_dev_PG2.0/F28004x_ROM/bootROM
    1567 0000035f 9248          MOV       AL,*-SP[8]            ; [CPU_] |380| 
TMS320C2000 Assembler PC v6.4.4 Tue Feb 14 14:42:40 2017

Tools Copyright (c) 1996-2015 Texas Instruments Incorporated
C:\Users\a0221343\AppData\Local\Temp\0584010                         PAGE   33

    1568 00000360 900F          ANDB      AL,#0x0f              ; [CPU_] |380| 
    1569 00000361 5206          CMPB      AL,#6                 ; [CPU_] |380| 
    1570 00000362 ED29          BF        $C$L36,NEQ            ; [CPU_] |380| 
    1571                      ; branchcc occurs ; [] |380| 
    1572                      .dwpsn  file "C:/Users/a0221343/Git/bootROM/f28004x_bootrom/F28004x_ROM_dev_PG2.0/F28004x_ROM/bootROM
    1573 00000363 8A46          MOVL      XAR4,*-SP[6]          ; [CPU_] |382| 
    1574 00000364 0202          MOVB      ACC,#2                ; [CPU_] |382| 
    1575 00000365 5601          ADDL      *+XAR4[0],ACC         ; [CPU_] |382| 
         00000366 00C4 
    1576                      .dwpsn  file "C:/Users/a0221343/Git/bootROM/f28004x_bootrom/F28004x_ROM_dev_PG2.0/F28004x_ROM/bootROM
    1577 00000367 C44C          MOVL      XAR6,*-SP[12]         ; [CPU_] |383| 
    1578 00000368 9253          MOV       AL,*-SP[19]           ; [CPU_] |383| 
    1579 00000369 C242          MOVL      *-SP[2],XAR6          ; [CPU_] |383| 
    1580 0000036a 8A46          MOVL      XAR4,*-SP[6]          ; [CPU_] |383| 
    1581 0000036b 9C01          ADDB      AL,#1                 ; [CPU_] |383| 
    1582 0000036c 0EA9          MOVU      ACC,AL                ; [CPU_] |383| 
    1583              $C$DW$67        .dwtag  DW_TAG_TI_branch
    1584                      .dwattr $C$DW$67, DW_AT_low_pc(0x00)
    1585                      .dwattr $C$DW$67, DW_AT_name("_add_to_bitcolumn_checksum")
    1586                      .dwattr $C$DW$67, DW_AT_TI_call
    1587 0000036d 7640+         LCR       #_add_to_bitcolumn_checksum ; [CPU_] |383| 
         0000036e 0202 
    1588                      ; call occurs [#_add_to_bitcolumn_checksum] ; [] |383| 
    1589 0000036f 5601          ADDL      *-SP[14],ACC          ; [CPU_] |383| 
         00000370 004E 
    1590                      .dwpsn  file "C:/Users/a0221343/Git/bootROM/f28004x_bootrom/F28004x_ROM_dev_PG2.0/F28004x_ROM/bootROM
    1591 00000371 C44C          MOVL      XAR6,*-SP[12]         ; [CPU_] |384| 
    1592 00000372 9253          MOV       AL,*-SP[19]           ; [CPU_] |384| 
    1593 00000373 C242          MOVL      *-SP[2],XAR6          ; [CPU_] |384| 
    1594 00000374 8A46          MOVL      XAR4,*-SP[6]          ; [CPU_] |384| 
    1595 00000375 9C02          ADDB      AL,#2                 ; [CPU_] |384| 
    1596 00000376 0EA9          MOVU      ACC,AL                ; [CPU_] |384| 
    1597              $C$DW$68        .dwtag  DW_TAG_TI_branch
    1598                      .dwattr $C$DW$68, DW_AT_low_pc(0x00)
    1599                      .dwattr $C$DW$68, DW_AT_name("_add_to_bitcolumn_checksum")
    1600                      .dwattr $C$DW$68, DW_AT_TI_call
    1601 00000377 7640+         LCR       #_add_to_bitcolumn_checksum ; [CPU_] |384| 
         00000378 0202 
    1602                      ; call occurs [#_add_to_bitcolumn_checksum] ; [] |384| 
    1603 00000379 5601          ADDL      *-SP[14],ACC          ; [CPU_] |384| 
         0000037a 004E 
    1604                      .dwpsn  file "C:/Users/a0221343/Git/bootROM/f28004x_bootrom/F28004x_ROM_dev_PG2.0/F28004x_ROM/bootROM
    1605 0000037b 0202          MOVB      ACC,#2                ; [CPU_] |386| 
    1606 0000037c 0752          ADDL      ACC,*-SP[18]          ; [CPU_] |386| 
    1607 0000037d 1EAC          MOVL      XT,ACC                ; [CPU_] |386| 
    1608 0000037e 5665          IMPYXUL   P,XT,*-SP[16]         ; [CPU_] |386| 
         0000037f 0050 
    1609 00000380 A950          MOVL      *-SP[16],P            ; [CPU_] |386| 
    1610                      .dwpsn  file "C:/Users/a0221343/Git/bootROM/f28004x_bootrom/F28004x_ROM_dev_PG2.0/F28004x_ROM/bootROM
    1611 00000381 0652          MOVL      ACC,*-SP[18]          ; [CPU_] |387| 
    1612 00000382 9B00          MOVB      AH,#0                 ; [CPU_] |387| 
    1613 00000383 9001          ANDB      AL,#0x01              ; [CPU_] |387| 
    1614 00000384 0903          ADDB      ACC,#3                ; [CPU_] |387| 
    1615 00000385 1EAC          MOVL      XT,ACC                ; [CPU_] |387| 
    1616 00000386 5665          IMPYXUL   P,XT,*-SP[16]         ; [CPU_] |387| 
TMS320C2000 Assembler PC v6.4.4 Tue Feb 14 14:42:40 2017

Tools Copyright (c) 1996-2015 Texas Instruments Incorporated
C:\Users\a0221343\AppData\Local\Temp\0584010                         PAGE   34

         00000387 0050 
    1617 00000388 A950          MOVL      *-SP[16],P            ; [CPU_] |387| 
    1618                      .dwpsn  file "C:/Users/a0221343/Git/bootROM/f28004x_bootrom/F28004x_ROM_dev_PG2.0/F28004x_ROM/bootROM
    1619 00000389 FFEF          B         $C$L45,UNC            ; [CPU_] |388| 
         0000038a 01DD 
    1620                      ; branch occurs ; [] |388| 
    1621 0000038b       $C$L36:    
    1622                      .dwpsn  file "C:/Users/a0221343/Git/bootROM/f28004x_bootrom/F28004x_ROM_dev_PG2.0/F28004x_ROM/bootROM
    1623 0000038b 9248          MOV       AL,*-SP[8]            ; [CPU_] |389| 
    1624 0000038c 900F          ANDB      AL,#0x0f              ; [CPU_] |389| 
    1625 0000038d 5207          CMPB      AL,#7                 ; [CPU_] |389| 
    1626 0000038e ED39          BF        $C$L37,NEQ            ; [CPU_] |389| 
    1627                      ; branchcc occurs ; [] |389| 
    1628                      .dwpsn  file "C:/Users/a0221343/Git/bootROM/f28004x_bootrom/F28004x_ROM_dev_PG2.0/F28004x_ROM/bootROM
    1629 0000038f 8A46          MOVL      XAR4,*-SP[6]          ; [CPU_] |391| 
    1630 00000390 0203          MOVB      ACC,#3                ; [CPU_] |391| 
    1631 00000391 5601          ADDL      *+XAR4[0],ACC         ; [CPU_] |391| 
         00000392 00C4 
    1632                      .dwpsn  file "C:/Users/a0221343/Git/bootROM/f28004x_bootrom/F28004x_ROM_dev_PG2.0/F28004x_ROM/bootROM
    1633 00000393 C44C          MOVL      XAR6,*-SP[12]         ; [CPU_] |392| 
    1634 00000394 0E53          MOVU      ACC,*-SP[19]          ; [CPU_] |392| 
    1635 00000395 C242          MOVL      *-SP[2],XAR6          ; [CPU_] |392| 
    1636 00000396 8A46          MOVL      XAR4,*-SP[6]          ; [CPU_] |392| 
    1637              $C$DW$69        .dwtag  DW_TAG_TI_branch
    1638                      .dwattr $C$DW$69, DW_AT_low_pc(0x00)
    1639                      .dwattr $C$DW$69, DW_AT_name("_add_to_bitcolumn_checksum")
    1640                      .dwattr $C$DW$69, DW_AT_TI_call
    1641 00000397 7640+         LCR       #_add_to_bitcolumn_checksum ; [CPU_] |392| 
         00000398 0202 
    1642                      ; call occurs [#_add_to_bitcolumn_checksum] ; [] |392| 
    1643 00000399 5601          ADDL      *-SP[14],ACC          ; [CPU_] |392| 
         0000039a 004E 
    1644                      .dwpsn  file "C:/Users/a0221343/Git/bootROM/f28004x_bootrom/F28004x_ROM_dev_PG2.0/F28004x_ROM/bootROM
    1645 0000039b C44C          MOVL      XAR6,*-SP[12]         ; [CPU_] |393| 
    1646 0000039c 9253          MOV       AL,*-SP[19]           ; [CPU_] |393| 
    1647 0000039d C242          MOVL      *-SP[2],XAR6          ; [CPU_] |393| 
    1648 0000039e 8A46          MOVL      XAR4,*-SP[6]          ; [CPU_] |393| 
    1649 0000039f 9C01          ADDB      AL,#1                 ; [CPU_] |393| 
    1650 000003a0 0EA9          MOVU      ACC,AL                ; [CPU_] |393| 
    1651              $C$DW$70        .dwtag  DW_TAG_TI_branch
    1652                      .dwattr $C$DW$70, DW_AT_low_pc(0x00)
    1653                      .dwattr $C$DW$70, DW_AT_name("_add_to_bitcolumn_checksum")
    1654                      .dwattr $C$DW$70, DW_AT_TI_call
    1655 000003a1 7640+         LCR       #_add_to_bitcolumn_checksum ; [CPU_] |393| 
         000003a2 0202 
    1656                      ; call occurs [#_add_to_bitcolumn_checksum] ; [] |393| 
    1657 000003a3 5601          ADDL      *-SP[14],ACC          ; [CPU_] |393| 
         000003a4 004E 
    1658                      .dwpsn  file "C:/Users/a0221343/Git/bootROM/f28004x_bootrom/F28004x_ROM_dev_PG2.0/F28004x_ROM/bootROM
    1659 000003a5 C44C          MOVL      XAR6,*-SP[12]         ; [CPU_] |394| 
    1660 000003a6 9253          MOV       AL,*-SP[19]           ; [CPU_] |394| 
    1661 000003a7 C242          MOVL      *-SP[2],XAR6          ; [CPU_] |394| 
    1662 000003a8 8A46          MOVL      XAR4,*-SP[6]          ; [CPU_] |394| 
    1663 000003a9 9C02          ADDB      AL,#2                 ; [CPU_] |394| 
    1664 000003aa 0EA9          MOVU      ACC,AL                ; [CPU_] |394| 
TMS320C2000 Assembler PC v6.4.4 Tue Feb 14 14:42:40 2017

Tools Copyright (c) 1996-2015 Texas Instruments Incorporated
C:\Users\a0221343\AppData\Local\Temp\0584010                         PAGE   35

    1665              $C$DW$71        .dwtag  DW_TAG_TI_branch
    1666                      .dwattr $C$DW$71, DW_AT_low_pc(0x00)
    1667                      .dwattr $C$DW$71, DW_AT_name("_add_to_bitcolumn_checksum")
    1668                      .dwattr $C$DW$71, DW_AT_TI_call
    1669 000003ab 7640+         LCR       #_add_to_bitcolumn_checksum ; [CPU_] |394| 
         000003ac 0202 
    1670                      ; call occurs [#_add_to_bitcolumn_checksum] ; [] |394| 
    1671 000003ad 5601          ADDL      *-SP[14],ACC          ; [CPU_] |394| 
         000003ae 004E 
    1672                      .dwpsn  file "C:/Users/a0221343/Git/bootROM/f28004x_bootrom/F28004x_ROM_dev_PG2.0/F28004x_ROM/bootROM
    1673 000003af 0201          MOVB      ACC,#1                ; [CPU_] |396| 
    1674 000003b0 0752          ADDL      ACC,*-SP[18]          ; [CPU_] |396| 
    1675 000003b1 1EAC          MOVL      XT,ACC                ; [CPU_] |396| 
    1676 000003b2 5665          IMPYXUL   P,XT,*-SP[16]         ; [CPU_] |396| 
         000003b3 0050 
    1677 000003b4 A950          MOVL      *-SP[16],P            ; [CPU_] |396| 
    1678                      .dwpsn  file "C:/Users/a0221343/Git/bootROM/f28004x_bootrom/F28004x_ROM_dev_PG2.0/F28004x_ROM/bootROM
    1679 000003b5 0652          MOVL      ACC,*-SP[18]          ; [CPU_] |397| 
    1680 000003b6 9B00          MOVB      AH,#0                 ; [CPU_] |397| 
    1681 000003b7 9001          ANDB      AL,#0x01              ; [CPU_] |397| 
    1682 000003b8 0902          ADDB      ACC,#2                ; [CPU_] |397| 
    1683 000003b9 1EAC          MOVL      XT,ACC                ; [CPU_] |397| 
    1684 000003ba 5665          IMPYXUL   P,XT,*-SP[16]         ; [CPU_] |397| 
         000003bb 0050 
    1685 000003bc A950          MOVL      *-SP[16],P            ; [CPU_] |397| 
    1686                      .dwpsn  file "C:/Users/a0221343/Git/bootROM/f28004x_bootrom/F28004x_ROM_dev_PG2.0/F28004x_ROM/bootROM
    1687 000003bd 0652          MOVL      ACC,*-SP[18]          ; [CPU_] |398| 
    1688 000003be 9B00          MOVB      AH,#0                 ; [CPU_] |398| 
    1689 000003bf 9001          ANDB      AL,#0x01              ; [CPU_] |398| 
    1690 000003c0 0903          ADDB      ACC,#3                ; [CPU_] |398| 
    1691 000003c1 1EAC          MOVL      XT,ACC                ; [CPU_] |398| 
    1692 000003c2 5665          IMPYXUL   P,XT,*-SP[16]         ; [CPU_] |398| 
         000003c3 0050 
    1693 000003c4 A950          MOVL      *-SP[16],P            ; [CPU_] |398| 
    1694                      .dwpsn  file "C:/Users/a0221343/Git/bootROM/f28004x_bootrom/F28004x_ROM_dev_PG2.0/F28004x_ROM/bootROM
    1695 000003c5 FFEF          B         $C$L45,UNC            ; [CPU_] |399| 
         000003c6 01A1 
    1696                      ; branch occurs ; [] |399| 
    1697 000003c7       $C$L37:    
    1698                      .dwpsn  file "C:/Users/a0221343/Git/bootROM/f28004x_bootrom/F28004x_ROM_dev_PG2.0/F28004x_ROM/bootROM
    1699 000003c7 9248          MOV       AL,*-SP[8]            ; [CPU_] |400| 
    1700 000003c8 900F          ANDB      AL,#0x0f              ; [CPU_] |400| 
    1701 000003c9 5208          CMPB      AL,#8                 ; [CPU_] |400| 
    1702 000003ca ED19          BF        $C$L38,NEQ            ; [CPU_] |400| 
    1703                      ; branchcc occurs ; [] |400| 
    1704                      .dwpsn  file "C:/Users/a0221343/Git/bootROM/f28004x_bootrom/F28004x_ROM_dev_PG2.0/F28004x_ROM/bootROM
    1705 000003cb 8A46          MOVL      XAR4,*-SP[6]          ; [CPU_] |402| 
    1706 000003cc 0201          MOVB      ACC,#1                ; [CPU_] |402| 
    1707 000003cd 5601          ADDL      *+XAR4[0],ACC         ; [CPU_] |402| 
         000003ce 00C4 
    1708                      .dwpsn  file "C:/Users/a0221343/Git/bootROM/f28004x_bootrom/F28004x_ROM_dev_PG2.0/F28004x_ROM/bootROM
    1709 000003cf C44C          MOVL      XAR6,*-SP[12]         ; [CPU_] |403| 
    1710 000003d0 9253          MOV       AL,*-SP[19]           ; [CPU_] |403| 
    1711 000003d1 C242          MOVL      *-SP[2],XAR6          ; [CPU_] |403| 
    1712 000003d2 8A46          MOVL      XAR4,*-SP[6]          ; [CPU_] |403| 
TMS320C2000 Assembler PC v6.4.4 Tue Feb 14 14:42:40 2017

Tools Copyright (c) 1996-2015 Texas Instruments Incorporated
C:\Users\a0221343\AppData\Local\Temp\0584010                         PAGE   36

    1713 000003d3 9C03          ADDB      AL,#3                 ; [CPU_] |403| 
    1714 000003d4 0EA9          MOVU      ACC,AL                ; [CPU_] |403| 
    1715              $C$DW$72        .dwtag  DW_TAG_TI_branch
    1716                      .dwattr $C$DW$72, DW_AT_low_pc(0x00)
    1717                      .dwattr $C$DW$72, DW_AT_name("_add_to_bitcolumn_checksum")
    1718                      .dwattr $C$DW$72, DW_AT_TI_call
    1719 000003d5 7640+         LCR       #_add_to_bitcolumn_checksum ; [CPU_] |403| 
         000003d6 0202 
    1720                      ; call occurs [#_add_to_bitcolumn_checksum] ; [] |403| 
    1721 000003d7 5601          ADDL      *-SP[14],ACC          ; [CPU_] |403| 
         000003d8 004E 
    1722                      .dwpsn  file "C:/Users/a0221343/Git/bootROM/f28004x_bootrom/F28004x_ROM_dev_PG2.0/F28004x_ROM/bootROM
    1723 000003d9 8A52          MOVL      XAR4,*-SP[18]         ; [CPU_] |405| 
    1724 000003da 0204          MOVB      ACC,#4                ; [CPU_] |405| 
    1725 000003db 0752          ADDL      ACC,*-SP[18]          ; [CPU_] |405| 
    1726 000003dc DC81          SUBB      XAR4,#1               ; [CPU_] |405| 
    1727 000003dd 1EAC          MOVL      XT,ACC                ; [CPU_] |405| 
    1728 000003de 5665          IMPYXUL   P,XT,XAR4             ; [CPU_] |405| 
         000003df 00A4 
    1729 000003e0 A950          MOVL      *-SP[16],P            ; [CPU_] |405| 
    1730                      .dwpsn  file "C:/Users/a0221343/Git/bootROM/f28004x_bootrom/F28004x_ROM_dev_PG2.0/F28004x_ROM/bootROM
    1731 000003e1 FFEF          B         $C$L45,UNC            ; [CPU_] |407| 
         000003e2 0185 
    1732                      ; branch occurs ; [] |407| 
    1733 000003e3       $C$L38:    
    1734                      .dwpsn  file "C:/Users/a0221343/Git/bootROM/f28004x_bootrom/F28004x_ROM_dev_PG2.0/F28004x_ROM/bootROM
    1735 000003e3 9248          MOV       AL,*-SP[8]            ; [CPU_] |408| 
    1736 000003e4 900F          ANDB      AL,#0x0f              ; [CPU_] |408| 
    1737 000003e5 5209          CMPB      AL,#9                 ; [CPU_] |408| 
    1738 000003e6 ED27          BF        $C$L39,NEQ            ; [CPU_] |408| 
    1739                      ; branchcc occurs ; [] |408| 
    1740                      .dwpsn  file "C:/Users/a0221343/Git/bootROM/f28004x_bootrom/F28004x_ROM_dev_PG2.0/F28004x_ROM/bootROM
    1741 000003e7 8A46          MOVL      XAR4,*-SP[6]          ; [CPU_] |410| 
    1742 000003e8 0202          MOVB      ACC,#2                ; [CPU_] |410| 
    1743 000003e9 5601          ADDL      *+XAR4[0],ACC         ; [CPU_] |410| 
         000003ea 00C4 
    1744                      .dwpsn  file "C:/Users/a0221343/Git/bootROM/f28004x_bootrom/F28004x_ROM_dev_PG2.0/F28004x_ROM/bootROM
    1745 000003eb C44C          MOVL      XAR6,*-SP[12]         ; [CPU_] |411| 
    1746 000003ec 0E53          MOVU      ACC,*-SP[19]          ; [CPU_] |411| 
    1747 000003ed C242          MOVL      *-SP[2],XAR6          ; [CPU_] |411| 
    1748 000003ee 8A46          MOVL      XAR4,*-SP[6]          ; [CPU_] |411| 
    1749              $C$DW$73        .dwtag  DW_TAG_TI_branch
    1750                      .dwattr $C$DW$73, DW_AT_low_pc(0x00)
    1751                      .dwattr $C$DW$73, DW_AT_name("_add_to_bitcolumn_checksum")
    1752                      .dwattr $C$DW$73, DW_AT_TI_call
    1753 000003ef 7640+         LCR       #_add_to_bitcolumn_checksum ; [CPU_] |411| 
         000003f0 0202 
    1754                      ; call occurs [#_add_to_bitcolumn_checksum] ; [] |411| 
    1755 000003f1 5601          ADDL      *-SP[14],ACC          ; [CPU_] |411| 
         000003f2 004E 
    1756                      .dwpsn  file "C:/Users/a0221343/Git/bootROM/f28004x_bootrom/F28004x_ROM_dev_PG2.0/F28004x_ROM/bootROM
    1757 000003f3 C44C          MOVL      XAR6,*-SP[12]         ; [CPU_] |412| 
    1758 000003f4 9253          MOV       AL,*-SP[19]           ; [CPU_] |412| 
    1759 000003f5 C242          MOVL      *-SP[2],XAR6          ; [CPU_] |412| 
    1760 000003f6 8A46          MOVL      XAR4,*-SP[6]          ; [CPU_] |412| 
TMS320C2000 Assembler PC v6.4.4 Tue Feb 14 14:42:40 2017

Tools Copyright (c) 1996-2015 Texas Instruments Incorporated
C:\Users\a0221343\AppData\Local\Temp\0584010                         PAGE   37

    1761 000003f7 9C03          ADDB      AL,#3                 ; [CPU_] |412| 
    1762 000003f8 0EA9          MOVU      ACC,AL                ; [CPU_] |412| 
    1763              $C$DW$74        .dwtag  DW_TAG_TI_branch
    1764                      .dwattr $C$DW$74, DW_AT_low_pc(0x00)
    1765                      .dwattr $C$DW$74, DW_AT_name("_add_to_bitcolumn_checksum")
    1766                      .dwattr $C$DW$74, DW_AT_TI_call
    1767 000003f9 7640+         LCR       #_add_to_bitcolumn_checksum ; [CPU_] |412| 
         000003fa 0202 
    1768                      ; call occurs [#_add_to_bitcolumn_checksum] ; [] |412| 
    1769 000003fb 5601          ADDL      *-SP[14],ACC          ; [CPU_] |412| 
         000003fc 004E 
    1770                      .dwpsn  file "C:/Users/a0221343/Git/bootROM/f28004x_bootrom/F28004x_ROM_dev_PG2.0/F28004x_ROM/bootROM
    1771 000003fd 0201          MOVB      ACC,#1                ; [CPU_] |414| 
    1772 000003fe 0752          ADDL      ACC,*-SP[18]          ; [CPU_] |414| 
    1773 000003ff 1EAC          MOVL      XT,ACC                ; [CPU_] |414| 
    1774 00000400 5665          IMPYXUL   P,XT,*-SP[16]         ; [CPU_] |414| 
         00000401 0050 
    1775 00000402 A950          MOVL      *-SP[16],P            ; [CPU_] |414| 
    1776                      .dwpsn  file "C:/Users/a0221343/Git/bootROM/f28004x_bootrom/F28004x_ROM_dev_PG2.0/F28004x_ROM/bootROM
    1777 00000403 0652          MOVL      ACC,*-SP[18]          ; [CPU_] |415| 
    1778 00000404 9B00          MOVB      AH,#0                 ; [CPU_] |415| 
    1779 00000405 9001          ANDB      AL,#0x01              ; [CPU_] |415| 
    1780 00000406 0904          ADDB      ACC,#4                ; [CPU_] |415| 
    1781 00000407 1EAC          MOVL      XT,ACC                ; [CPU_] |415| 
    1782 00000408 5665          IMPYXUL   P,XT,*-SP[16]         ; [CPU_] |415| 
         00000409 0050 
    1783 0000040a A950          MOVL      *-SP[16],P            ; [CPU_] |415| 
    1784                      .dwpsn  file "C:/Users/a0221343/Git/bootROM/f28004x_bootrom/F28004x_ROM_dev_PG2.0/F28004x_ROM/bootROM
    1785 0000040b FFEF          B         $C$L45,UNC            ; [CPU_] |416| 
         0000040c 015B 
    1786                      ; branch occurs ; [] |416| 
    1787 0000040d       $C$L39:    
    1788                      .dwpsn  file "C:/Users/a0221343/Git/bootROM/f28004x_bootrom/F28004x_ROM_dev_PG2.0/F28004x_ROM/bootROM
    1789 0000040d 9248          MOV       AL,*-SP[8]            ; [CPU_] |418| 
    1790 0000040e 900F          ANDB      AL,#0x0f              ; [CPU_] |418| 
    1791 0000040f 520A          CMPB      AL,#10                ; [CPU_] |418| 
    1792 00000410 ED29          BF        $C$L40,NEQ            ; [CPU_] |418| 
    1793                      ; branchcc occurs ; [] |418| 
    1794                      .dwpsn  file "C:/Users/a0221343/Git/bootROM/f28004x_bootrom/F28004x_ROM_dev_PG2.0/F28004x_ROM/bootROM
    1795 00000411 8A46          MOVL      XAR4,*-SP[6]          ; [CPU_] |420| 
    1796 00000412 0202          MOVB      ACC,#2                ; [CPU_] |420| 
    1797 00000413 5601          ADDL      *+XAR4[0],ACC         ; [CPU_] |420| 
         00000414 00C4 
    1798                      .dwpsn  file "C:/Users/a0221343/Git/bootROM/f28004x_bootrom/F28004x_ROM_dev_PG2.0/F28004x_ROM/bootROM
    1799 00000415 C44C          MOVL      XAR6,*-SP[12]         ; [CPU_] |421| 
    1800 00000416 9253          MOV       AL,*-SP[19]           ; [CPU_] |421| 
    1801 00000417 C242          MOVL      *-SP[2],XAR6          ; [CPU_] |421| 
    1802 00000418 8A46          MOVL      XAR4,*-SP[6]          ; [CPU_] |421| 
    1803 00000419 9C01          ADDB      AL,#1                 ; [CPU_] |421| 
    1804 0000041a 0EA9          MOVU      ACC,AL                ; [CPU_] |421| 
    1805              $C$DW$75        .dwtag  DW_TAG_TI_branch
    1806                      .dwattr $C$DW$75, DW_AT_low_pc(0x00)
    1807                      .dwattr $C$DW$75, DW_AT_name("_add_to_bitcolumn_checksum")
    1808                      .dwattr $C$DW$75, DW_AT_TI_call
    1809 0000041b 7640+         LCR       #_add_to_bitcolumn_checksum ; [CPU_] |421| 
TMS320C2000 Assembler PC v6.4.4 Tue Feb 14 14:42:40 2017

Tools Copyright (c) 1996-2015 Texas Instruments Incorporated
C:\Users\a0221343\AppData\Local\Temp\0584010                         PAGE   38

         0000041c 0202 
    1810                      ; call occurs [#_add_to_bitcolumn_checksum] ; [] |421| 
    1811 0000041d 5601          ADDL      *-SP[14],ACC          ; [CPU_] |421| 
         0000041e 004E 
    1812                      .dwpsn  file "C:/Users/a0221343/Git/bootROM/f28004x_bootrom/F28004x_ROM_dev_PG2.0/F28004x_ROM/bootROM
    1813 0000041f C44C          MOVL      XAR6,*-SP[12]         ; [CPU_] |422| 
    1814 00000420 9253          MOV       AL,*-SP[19]           ; [CPU_] |422| 
    1815 00000421 C242          MOVL      *-SP[2],XAR6          ; [CPU_] |422| 
    1816 00000422 8A46          MOVL      XAR4,*-SP[6]          ; [CPU_] |422| 
    1817 00000423 9C03          ADDB      AL,#3                 ; [CPU_] |422| 
    1818 00000424 0EA9          MOVU      ACC,AL                ; [CPU_] |422| 
    1819              $C$DW$76        .dwtag  DW_TAG_TI_branch
    1820                      .dwattr $C$DW$76, DW_AT_low_pc(0x00)
    1821                      .dwattr $C$DW$76, DW_AT_name("_add_to_bitcolumn_checksum")
    1822                      .dwattr $C$DW$76, DW_AT_TI_call
    1823 00000425 7640+         LCR       #_add_to_bitcolumn_checksum ; [CPU_] |422| 
         00000426 0202 
    1824                      ; call occurs [#_add_to_bitcolumn_checksum] ; [] |422| 
    1825 00000427 5601          ADDL      *-SP[14],ACC          ; [CPU_] |422| 
         00000428 004E 
    1826                      .dwpsn  file "C:/Users/a0221343/Git/bootROM/f28004x_bootrom/F28004x_ROM_dev_PG2.0/F28004x_ROM/bootROM
    1827 00000429 0202          MOVB      ACC,#2                ; [CPU_] |424| 
    1828 0000042a 0752          ADDL      ACC,*-SP[18]          ; [CPU_] |424| 
    1829 0000042b 1EAC          MOVL      XT,ACC                ; [CPU_] |424| 
    1830 0000042c 5665          IMPYXUL   P,XT,*-SP[16]         ; [CPU_] |424| 
         0000042d 0050 
    1831 0000042e A950          MOVL      *-SP[16],P            ; [CPU_] |424| 
    1832                      .dwpsn  file "C:/Users/a0221343/Git/bootROM/f28004x_bootrom/F28004x_ROM_dev_PG2.0/F28004x_ROM/bootROM
    1833 0000042f 0652          MOVL      ACC,*-SP[18]          ; [CPU_] |425| 
    1834 00000430 9B00          MOVB      AH,#0                 ; [CPU_] |425| 
    1835 00000431 9001          ANDB      AL,#0x01              ; [CPU_] |425| 
    1836 00000432 0904          ADDB      ACC,#4                ; [CPU_] |425| 
    1837 00000433 1EAC          MOVL      XT,ACC                ; [CPU_] |425| 
    1838 00000434 5665          IMPYXUL   P,XT,*-SP[16]         ; [CPU_] |425| 
         00000435 0050 
    1839 00000436 A950          MOVL      *-SP[16],P            ; [CPU_] |425| 
    1840                      .dwpsn  file "C:/Users/a0221343/Git/bootROM/f28004x_bootrom/F28004x_ROM_dev_PG2.0/F28004x_ROM/bootROM
    1841 00000437 FFEF          B         $C$L45,UNC            ; [CPU_] |426| 
         00000438 012F 
    1842                      ; branch occurs ; [] |426| 
    1843 00000439       $C$L40:    
    1844                      .dwpsn  file "C:/Users/a0221343/Git/bootROM/f28004x_bootrom/F28004x_ROM_dev_PG2.0/F28004x_ROM/bootROM
    1845 00000439 9248          MOV       AL,*-SP[8]            ; [CPU_] |427| 
    1846 0000043a 900F          ANDB      AL,#0x0f              ; [CPU_] |427| 
    1847 0000043b 520B          CMPB      AL,#11                ; [CPU_] |427| 
    1848 0000043c ED39          BF        $C$L41,NEQ            ; [CPU_] |427| 
    1849                      ; branchcc occurs ; [] |427| 
    1850                      .dwpsn  file "C:/Users/a0221343/Git/bootROM/f28004x_bootrom/F28004x_ROM_dev_PG2.0/F28004x_ROM/bootROM
    1851 0000043d 8A46          MOVL      XAR4,*-SP[6]          ; [CPU_] |429| 
    1852 0000043e 0203          MOVB      ACC,#3                ; [CPU_] |429| 
    1853 0000043f 5601          ADDL      *+XAR4[0],ACC         ; [CPU_] |429| 
         00000440 00C4 
    1854                      .dwpsn  file "C:/Users/a0221343/Git/bootROM/f28004x_bootrom/F28004x_ROM_dev_PG2.0/F28004x_ROM/bootROM
    1855 00000441 C44C          MOVL      XAR6,*-SP[12]         ; [CPU_] |430| 
    1856 00000442 0E53          MOVU      ACC,*-SP[19]          ; [CPU_] |430| 
TMS320C2000 Assembler PC v6.4.4 Tue Feb 14 14:42:40 2017

Tools Copyright (c) 1996-2015 Texas Instruments Incorporated
C:\Users\a0221343\AppData\Local\Temp\0584010                         PAGE   39

    1857 00000443 C242          MOVL      *-SP[2],XAR6          ; [CPU_] |430| 
    1858 00000444 8A46          MOVL      XAR4,*-SP[6]          ; [CPU_] |430| 
    1859              $C$DW$77        .dwtag  DW_TAG_TI_branch
    1860                      .dwattr $C$DW$77, DW_AT_low_pc(0x00)
    1861                      .dwattr $C$DW$77, DW_AT_name("_add_to_bitcolumn_checksum")
    1862                      .dwattr $C$DW$77, DW_AT_TI_call
    1863 00000445 7640+         LCR       #_add_to_bitcolumn_checksum ; [CPU_] |430| 
         00000446 0202 
    1864                      ; call occurs [#_add_to_bitcolumn_checksum] ; [] |430| 
    1865 00000447 5601          ADDL      *-SP[14],ACC          ; [CPU_] |430| 
         00000448 004E 
    1866                      .dwpsn  file "C:/Users/a0221343/Git/bootROM/f28004x_bootrom/F28004x_ROM_dev_PG2.0/F28004x_ROM/bootROM
    1867 00000449 C44C          MOVL      XAR6,*-SP[12]         ; [CPU_] |431| 
    1868 0000044a 9253          MOV       AL,*-SP[19]           ; [CPU_] |431| 
    1869 0000044b C242          MOVL      *-SP[2],XAR6          ; [CPU_] |431| 
    1870 0000044c 8A46          MOVL      XAR4,*-SP[6]          ; [CPU_] |431| 
    1871 0000044d 9C01          ADDB      AL,#1                 ; [CPU_] |431| 
    1872 0000044e 0EA9          MOVU      ACC,AL                ; [CPU_] |431| 
    1873              $C$DW$78        .dwtag  DW_TAG_TI_branch
    1874                      .dwattr $C$DW$78, DW_AT_low_pc(0x00)
    1875                      .dwattr $C$DW$78, DW_AT_name("_add_to_bitcolumn_checksum")
    1876                      .dwattr $C$DW$78, DW_AT_TI_call
    1877 0000044f 7640+         LCR       #_add_to_bitcolumn_checksum ; [CPU_] |431| 
         00000450 0202 
    1878                      ; call occurs [#_add_to_bitcolumn_checksum] ; [] |431| 
    1879 00000451 5601          ADDL      *-SP[14],ACC          ; [CPU_] |431| 
         00000452 004E 
    1880                      .dwpsn  file "C:/Users/a0221343/Git/bootROM/f28004x_bootrom/F28004x_ROM_dev_PG2.0/F28004x_ROM/bootROM
    1881 00000453 C44C          MOVL      XAR6,*-SP[12]         ; [CPU_] |432| 
    1882 00000454 9253          MOV       AL,*-SP[19]           ; [CPU_] |432| 
    1883 00000455 C242          MOVL      *-SP[2],XAR6          ; [CPU_] |432| 
    1884 00000456 8A46          MOVL      XAR4,*-SP[6]          ; [CPU_] |432| 
    1885 00000457 9C03          ADDB      AL,#3                 ; [CPU_] |432| 
    1886 00000458 0EA9          MOVU      ACC,AL                ; [CPU_] |432| 
    1887              $C$DW$79        .dwtag  DW_TAG_TI_branch
    1888                      .dwattr $C$DW$79, DW_AT_low_pc(0x00)
    1889                      .dwattr $C$DW$79, DW_AT_name("_add_to_bitcolumn_checksum")
    1890                      .dwattr $C$DW$79, DW_AT_TI_call
    1891 00000459 7640+         LCR       #_add_to_bitcolumn_checksum ; [CPU_] |432| 
         0000045a 0202 
    1892                      ; call occurs [#_add_to_bitcolumn_checksum] ; [] |432| 
    1893 0000045b 5601          ADDL      *-SP[14],ACC          ; [CPU_] |432| 
         0000045c 004E 
    1894                      .dwpsn  file "C:/Users/a0221343/Git/bootROM/f28004x_bootrom/F28004x_ROM_dev_PG2.0/F28004x_ROM/bootROM
    1895 0000045d 0201          MOVB      ACC,#1                ; [CPU_] |434| 
    1896 0000045e 0752          ADDL      ACC,*-SP[18]          ; [CPU_] |434| 
    1897 0000045f 1EAC          MOVL      XT,ACC                ; [CPU_] |434| 
    1898 00000460 5665          IMPYXUL   P,XT,*-SP[16]         ; [CPU_] |434| 
         00000461 0050 
    1899 00000462 A950          MOVL      *-SP[16],P            ; [CPU_] |434| 
    1900                      .dwpsn  file "C:/Users/a0221343/Git/bootROM/f28004x_bootrom/F28004x_ROM_dev_PG2.0/F28004x_ROM/bootROM
    1901 00000463 0652          MOVL      ACC,*-SP[18]          ; [CPU_] |435| 
    1902 00000464 9B00          MOVB      AH,#0                 ; [CPU_] |435| 
    1903 00000465 9001          ANDB      AL,#0x01              ; [CPU_] |435| 
    1904 00000466 0902          ADDB      ACC,#2                ; [CPU_] |435| 
TMS320C2000 Assembler PC v6.4.4 Tue Feb 14 14:42:40 2017

Tools Copyright (c) 1996-2015 Texas Instruments Incorporated
C:\Users\a0221343\AppData\Local\Temp\0584010                         PAGE   40

    1905 00000467 1EAC          MOVL      XT,ACC                ; [CPU_] |435| 
    1906 00000468 5665          IMPYXUL   P,XT,*-SP[16]         ; [CPU_] |435| 
         00000469 0050 
    1907 0000046a A950          MOVL      *-SP[16],P            ; [CPU_] |435| 
    1908                      .dwpsn  file "C:/Users/a0221343/Git/bootROM/f28004x_bootrom/F28004x_ROM_dev_PG2.0/F28004x_ROM/bootROM
    1909 0000046b 0652          MOVL      ACC,*-SP[18]          ; [CPU_] |436| 
    1910 0000046c 9B00          MOVB      AH,#0                 ; [CPU_] |436| 
    1911 0000046d 9001          ANDB      AL,#0x01              ; [CPU_] |436| 
    1912 0000046e 0904          ADDB      ACC,#4                ; [CPU_] |436| 
    1913 0000046f 1EAC          MOVL      XT,ACC                ; [CPU_] |436| 
    1914 00000470 5665          IMPYXUL   P,XT,*-SP[16]         ; [CPU_] |436| 
         00000471 0050 
    1915 00000472 A950          MOVL      *-SP[16],P            ; [CPU_] |436| 
    1916                      .dwpsn  file "C:/Users/a0221343/Git/bootROM/f28004x_bootrom/F28004x_ROM_dev_PG2.0/F28004x_ROM/bootROM
    1917 00000473 FFEF          B         $C$L45,UNC            ; [CPU_] |437| 
         00000474 00F3 
    1918                      ; branch occurs ; [] |437| 
    1919 00000475       $C$L41:    
    1920                      .dwpsn  file "C:/Users/a0221343/Git/bootROM/f28004x_bootrom/F28004x_ROM_dev_PG2.0/F28004x_ROM/bootROM
    1921 00000475 9248          MOV       AL,*-SP[8]            ; [CPU_] |438| 
    1922 00000476 900F          ANDB      AL,#0x0f              ; [CPU_] |438| 
    1923 00000477 520C          CMPB      AL,#12                ; [CPU_] |438| 
    1924 00000478 ED29          BF        $C$L42,NEQ            ; [CPU_] |438| 
    1925                      ; branchcc occurs ; [] |438| 
    1926                      .dwpsn  file "C:/Users/a0221343/Git/bootROM/f28004x_bootrom/F28004x_ROM_dev_PG2.0/F28004x_ROM/bootROM
    1927 00000479 8A46          MOVL      XAR4,*-SP[6]          ; [CPU_] |440| 
    1928 0000047a 0202          MOVB      ACC,#2                ; [CPU_] |440| 
    1929 0000047b 5601          ADDL      *+XAR4[0],ACC         ; [CPU_] |440| 
         0000047c 00C4 
    1930                      .dwpsn  file "C:/Users/a0221343/Git/bootROM/f28004x_bootrom/F28004x_ROM_dev_PG2.0/F28004x_ROM/bootROM
    1931 0000047d C44C          MOVL      XAR6,*-SP[12]         ; [CPU_] |441| 
    1932 0000047e 9253          MOV       AL,*-SP[19]           ; [CPU_] |441| 
    1933 0000047f C242          MOVL      *-SP[2],XAR6          ; [CPU_] |441| 
    1934 00000480 8A46          MOVL      XAR4,*-SP[6]          ; [CPU_] |441| 
    1935 00000481 9C02          ADDB      AL,#2                 ; [CPU_] |441| 
    1936 00000482 0EA9          MOVU      ACC,AL                ; [CPU_] |441| 
    1937              $C$DW$80        .dwtag  DW_TAG_TI_branch
    1938                      .dwattr $C$DW$80, DW_AT_low_pc(0x00)
    1939                      .dwattr $C$DW$80, DW_AT_name("_add_to_bitcolumn_checksum")
    1940                      .dwattr $C$DW$80, DW_AT_TI_call
    1941 00000483 7640+         LCR       #_add_to_bitcolumn_checksum ; [CPU_] |441| 
         00000484 0202 
    1942                      ; call occurs [#_add_to_bitcolumn_checksum] ; [] |441| 
    1943 00000485 5601          ADDL      *-SP[14],ACC          ; [CPU_] |441| 
         00000486 004E 
    1944                      .dwpsn  file "C:/Users/a0221343/Git/bootROM/f28004x_bootrom/F28004x_ROM_dev_PG2.0/F28004x_ROM/bootROM
    1945 00000487 C44C          MOVL      XAR6,*-SP[12]         ; [CPU_] |442| 
    1946 00000488 9253          MOV       AL,*-SP[19]           ; [CPU_] |442| 
    1947 00000489 C242          MOVL      *-SP[2],XAR6          ; [CPU_] |442| 
    1948 0000048a 8A46          MOVL      XAR4,*-SP[6]          ; [CPU_] |442| 
    1949 0000048b 9C03          ADDB      AL,#3                 ; [CPU_] |442| 
    1950 0000048c 0EA9          MOVU      ACC,AL                ; [CPU_] |442| 
    1951              $C$DW$81        .dwtag  DW_TAG_TI_branch
    1952                      .dwattr $C$DW$81, DW_AT_low_pc(0x00)
    1953                      .dwattr $C$DW$81, DW_AT_name("_add_to_bitcolumn_checksum")
TMS320C2000 Assembler PC v6.4.4 Tue Feb 14 14:42:40 2017

Tools Copyright (c) 1996-2015 Texas Instruments Incorporated
C:\Users\a0221343\AppData\Local\Temp\0584010                         PAGE   41

    1954                      .dwattr $C$DW$81, DW_AT_TI_call
    1955 0000048d 7640+         LCR       #_add_to_bitcolumn_checksum ; [CPU_] |442| 
         0000048e 0202 
    1956                      ; call occurs [#_add_to_bitcolumn_checksum] ; [] |442| 
    1957 0000048f 5601          ADDL      *-SP[14],ACC          ; [CPU_] |442| 
         00000490 004E 
    1958                      .dwpsn  file "C:/Users/a0221343/Git/bootROM/f28004x_bootrom/F28004x_ROM_dev_PG2.0/F28004x_ROM/bootROM
    1959 00000491 0203          MOVB      ACC,#3                ; [CPU_] |444| 
    1960 00000492 0752          ADDL      ACC,*-SP[18]          ; [CPU_] |444| 
    1961 00000493 1EAC          MOVL      XT,ACC                ; [CPU_] |444| 
    1962 00000494 5665          IMPYXUL   P,XT,*-SP[16]         ; [CPU_] |444| 
         00000495 0050 
    1963 00000496 A950          MOVL      *-SP[16],P            ; [CPU_] |444| 
    1964                      .dwpsn  file "C:/Users/a0221343/Git/bootROM/f28004x_bootrom/F28004x_ROM_dev_PG2.0/F28004x_ROM/bootROM
    1965 00000497 0652          MOVL      ACC,*-SP[18]          ; [CPU_] |445| 
    1966 00000498 9B00          MOVB      AH,#0                 ; [CPU_] |445| 
    1967 00000499 9001          ANDB      AL,#0x01              ; [CPU_] |445| 
    1968 0000049a 0904          ADDB      ACC,#4                ; [CPU_] |445| 
    1969 0000049b 1EAC          MOVL      XT,ACC                ; [CPU_] |445| 
    1970 0000049c 5665          IMPYXUL   P,XT,*-SP[16]         ; [CPU_] |445| 
         0000049d 0050 
    1971 0000049e A950          MOVL      *-SP[16],P            ; [CPU_] |445| 
    1972                      .dwpsn  file "C:/Users/a0221343/Git/bootROM/f28004x_bootrom/F28004x_ROM_dev_PG2.0/F28004x_ROM/bootROM
    1973 0000049f FFEF          B         $C$L45,UNC            ; [CPU_] |446| 
         000004a0 00C7 
    1974                      ; branch occurs ; [] |446| 
    1975 000004a1       $C$L42:    
    1976                      .dwpsn  file "C:/Users/a0221343/Git/bootROM/f28004x_bootrom/F28004x_ROM_dev_PG2.0/F28004x_ROM/bootROM
    1977 000004a1 9248          MOV       AL,*-SP[8]            ; [CPU_] |447| 
    1978 000004a2 900F          ANDB      AL,#0x0f              ; [CPU_] |447| 
    1979 000004a3 520D          CMPB      AL,#13                ; [CPU_] |447| 
    1980 000004a4 ED39          BF        $C$L43,NEQ            ; [CPU_] |447| 
    1981                      ; branchcc occurs ; [] |447| 
    1982                      .dwpsn  file "C:/Users/a0221343/Git/bootROM/f28004x_bootrom/F28004x_ROM_dev_PG2.0/F28004x_ROM/bootROM
    1983 000004a5 8A46          MOVL      XAR4,*-SP[6]          ; [CPU_] |449| 
    1984 000004a6 0203          MOVB      ACC,#3                ; [CPU_] |449| 
    1985 000004a7 5601          ADDL      *+XAR4[0],ACC         ; [CPU_] |449| 
         000004a8 00C4 
    1986                      .dwpsn  file "C:/Users/a0221343/Git/bootROM/f28004x_bootrom/F28004x_ROM_dev_PG2.0/F28004x_ROM/bootROM
    1987 000004a9 C44C          MOVL      XAR6,*-SP[12]         ; [CPU_] |450| 
    1988 000004aa 0E53          MOVU      ACC,*-SP[19]          ; [CPU_] |450| 
    1989 000004ab C242          MOVL      *-SP[2],XAR6          ; [CPU_] |450| 
    1990 000004ac 8A46          MOVL      XAR4,*-SP[6]          ; [CPU_] |450| 
    1991              $C$DW$82        .dwtag  DW_TAG_TI_branch
    1992                      .dwattr $C$DW$82, DW_AT_low_pc(0x00)
    1993                      .dwattr $C$DW$82, DW_AT_name("_add_to_bitcolumn_checksum")
    1994                      .dwattr $C$DW$82, DW_AT_TI_call
    1995 000004ad 7640+         LCR       #_add_to_bitcolumn_checksum ; [CPU_] |450| 
         000004ae 0202 
    1996                      ; call occurs [#_add_to_bitcolumn_checksum] ; [] |450| 
    1997 000004af 5601          ADDL      *-SP[14],ACC          ; [CPU_] |450| 
         000004b0 004E 
    1998                      .dwpsn  file "C:/Users/a0221343/Git/bootROM/f28004x_bootrom/F28004x_ROM_dev_PG2.0/F28004x_ROM/bootROM
    1999 000004b1 C44C          MOVL      XAR6,*-SP[12]         ; [CPU_] |451| 
    2000 000004b2 9253          MOV       AL,*-SP[19]           ; [CPU_] |451| 
TMS320C2000 Assembler PC v6.4.4 Tue Feb 14 14:42:40 2017

Tools Copyright (c) 1996-2015 Texas Instruments Incorporated
C:\Users\a0221343\AppData\Local\Temp\0584010                         PAGE   42

    2001 000004b3 C242          MOVL      *-SP[2],XAR6          ; [CPU_] |451| 
    2002 000004b4 8A46          MOVL      XAR4,*-SP[6]          ; [CPU_] |451| 
    2003 000004b5 9C02          ADDB      AL,#2                 ; [CPU_] |451| 
    2004 000004b6 0EA9          MOVU      ACC,AL                ; [CPU_] |451| 
    2005              $C$DW$83        .dwtag  DW_TAG_TI_branch
    2006                      .dwattr $C$DW$83, DW_AT_low_pc(0x00)
    2007                      .dwattr $C$DW$83, DW_AT_name("_add_to_bitcolumn_checksum")
    2008                      .dwattr $C$DW$83, DW_AT_TI_call
    2009 000004b7 7640+         LCR       #_add_to_bitcolumn_checksum ; [CPU_] |451| 
         000004b8 0202 
    2010                      ; call occurs [#_add_to_bitcolumn_checksum] ; [] |451| 
    2011 000004b9 5601          ADDL      *-SP[14],ACC          ; [CPU_] |451| 
         000004ba 004E 
    2012                      .dwpsn  file "C:/Users/a0221343/Git/bootROM/f28004x_bootrom/F28004x_ROM_dev_PG2.0/F28004x_ROM/bootROM
    2013 000004bb C44C          MOVL      XAR6,*-SP[12]         ; [CPU_] |452| 
    2014 000004bc 9253          MOV       AL,*-SP[19]           ; [CPU_] |452| 
    2015 000004bd C242          MOVL      *-SP[2],XAR6          ; [CPU_] |452| 
    2016 000004be 8A46          MOVL      XAR4,*-SP[6]          ; [CPU_] |452| 
    2017 000004bf 9C03          ADDB      AL,#3                 ; [CPU_] |452| 
    2018 000004c0 0EA9          MOVU      ACC,AL                ; [CPU_] |452| 
    2019              $C$DW$84        .dwtag  DW_TAG_TI_branch
    2020                      .dwattr $C$DW$84, DW_AT_low_pc(0x00)
    2021                      .dwattr $C$DW$84, DW_AT_name("_add_to_bitcolumn_checksum")
    2022                      .dwattr $C$DW$84, DW_AT_TI_call
    2023 000004c1 7640+         LCR       #_add_to_bitcolumn_checksum ; [CPU_] |452| 
         000004c2 0202 
    2024                      ; call occurs [#_add_to_bitcolumn_checksum] ; [] |452| 
    2025 000004c3 5601          ADDL      *-SP[14],ACC          ; [CPU_] |452| 
         000004c4 004E 
    2026                      .dwpsn  file "C:/Users/a0221343/Git/bootROM/f28004x_bootrom/F28004x_ROM_dev_PG2.0/F28004x_ROM/bootROM
    2027 000004c5 0201          MOVB      ACC,#1                ; [CPU_] |454| 
    2028 000004c6 0752          ADDL      ACC,*-SP[18]          ; [CPU_] |454| 
    2029 000004c7 1EAC          MOVL      XT,ACC                ; [CPU_] |454| 
    2030 000004c8 5665          IMPYXUL   P,XT,*-SP[16]         ; [CPU_] |454| 
         000004c9 0050 
    2031 000004ca A950          MOVL      *-SP[16],P            ; [CPU_] |454| 
    2032                      .dwpsn  file "C:/Users/a0221343/Git/bootROM/f28004x_bootrom/F28004x_ROM_dev_PG2.0/F28004x_ROM/bootROM
    2033 000004cb 0652          MOVL      ACC,*-SP[18]          ; [CPU_] |455| 
    2034 000004cc 9B00          MOVB      AH,#0                 ; [CPU_] |455| 
    2035 000004cd 9001          ANDB      AL,#0x01              ; [CPU_] |455| 
    2036 000004ce 0903          ADDB      ACC,#3                ; [CPU_] |455| 
    2037 000004cf 1EAC          MOVL      XT,ACC                ; [CPU_] |455| 
    2038 000004d0 5665          IMPYXUL   P,XT,*-SP[16]         ; [CPU_] |455| 
         000004d1 0050 
    2039 000004d2 A950          MOVL      *-SP[16],P            ; [CPU_] |455| 
    2040                      .dwpsn  file "C:/Users/a0221343/Git/bootROM/f28004x_bootrom/F28004x_ROM_dev_PG2.0/F28004x_ROM/bootROM
    2041 000004d3 0652          MOVL      ACC,*-SP[18]          ; [CPU_] |456| 
    2042 000004d4 9B00          MOVB      AH,#0                 ; [CPU_] |456| 
    2043 000004d5 9001          ANDB      AL,#0x01              ; [CPU_] |456| 
    2044 000004d6 0904          ADDB      ACC,#4                ; [CPU_] |456| 
    2045 000004d7 1EAC          MOVL      XT,ACC                ; [CPU_] |456| 
    2046 000004d8 5665          IMPYXUL   P,XT,*-SP[16]         ; [CPU_] |456| 
         000004d9 0050 
    2047 000004da A950          MOVL      *-SP[16],P            ; [CPU_] |456| 
    2048                      .dwpsn  file "C:/Users/a0221343/Git/bootROM/f28004x_bootrom/F28004x_ROM_dev_PG2.0/F28004x_ROM/bootROM
TMS320C2000 Assembler PC v6.4.4 Tue Feb 14 14:42:40 2017

Tools Copyright (c) 1996-2015 Texas Instruments Incorporated
C:\Users\a0221343\AppData\Local\Temp\0584010                         PAGE   43

    2049 000004db FFEF          B         $C$L45,UNC            ; [CPU_] |457| 
         000004dc 008B 
    2050                      ; branch occurs ; [] |457| 
    2051 000004dd       $C$L43:    
    2052                      .dwpsn  file "C:/Users/a0221343/Git/bootROM/f28004x_bootrom/F28004x_ROM_dev_PG2.0/F28004x_ROM/bootROM
    2053 000004dd 9248          MOV       AL,*-SP[8]            ; [CPU_] |458| 
    2054 000004de 900F          ANDB      AL,#0x0f              ; [CPU_] |458| 
    2055 000004df 520E          CMPB      AL,#14                ; [CPU_] |458| 
    2056 000004e0 ED3A          BF        $C$L44,NEQ            ; [CPU_] |458| 
    2057                      ; branchcc occurs ; [] |458| 
    2058                      .dwpsn  file "C:/Users/a0221343/Git/bootROM/f28004x_bootrom/F28004x_ROM_dev_PG2.0/F28004x_ROM/bootROM
    2059 000004e1 8A46          MOVL      XAR4,*-SP[6]          ; [CPU_] |460| 
    2060 000004e2 0203          MOVB      ACC,#3                ; [CPU_] |460| 
    2061 000004e3 5601          ADDL      *+XAR4[0],ACC         ; [CPU_] |460| 
         000004e4 00C4 
    2062                      .dwpsn  file "C:/Users/a0221343/Git/bootROM/f28004x_bootrom/F28004x_ROM_dev_PG2.0/F28004x_ROM/bootROM
    2063 000004e5 C44C          MOVL      XAR6,*-SP[12]         ; [CPU_] |461| 
    2064 000004e6 9253          MOV       AL,*-SP[19]           ; [CPU_] |461| 
    2065 000004e7 C242          MOVL      *-SP[2],XAR6          ; [CPU_] |461| 
    2066 000004e8 8A46          MOVL      XAR4,*-SP[6]          ; [CPU_] |461| 
    2067 000004e9 9C01          ADDB      AL,#1                 ; [CPU_] |461| 
    2068 000004ea 0EA9          MOVU      ACC,AL                ; [CPU_] |461| 
    2069              $C$DW$85        .dwtag  DW_TAG_TI_branch
    2070                      .dwattr $C$DW$85, DW_AT_low_pc(0x00)
    2071                      .dwattr $C$DW$85, DW_AT_name("_add_to_bitcolumn_checksum")
    2072                      .dwattr $C$DW$85, DW_AT_TI_call
    2073 000004eb 7640+         LCR       #_add_to_bitcolumn_checksum ; [CPU_] |461| 
         000004ec 0202 
    2074                      ; call occurs [#_add_to_bitcolumn_checksum] ; [] |461| 
    2075 000004ed 5601          ADDL      *-SP[14],ACC          ; [CPU_] |461| 
         000004ee 004E 
    2076                      .dwpsn  file "C:/Users/a0221343/Git/bootROM/f28004x_bootrom/F28004x_ROM_dev_PG2.0/F28004x_ROM/bootROM
    2077 000004ef C44C          MOVL      XAR6,*-SP[12]         ; [CPU_] |462| 
    2078 000004f0 9253          MOV       AL,*-SP[19]           ; [CPU_] |462| 
    2079 000004f1 C242          MOVL      *-SP[2],XAR6          ; [CPU_] |462| 
    2080 000004f2 8A46          MOVL      XAR4,*-SP[6]          ; [CPU_] |462| 
    2081 000004f3 9C02          ADDB      AL,#2                 ; [CPU_] |462| 
    2082 000004f4 0EA9          MOVU      ACC,AL                ; [CPU_] |462| 
    2083              $C$DW$86        .dwtag  DW_TAG_TI_branch
    2084                      .dwattr $C$DW$86, DW_AT_low_pc(0x00)
    2085                      .dwattr $C$DW$86, DW_AT_name("_add_to_bitcolumn_checksum")
    2086                      .dwattr $C$DW$86, DW_AT_TI_call
    2087 000004f5 7640+         LCR       #_add_to_bitcolumn_checksum ; [CPU_] |462| 
         000004f6 0202 
    2088                      ; call occurs [#_add_to_bitcolumn_checksum] ; [] |462| 
    2089 000004f7 5601          ADDL      *-SP[14],ACC          ; [CPU_] |462| 
         000004f8 004E 
    2090                      .dwpsn  file "C:/Users/a0221343/Git/bootROM/f28004x_bootrom/F28004x_ROM_dev_PG2.0/F28004x_ROM/bootROM
    2091 000004f9 C44C          MOVL      XAR6,*-SP[12]         ; [CPU_] |463| 
    2092 000004fa 9253          MOV       AL,*-SP[19]           ; [CPU_] |463| 
    2093 000004fb C242          MOVL      *-SP[2],XAR6          ; [CPU_] |463| 
    2094 000004fc 8A46          MOVL      XAR4,*-SP[6]          ; [CPU_] |463| 
    2095 000004fd 9C03          ADDB      AL,#3                 ; [CPU_] |463| 
    2096 000004fe 0EA9          MOVU      ACC,AL                ; [CPU_] |463| 
    2097              $C$DW$87        .dwtag  DW_TAG_TI_branch
TMS320C2000 Assembler PC v6.4.4 Tue Feb 14 14:42:40 2017

Tools Copyright (c) 1996-2015 Texas Instruments Incorporated
C:\Users\a0221343\AppData\Local\Temp\0584010                         PAGE   44

    2098                      .dwattr $C$DW$87, DW_AT_low_pc(0x00)
    2099                      .dwattr $C$DW$87, DW_AT_name("_add_to_bitcolumn_checksum")
    2100                      .dwattr $C$DW$87, DW_AT_TI_call
    2101 000004ff 7640+         LCR       #_add_to_bitcolumn_checksum ; [CPU_] |463| 
         00000500 0202 
    2102                      ; call occurs [#_add_to_bitcolumn_checksum] ; [] |463| 
    2103 00000501 5601          ADDL      *-SP[14],ACC          ; [CPU_] |463| 
         00000502 004E 
    2104                      .dwpsn  file "C:/Users/a0221343/Git/bootROM/f28004x_bootrom/F28004x_ROM_dev_PG2.0/F28004x_ROM/bootROM
    2105 00000503 0202          MOVB      ACC,#2                ; [CPU_] |465| 
    2106 00000504 0752          ADDL      ACC,*-SP[18]          ; [CPU_] |465| 
    2107 00000505 1EAC          MOVL      XT,ACC                ; [CPU_] |465| 
    2108 00000506 5665          IMPYXUL   P,XT,*-SP[16]         ; [CPU_] |465| 
         00000507 0050 
    2109 00000508 A950          MOVL      *-SP[16],P            ; [CPU_] |465| 
    2110                      .dwpsn  file "C:/Users/a0221343/Git/bootROM/f28004x_bootrom/F28004x_ROM_dev_PG2.0/F28004x_ROM/bootROM
    2111 00000509 0652          MOVL      ACC,*-SP[18]          ; [CPU_] |466| 
    2112 0000050a 9B00          MOVB      AH,#0                 ; [CPU_] |466| 
    2113 0000050b 9001          ANDB      AL,#0x01              ; [CPU_] |466| 
    2114 0000050c 0903          ADDB      ACC,#3                ; [CPU_] |466| 
    2115 0000050d 1EAC          MOVL      XT,ACC                ; [CPU_] |466| 
    2116 0000050e 5665          IMPYXUL   P,XT,*-SP[16]         ; [CPU_] |466| 
         0000050f 0050 
    2117 00000510 A950          MOVL      *-SP[16],P            ; [CPU_] |466| 
    2118                      .dwpsn  file "C:/Users/a0221343/Git/bootROM/f28004x_bootrom/F28004x_ROM_dev_PG2.0/F28004x_ROM/bootROM
    2119 00000511 0652          MOVL      ACC,*-SP[18]          ; [CPU_] |467| 
    2120 00000512 9B00          MOVB      AH,#0                 ; [CPU_] |467| 
    2121 00000513 9001          ANDB      AL,#0x01              ; [CPU_] |467| 
    2122 00000514 0904          ADDB      ACC,#4                ; [CPU_] |467| 
    2123 00000515 1EAC          MOVL      XT,ACC                ; [CPU_] |467| 
    2124 00000516 5665          IMPYXUL   P,XT,*-SP[16]         ; [CPU_] |467| 
         00000517 0050 
    2125 00000518 A950          MOVL      *-SP[16],P            ; [CPU_] |467| 
    2126                      .dwpsn  file "C:/Users/a0221343/Git/bootROM/f28004x_bootrom/F28004x_ROM_dev_PG2.0/F28004x_ROM/bootROM
    2127 00000519 6F4D          B         $C$L45,UNC            ; [CPU_] |469| 
    2128                      ; branch occurs ; [] |469| 
    2129 0000051a       $C$L44:    
    2130                      .dwpsn  file "C:/Users/a0221343/Git/bootROM/f28004x_bootrom/F28004x_ROM_dev_PG2.0/F28004x_ROM/bootROM
    2131 0000051a 9248          MOV       AL,*-SP[8]            ; [CPU_] |470| 
    2132 0000051b 900F          ANDB      AL,#0x0f              ; [CPU_] |470| 
    2133 0000051c 520F          CMPB      AL,#15                ; [CPU_] |470| 
    2134 0000051d ED49          BF        $C$L45,NEQ            ; [CPU_] |470| 
    2135                      ; branchcc occurs ; [] |470| 
    2136                      .dwpsn  file "C:/Users/a0221343/Git/bootROM/f28004x_bootrom/F28004x_ROM_dev_PG2.0/F28004x_ROM/bootROM
    2137 0000051e 8A46          MOVL      XAR4,*-SP[6]          ; [CPU_] |472| 
    2138 0000051f 0204          MOVB      ACC,#4                ; [CPU_] |472| 
    2139 00000520 5601          ADDL      *+XAR4[0],ACC         ; [CPU_] |472| 
         00000521 00C4 
    2140                      .dwpsn  file "C:/Users/a0221343/Git/bootROM/f28004x_bootrom/F28004x_ROM_dev_PG2.0/F28004x_ROM/bootROM
    2141 00000522 C44C          MOVL      XAR6,*-SP[12]         ; [CPU_] |473| 
    2142 00000523 0E53          MOVU      ACC,*-SP[19]          ; [CPU_] |473| 
    2143 00000524 C242          MOVL      *-SP[2],XAR6          ; [CPU_] |473| 
    2144 00000525 8A46          MOVL      XAR4,*-SP[6]          ; [CPU_] |473| 
    2145              $C$DW$88        .dwtag  DW_TAG_TI_branch
    2146                      .dwattr $C$DW$88, DW_AT_low_pc(0x00)
TMS320C2000 Assembler PC v6.4.4 Tue Feb 14 14:42:40 2017

Tools Copyright (c) 1996-2015 Texas Instruments Incorporated
C:\Users\a0221343\AppData\Local\Temp\0584010                         PAGE   45

    2147                      .dwattr $C$DW$88, DW_AT_name("_add_to_bitcolumn_checksum")
    2148                      .dwattr $C$DW$88, DW_AT_TI_call
    2149 00000526 7640+         LCR       #_add_to_bitcolumn_checksum ; [CPU_] |473| 
         00000527 0202 
    2150                      ; call occurs [#_add_to_bitcolumn_checksum] ; [] |473| 
    2151 00000528 5601          ADDL      *-SP[14],ACC          ; [CPU_] |473| 
         00000529 004E 
    2152                      .dwpsn  file "C:/Users/a0221343/Git/bootROM/f28004x_bootrom/F28004x_ROM_dev_PG2.0/F28004x_ROM/bootROM
    2153 0000052a C44C          MOVL      XAR6,*-SP[12]         ; [CPU_] |474| 
    2154 0000052b 9253          MOV       AL,*-SP[19]           ; [CPU_] |474| 
    2155 0000052c C242          MOVL      *-SP[2],XAR6          ; [CPU_] |474| 
    2156 0000052d 8A46          MOVL      XAR4,*-SP[6]          ; [CPU_] |474| 
    2157 0000052e 9C01          ADDB      AL,#1                 ; [CPU_] |474| 
    2158 0000052f 0EA9          MOVU      ACC,AL                ; [CPU_] |474| 
    2159              $C$DW$89        .dwtag  DW_TAG_TI_branch
    2160                      .dwattr $C$DW$89, DW_AT_low_pc(0x00)
    2161                      .dwattr $C$DW$89, DW_AT_name("_add_to_bitcolumn_checksum")
    2162                      .dwattr $C$DW$89, DW_AT_TI_call
    2163 00000530 7640+         LCR       #_add_to_bitcolumn_checksum ; [CPU_] |474| 
         00000531 0202 
    2164                      ; call occurs [#_add_to_bitcolumn_checksum] ; [] |474| 
    2165 00000532 5601          ADDL      *-SP[14],ACC          ; [CPU_] |474| 
         00000533 004E 
    2166                      .dwpsn  file "C:/Users/a0221343/Git/bootROM/f28004x_bootrom/F28004x_ROM_dev_PG2.0/F28004x_ROM/bootROM
    2167 00000534 C44C          MOVL      XAR6,*-SP[12]         ; [CPU_] |475| 
    2168 00000535 9253          MOV       AL,*-SP[19]           ; [CPU_] |475| 
    2169 00000536 C242          MOVL      *-SP[2],XAR6          ; [CPU_] |475| 
    2170 00000537 8A46          MOVL      XAR4,*-SP[6]          ; [CPU_] |475| 
    2171 00000538 9C02          ADDB      AL,#2                 ; [CPU_] |475| 
    2172 00000539 0EA9          MOVU      ACC,AL                ; [CPU_] |475| 
    2173              $C$DW$90        .dwtag  DW_TAG_TI_branch
    2174                      .dwattr $C$DW$90, DW_AT_low_pc(0x00)
    2175                      .dwattr $C$DW$90, DW_AT_name("_add_to_bitcolumn_checksum")
    2176                      .dwattr $C$DW$90, DW_AT_TI_call
    2177 0000053a 7640+         LCR       #_add_to_bitcolumn_checksum ; [CPU_] |475| 
         0000053b 0202 
    2178                      ; call occurs [#_add_to_bitcolumn_checksum] ; [] |475| 
    2179 0000053c 5601          ADDL      *-SP[14],ACC          ; [CPU_] |475| 
         0000053d 004E 
    2180                      .dwpsn  file "C:/Users/a0221343/Git/bootROM/f28004x_bootrom/F28004x_ROM_dev_PG2.0/F28004x_ROM/bootROM
    2181 0000053e C44C          MOVL      XAR6,*-SP[12]         ; [CPU_] |476| 
    2182 0000053f 9253          MOV       AL,*-SP[19]           ; [CPU_] |476| 
    2183 00000540 C242          MOVL      *-SP[2],XAR6          ; [CPU_] |476| 
    2184 00000541 8A46          MOVL      XAR4,*-SP[6]          ; [CPU_] |476| 
    2185 00000542 9C03          ADDB      AL,#3                 ; [CPU_] |476| 
    2186 00000543 0EA9          MOVU      ACC,AL                ; [CPU_] |476| 
    2187              $C$DW$91        .dwtag  DW_TAG_TI_branch
    2188                      .dwattr $C$DW$91, DW_AT_low_pc(0x00)
    2189                      .dwattr $C$DW$91, DW_AT_name("_add_to_bitcolumn_checksum")
    2190                      .dwattr $C$DW$91, DW_AT_TI_call
    2191 00000544 7640+         LCR       #_add_to_bitcolumn_checksum ; [CPU_] |476| 
         00000545 0202 
    2192                      ; call occurs [#_add_to_bitcolumn_checksum] ; [] |476| 
    2193 00000546 5601          ADDL      *-SP[14],ACC          ; [CPU_] |476| 
         00000547 004E 
TMS320C2000 Assembler PC v6.4.4 Tue Feb 14 14:42:40 2017

Tools Copyright (c) 1996-2015 Texas Instruments Incorporated
C:\Users\a0221343\AppData\Local\Temp\0584010                         PAGE   46

    2194                      .dwpsn  file "C:/Users/a0221343/Git/bootROM/f28004x_bootrom/F28004x_ROM_dev_PG2.0/F28004x_ROM/bootROM
    2195 00000548 0201          MOVB      ACC,#1                ; [CPU_] |478| 
    2196 00000549 0752          ADDL      ACC,*-SP[18]          ; [CPU_] |478| 
    2197 0000054a 1EAC          MOVL      XT,ACC                ; [CPU_] |478| 
    2198 0000054b 5665          IMPYXUL   P,XT,*-SP[16]         ; [CPU_] |478| 
         0000054c 0050 
    2199 0000054d A950          MOVL      *-SP[16],P            ; [CPU_] |478| 
    2200                      .dwpsn  file "C:/Users/a0221343/Git/bootROM/f28004x_bootrom/F28004x_ROM_dev_PG2.0/F28004x_ROM/bootROM
    2201 0000054e 0652          MOVL      ACC,*-SP[18]          ; [CPU_] |479| 
    2202 0000054f 9B00          MOVB      AH,#0                 ; [CPU_] |479| 
    2203 00000550 9001          ANDB      AL,#0x01              ; [CPU_] |479| 
    2204 00000551 0902          ADDB      ACC,#2                ; [CPU_] |479| 
    2205 00000552 1EAC          MOVL      XT,ACC                ; [CPU_] |479| 
    2206 00000553 5665          IMPYXUL   P,XT,*-SP[16]         ; [CPU_] |479| 
         00000554 0050 
    2207 00000555 A950          MOVL      *-SP[16],P            ; [CPU_] |479| 
    2208                      .dwpsn  file "C:/Users/a0221343/Git/bootROM/f28004x_bootrom/F28004x_ROM_dev_PG2.0/F28004x_ROM/bootROM
    2209 00000556 0652          MOVL      ACC,*-SP[18]          ; [CPU_] |480| 
    2210 00000557 9B00          MOVB      AH,#0                 ; [CPU_] |480| 
    2211 00000558 9001          ANDB      AL,#0x01              ; [CPU_] |480| 
    2212 00000559 0903          ADDB      ACC,#3                ; [CPU_] |480| 
    2213 0000055a 1EAC          MOVL      XT,ACC                ; [CPU_] |480| 
    2214 0000055b 5665          IMPYXUL   P,XT,*-SP[16]         ; [CPU_] |480| 
         0000055c 0050 
    2215 0000055d A950          MOVL      *-SP[16],P            ; [CPU_] |480| 
    2216                      .dwpsn  file "C:/Users/a0221343/Git/bootROM/f28004x_bootrom/F28004x_ROM_dev_PG2.0/F28004x_ROM/bootROM
    2217 0000055e 0652          MOVL      ACC,*-SP[18]          ; [CPU_] |481| 
    2218 0000055f 9B00          MOVB      AH,#0                 ; [CPU_] |481| 
    2219 00000560 9001          ANDB      AL,#0x01              ; [CPU_] |481| 
    2220 00000561 0904          ADDB      ACC,#4                ; [CPU_] |481| 
    2221 00000562 1EAC          MOVL      XT,ACC                ; [CPU_] |481| 
    2222 00000563 5665          IMPYXUL   P,XT,*-SP[16]         ; [CPU_] |481| 
         00000564 0050 
    2223 00000565 A950          MOVL      *-SP[16],P            ; [CPU_] |481| 
    2224 00000566       $C$L45:    
    2225                      .dwpsn  file "C:/Users/a0221343/Git/bootROM/f28004x_bootrom/F28004x_ROM_dev_PG2.0/F28004x_ROM/bootROM
    2226 00000566 0650          MOVL      ACC,*-SP[16]          ; [CPU_] |484| 
    2227 00000567 8A46          MOVL      XAR4,*-SP[6]          ; [CPU_] |484| 
    2228              $C$DW$92        .dwtag  DW_TAG_TI_branch
    2229                      .dwattr $C$DW$92, DW_AT_low_pc(0x00)
    2230                      .dwattr $C$DW$92, DW_AT_name("_add_to_factorial_sum")
    2231                      .dwattr $C$DW$92, DW_AT_TI_call
    2232 00000568 7640+         LCR       #_add_to_factorial_sum ; [CPU_] |484| 
         00000569 00EC 
    2233                      ; call occurs [#_add_to_factorial_sum] ; [] |484| 
    2234                      .dwpsn  file "C:/Users/a0221343/Git/bootROM/f28004x_bootrom/F28004x_ROM_dev_PG2.0/F28004x_ROM/bootROM
    2235 0000056a 0201          MOVB      ACC,#1                ; [CPU_] |485| 
    2236 0000056b 1E50          MOVL      *-SP[16],ACC          ; [CPU_] |485| 
    2237                      .dwpsn  file "C:/Users/a0221343/Git/bootROM/f28004x_bootrom/F28004x_ROM_dev_PG2.0/F28004x_ROM/bootROM
    2238 0000056c 9248          MOV       AL,*-SP[8]            ; [CPU_] |487| 
    2239 0000056d FFC3          LSR       AL,4                  ; [CPU_] |487| 
    2240 0000056e 9648          MOV       *-SP[8],AL            ; [CPU_] |487| 
    2241                      .dwpsn  file "C:/Users/a0221343/Git/bootROM/f28004x_bootrom/F28004x_ROM_dev_PG2.0/F28004x_ROM/bootROM
    2242 0000056f 0853          ADD       *-SP[19],#4           ; [CPU_] |335| 
         00000570 0004 
TMS320C2000 Assembler PC v6.4.4 Tue Feb 14 14:42:40 2017

Tools Copyright (c) 1996-2015 Texas Instruments Incorporated
C:\Users\a0221343\AppData\Local\Temp\0584010                         PAGE   47

    2243                      .dwpsn  file "C:/Users/a0221343/Git/bootROM/f28004x_bootrom/F28004x_ROM_dev_PG2.0/F28004x_ROM/bootROM
    2244 00000571 9253          MOV       AL,*-SP[19]           ; [CPU_] |335| 
    2245 00000572 5204          CMPB      AL,#4                 ; [CPU_] |335| 
    2246 00000573 56C9          BF        $C$L30,LOS            ; [CPU_] |335| 
         00000574 FD3F 
    2247                      ; branchcc occurs ; [] |335| 
    2248 00000575       $C$L46:    
    2249                      .dwpsn  file "C:/Users/a0221343/Git/bootROM/f28004x_bootrom/F28004x_ROM_dev_PG2.0/F28004x_ROM/bootROM
    2250 00000575 064E          MOVL      ACC,*-SP[14]          ; [CPU_] |489| 
    2251 00000576 8A46          MOVL      XAR4,*-SP[6]          ; [CPU_] |489| 
    2252              $C$DW$93        .dwtag  DW_TAG_TI_branch
    2253                      .dwattr $C$DW$93, DW_AT_low_pc(0x00)
    2254                      .dwattr $C$DW$93, DW_AT_name("_add_to_row_weight_sum")
    2255                      .dwattr $C$DW$93, DW_AT_TI_call
    2256 00000577 7640+         LCR       #_add_to_row_weight_sum ; [CPU_] |489| 
         00000578 0177 
    2257                      ; call occurs [#_add_to_row_weight_sum] ; [] |489| 
    2258                      .dwpsn  file "C:/Users/a0221343/Git/bootROM/f28004x_bootrom/F28004x_ROM_dev_PG2.0/F28004x_ROM/bootROM
    2259 00000579 0A49          INC       *-SP[9]               ; [CPU_] |326| 
    2260                      .dwpsn  file "C:/Users/a0221343/Git/bootROM/f28004x_bootrom/F28004x_ROM_dev_PG2.0/F28004x_ROM/bootROM
    2261 0000057a 9249          MOV       AL,*-SP[9]            ; [CPU_] |326| 
    2262 0000057b 5203          CMPB      AL,#3                 ; [CPU_] |326| 
    2263 0000057c 56C8          BF        $C$L29,LO             ; [CPU_] |326| 
         0000057d FD24 
    2264                      ; branchcc occurs ; [] |326| 
    2265 0000057e       $C$L47:    
    2266                      .dwpsn  file "C:/Users/a0221343/Git/bootROM/f28004x_bootrom/F28004x_ROM_dev_PG2.0/F28004x_ROM/bootROM
    2267 0000057e 0201          MOVB      ACC,#1                ; [CPU_] |491| 
    2268 0000057f 075A          ADDL      ACC,*-SP[26]          ; [CPU_] |491| 
    2269 00000580 1E5A          MOVL      *-SP[26],ACC          ; [CPU_] |491| 
    2270                      .dwpsn  file "C:/Users/a0221343/Git/bootROM/f28004x_bootrom/F28004x_ROM_dev_PG2.0/F28004x_ROM/bootROM
    2271 00000581 0658          MOVL      ACC,*-SP[24]          ; [CPU_] |315| 
    2272 00000582 0F44          CMPL      ACC,*-SP[4]           ; [CPU_] |315| 
    2273 00000583 56C7          BF        $C$L26,HIS            ; [CPU_] |315| 
         00000584 FD06 
    2274                      ; branchcc occurs ; [] |315| 
    2275 00000585       $C$L48:    
    2276                      .dwpsn  file "C:/Users/a0221343/Git/bootROM/f28004x_bootrom/F28004x_ROM_dev_PG2.0/F28004x_ROM/bootROM
    2277 00000585 065A          MOVL      ACC,*-SP[26]          ; [CPU_] |493| 
    2278                      .dwpsn  file "C:/Users/a0221343/Git/bootROM/f28004x_bootrom/F28004x_ROM_dev_PG2.0/F28004x_ROM/bootROM
    2279 00000586 FE94          SUBB      SP,#20                ; [CPU_U] 
    2280                      .dwcfi  cfa_offset, -2
    2281              $C$DW$94        .dwtag  DW_TAG_TI_branch
    2282                      .dwattr $C$DW$94, DW_AT_low_pc(0x00)
    2283                      .dwattr $C$DW$94, DW_AT_TI_return
    2284 00000587 0006          LRETR     ; [CPU_] 
    2285                      ; return occurs ; [] 
    2286                      .dwattr $C$DW$45, DW_AT_TI_end_file("C:/Users/a0221343/Git/bootROM/f28004x_bootrom/F28004x_ROM_dev_PG
    2287                      .dwattr $C$DW$45, DW_AT_TI_end_line(0x1ee)
    2288                      .dwattr $C$DW$45, DW_AT_TI_end_column(0x01)
    2289                      .dwendentry
    2290                      .dwendtag $C$DW$45
    2291              
    2292 00000588               .sect   ".CKSUMFUNCS"
    2293                      .clink
TMS320C2000 Assembler PC v6.4.4 Tue Feb 14 14:42:40 2017

Tools Copyright (c) 1996-2015 Texas Instruments Incorporated
C:\Users\a0221343\AppData\Local\Temp\0584010                         PAGE   48

    2294                      .global _compare_two_composite_checksums
    2295              
    2296              $C$DW$95        .dwtag  DW_TAG_subprogram, DW_AT_name("compare_two_composite_checksums")
    2297                      .dwattr $C$DW$95, DW_AT_low_pc(_compare_two_composite_checksums)
    2298                      .dwattr $C$DW$95, DW_AT_high_pc(0x00)
    2299                      .dwattr $C$DW$95, DW_AT_TI_symbol_name("_compare_two_composite_checksums")
    2300                      .dwattr $C$DW$95, DW_AT_external
    2301                      .dwattr $C$DW$95, DW_AT_type(*$C$DW$T$9)
    2302                      .dwattr $C$DW$95, DW_AT_TI_begin_file("C:/Users/a0221343/Git/bootROM/f28004x_bootrom/F28004x_ROM_dev_
    2303                      .dwattr $C$DW$95, DW_AT_TI_begin_line(0x1f0)
    2304                      .dwattr $C$DW$95, DW_AT_TI_begin_column(0x10)
    2305                      .dwattr $C$DW$95, DW_AT_TI_max_frame_size(-6)
    2306                      .dwpsn  file "C:/Users/a0221343/Git/bootROM/f28004x_bootrom/F28004x_ROM_dev_PG2.0/F28004x_ROM/bootROM
    2307              
    2308                      .dwfde $C$DW$CIE, _compare_two_composite_checksums
    2309              $C$DW$96        .dwtag  DW_TAG_formal_parameter, DW_AT_name("goldsum")
    2310                      .dwattr $C$DW$96, DW_AT_TI_symbol_name("_goldsum")
    2311                      .dwattr $C$DW$96, DW_AT_type(*$C$DW$T$40)
    2312                      .dwattr $C$DW$96, DW_AT_location[DW_OP_reg12]
    2313              $C$DW$97        .dwtag  DW_TAG_formal_parameter, DW_AT_name("compsum")
    2314                      .dwattr $C$DW$97, DW_AT_TI_symbol_name("_compsum")
    2315                      .dwattr $C$DW$97, DW_AT_type(*$C$DW$T$32)
    2316                      .dwattr $C$DW$97, DW_AT_location[DW_OP_reg14]
    2317              
    2318              ;***************************************************************
    2319              ;* FNAME: _compare_two_composite_checksums FR SIZE:   4           *
    2320              ;*                                                             *
    2321              ;* FUNCTION ENVIRONMENT                                        *
    2322              ;*                                                             *
    2323              ;* FUNCTION PROPERTIES                                         *
    2324              ;*                            0 Parameter,  4 Auto,  0 SOE     *
    2325              ;***************************************************************
    2326              
    2327 00000588       _compare_two_composite_checksums:
    2328                      .dwcfi  cfa_offset, -2
    2329                      .dwcfi  save_reg_to_mem, 26, 0
    2330 00000588 FE04          ADDB      SP,#4                 ; [CPU_U] 
    2331                      .dwcfi  cfa_offset, -6
    2332              $C$DW$98        .dwtag  DW_TAG_variable, DW_AT_name("goldsum")
    2333                      .dwattr $C$DW$98, DW_AT_TI_symbol_name("_goldsum")
    2334                      .dwattr $C$DW$98, DW_AT_type(*$C$DW$T$40)
    2335                      .dwattr $C$DW$98, DW_AT_location[DW_OP_breg20 -2]
    2336              $C$DW$99        .dwtag  DW_TAG_variable, DW_AT_name("compsum")
    2337                      .dwattr $C$DW$99, DW_AT_TI_symbol_name("_compsum")
    2338                      .dwattr $C$DW$99, DW_AT_type(*$C$DW$T$32)
    2339                      .dwattr $C$DW$99, DW_AT_location[DW_OP_breg20 -4]
    2340 00000589 A044          MOVL      *-SP[4],XAR5          ; [CPU_] |497| 
    2341 0000058a A842          MOVL      *-SP[2],XAR4          ; [CPU_] |497| 
    2342                      .dwpsn  file "C:/Users/a0221343/Git/bootROM/f28004x_bootrom/F28004x_ROM_dev_PG2.0/F28004x_ROM/bootROM
    2343 0000058b 0642          MOVL      ACC,*-SP[2]           ; [CPU_] |499| 
    2344 0000058c EC03          BF        $C$L49,EQ             ; [CPU_] |499| 
    2345                      ; branchcc occurs ; [] |499| 
    2346 0000058d 0644          MOVL      ACC,*-SP[4]           ; [CPU_] |499| 
    2347 0000058e ED05          BF        $C$L50,NEQ            ; [CPU_] |499| 
    2348                      ; branchcc occurs ; [] |499| 
TMS320C2000 Assembler PC v6.4.4 Tue Feb 14 14:42:40 2017

Tools Copyright (c) 1996-2015 Texas Instruments Incorporated
C:\Users\a0221343\AppData\Local\Temp\0584010                         PAGE   49

    2349 0000058f       $C$L49:    
    2350                      .dwpsn  file "C:/Users/a0221343/Git/bootROM/f28004x_bootrom/F28004x_ROM_dev_PG2.0/F28004x_ROM/bootROM
    2351 0000058f 28A9          MOV       AL,#65535             ; [CPU_] |500| 
         00000590 FFFF 
    2352 00000591 FFEF          B         $C$L72,UNC            ; [CPU_] |500| 
         00000592 015B 
    2353                      ; branch occurs ; [] |500| 
    2354 00000593       $C$L50:    
    2355                      .dwpsn  file "C:/Users/a0221343/Git/bootROM/f28004x_bootrom/F28004x_ROM_dev_PG2.0/F28004x_ROM/bootROM
    2356 00000593 8A44          MOVL      XAR4,*-SP[4]          ; [CPU_] |502| 
    2357 00000594 8342          MOVL      XAR5,*-SP[2]          ; [CPU_] |502| 
    2358 00000595 06C4          MOVL      ACC,*+XAR4[0]         ; [CPU_] |502| 
    2359 00000596 0FC5          CMPL      ACC,*+XAR5[0]         ; [CPU_] |502| 
    2360 00000597 EC05          BF        $C$L51,EQ             ; [CPU_] |502| 
    2361                      ; branchcc occurs ; [] |502| 
    2362                      .dwpsn  file "C:/Users/a0221343/Git/bootROM/f28004x_bootrom/F28004x_ROM_dev_PG2.0/F28004x_ROM/bootROM
    2363 00000598 28A9          MOV       AL,#65534             ; [CPU_] |503| 
         00000599 FFFE 
    2364 0000059a FFEF          B         $C$L72,UNC            ; [CPU_] |503| 
         0000059b 0152 
    2365                      ; branch occurs ; [] |503| 
    2366 0000059c       $C$L51:    
    2367                      .dwpsn  file "C:/Users/a0221343/Git/bootROM/f28004x_bootrom/F28004x_ROM_dev_PG2.0/F28004x_ROM/bootROM
    2368 0000059c 023A          MOVB      ACC,#58               ; [CPU_] |505| 
    2369 0000059d 0744          ADDL      ACC,*-SP[4]           ; [CPU_] |505| 
    2370 0000059e 8AA9          MOVL      XAR4,ACC              ; [CPU_] |505| 
    2371 0000059f C4C4          MOVL      XAR6,*+XAR4[0]        ; [CPU_] |505| 
    2372 000005a0 023A          MOVB      ACC,#58               ; [CPU_] |505| 
    2373 000005a1 0742          ADDL      ACC,*-SP[2]           ; [CPU_] |505| 
    2374 000005a2 8AA9          MOVL      XAR4,ACC              ; [CPU_] |505| 
    2375 000005a3 06A6          MOVL      ACC,XAR6              ; [CPU_] |505| 
    2376 000005a4 0FC4          CMPL      ACC,*+XAR4[0]         ; [CPU_] |505| 
    2377 000005a5 ED1F          BF        $C$L52,NEQ            ; [CPU_] |505| 
    2378                      ; branchcc occurs ; [] |505| 
    2379 000005a6 023C          MOVB      ACC,#60               ; [CPU_] |505| 
    2380 000005a7 0744          ADDL      ACC,*-SP[4]           ; [CPU_] |505| 
    2381 000005a8 8AA9          MOVL      XAR4,ACC              ; [CPU_] |505| 
    2382 000005a9 C4C4          MOVL      XAR6,*+XAR4[0]        ; [CPU_] |505| 
    2383 000005aa 023C          MOVB      ACC,#60               ; [CPU_] |505| 
    2384 000005ab 0742          ADDL      ACC,*-SP[2]           ; [CPU_] |505| 
    2385 000005ac 8AA9          MOVL      XAR4,ACC              ; [CPU_] |505| 
    2386 000005ad 06A6          MOVL      ACC,XAR6              ; [CPU_] |505| 
    2387 000005ae 0FC4          CMPL      ACC,*+XAR4[0]         ; [CPU_] |505| 
    2388 000005af ED15          BF        $C$L52,NEQ            ; [CPU_] |505| 
    2389                      ; branchcc occurs ; [] |505| 
    2390 000005b0 023E          MOVB      ACC,#62               ; [CPU_] |505| 
    2391 000005b1 0744          ADDL      ACC,*-SP[4]           ; [CPU_] |505| 
    2392 000005b2 8AA9          MOVL      XAR4,ACC              ; [CPU_] |505| 
    2393 000005b3 C4C4          MOVL      XAR6,*+XAR4[0]        ; [CPU_] |505| 
    2394 000005b4 023E          MOVB      ACC,#62               ; [CPU_] |505| 
    2395 000005b5 0742          ADDL      ACC,*-SP[2]           ; [CPU_] |505| 
    2396 000005b6 8AA9          MOVL      XAR4,ACC              ; [CPU_] |505| 
    2397 000005b7 06A6          MOVL      ACC,XAR6              ; [CPU_] |505| 
    2398 000005b8 0FC4          CMPL      ACC,*+XAR4[0]         ; [CPU_] |505| 
    2399 000005b9 ED0B          BF        $C$L52,NEQ            ; [CPU_] |505| 
TMS320C2000 Assembler PC v6.4.4 Tue Feb 14 14:42:40 2017

Tools Copyright (c) 1996-2015 Texas Instruments Incorporated
C:\Users\a0221343\AppData\Local\Temp\0584010                         PAGE   50

    2400                      ; branchcc occurs ; [] |505| 
    2401 000005ba 0240          MOVB      ACC,#64               ; [CPU_] |505| 
    2402 000005bb 0744          ADDL      ACC,*-SP[4]           ; [CPU_] |505| 
    2403 000005bc 8AA9          MOVL      XAR4,ACC              ; [CPU_] |505| 
    2404 000005bd C4C4          MOVL      XAR6,*+XAR4[0]        ; [CPU_] |505| 
    2405 000005be 0240          MOVB      ACC,#64               ; [CPU_] |505| 
    2406 000005bf 0742          ADDL      ACC,*-SP[2]           ; [CPU_] |505| 
    2407 000005c0 8AA9          MOVL      XAR4,ACC              ; [CPU_] |505| 
    2408 000005c1 06A6          MOVL      ACC,XAR6              ; [CPU_] |505| 
    2409 000005c2 0FC4          CMPL      ACC,*+XAR4[0]         ; [CPU_] |505| 
    2410 000005c3 EC05          BF        $C$L53,EQ             ; [CPU_] |505| 
    2411                      ; branchcc occurs ; [] |505| 
    2412 000005c4       $C$L52:    
    2413                      .dwpsn  file "C:/Users/a0221343/Git/bootROM/f28004x_bootrom/F28004x_ROM_dev_PG2.0/F28004x_ROM/bootROM
    2414 000005c4 28A9          MOV       AL,#65533             ; [CPU_] |510| 
         000005c5 FFFD 
    2415 000005c6 FFEF          B         $C$L72,UNC            ; [CPU_] |510| 
         000005c7 0126 
    2416                      ; branch occurs ; [] |510| 
    2417 000005c8       $C$L53:    
    2418                      .dwpsn  file "C:/Users/a0221343/Git/bootROM/f28004x_bootrom/F28004x_ROM_dev_PG2.0/F28004x_ROM/bootROM
    2419 000005c8 0232          MOVB      ACC,#50               ; [CPU_] |513| 
    2420 000005c9 0744          ADDL      ACC,*-SP[4]           ; [CPU_] |513| 
    2421 000005ca 8AA9          MOVL      XAR4,ACC              ; [CPU_] |513| 
    2422 000005cb C4C4          MOVL      XAR6,*+XAR4[0]        ; [CPU_] |513| 
    2423 000005cc 0232          MOVB      ACC,#50               ; [CPU_] |513| 
    2424 000005cd 0742          ADDL      ACC,*-SP[2]           ; [CPU_] |513| 
    2425 000005ce 8AA9          MOVL      XAR4,ACC              ; [CPU_] |513| 
    2426 000005cf 06A6          MOVL      ACC,XAR6              ; [CPU_] |513| 
    2427 000005d0 0FC4          CMPL      ACC,*+XAR4[0]         ; [CPU_] |513| 
    2428 000005d1 ED1F          BF        $C$L54,NEQ            ; [CPU_] |513| 
    2429                      ; branchcc occurs ; [] |513| 
    2430 000005d2 0234          MOVB      ACC,#52               ; [CPU_] |513| 
    2431 000005d3 0744          ADDL      ACC,*-SP[4]           ; [CPU_] |513| 
    2432 000005d4 8AA9          MOVL      XAR4,ACC              ; [CPU_] |513| 
    2433 000005d5 C4C4          MOVL      XAR6,*+XAR4[0]        ; [CPU_] |513| 
    2434 000005d6 0234          MOVB      ACC,#52               ; [CPU_] |513| 
    2435 000005d7 0742          ADDL      ACC,*-SP[2]           ; [CPU_] |513| 
    2436 000005d8 8AA9          MOVL      XAR4,ACC              ; [CPU_] |513| 
    2437 000005d9 06A6          MOVL      ACC,XAR6              ; [CPU_] |513| 
    2438 000005da 0FC4          CMPL      ACC,*+XAR4[0]         ; [CPU_] |513| 
    2439 000005db ED15          BF        $C$L54,NEQ            ; [CPU_] |513| 
    2440                      ; branchcc occurs ; [] |513| 
    2441 000005dc 0236          MOVB      ACC,#54               ; [CPU_] |513| 
    2442 000005dd 0744          ADDL      ACC,*-SP[4]           ; [CPU_] |513| 
    2443 000005de 8AA9          MOVL      XAR4,ACC              ; [CPU_] |513| 
    2444 000005df C4C4          MOVL      XAR6,*+XAR4[0]        ; [CPU_] |513| 
    2445 000005e0 0236          MOVB      ACC,#54               ; [CPU_] |513| 
    2446 000005e1 0742          ADDL      ACC,*-SP[2]           ; [CPU_] |513| 
    2447 000005e2 8AA9          MOVL      XAR4,ACC              ; [CPU_] |513| 
    2448 000005e3 06A6          MOVL      ACC,XAR6              ; [CPU_] |513| 
    2449 000005e4 0FC4          CMPL      ACC,*+XAR4[0]         ; [CPU_] |513| 
    2450 000005e5 ED0B          BF        $C$L54,NEQ            ; [CPU_] |513| 
    2451                      ; branchcc occurs ; [] |513| 
    2452 000005e6 0238          MOVB      ACC,#56               ; [CPU_] |513| 
TMS320C2000 Assembler PC v6.4.4 Tue Feb 14 14:42:40 2017

Tools Copyright (c) 1996-2015 Texas Instruments Incorporated
C:\Users\a0221343\AppData\Local\Temp\0584010                         PAGE   51

    2453 000005e7 0744          ADDL      ACC,*-SP[4]           ; [CPU_] |513| 
    2454 000005e8 8AA9          MOVL      XAR4,ACC              ; [CPU_] |513| 
    2455 000005e9 C4C4          MOVL      XAR6,*+XAR4[0]        ; [CPU_] |513| 
    2456 000005ea 0238          MOVB      ACC,#56               ; [CPU_] |513| 
    2457 000005eb 0742          ADDL      ACC,*-SP[2]           ; [CPU_] |513| 
    2458 000005ec 8AA9          MOVL      XAR4,ACC              ; [CPU_] |513| 
    2459 000005ed 06A6          MOVL      ACC,XAR6              ; [CPU_] |513| 
    2460 000005ee 0FC4          CMPL      ACC,*+XAR4[0]         ; [CPU_] |513| 
    2461 000005ef EC05          BF        $C$L55,EQ             ; [CPU_] |513| 
    2462                      ; branchcc occurs ; [] |513| 
    2463 000005f0       $C$L54:    
    2464                      .dwpsn  file "C:/Users/a0221343/Git/bootROM/f28004x_bootrom/F28004x_ROM_dev_PG2.0/F28004x_ROM/bootROM
    2465 000005f0 28A9          MOV       AL,#65532             ; [CPU_] |518| 
         000005f1 FFFC 
    2466 000005f2 FFEF          B         $C$L72,UNC            ; [CPU_] |518| 
         000005f3 00FA 
    2467                      ; branch occurs ; [] |518| 
    2468 000005f4       $C$L55:    
    2469                      .dwpsn  file "C:/Users/a0221343/Git/bootROM/f28004x_bootrom/F28004x_ROM_dev_PG2.0/F28004x_ROM/bootROM
    2470 000005f4 0230          MOVB      ACC,#48               ; [CPU_] |521| 
    2471 000005f5 0744          ADDL      ACC,*-SP[4]           ; [CPU_] |521| 
    2472 000005f6 8AA9          MOVL      XAR4,ACC              ; [CPU_] |521| 
    2473 000005f7 C4C4          MOVL      XAR6,*+XAR4[0]        ; [CPU_] |521| 
    2474 000005f8 0230          MOVB      ACC,#48               ; [CPU_] |521| 
    2475 000005f9 0742          ADDL      ACC,*-SP[2]           ; [CPU_] |521| 
    2476 000005fa 8AA9          MOVL      XAR4,ACC              ; [CPU_] |521| 
    2477 000005fb 06A6          MOVL      ACC,XAR6              ; [CPU_] |521| 
    2478 000005fc 0FC4          CMPL      ACC,*+XAR4[0]         ; [CPU_] |521| 
    2479 000005fd ED15          BF        $C$L56,NEQ            ; [CPU_] |521| 
    2480                      ; branchcc occurs ; [] |521| 
    2481 000005fe 022E          MOVB      ACC,#46               ; [CPU_] |521| 
    2482 000005ff 0744          ADDL      ACC,*-SP[4]           ; [CPU_] |521| 
    2483 00000600 8AA9          MOVL      XAR4,ACC              ; [CPU_] |521| 
    2484 00000601 C4C4          MOVL      XAR6,*+XAR4[0]        ; [CPU_] |521| 
    2485 00000602 022E          MOVB      ACC,#46               ; [CPU_] |521| 
    2486 00000603 0742          ADDL      ACC,*-SP[2]           ; [CPU_] |521| 
    2487 00000604 8AA9          MOVL      XAR4,ACC              ; [CPU_] |521| 
    2488 00000605 06A6          MOVL      ACC,XAR6              ; [CPU_] |521| 
    2489 00000606 0FC4          CMPL      ACC,*+XAR4[0]         ; [CPU_] |521| 
    2490 00000607 ED0B          BF        $C$L56,NEQ            ; [CPU_] |521| 
    2491                      ; branchcc occurs ; [] |521| 
    2492 00000608 022C          MOVB      ACC,#44               ; [CPU_] |521| 
    2493 00000609 0744          ADDL      ACC,*-SP[4]           ; [CPU_] |521| 
    2494 0000060a 8AA9          MOVL      XAR4,ACC              ; [CPU_] |521| 
    2495 0000060b C4C4          MOVL      XAR6,*+XAR4[0]        ; [CPU_] |521| 
    2496 0000060c 022C          MOVB      ACC,#44               ; [CPU_] |521| 
    2497 0000060d 0742          ADDL      ACC,*-SP[2]           ; [CPU_] |521| 
    2498 0000060e 8AA9          MOVL      XAR4,ACC              ; [CPU_] |521| 
    2499 0000060f 06A6          MOVL      ACC,XAR6              ; [CPU_] |521| 
    2500 00000610 0FC4          CMPL      ACC,*+XAR4[0]         ; [CPU_] |521| 
    2501 00000611 EC05          BF        $C$L57,EQ             ; [CPU_] |521| 
    2502                      ; branchcc occurs ; [] |521| 
    2503 00000612       $C$L56:    
    2504                      .dwpsn  file "C:/Users/a0221343/Git/bootROM/f28004x_bootrom/F28004x_ROM_dev_PG2.0/F28004x_ROM/bootROM
    2505 00000612 28A9          MOV       AL,#65531             ; [CPU_] |525| 
TMS320C2000 Assembler PC v6.4.4 Tue Feb 14 14:42:40 2017

Tools Copyright (c) 1996-2015 Texas Instruments Incorporated
C:\Users\a0221343\AppData\Local\Temp\0584010                         PAGE   52

         00000613 FFFB 
    2506 00000614 FFEF          B         $C$L72,UNC            ; [CPU_] |525| 
         00000615 00D8 
    2507                      ; branch occurs ; [] |525| 
    2508 00000616       $C$L57:    
    2509                      .dwpsn  file "C:/Users/a0221343/Git/bootROM/f28004x_bootrom/F28004x_ROM_dev_PG2.0/F28004x_ROM/bootROM
    2510 00000616 022A          MOVB      ACC,#42               ; [CPU_] |528| 
    2511 00000617 0744          ADDL      ACC,*-SP[4]           ; [CPU_] |528| 
    2512 00000618 8AA9          MOVL      XAR4,ACC              ; [CPU_] |528| 
    2513 00000619 C4C4          MOVL      XAR6,*+XAR4[0]        ; [CPU_] |528| 
    2514 0000061a 022A          MOVB      ACC,#42               ; [CPU_] |528| 
    2515 0000061b 0742          ADDL      ACC,*-SP[2]           ; [CPU_] |528| 
    2516 0000061c 8AA9          MOVL      XAR4,ACC              ; [CPU_] |528| 
    2517 0000061d 06A6          MOVL      ACC,XAR6              ; [CPU_] |528| 
    2518 0000061e 0FC4          CMPL      ACC,*+XAR4[0]         ; [CPU_] |528| 
    2519 0000061f ED15          BF        $C$L58,NEQ            ; [CPU_] |528| 
    2520                      ; branchcc occurs ; [] |528| 
    2521 00000620 0228          MOVB      ACC,#40               ; [CPU_] |528| 
    2522 00000621 0744          ADDL      ACC,*-SP[4]           ; [CPU_] |528| 
    2523 00000622 8AA9          MOVL      XAR4,ACC              ; [CPU_] |528| 
    2524 00000623 C4C4          MOVL      XAR6,*+XAR4[0]        ; [CPU_] |528| 
    2525 00000624 0228          MOVB      ACC,#40               ; [CPU_] |528| 
    2526 00000625 0742          ADDL      ACC,*-SP[2]           ; [CPU_] |528| 
    2527 00000626 8AA9          MOVL      XAR4,ACC              ; [CPU_] |528| 
    2528 00000627 06A6          MOVL      ACC,XAR6              ; [CPU_] |528| 
    2529 00000628 0FC4          CMPL      ACC,*+XAR4[0]         ; [CPU_] |528| 
    2530 00000629 ED0B          BF        $C$L58,NEQ            ; [CPU_] |528| 
    2531                      ; branchcc occurs ; [] |528| 
    2532 0000062a 0226          MOVB      ACC,#38               ; [CPU_] |528| 
    2533 0000062b 0744          ADDL      ACC,*-SP[4]           ; [CPU_] |528| 
    2534 0000062c 8AA9          MOVL      XAR4,ACC              ; [CPU_] |528| 
    2535 0000062d C4C4          MOVL      XAR6,*+XAR4[0]        ; [CPU_] |528| 
    2536 0000062e 0226          MOVB      ACC,#38               ; [CPU_] |528| 
    2537 0000062f 0742          ADDL      ACC,*-SP[2]           ; [CPU_] |528| 
    2538 00000630 8AA9          MOVL      XAR4,ACC              ; [CPU_] |528| 
    2539 00000631 06A6          MOVL      ACC,XAR6              ; [CPU_] |528| 
    2540 00000632 0FC4          CMPL      ACC,*+XAR4[0]         ; [CPU_] |528| 
    2541 00000633 EC05          BF        $C$L59,EQ             ; [CPU_] |528| 
    2542                      ; branchcc occurs ; [] |528| 
    2543 00000634       $C$L58:    
    2544                      .dwpsn  file "C:/Users/a0221343/Git/bootROM/f28004x_bootrom/F28004x_ROM_dev_PG2.0/F28004x_ROM/bootROM
    2545 00000634 28A9          MOV       AL,#65530             ; [CPU_] |532| 
         00000635 FFFA 
    2546 00000636 FFEF          B         $C$L72,UNC            ; [CPU_] |532| 
         00000637 00B6 
    2547                      ; branch occurs ; [] |532| 
    2548 00000638       $C$L59:    
    2549                      .dwpsn  file "C:/Users/a0221343/Git/bootROM/f28004x_bootrom/F28004x_ROM_dev_PG2.0/F28004x_ROM/bootROM
    2550 00000638 0224          MOVB      ACC,#36               ; [CPU_] |535| 
    2551 00000639 0744          ADDL      ACC,*-SP[4]           ; [CPU_] |535| 
    2552 0000063a 8AA9          MOVL      XAR4,ACC              ; [CPU_] |535| 
    2553 0000063b C4C4          MOVL      XAR6,*+XAR4[0]        ; [CPU_] |535| 
    2554 0000063c 0224          MOVB      ACC,#36               ; [CPU_] |535| 
    2555 0000063d 0742          ADDL      ACC,*-SP[2]           ; [CPU_] |535| 
    2556 0000063e 8AA9          MOVL      XAR4,ACC              ; [CPU_] |535| 
TMS320C2000 Assembler PC v6.4.4 Tue Feb 14 14:42:40 2017

Tools Copyright (c) 1996-2015 Texas Instruments Incorporated
C:\Users\a0221343\AppData\Local\Temp\0584010                         PAGE   53

    2557 0000063f 06A6          MOVL      ACC,XAR6              ; [CPU_] |535| 
    2558 00000640 0FC4          CMPL      ACC,*+XAR4[0]         ; [CPU_] |535| 
    2559 00000641 ED15          BF        $C$L60,NEQ            ; [CPU_] |535| 
    2560                      ; branchcc occurs ; [] |535| 
    2561 00000642 0222          MOVB      ACC,#34               ; [CPU_] |535| 
    2562 00000643 0744          ADDL      ACC,*-SP[4]           ; [CPU_] |535| 
    2563 00000644 8AA9          MOVL      XAR4,ACC              ; [CPU_] |535| 
    2564 00000645 C4C4          MOVL      XAR6,*+XAR4[0]        ; [CPU_] |535| 
    2565 00000646 0222          MOVB      ACC,#34               ; [CPU_] |535| 
    2566 00000647 0742          ADDL      ACC,*-SP[2]           ; [CPU_] |535| 
    2567 00000648 8AA9          MOVL      XAR4,ACC              ; [CPU_] |535| 
    2568 00000649 06A6          MOVL      ACC,XAR6              ; [CPU_] |535| 
    2569 0000064a 0FC4          CMPL      ACC,*+XAR4[0]         ; [CPU_] |535| 
    2570 0000064b ED0B          BF        $C$L60,NEQ            ; [CPU_] |535| 
    2571                      ; branchcc occurs ; [] |535| 
    2572 0000064c 0220          MOVB      ACC,#32               ; [CPU_] |535| 
    2573 0000064d 0744          ADDL      ACC,*-SP[4]           ; [CPU_] |535| 
    2574 0000064e 8AA9          MOVL      XAR4,ACC              ; [CPU_] |535| 
    2575 0000064f C4C4          MOVL      XAR6,*+XAR4[0]        ; [CPU_] |535| 
    2576 00000650 0220          MOVB      ACC,#32               ; [CPU_] |535| 
    2577 00000651 0742          ADDL      ACC,*-SP[2]           ; [CPU_] |535| 
    2578 00000652 8AA9          MOVL      XAR4,ACC              ; [CPU_] |535| 
    2579 00000653 06A6          MOVL      ACC,XAR6              ; [CPU_] |535| 
    2580 00000654 0FC4          CMPL      ACC,*+XAR4[0]         ; [CPU_] |535| 
    2581 00000655 EC05          BF        $C$L61,EQ             ; [CPU_] |535| 
    2582                      ; branchcc occurs ; [] |535| 
    2583 00000656       $C$L60:    
    2584                      .dwpsn  file "C:/Users/a0221343/Git/bootROM/f28004x_bootrom/F28004x_ROM_dev_PG2.0/F28004x_ROM/bootROM
    2585 00000656 28A9          MOV       AL,#65529             ; [CPU_] |539| 
         00000657 FFF9 
    2586 00000658 FFEF          B         $C$L72,UNC            ; [CPU_] |539| 
         00000659 0094 
    2587                      ; branch occurs ; [] |539| 
    2588 0000065a       $C$L61:    
    2589                      .dwpsn  file "C:/Users/a0221343/Git/bootROM/f28004x_bootrom/F28004x_ROM_dev_PG2.0/F28004x_ROM/bootROM
    2590 0000065a 021E          MOVB      ACC,#30               ; [CPU_] |542| 
    2591 0000065b 0744          ADDL      ACC,*-SP[4]           ; [CPU_] |542| 
    2592 0000065c 8AA9          MOVL      XAR4,ACC              ; [CPU_] |542| 
    2593 0000065d C4C4          MOVL      XAR6,*+XAR4[0]        ; [CPU_] |542| 
    2594 0000065e 021E          MOVB      ACC,#30               ; [CPU_] |542| 
    2595 0000065f 0742          ADDL      ACC,*-SP[2]           ; [CPU_] |542| 
    2596 00000660 8AA9          MOVL      XAR4,ACC              ; [CPU_] |542| 
    2597 00000661 06A6          MOVL      ACC,XAR6              ; [CPU_] |542| 
    2598 00000662 0FC4          CMPL      ACC,*+XAR4[0]         ; [CPU_] |542| 
    2599 00000663 ED15          BF        $C$L62,NEQ            ; [CPU_] |542| 
    2600                      ; branchcc occurs ; [] |542| 
    2601 00000664 021C          MOVB      ACC,#28               ; [CPU_] |542| 
    2602 00000665 0744          ADDL      ACC,*-SP[4]           ; [CPU_] |542| 
    2603 00000666 8AA9          MOVL      XAR4,ACC              ; [CPU_] |542| 
    2604 00000667 C4C4          MOVL      XAR6,*+XAR4[0]        ; [CPU_] |542| 
    2605 00000668 021C          MOVB      ACC,#28               ; [CPU_] |542| 
    2606 00000669 0742          ADDL      ACC,*-SP[2]           ; [CPU_] |542| 
    2607 0000066a 8AA9          MOVL      XAR4,ACC              ; [CPU_] |542| 
    2608 0000066b 06A6          MOVL      ACC,XAR6              ; [CPU_] |542| 
    2609 0000066c 0FC4          CMPL      ACC,*+XAR4[0]         ; [CPU_] |542| 
TMS320C2000 Assembler PC v6.4.4 Tue Feb 14 14:42:40 2017

Tools Copyright (c) 1996-2015 Texas Instruments Incorporated
C:\Users\a0221343\AppData\Local\Temp\0584010                         PAGE   54

    2610 0000066d ED0B          BF        $C$L62,NEQ            ; [CPU_] |542| 
    2611                      ; branchcc occurs ; [] |542| 
    2612 0000066e 021A          MOVB      ACC,#26               ; [CPU_] |542| 
    2613 0000066f 0744          ADDL      ACC,*-SP[4]           ; [CPU_] |542| 
    2614 00000670 8AA9          MOVL      XAR4,ACC              ; [CPU_] |542| 
    2615 00000671 C4C4          MOVL      XAR6,*+XAR4[0]        ; [CPU_] |542| 
    2616 00000672 021A          MOVB      ACC,#26               ; [CPU_] |542| 
    2617 00000673 0742          ADDL      ACC,*-SP[2]           ; [CPU_] |542| 
    2618 00000674 8AA9          MOVL      XAR4,ACC              ; [CPU_] |542| 
    2619 00000675 06A6          MOVL      ACC,XAR6              ; [CPU_] |542| 
    2620 00000676 0FC4          CMPL      ACC,*+XAR4[0]         ; [CPU_] |542| 
    2621 00000677 EC04          BF        $C$L63,EQ             ; [CPU_] |542| 
    2622                      ; branchcc occurs ; [] |542| 
    2623 00000678       $C$L62:    
    2624                      .dwpsn  file "C:/Users/a0221343/Git/bootROM/f28004x_bootrom/F28004x_ROM_dev_PG2.0/F28004x_ROM/bootROM
    2625 00000678 28A9          MOV       AL,#65528             ; [CPU_] |546| 
         00000679 FFF8 
    2626 0000067a 6F72          B         $C$L72,UNC            ; [CPU_] |546| 
    2627                      ; branch occurs ; [] |546| 
    2628 0000067b       $C$L63:    
    2629                      .dwpsn  file "C:/Users/a0221343/Git/bootROM/f28004x_bootrom/F28004x_ROM_dev_PG2.0/F28004x_ROM/bootROM
    2630 0000067b 0218          MOVB      ACC,#24               ; [CPU_] |549| 
    2631 0000067c 0744          ADDL      ACC,*-SP[4]           ; [CPU_] |549| 
    2632 0000067d 8AA9          MOVL      XAR4,ACC              ; [CPU_] |549| 
    2633 0000067e C4C4          MOVL      XAR6,*+XAR4[0]        ; [CPU_] |549| 
    2634 0000067f 0218          MOVB      ACC,#24               ; [CPU_] |549| 
    2635 00000680 0742          ADDL      ACC,*-SP[2]           ; [CPU_] |549| 
    2636 00000681 8AA9          MOVL      XAR4,ACC              ; [CPU_] |549| 
    2637 00000682 06A6          MOVL      ACC,XAR6              ; [CPU_] |549| 
    2638 00000683 0FC4          CMPL      ACC,*+XAR4[0]         ; [CPU_] |549| 
    2639 00000684 ED15          BF        $C$L64,NEQ            ; [CPU_] |549| 
    2640                      ; branchcc occurs ; [] |549| 
    2641 00000685 0216          MOVB      ACC,#22               ; [CPU_] |549| 
    2642 00000686 0744          ADDL      ACC,*-SP[4]           ; [CPU_] |549| 
    2643 00000687 8AA9          MOVL      XAR4,ACC              ; [CPU_] |549| 
    2644 00000688 C4C4          MOVL      XAR6,*+XAR4[0]        ; [CPU_] |549| 
    2645 00000689 0216          MOVB      ACC,#22               ; [CPU_] |549| 
    2646 0000068a 0742          ADDL      ACC,*-SP[2]           ; [CPU_] |549| 
    2647 0000068b 8AA9          MOVL      XAR4,ACC              ; [CPU_] |549| 
    2648 0000068c 06A6          MOVL      ACC,XAR6              ; [CPU_] |549| 
    2649 0000068d 0FC4          CMPL      ACC,*+XAR4[0]         ; [CPU_] |549| 
    2650 0000068e ED0B          BF        $C$L64,NEQ            ; [CPU_] |549| 
    2651                      ; branchcc occurs ; [] |549| 
    2652 0000068f 0214          MOVB      ACC,#20               ; [CPU_] |549| 
    2653 00000690 0744          ADDL      ACC,*-SP[4]           ; [CPU_] |549| 
    2654 00000691 8AA9          MOVL      XAR4,ACC              ; [CPU_] |549| 
    2655 00000692 C4C4          MOVL      XAR6,*+XAR4[0]        ; [CPU_] |549| 
    2656 00000693 0214          MOVB      ACC,#20               ; [CPU_] |549| 
    2657 00000694 0742          ADDL      ACC,*-SP[2]           ; [CPU_] |549| 
    2658 00000695 8AA9          MOVL      XAR4,ACC              ; [CPU_] |549| 
    2659 00000696 06A6          MOVL      ACC,XAR6              ; [CPU_] |549| 
    2660 00000697 0FC4          CMPL      ACC,*+XAR4[0]         ; [CPU_] |549| 
    2661 00000698 EC04          BF        $C$L65,EQ             ; [CPU_] |549| 
    2662                      ; branchcc occurs ; [] |549| 
    2663 00000699       $C$L64:    
TMS320C2000 Assembler PC v6.4.4 Tue Feb 14 14:42:40 2017

Tools Copyright (c) 1996-2015 Texas Instruments Incorporated
C:\Users\a0221343\AppData\Local\Temp\0584010                         PAGE   55

    2664                      .dwpsn  file "C:/Users/a0221343/Git/bootROM/f28004x_bootrom/F28004x_ROM_dev_PG2.0/F28004x_ROM/bootROM
    2665 00000699 28A9          MOV       AL,#65527             ; [CPU_] |553| 
         0000069a FFF7 
    2666 0000069b 6F51          B         $C$L72,UNC            ; [CPU_] |553| 
    2667                      ; branch occurs ; [] |553| 
    2668 0000069c       $C$L65:    
    2669                      .dwpsn  file "C:/Users/a0221343/Git/bootROM/f28004x_bootrom/F28004x_ROM_dev_PG2.0/F28004x_ROM/bootROM
    2670 0000069c 0212          MOVB      ACC,#18               ; [CPU_] |556| 
    2671 0000069d 0744          ADDL      ACC,*-SP[4]           ; [CPU_] |556| 
    2672 0000069e 8AA9          MOVL      XAR4,ACC              ; [CPU_] |556| 
    2673 0000069f C4C4          MOVL      XAR6,*+XAR4[0]        ; [CPU_] |556| 
    2674 000006a0 0212          MOVB      ACC,#18               ; [CPU_] |556| 
    2675 000006a1 0742          ADDL      ACC,*-SP[2]           ; [CPU_] |556| 
    2676 000006a2 8AA9          MOVL      XAR4,ACC              ; [CPU_] |556| 
    2677 000006a3 06A6          MOVL      ACC,XAR6              ; [CPU_] |556| 
    2678 000006a4 0FC4          CMPL      ACC,*+XAR4[0]         ; [CPU_] |556| 
    2679 000006a5 ED15          BF        $C$L66,NEQ            ; [CPU_] |556| 
    2680                      ; branchcc occurs ; [] |556| 
    2681 000006a6 0210          MOVB      ACC,#16               ; [CPU_] |556| 
    2682 000006a7 0744          ADDL      ACC,*-SP[4]           ; [CPU_] |556| 
    2683 000006a8 8AA9          MOVL      XAR4,ACC              ; [CPU_] |556| 
    2684 000006a9 C4C4          MOVL      XAR6,*+XAR4[0]        ; [CPU_] |556| 
    2685 000006aa 0210          MOVB      ACC,#16               ; [CPU_] |556| 
    2686 000006ab 0742          ADDL      ACC,*-SP[2]           ; [CPU_] |556| 
    2687 000006ac 8AA9          MOVL      XAR4,ACC              ; [CPU_] |556| 
    2688 000006ad 06A6          MOVL      ACC,XAR6              ; [CPU_] |556| 
    2689 000006ae 0FC4          CMPL      ACC,*+XAR4[0]         ; [CPU_] |556| 
    2690 000006af ED0B          BF        $C$L66,NEQ            ; [CPU_] |556| 
    2691                      ; branchcc occurs ; [] |556| 
    2692 000006b0 020E          MOVB      ACC,#14               ; [CPU_] |556| 
    2693 000006b1 0744          ADDL      ACC,*-SP[4]           ; [CPU_] |556| 
    2694 000006b2 8AA9          MOVL      XAR4,ACC              ; [CPU_] |556| 
    2695 000006b3 C4C4          MOVL      XAR6,*+XAR4[0]        ; [CPU_] |556| 
    2696 000006b4 020E          MOVB      ACC,#14               ; [CPU_] |556| 
    2697 000006b5 0742          ADDL      ACC,*-SP[2]           ; [CPU_] |556| 
    2698 000006b6 8AA9          MOVL      XAR4,ACC              ; [CPU_] |556| 
    2699 000006b7 06A6          MOVL      ACC,XAR6              ; [CPU_] |556| 
    2700 000006b8 0FC4          CMPL      ACC,*+XAR4[0]         ; [CPU_] |556| 
    2701 000006b9 EC04          BF        $C$L67,EQ             ; [CPU_] |556| 
    2702                      ; branchcc occurs ; [] |556| 
    2703 000006ba       $C$L66:    
    2704                      .dwpsn  file "C:/Users/a0221343/Git/bootROM/f28004x_bootrom/F28004x_ROM_dev_PG2.0/F28004x_ROM/bootROM
    2705 000006ba 28A9          MOV       AL,#65526             ; [CPU_] |560| 
         000006bb FFF6 
    2706 000006bc 6F30          B         $C$L72,UNC            ; [CPU_] |560| 
    2707                      ; branch occurs ; [] |560| 
    2708 000006bd       $C$L67:    
    2709                      .dwpsn  file "C:/Users/a0221343/Git/bootROM/f28004x_bootrom/F28004x_ROM_dev_PG2.0/F28004x_ROM/bootROM
    2710 000006bd 020C          MOVB      ACC,#12               ; [CPU_] |563| 
    2711 000006be 0744          ADDL      ACC,*-SP[4]           ; [CPU_] |563| 
    2712 000006bf 8AA9          MOVL      XAR4,ACC              ; [CPU_] |563| 
    2713 000006c0 C4C4          MOVL      XAR6,*+XAR4[0]        ; [CPU_] |563| 
    2714 000006c1 020C          MOVB      ACC,#12               ; [CPU_] |563| 
    2715 000006c2 0742          ADDL      ACC,*-SP[2]           ; [CPU_] |563| 
    2716 000006c3 8AA9          MOVL      XAR4,ACC              ; [CPU_] |563| 
TMS320C2000 Assembler PC v6.4.4 Tue Feb 14 14:42:40 2017

Tools Copyright (c) 1996-2015 Texas Instruments Incorporated
C:\Users\a0221343\AppData\Local\Temp\0584010                         PAGE   56

    2717 000006c4 06A6          MOVL      ACC,XAR6              ; [CPU_] |563| 
    2718 000006c5 0FC4          CMPL      ACC,*+XAR4[0]         ; [CPU_] |563| 
    2719 000006c6 ED15          BF        $C$L68,NEQ            ; [CPU_] |563| 
    2720                      ; branchcc occurs ; [] |563| 
    2721 000006c7 020A          MOVB      ACC,#10               ; [CPU_] |563| 
    2722 000006c8 0744          ADDL      ACC,*-SP[4]           ; [CPU_] |563| 
    2723 000006c9 8AA9          MOVL      XAR4,ACC              ; [CPU_] |563| 
    2724 000006ca C4C4          MOVL      XAR6,*+XAR4[0]        ; [CPU_] |563| 
    2725 000006cb 020A          MOVB      ACC,#10               ; [CPU_] |563| 
    2726 000006cc 0742          ADDL      ACC,*-SP[2]           ; [CPU_] |563| 
    2727 000006cd 8AA9          MOVL      XAR4,ACC              ; [CPU_] |563| 
    2728 000006ce 06A6          MOVL      ACC,XAR6              ; [CPU_] |563| 
    2729 000006cf 0FC4          CMPL      ACC,*+XAR4[0]         ; [CPU_] |563| 
    2730 000006d0 ED0B          BF        $C$L68,NEQ            ; [CPU_] |563| 
    2731                      ; branchcc occurs ; [] |563| 
    2732 000006d1 0208          MOVB      ACC,#8                ; [CPU_] |563| 
    2733 000006d2 0744          ADDL      ACC,*-SP[4]           ; [CPU_] |563| 
    2734 000006d3 8AA9          MOVL      XAR4,ACC              ; [CPU_] |563| 
    2735 000006d4 C4C4          MOVL      XAR6,*+XAR4[0]        ; [CPU_] |563| 
    2736 000006d5 0208          MOVB      ACC,#8                ; [CPU_] |563| 
    2737 000006d6 0742          ADDL      ACC,*-SP[2]           ; [CPU_] |563| 
    2738 000006d7 8AA9          MOVL      XAR4,ACC              ; [CPU_] |563| 
    2739 000006d8 06A6          MOVL      ACC,XAR6              ; [CPU_] |563| 
    2740 000006d9 0FC4          CMPL      ACC,*+XAR4[0]         ; [CPU_] |563| 
    2741 000006da EC04          BF        $C$L69,EQ             ; [CPU_] |563| 
    2742                      ; branchcc occurs ; [] |563| 
    2743 000006db       $C$L68:    
    2744                      .dwpsn  file "C:/Users/a0221343/Git/bootROM/f28004x_bootrom/F28004x_ROM_dev_PG2.0/F28004x_ROM/bootROM
    2745 000006db 28A9          MOV       AL,#65525             ; [CPU_] |567| 
         000006dc FFF5 
    2746 000006dd 6F0F          B         $C$L72,UNC            ; [CPU_] |567| 
    2747                      ; branch occurs ; [] |567| 
    2748 000006de       $C$L69:    
    2749                      .dwpsn  file "C:/Users/a0221343/Git/bootROM/f28004x_bootrom/F28004x_ROM_dev_PG2.0/F28004x_ROM/bootROM
    2750 000006de 8A44          MOVL      XAR4,*-SP[4]          ; [CPU_] |570| 
    2751 000006df 06F4          MOVL      ACC,*+XAR4[6]         ; [CPU_] |570| 
    2752 000006e0 0FF5          CMPL      ACC,*+XAR5[6]         ; [CPU_] |570| 
    2753 000006e1 ED07          BF        $C$L70,NEQ            ; [CPU_] |570| 
    2754                      ; branchcc occurs ; [] |570| 
    2755 000006e2 06E4          MOVL      ACC,*+XAR4[4]         ; [CPU_] |570| 
    2756 000006e3 0FE5          CMPL      ACC,*+XAR5[4]         ; [CPU_] |570| 
    2757 000006e4 ED04          BF        $C$L70,NEQ            ; [CPU_] |570| 
    2758                      ; branchcc occurs ; [] |570| 
    2759 000006e5 06D4          MOVL      ACC,*+XAR4[2]         ; [CPU_] |570| 
    2760 000006e6 0FD5          CMPL      ACC,*+XAR5[2]         ; [CPU_] |570| 
    2761 000006e7 EC04          BF        $C$L71,EQ             ; [CPU_] |570| 
    2762                      ; branchcc occurs ; [] |570| 
    2763 000006e8       $C$L70:    
    2764                      .dwpsn  file "C:/Users/a0221343/Git/bootROM/f28004x_bootrom/F28004x_ROM_dev_PG2.0/F28004x_ROM/bootROM
    2765 000006e8 28A9          MOV       AL,#65524             ; [CPU_] |574| 
         000006e9 FFF4 
    2766 000006ea 6F02          B         $C$L72,UNC            ; [CPU_] |574| 
    2767                      ; branch occurs ; [] |574| 
    2768 000006eb       $C$L71:    
    2769                      .dwpsn  file "C:/Users/a0221343/Git/bootROM/f28004x_bootrom/F28004x_ROM_dev_PG2.0/F28004x_ROM/bootROM
TMS320C2000 Assembler PC v6.4.4 Tue Feb 14 14:42:40 2017

Tools Copyright (c) 1996-2015 Texas Instruments Incorporated
C:\Users\a0221343\AppData\Local\Temp\0584010                         PAGE   57

    2770 000006eb 9A00          MOVB      AL,#0                 ; [CPU_] |577| 
    2771 000006ec       $C$L72:    
    2772                      .dwpsn  file "C:/Users/a0221343/Git/bootROM/f28004x_bootrom/F28004x_ROM_dev_PG2.0/F28004x_ROM/bootROM
    2773 000006ec FE84          SUBB      SP,#4                 ; [CPU_U] 
    2774                      .dwcfi  cfa_offset, -2
    2775              $C$DW$100       .dwtag  DW_TAG_TI_branch
    2776                      .dwattr $C$DW$100, DW_AT_low_pc(0x00)
    2777                      .dwattr $C$DW$100, DW_AT_TI_return
    2778 000006ed 0006          LRETR     ; [CPU_] 
    2779                      ; return occurs ; [] 
    2780                      .dwattr $C$DW$95, DW_AT_TI_end_file("C:/Users/a0221343/Git/bootROM/f28004x_bootrom/F28004x_ROM_dev_PG
    2781                      .dwattr $C$DW$95, DW_AT_TI_end_line(0x242)
    2782                      .dwattr $C$DW$95, DW_AT_TI_end_column(0x01)
    2783                      .dwendentry
    2784                      .dwendtag $C$DW$95
    2785              
    2786 000006ee               .sect   ".CKSUMFUNCS"
    2787                      .clink
    2788                      .global _verify_pbist_checksum_onROM
    2789              
    2790              $C$DW$101       .dwtag  DW_TAG_subprogram, DW_AT_name("verify_pbist_checksum_onROM")
    2791                      .dwattr $C$DW$101, DW_AT_low_pc(_verify_pbist_checksum_onROM)
    2792                      .dwattr $C$DW$101, DW_AT_high_pc(0x00)
    2793                      .dwattr $C$DW$101, DW_AT_TI_symbol_name("_verify_pbist_checksum_onROM")
    2794                      .dwattr $C$DW$101, DW_AT_external
    2795                      .dwattr $C$DW$101, DW_AT_type(*$C$DW$T$9)
    2796                      .dwattr $C$DW$101, DW_AT_TI_begin_file("C:/Users/a0221343/Git/bootROM/f28004x_bootrom/F28004x_ROM_dev
    2797                      .dwattr $C$DW$101, DW_AT_TI_begin_line(0x244)
    2798                      .dwattr $C$DW$101, DW_AT_TI_begin_column(0x10)
    2799                      .dwattr $C$DW$101, DW_AT_TI_max_frame_size(-100)
    2800                      .dwpsn  file "C:/Users/a0221343/Git/bootROM/f28004x_bootrom/F28004x_ROM_dev_PG2.0/F28004x_ROM/bootROM
    2801              
    2802                      .dwfde $C$DW$CIE, _verify_pbist_checksum_onROM
    2803              
    2804              ;***************************************************************
    2805              ;* FNAME: _verify_pbist_checksum_onROM  FR SIZE:  98           *
    2806              ;*                                                             *
    2807              ;* FUNCTION ENVIRONMENT                                        *
    2808              ;*                                                             *
    2809              ;* FUNCTION PROPERTIES                                         *
    2810              ;*                            0 Parameter, 96 Auto,  2 SOE     *
    2811              ;***************************************************************
    2812              
    2813 000006ee       _verify_pbist_checksum_onROM:
    2814                      .dwcfi  cfa_offset, -2
    2815                      .dwcfi  save_reg_to_mem, 26, 0
    2816 000006ee AABD          MOVL      *SP++,XAR2            ; [CPU_] 
    2817                      .dwcfi  save_reg_to_mem, 9, 2
    2818                      .dwcfi  cfa_offset, -4
    2819 000006ef 5AAD          MOVZ      AR2,SP                ; [CPU_] 
    2820 000006f0 DA84          SUBB      FP,#4                 ; [CPU_U] 
    2821 000006f1 FE60          ADDB      SP,#96                ; [CPU_U] 
    2822                      .dwcfi  cfa_offset, -100
    2823              $C$DW$102       .dwtag  DW_TAG_variable, DW_AT_name("rom_cksum")
    2824                      .dwattr $C$DW$102, DW_AT_TI_symbol_name("_rom_cksum")
TMS320C2000 Assembler PC v6.4.4 Tue Feb 14 14:42:40 2017

Tools Copyright (c) 1996-2015 Texas Instruments Incorporated
C:\Users\a0221343\AppData\Local\Temp\0584010                         PAGE   58

    2825                      .dwattr $C$DW$102, DW_AT_type(*$C$DW$T$31)
