TMS320C2000 Assembler PC v6.4.4 Tue Feb 14 14:42:35 2017

Tools Copyright (c) 1996-2015 Texas Instruments Incorporated
C:\Users\a0221343\AppData\Local\Temp\0495210                         PAGE    1

       1              ;***************************************************************
       2              ;* TMS320C2000 C/C++ Codegen                         PC v6.4.4 *
       3              ;* Date/Time created: Tue Feb 14 14:42:35 2017                 *
       4              ;***************************************************************
       5                      .compiler_opts --cla_support=cla0 --float_support=fpu32 --hll_source=on --mem_model:code=flat --mem_m
       6        0002  FP      .set    XAR2
       7              
       8              $C$DW$CU        .dwtag  DW_TAG_compile_unit
       9                      .dwattr $C$DW$CU, DW_AT_name("C:/Users/a0221343/Git/bootROM/f28004x_bootrom/F28004x_ROM_dev_PG2.0/F28
      10                      .dwattr $C$DW$CU, DW_AT_producer("TI TMS320C2000 C/C++ Codegen PC v6.4.4 Copyright (c) 1996-2015 Texa
      11                      .dwattr $C$DW$CU, DW_AT_TI_version(0x01)
      12                      .dwattr $C$DW$CU, DW_AT_comp_dir("C:\Users\a0221343\Git\bootROM\f28004x_bootrom\F28004x_ROM_dev_PG2.0
      13              
      14              $C$DW$1 .dwtag  DW_TAG_subprogram, DW_AT_name("SPI_setConfig")
      15                      .dwattr $C$DW$1, DW_AT_TI_symbol_name("_SPI_setConfig")
      16                      .dwattr $C$DW$1, DW_AT_declaration
      17                      .dwattr $C$DW$1, DW_AT_external
      18              $C$DW$2 .dwtag  DW_TAG_formal_parameter
      19                      .dwattr $C$DW$2, DW_AT_type(*$C$DW$T$39)
      20              $C$DW$3 .dwtag  DW_TAG_formal_parameter
      21                      .dwattr $C$DW$3, DW_AT_type(*$C$DW$T$39)
      22              $C$DW$4 .dwtag  DW_TAG_formal_parameter
      23                      .dwattr $C$DW$4, DW_AT_type(*$C$DW$T$32)
      24              $C$DW$5 .dwtag  DW_TAG_formal_parameter
      25                      .dwattr $C$DW$5, DW_AT_type(*$C$DW$T$34)
      26              $C$DW$6 .dwtag  DW_TAG_formal_parameter
      27                      .dwattr $C$DW$6, DW_AT_type(*$C$DW$T$39)
      28              $C$DW$7 .dwtag  DW_TAG_formal_parameter
      29                      .dwattr $C$DW$7, DW_AT_type(*$C$DW$T$50)
      30                      .dwendtag $C$DW$1
      31              
      32              
      33              $C$DW$8 .dwtag  DW_TAG_subprogram, DW_AT_name("CopyData")
      34                      .dwattr $C$DW$8, DW_AT_TI_symbol_name("_CopyData")
      35                      .dwattr $C$DW$8, DW_AT_declaration
      36                      .dwattr $C$DW$8, DW_AT_external
      37              
      38              $C$DW$9 .dwtag  DW_TAG_subprogram, DW_AT_name("GPIO_setPadConfig")
      39                      .dwattr $C$DW$9, DW_AT_TI_symbol_name("_GPIO_setPadConfig")
      40                      .dwattr $C$DW$9, DW_AT_declaration
      41                      .dwattr $C$DW$9, DW_AT_external
      42              $C$DW$10        .dwtag  DW_TAG_formal_parameter
      43                      .dwattr $C$DW$10, DW_AT_type(*$C$DW$T$39)
      44              $C$DW$11        .dwtag  DW_TAG_formal_parameter
      45                      .dwattr $C$DW$11, DW_AT_type(*$C$DW$T$39)
      46                      .dwendtag $C$DW$9
      47              
      48              
      49              $C$DW$12        .dwtag  DW_TAG_subprogram, DW_AT_name("GPIO_setQualificationMode")
      50                      .dwattr $C$DW$12, DW_AT_TI_symbol_name("_GPIO_setQualificationMode")
      51                      .dwattr $C$DW$12, DW_AT_declaration
      52                      .dwattr $C$DW$12, DW_AT_external
      53              $C$DW$13        .dwtag  DW_TAG_formal_parameter
      54                      .dwattr $C$DW$13, DW_AT_type(*$C$DW$T$39)
      55              $C$DW$14        .dwtag  DW_TAG_formal_parameter
TMS320C2000 Assembler PC v6.4.4 Tue Feb 14 14:42:35 2017

Tools Copyright (c) 1996-2015 Texas Instruments Incorporated
C:\Users\a0221343\AppData\Local\Temp\0495210                         PAGE    2

      56                      .dwattr $C$DW$14, DW_AT_type(*$C$DW$T$30)
      57                      .dwendtag $C$DW$12
      58              
      59              
      60              $C$DW$15        .dwtag  DW_TAG_subprogram, DW_AT_name("GPIO_setDirectionMode")
      61                      .dwattr $C$DW$15, DW_AT_TI_symbol_name("_GPIO_setDirectionMode")
      62                      .dwattr $C$DW$15, DW_AT_declaration
      63                      .dwattr $C$DW$15, DW_AT_external
      64              $C$DW$16        .dwtag  DW_TAG_formal_parameter
      65                      .dwattr $C$DW$16, DW_AT_type(*$C$DW$T$39)
      66              $C$DW$17        .dwtag  DW_TAG_formal_parameter
      67                      .dwattr $C$DW$17, DW_AT_type(*$C$DW$T$28)
      68                      .dwendtag $C$DW$15
      69              
      70              
      71              $C$DW$18        .dwtag  DW_TAG_subprogram, DW_AT_name("GPIO_setPinConfig")
      72                      .dwattr $C$DW$18, DW_AT_TI_symbol_name("_GPIO_setPinConfig")
      73                      .dwattr $C$DW$18, DW_AT_declaration
      74                      .dwattr $C$DW$18, DW_AT_external
      75              $C$DW$19        .dwtag  DW_TAG_formal_parameter
      76                      .dwattr $C$DW$19, DW_AT_type(*$C$DW$T$39)
      77                      .dwendtag $C$DW$18
      78              
      79              $C$DW$20        .dwtag  DW_TAG_variable, DW_AT_name("GetWordData")
      80                      .dwattr $C$DW$20, DW_AT_TI_symbol_name("_GetWordData")
      81                      .dwattr $C$DW$20, DW_AT_type(*$C$DW$T$65)
      82                      .dwattr $C$DW$20, DW_AT_declaration
      83                      .dwattr $C$DW$20, DW_AT_external
      84              
      85              $C$DW$21        .dwtag  DW_TAG_subprogram, DW_AT_name("GetLongData")
      86                      .dwattr $C$DW$21, DW_AT_TI_symbol_name("_GetLongData")
      87                      .dwattr $C$DW$21, DW_AT_type(*$C$DW$T$39)
      88                      .dwattr $C$DW$21, DW_AT_declaration
      89                      .dwattr $C$DW$21, DW_AT_external
      90              
      91              $C$DW$22        .dwtag  DW_TAG_subprogram, DW_AT_name("SPI_getInterruptStatus")
      92                      .dwattr $C$DW$22, DW_AT_TI_symbol_name("_SPI_getInterruptStatus")
      93                      .dwattr $C$DW$22, DW_AT_type(*$C$DW$T$39)
      94                      .dwattr $C$DW$22, DW_AT_declaration
      95                      .dwattr $C$DW$22, DW_AT_external
      96              $C$DW$23        .dwtag  DW_TAG_formal_parameter
      97                      .dwattr $C$DW$23, DW_AT_type(*$C$DW$T$39)
      98                      .dwendtag $C$DW$22
      99              
     100              ;       C:\ti\ccsv6\tools\compiler\ti-cgt-c2000_6.4.4\bin\ac2000.exe -@C:\\Users\\a0221343\\AppData\\Local\\T
     101 00000000               .sect   ".text"
     102                      .clink
     103              
     104              $C$DW$24        .dwtag  DW_TAG_subprogram, DW_AT_name("SysCtl_enablePeripheral")
     105                      .dwattr $C$DW$24, DW_AT_low_pc(_SysCtl_enablePeripheral)
     106                      .dwattr $C$DW$24, DW_AT_high_pc(0x00)
     107                      .dwattr $C$DW$24, DW_AT_TI_symbol_name("_SysCtl_enablePeripheral")
     108                      .dwattr $C$DW$24, DW_AT_TI_begin_file("C:/Users/a0221343/Git/bootROM/f28004x_bootrom/F28004x_ROM_dev_
     109                      .dwattr $C$DW$24, DW_AT_TI_begin_line(0x33b)
     110                      .dwattr $C$DW$24, DW_AT_TI_begin_column(0x01)
TMS320C2000 Assembler PC v6.4.4 Tue Feb 14 14:42:35 2017

Tools Copyright (c) 1996-2015 Texas Instruments Incorporated
C:\Users\a0221343\AppData\Local\Temp\0495210                         PAGE    3

     111                      .dwattr $C$DW$24, DW_AT_TI_max_frame_size(-6)
     112                      .dwpsn  file "C:/Users/a0221343/Git/bootROM/f28004x_bootrom/F28004x_ROM_dev_PG2.0/F28004x_ROM/driverl
     113              
     114                      .dwfde $C$DW$CIE, _SysCtl_enablePeripheral
     115              $C$DW$25        .dwtag  DW_TAG_formal_parameter, DW_AT_name("peripheral")
     116                      .dwattr $C$DW$25, DW_AT_TI_symbol_name("_peripheral")
     117                      .dwattr $C$DW$25, DW_AT_type(*$C$DW$T$20)
     118                      .dwattr $C$DW$25, DW_AT_location[DW_OP_reg0]
     119              
     120              ;***************************************************************
     121              ;* FNAME: _SysCtl_enablePeripheral      FR SIZE:   4           *
     122              ;*                                                             *
     123              ;* FUNCTION ENVIRONMENT                                        *
     124              ;*                                                             *
     125              ;* FUNCTION PROPERTIES                                         *
     126              ;*                            0 Parameter,  3 Auto,  0 SOE     *
     127              ;***************************************************************
     128              
     129 00000000       _SysCtl_enablePeripheral:
     130                      .dwcfi  cfa_offset, -2
     131                      .dwcfi  save_reg_to_mem, 26, 0
     132 00000000 FE04          ADDB      SP,#4                 ; [CPU_U] 
     133                      .dwcfi  cfa_offset, -6
     134              $C$DW$26        .dwtag  DW_TAG_variable, DW_AT_name("peripheral")
     135                      .dwattr $C$DW$26, DW_AT_TI_symbol_name("_peripheral")
     136                      .dwattr $C$DW$26, DW_AT_type(*$C$DW$T$20)
     137                      .dwattr $C$DW$26, DW_AT_location[DW_OP_breg20 -1]
     138              $C$DW$27        .dwtag  DW_TAG_variable, DW_AT_name("regIndex")
     139                      .dwattr $C$DW$27, DW_AT_TI_symbol_name("_regIndex")
     140                      .dwattr $C$DW$27, DW_AT_type(*$C$DW$T$50)
     141                      .dwattr $C$DW$27, DW_AT_location[DW_OP_breg20 -2]
     142              $C$DW$28        .dwtag  DW_TAG_variable, DW_AT_name("bitIndex")
     143                      .dwattr $C$DW$28, DW_AT_TI_symbol_name("_bitIndex")
     144                      .dwattr $C$DW$28, DW_AT_type(*$C$DW$T$50)
     145                      .dwattr $C$DW$28, DW_AT_location[DW_OP_breg20 -3]
     146 00000001 9641          MOV       *-SP[1],AL            ; [CPU_] |828| 
     147                      .dwpsn  file "C:/Users/a0221343/Git/bootROM/f28004x_bootrom/F28004x_ROM_dev_PG2.0/F28004x_ROM/driverl
     148 00000002 901F          ANDB      AL,#0x1f              ; [CPU_] |835| 
     149 00000003 FF80          LSL       AL,1                  ; [CPU_] |835| 
     150 00000004 9642          MOV       *-SP[2],AL            ; [CPU_] |835| 
     151                      .dwpsn  file "C:/Users/a0221343/Git/bootROM/f28004x_bootrom/F28004x_ROM_dev_PG2.0/F28004x_ROM/driverl
     152 00000005 CC41          AND       AL,*-SP[1],#0x1f00    ; [CPU_] |836| 
         00000006 1F00 
     153 00000007 FFC7          LSR       AL,8                  ; [CPU_] |836| 
     154 00000008 9643          MOV       *-SP[3],AL            ; [CPU_] |836| 
     155                      .dwpsn  file "C:/Users/a0221343/Git/bootROM/f28004x_bootrom/F28004x_ROM_dev_PG2.0/F28004x_ROM/driverl
     156 00000009 7622   EALLOW
     157                      .dwpsn  file "C:/Users/a0221343/Git/bootROM/f28004x_bootrom/F28004x_ROM_dev_PG2.0/F28004x_ROM/driverl
     158 0000000a 8F05          MOVL      XAR4,#381730          ; [CPU_U] |844| 
         0000000b D322 
     159 0000000c A8A9          MOVL      ACC,XAR4              ; [CPU_] |844| 
     160 0000000d 0D42          ADDU      ACC,*-SP[2]           ; [CPU_] |844| 
     161 0000000e 8AA9          MOVL      XAR4,ACC              ; [CPU_] |844| 
     162 0000000f 2D43          MOV       T,*-SP[3]             ; [CPU_] |844| 
     163 00000010 0201          MOVB      ACC,#1                ; [CPU_] |844| 
TMS320C2000 Assembler PC v6.4.4 Tue Feb 14 14:42:35 2017

Tools Copyright (c) 1996-2015 Texas Instruments Incorporated
C:\Users\a0221343\AppData\Local\Temp\0495210                         PAGE    4

     164 00000011 563B          LSLL      ACC,T                 ; [CPU_] |844| 
     165 00000012 98C4          OR        *+XAR4[0],AL          ; [CPU_] |844| 
     166 00000013 99CC          OR        *+XAR4[1],AH          ; [CPU_] |844| 
     167                      .dwpsn  file "C:/Users/a0221343/Git/bootROM/f28004x_bootrom/F28004x_ROM_dev_PG2.0/F28004x_ROM/driverl
     168 00000014 761A   EDIS
     169                      .dwpsn  file "C:/Users/a0221343/Git/bootROM/f28004x_bootrom/F28004x_ROM_dev_PG2.0/F28004x_ROM/driverl
     170 00000015 FF69          SPM       #0                    ; [CPU_] 
     171 00000016 FE84          SUBB      SP,#4                 ; [CPU_U] 
     172                      .dwcfi  cfa_offset, -2
     173              $C$DW$29        .dwtag  DW_TAG_TI_branch
     174                      .dwattr $C$DW$29, DW_AT_low_pc(0x00)
     175                      .dwattr $C$DW$29, DW_AT_TI_return
     176 00000017 0006          LRETR     ; [CPU_] 
     177                      ; return occurs ; [] 
     178                      .dwattr $C$DW$24, DW_AT_TI_end_file("C:/Users/a0221343/Git/bootROM/f28004x_bootrom/F28004x_ROM_dev_PG
     179                      .dwattr $C$DW$24, DW_AT_TI_end_line(0x34f)
     180                      .dwattr $C$DW$24, DW_AT_TI_end_column(0x01)
     181                      .dwendentry
     182                      .dwendtag $C$DW$24
     183              
     184 00000018               .sect   ".text"
     185                      .clink
     186              
     187              $C$DW$30        .dwtag  DW_TAG_subprogram, DW_AT_name("SysCtl_isPeripheralPresent")
     188                      .dwattr $C$DW$30, DW_AT_low_pc(_SysCtl_isPeripheralPresent)
     189                      .dwattr $C$DW$30, DW_AT_high_pc(0x00)
     190                      .dwattr $C$DW$30, DW_AT_TI_symbol_name("_SysCtl_isPeripheralPresent")
     191                      .dwattr $C$DW$30, DW_AT_type(*$C$DW$T$75)
     192                      .dwattr $C$DW$30, DW_AT_TI_begin_file("C:/Users/a0221343/Git/bootROM/f28004x_bootrom/F28004x_ROM_dev_
     193                      .dwattr $C$DW$30, DW_AT_TI_begin_line(0x387)
     194                      .dwattr $C$DW$30, DW_AT_TI_begin_column(0x01)
     195                      .dwattr $C$DW$30, DW_AT_TI_max_frame_size(-8)
     196                      .dwpsn  file "C:/Users/a0221343/Git/bootROM/f28004x_bootrom/F28004x_ROM_dev_PG2.0/F28004x_ROM/driverl
     197              
     198                      .dwfde $C$DW$CIE, _SysCtl_isPeripheralPresent
     199              $C$DW$31        .dwtag  DW_TAG_formal_parameter, DW_AT_name("peripheral")
     200                      .dwattr $C$DW$31, DW_AT_TI_symbol_name("_peripheral")
     201                      .dwattr $C$DW$31, DW_AT_type(*$C$DW$T$22)
     202                      .dwattr $C$DW$31, DW_AT_location[DW_OP_reg0]
     203              
     204              ;***************************************************************
     205              ;* FNAME: _SysCtl_isPeripheralPresent   FR SIZE:   6           *
     206              ;*                                                             *
     207              ;* FUNCTION ENVIRONMENT                                        *
     208              ;*                                                             *
     209              ;* FUNCTION PROPERTIES                                         *
     210              ;*                            0 Parameter,  6 Auto,  0 SOE     *
     211              ;***************************************************************
     212              
     213 00000018       _SysCtl_isPeripheralPresent:
     214                      .dwcfi  cfa_offset, -2
     215                      .dwcfi  save_reg_to_mem, 26, 0
     216 00000018 FE06          ADDB      SP,#6                 ; [CPU_U] 
     217                      .dwcfi  cfa_offset, -8
     218              $C$DW$32        .dwtag  DW_TAG_variable, DW_AT_name("peripheral")
TMS320C2000 Assembler PC v6.4.4 Tue Feb 14 14:42:35 2017

Tools Copyright (c) 1996-2015 Texas Instruments Incorporated
C:\Users\a0221343\AppData\Local\Temp\0495210                         PAGE    5

     219                      .dwattr $C$DW$32, DW_AT_TI_symbol_name("_peripheral")
     220                      .dwattr $C$DW$32, DW_AT_type(*$C$DW$T$22)
     221                      .dwattr $C$DW$32, DW_AT_location[DW_OP_breg20 -1]
     222              $C$DW$33        .dwtag  DW_TAG_variable, DW_AT_name("regIndex")
     223                      .dwattr $C$DW$33, DW_AT_TI_symbol_name("_regIndex")
     224                      .dwattr $C$DW$33, DW_AT_type(*$C$DW$T$50)
     225                      .dwattr $C$DW$33, DW_AT_location[DW_OP_breg20 -2]
     226              $C$DW$34        .dwtag  DW_TAG_variable, DW_AT_name("bitIndex")
     227                      .dwattr $C$DW$34, DW_AT_TI_symbol_name("_bitIndex")
     228                      .dwattr $C$DW$34, DW_AT_type(*$C$DW$T$50)
     229                      .dwattr $C$DW$34, DW_AT_location[DW_OP_breg20 -3]
     230              $C$DW$35        .dwtag  DW_TAG_variable, DW_AT_name("status")
     231                      .dwattr $C$DW$35, DW_AT_TI_symbol_name("_status")
     232                      .dwattr $C$DW$35, DW_AT_type(*$C$DW$T$75)
     233                      .dwattr $C$DW$35, DW_AT_location[DW_OP_breg20 -4]
     234 00000019 9641          MOV       *-SP[1],AL            ; [CPU_] |904| 
     235                      .dwpsn  file "C:/Users/a0221343/Git/bootROM/f28004x_bootrom/F28004x_ROM_dev_PG2.0/F28004x_ROM/driverl
     236 0000001a 2B44          MOV       *-SP[4],#0            ; [CPU_] |907| 
     237                      .dwpsn  file "C:/Users/a0221343/Git/bootROM/f28004x_bootrom/F28004x_ROM_dev_PG2.0/F28004x_ROM/driverl
     238 0000001b 901F          ANDB      AL,#0x1f              ; [CPU_] |912| 
     239 0000001c FF80          LSL       AL,1                  ; [CPU_] |912| 
     240 0000001d 9642          MOV       *-SP[2],AL            ; [CPU_] |912| 
     241                      .dwpsn  file "C:/Users/a0221343/Git/bootROM/f28004x_bootrom/F28004x_ROM_dev_PG2.0/F28004x_ROM/driverl
     242 0000001e CC41          AND       AL,*-SP[1],#0x1f00    ; [CPU_] |913| 
         0000001f 1F00 
     243 00000020 FFC7          LSR       AL,8                  ; [CPU_] |913| 
     244 00000021 9643          MOV       *-SP[3],AL            ; [CPU_] |913| 
     245                      .dwpsn  file "C:/Users/a0221343/Git/bootROM/f28004x_bootrom/F28004x_ROM_dev_PG2.0/F28004x_ROM/driverl
     246 00000022 0201          MOVB      ACC,#1                ; [CPU_] |919| 
     247 00000023 2D43          MOV       T,*-SP[3]             ; [CPU_] |919| 
     248 00000024 5842          MOVZ      AR0,*-SP[2]           ; [CPU_] |919| 
     249 00000025 8F05          MOVL      XAR4,#380946          ; [CPU_U] |919| 
         00000026 D012 
     250 00000027 563B          LSLL      ACC,T                 ; [CPU_] |919| 
     251 00000028 FF5A          MOVL      P,ACC                 ; [CPU_] |919| 
     252 00000029 0694          MOVL      ACC,*+XAR4[AR0]       ; [CPU_] |919| 
     253 0000002a 1E46          MOVL      *-SP[6],ACC           ; [CPU_] |919| 
     254 0000002b 9246          MOV       AL,*-SP[6]            ; [CPU_] |919| 
     255 0000002c CEAB          AND       AL,PL                 ; [CPU_] |919| 
     256 0000002d 9646          MOV       *-SP[6],AL            ; [CPU_] |919| 
     257 0000002e 9245          MOV       AL,*-SP[5]            ; [CPU_] |919| 
     258 0000002f CEAA          AND       AL,PH                 ; [CPU_] |919| 
     259 00000030 9645          MOV       *-SP[5],AL            ; [CPU_] |919| 
     260 00000031 0646          MOVL      ACC,*-SP[6]           ; [CPU_] |919| 
     261 00000032 EC03          BF        $C$L1,EQ              ; [CPU_] |919| 
     262                      ; branchcc occurs ; [] |919| 
     263                      .dwpsn  file "C:/Users/a0221343/Git/bootROM/f28004x_bootrom/F28004x_ROM_dev_PG2.0/F28004x_ROM/driverl
     264 00000033 56BF          MOVB      *-SP[4],#1,UNC        ; [CPU_] |922| 
         00000034 0144 
     265 00000035       $C$L1:    
     266                      .dwpsn  file "C:/Users/a0221343/Git/bootROM/f28004x_bootrom/F28004x_ROM_dev_PG2.0/F28004x_ROM/driverl
     267 00000035 9244          MOV       AL,*-SP[4]            ; [CPU_] |925| 
     268                      .dwpsn  file "C:/Users/a0221343/Git/bootROM/f28004x_bootrom/F28004x_ROM_dev_PG2.0/F28004x_ROM/driverl
     269 00000036 FE86          SUBB      SP,#6                 ; [CPU_U] 
     270                      .dwcfi  cfa_offset, -2
TMS320C2000 Assembler PC v6.4.4 Tue Feb 14 14:42:35 2017

Tools Copyright (c) 1996-2015 Texas Instruments Incorporated
C:\Users\a0221343\AppData\Local\Temp\0495210                         PAGE    6

     271              $C$DW$36        .dwtag  DW_TAG_TI_branch
     272                      .dwattr $C$DW$36, DW_AT_low_pc(0x00)
     273                      .dwattr $C$DW$36, DW_AT_TI_return
     274 00000037 0006          LRETR     ; [CPU_] 
     275                      ; return occurs ; [] 
     276                      .dwattr $C$DW$30, DW_AT_TI_end_file("C:/Users/a0221343/Git/bootROM/f28004x_bootrom/F28004x_ROM_dev_PG
     277                      .dwattr $C$DW$30, DW_AT_TI_end_line(0x39e)
     278                      .dwattr $C$DW$30, DW_AT_TI_end_column(0x01)
     279                      .dwendentry
     280                      .dwendtag $C$DW$30
     281              
     282 00000038               .sect   ".text"
     283                      .clink
     284              
     285              $C$DW$37        .dwtag  DW_TAG_subprogram, DW_AT_name("SysCtl_setLowSpeedClock")
     286                      .dwattr $C$DW$37, DW_AT_low_pc(_SysCtl_setLowSpeedClock)
     287                      .dwattr $C$DW$37, DW_AT_high_pc(0x00)
     288                      .dwattr $C$DW$37, DW_AT_TI_symbol_name("_SysCtl_setLowSpeedClock")
     289                      .dwattr $C$DW$37, DW_AT_TI_begin_file("C:/Users/a0221343/Git/bootROM/f28004x_bootrom/F28004x_ROM_dev_
     290                      .dwattr $C$DW$37, DW_AT_TI_begin_line(0x406)
     291                      .dwattr $C$DW$37, DW_AT_TI_begin_column(0x01)
     292                      .dwattr $C$DW$37, DW_AT_TI_max_frame_size(-4)
     293                      .dwpsn  file "C:/Users/a0221343/Git/bootROM/f28004x_bootrom/F28004x_ROM_dev_PG2.0/F28004x_ROM/driverl
     294              
     295                      .dwfde $C$DW$CIE, _SysCtl_setLowSpeedClock
     296              $C$DW$38        .dwtag  DW_TAG_formal_parameter, DW_AT_name("prescaler")
     297                      .dwattr $C$DW$38, DW_AT_TI_symbol_name("_prescaler")
     298                      .dwattr $C$DW$38, DW_AT_type(*$C$DW$T$24)
     299                      .dwattr $C$DW$38, DW_AT_location[DW_OP_reg0]
     300              
     301              ;***************************************************************
     302              ;* FNAME: _SysCtl_setLowSpeedClock      FR SIZE:   2           *
     303              ;*                                                             *
     304              ;* FUNCTION ENVIRONMENT                                        *
     305              ;*                                                             *
     306              ;* FUNCTION PROPERTIES                                         *
     307              ;*                            0 Parameter,  1 Auto,  0 SOE     *
     308              ;***************************************************************
     309              
     310 00000038       _SysCtl_setLowSpeedClock:
     311                      .dwcfi  cfa_offset, -2
     312                      .dwcfi  save_reg_to_mem, 26, 0
     313 00000038 FE02          ADDB      SP,#2                 ; [CPU_U] 
     314                      .dwcfi  cfa_offset, -4
     315              $C$DW$39        .dwtag  DW_TAG_variable, DW_AT_name("prescaler")
     316                      .dwattr $C$DW$39, DW_AT_TI_symbol_name("_prescaler")
     317                      .dwattr $C$DW$39, DW_AT_type(*$C$DW$T$24)
     318                      .dwattr $C$DW$39, DW_AT_location[DW_OP_breg20 -1]
     319 00000039 9641          MOV       *-SP[1],AL            ; [CPU_] |1031| 
     320                      .dwpsn  file "C:/Users/a0221343/Git/bootROM/f28004x_bootrom/F28004x_ROM_dev_PG2.0/F28004x_ROM/driverl
     321 0000003a 7622   EALLOW
     322                      .dwpsn  file "C:/Users/a0221343/Git/bootROM/f28004x_bootrom/F28004x_ROM_dev_PG2.0/F28004x_ROM/driverl
     323 0000003b 8F05          MOVL      XAR4,#381484          ; [CPU_U] |1036| 
         0000003c D22C 
     324 0000003d 06C4          MOVL      ACC,*+XAR4[0]         ; [CPU_] |1036| 
TMS320C2000 Assembler PC v6.4.4 Tue Feb 14 14:42:35 2017

Tools Copyright (c) 1996-2015 Texas Instruments Incorporated
C:\Users\a0221343\AppData\Local\Temp\0495210                         PAGE    7

     325 0000003e 9B00          MOVB      AH,#0                 ; [CPU_] |1036| 
     326 0000003f 18A9          AND       AL,#0xfff8            ; [CPU_] |1036| 
         00000040 FFF8 
     327 00000041 AF41          OR        ACC,*-SP[1]           ; [CPU_] |1036| 
     328 00000042 1EC4          MOVL      *+XAR4[0],ACC         ; [CPU_] |1036| 
     329                      .dwpsn  file "C:/Users/a0221343/Git/bootROM/f28004x_bootrom/F28004x_ROM_dev_PG2.0/F28004x_ROM/driverl
     330 00000043 761A   EDIS
     331                      .dwpsn  file "C:/Users/a0221343/Git/bootROM/f28004x_bootrom/F28004x_ROM_dev_PG2.0/F28004x_ROM/driverl
     332 00000044 FF69          SPM       #0                    ; [CPU_] 
     333 00000045 FE82          SUBB      SP,#2                 ; [CPU_U] 
     334                      .dwcfi  cfa_offset, -2
     335              $C$DW$40        .dwtag  DW_TAG_TI_branch
     336                      .dwattr $C$DW$40, DW_AT_low_pc(0x00)
     337                      .dwattr $C$DW$40, DW_AT_TI_return
     338 00000046 0006          LRETR     ; [CPU_] 
     339                      ; return occurs ; [] 
     340                      .dwattr $C$DW$37, DW_AT_TI_end_file("C:/Users/a0221343/Git/bootROM/f28004x_bootrom/F28004x_ROM_dev_PG
     341                      .dwattr $C$DW$37, DW_AT_TI_end_line(0x410)
     342                      .dwattr $C$DW$37, DW_AT_TI_end_column(0x01)
     343                      .dwendentry
     344                      .dwendtag $C$DW$37
     345              
     346 00000047               .sect   ".text"
     347                      .clink
     348              
     349              $C$DW$41        .dwtag  DW_TAG_subprogram, DW_AT_name("GPIO_writePin")
     350                      .dwattr $C$DW$41, DW_AT_low_pc(_GPIO_writePin)
     351                      .dwattr $C$DW$41, DW_AT_high_pc(0x00)
     352                      .dwattr $C$DW$41, DW_AT_TI_symbol_name("_GPIO_writePin")
     353                      .dwattr $C$DW$41, DW_AT_TI_begin_file("C:/Users/a0221343/Git/bootROM/f28004x_bootrom/F28004x_ROM_dev_
     354                      .dwattr $C$DW$41, DW_AT_TI_begin_line(0x196)
     355                      .dwattr $C$DW$41, DW_AT_TI_begin_column(0x01)
     356                      .dwattr $C$DW$41, DW_AT_TI_max_frame_size(-8)
     357                      .dwpsn  file "C:/Users/a0221343/Git/bootROM/f28004x_bootrom/F28004x_ROM_dev_PG2.0/F28004x_ROM/driverl
     358              
     359                      .dwfde $C$DW$CIE, _GPIO_writePin
     360              $C$DW$42        .dwtag  DW_TAG_formal_parameter, DW_AT_name("pin")
     361                      .dwattr $C$DW$42, DW_AT_TI_symbol_name("_pin")
     362                      .dwattr $C$DW$42, DW_AT_type(*$C$DW$T$39)
     363                      .dwattr $C$DW$42, DW_AT_location[DW_OP_reg0]
     364              $C$DW$43        .dwtag  DW_TAG_formal_parameter, DW_AT_name("outVal")
     365                      .dwattr $C$DW$43, DW_AT_TI_symbol_name("_outVal")
     366                      .dwattr $C$DW$43, DW_AT_type(*$C$DW$T$39)
     367                      .dwattr $C$DW$43, DW_AT_location[DW_OP_breg20 -10]
     368              
     369              ;***************************************************************
     370              ;* FNAME: _GPIO_writePin                FR SIZE:   6           *
     371              ;*                                                             *
     372              ;* FUNCTION ENVIRONMENT                                        *
     373              ;*                                                             *
     374              ;* FUNCTION PROPERTIES                                         *
     375              ;*                            0 Parameter,  6 Auto,  0 SOE     *
     376              ;***************************************************************
     377              
     378 00000047       _GPIO_writePin:
TMS320C2000 Assembler PC v6.4.4 Tue Feb 14 14:42:35 2017

Tools Copyright (c) 1996-2015 Texas Instruments Incorporated
C:\Users\a0221343\AppData\Local\Temp\0495210                         PAGE    8

     379                      .dwcfi  cfa_offset, -2
     380                      .dwcfi  save_reg_to_mem, 26, 0
     381 00000047 FE06          ADDB      SP,#6                 ; [CPU_U] 
     382                      .dwcfi  cfa_offset, -8
     383              $C$DW$44        .dwtag  DW_TAG_variable, DW_AT_name("pin")
     384                      .dwattr $C$DW$44, DW_AT_TI_symbol_name("_pin")
     385                      .dwattr $C$DW$44, DW_AT_type(*$C$DW$T$39)
     386                      .dwattr $C$DW$44, DW_AT_location[DW_OP_breg20 -2]
     387              $C$DW$45        .dwtag  DW_TAG_variable, DW_AT_name("gpioDataReg")
     388                      .dwattr $C$DW$45, DW_AT_TI_symbol_name("_gpioDataReg")
     389                      .dwattr $C$DW$45, DW_AT_type(*$C$DW$T$72)
     390                      .dwattr $C$DW$45, DW_AT_location[DW_OP_breg20 -4]
     391              $C$DW$46        .dwtag  DW_TAG_variable, DW_AT_name("pinMask")
     392                      .dwattr $C$DW$46, DW_AT_TI_symbol_name("_pinMask")
     393                      .dwattr $C$DW$46, DW_AT_type(*$C$DW$T$39)
     394                      .dwattr $C$DW$46, DW_AT_location[DW_OP_breg20 -6]
     395 00000048 1E42          MOVL      *-SP[2],ACC           ; [CPU_] |407| 
     396                      .dwpsn  file "C:/Users/a0221343/Git/bootROM/f28004x_bootrom/F28004x_ROM_dev_PG2.0/F28004x_ROM/driverl
     397 00000049 2901          CLRC      SXM                   ; [CPU_] 
     398 0000004a FF44          SFR       ACC,5                 ; [CPU_] |416| 
     399 0000004b FF31          LSL       ACC,2                 ; [CPU_] |416| 
     400 0000004c FF30          LSL       ACC,1                 ; [CPU_] |416| 
     401 0000004d FF18          ADD       ACC,#127 << 8         ; [CPU_] |416| 
         0000004e 007F 
     402 0000004f 1E44          MOVL      *-SP[4],ACC           ; [CPU_] |416| 
     403                      .dwpsn  file "C:/Users/a0221343/Git/bootROM/f28004x_bootrom/F28004x_ROM_dev_PG2.0/F28004x_ROM/driverl
     404 00000050 0201          MOVB      ACC,#1                ; [CPU_] |419| 
     405 00000051 1EA6          MOVL      XAR6,ACC              ; [CPU_] |419| 
     406 00000052 9242          MOV       AL,*-SP[2]            ; [CPU_] |419| 
     407 00000053 901F          ANDB      AL,#0x1f              ; [CPU_] |419| 
     408 00000054 2DA9          MOV       T,AL                  ; [CPU_] |419| 
     409 00000055 06A6          MOVL      ACC,XAR6              ; [CPU_] |419| 
     410 00000056 563B          LSLL      ACC,T                 ; [CPU_] |419| 
     411 00000057 1E46          MOVL      *-SP[6],ACC           ; [CPU_] |419| 
     412                      .dwpsn  file "C:/Users/a0221343/Git/bootROM/f28004x_bootrom/F28004x_ROM_dev_PG2.0/F28004x_ROM/driverl
     413 00000058 064A          MOVL      ACC,*-SP[10]          ; [CPU_] |421| 
     414 00000059 ED05          BF        $C$L2,NEQ             ; [CPU_] |421| 
     415                      ; branchcc occurs ; [] |421| 
     416                      .dwpsn  file "C:/Users/a0221343/Git/bootROM/f28004x_bootrom/F28004x_ROM_dev_PG2.0/F28004x_ROM/driverl
     417 0000005a 8A44          MOVL      XAR4,*-SP[4]          ; [CPU_] |423| 
     418 0000005b 0646          MOVL      ACC,*-SP[6]           ; [CPU_] |423| 
     419 0000005c 1EE4          MOVL      *+XAR4[4],ACC         ; [CPU_] |423| 
     420                      .dwpsn  file "C:/Users/a0221343/Git/bootROM/f28004x_bootrom/F28004x_ROM_dev_PG2.0/F28004x_ROM/driverl
     421 0000005d 6F04          B         $C$L3,UNC             ; [CPU_] |424| 
     422                      ; branch occurs ; [] |424| 
     423 0000005e       $C$L2:    
     424                      .dwpsn  file "C:/Users/a0221343/Git/bootROM/f28004x_bootrom/F28004x_ROM_dev_PG2.0/F28004x_ROM/driverl
     425 0000005e 8A44          MOVL      XAR4,*-SP[4]          ; [CPU_] |427| 
     426 0000005f 0646          MOVL      ACC,*-SP[6]           ; [CPU_] |427| 
     427 00000060 1ED4          MOVL      *+XAR4[2],ACC         ; [CPU_] |427| 
     428                      .dwpsn  file "C:/Users/a0221343/Git/bootROM/f28004x_bootrom/F28004x_ROM_dev_PG2.0/F28004x_ROM/driverl
     429 00000061       $C$L3:    
     430 00000061 FE86          SUBB      SP,#6                 ; [CPU_U] 
     431                      .dwcfi  cfa_offset, -2
     432              $C$DW$47        .dwtag  DW_TAG_TI_branch
TMS320C2000 Assembler PC v6.4.4 Tue Feb 14 14:42:35 2017

Tools Copyright (c) 1996-2015 Texas Instruments Incorporated
C:\Users\a0221343\AppData\Local\Temp\0495210                         PAGE    9

     433                      .dwattr $C$DW$47, DW_AT_low_pc(0x00)
     434                      .dwattr $C$DW$47, DW_AT_TI_return
     435 00000062 0006          LRETR     ; [CPU_] 
     436                      ; return occurs ; [] 
     437                      .dwattr $C$DW$41, DW_AT_TI_end_file("C:/Users/a0221343/Git/bootROM/f28004x_bootrom/F28004x_ROM_dev_PG
     438                      .dwattr $C$DW$41, DW_AT_TI_end_line(0x1ad)
     439                      .dwattr $C$DW$41, DW_AT_TI_end_column(0x01)
     440                      .dwendentry
     441                      .dwendtag $C$DW$41
     442              
     443 00000063               .sect   ".text"
     444                      .clink
     445              
     446              $C$DW$48        .dwtag  DW_TAG_subprogram, DW_AT_name("GPIO_unlockPortConfig")
     447                      .dwattr $C$DW$48, DW_AT_low_pc(_GPIO_unlockPortConfig)
     448                      .dwattr $C$DW$48, DW_AT_high_pc(0x00)
     449                      .dwattr $C$DW$48, DW_AT_TI_symbol_name("_GPIO_unlockPortConfig")
     450                      .dwattr $C$DW$48, DW_AT_TI_begin_file("C:/Users/a0221343/Git/bootROM/f28004x_bootrom/F28004x_ROM_dev_
     451                      .dwattr $C$DW$48, DW_AT_TI_begin_line(0x2aa)
     452                      .dwattr $C$DW$48, DW_AT_TI_begin_column(0x01)
     453                      .dwattr $C$DW$48, DW_AT_TI_max_frame_size(-8)
     454                      .dwpsn  file "C:/Users/a0221343/Git/bootROM/f28004x_bootrom/F28004x_ROM_dev_PG2.0/F28004x_ROM/driverl
     455              
     456                      .dwfde $C$DW$CIE, _GPIO_unlockPortConfig
     457              $C$DW$49        .dwtag  DW_TAG_formal_parameter, DW_AT_name("port")
     458                      .dwattr $C$DW$49, DW_AT_TI_symbol_name("_port")
     459                      .dwattr $C$DW$49, DW_AT_type(*$C$DW$T$26)
     460                      .dwattr $C$DW$49, DW_AT_location[DW_OP_reg12]
     461              $C$DW$50        .dwtag  DW_TAG_formal_parameter, DW_AT_name("pinMask")
     462                      .dwattr $C$DW$50, DW_AT_TI_symbol_name("_pinMask")
     463                      .dwattr $C$DW$50, DW_AT_type(*$C$DW$T$39)
     464                      .dwattr $C$DW$50, DW_AT_location[DW_OP_reg0]
     465              
     466              ;***************************************************************
     467              ;* FNAME: _GPIO_unlockPortConfig        FR SIZE:   6           *
     468              ;*                                                             *
     469              ;* FUNCTION ENVIRONMENT                                        *
     470              ;*                                                             *
     471              ;* FUNCTION PROPERTIES                                         *
     472              ;*                            0 Parameter,  6 Auto,  0 SOE     *
     473              ;***************************************************************
     474              
     475 00000063       _GPIO_unlockPortConfig:
     476                      .dwcfi  cfa_offset, -2
     477                      .dwcfi  save_reg_to_mem, 26, 0
     478 00000063 FE06          ADDB      SP,#6                 ; [CPU_U] 
     479                      .dwcfi  cfa_offset, -8
     480              $C$DW$51        .dwtag  DW_TAG_variable, DW_AT_name("port")
     481                      .dwattr $C$DW$51, DW_AT_TI_symbol_name("_port")
     482                      .dwattr $C$DW$51, DW_AT_type(*$C$DW$T$26)
     483                      .dwattr $C$DW$51, DW_AT_location[DW_OP_breg20 -1]
     484              $C$DW$52        .dwtag  DW_TAG_variable, DW_AT_name("pinMask")
     485                      .dwattr $C$DW$52, DW_AT_TI_symbol_name("_pinMask")
     486                      .dwattr $C$DW$52, DW_AT_type(*$C$DW$T$39)
     487                      .dwattr $C$DW$52, DW_AT_location[DW_OP_breg20 -4]
TMS320C2000 Assembler PC v6.4.4 Tue Feb 14 14:42:35 2017

Tools Copyright (c) 1996-2015 Texas Instruments Incorporated
C:\Users\a0221343\AppData\Local\Temp\0495210                         PAGE   10

     488              $C$DW$53        .dwtag  DW_TAG_variable, DW_AT_name("gpioDataReg")
     489                      .dwattr $C$DW$53, DW_AT_TI_symbol_name("_gpioDataReg")
     490                      .dwattr $C$DW$53, DW_AT_type(*$C$DW$T$72)
     491                      .dwattr $C$DW$53, DW_AT_location[DW_OP_breg20 -6]
     492 00000064 7C41          MOV       *-SP[1],AR4           ; [CPU_] |683| 
     493 00000065 1E44          MOVL      *-SP[4],ACC           ; [CPU_] |683| 
     494                      .dwpsn  file "C:/Users/a0221343/Git/bootROM/f28004x_bootrom/F28004x_ROM_dev_PG2.0/F28004x_ROM/driverl
     495 00000066 2901          CLRC      SXM                   ; [CPU_] 
     496 00000067 5603          MOV       ACC,*-SP[1] << 5      ; [CPU_] |689| 
         00000068 0541 
     497 00000069 FF30          LSL       ACC,1                 ; [CPU_] |689| 
     498 0000006a FF1A          ADD       ACC,#31 << 10         ; [CPU_] |689| 
         0000006b 001F 
     499 0000006c 1E46          MOVL      *-SP[6],ACC           ; [CPU_] |689| 
     500                      .dwpsn  file "C:/Users/a0221343/Git/bootROM/f28004x_bootrom/F28004x_ROM_dev_PG2.0/F28004x_ROM/driverl
     501 0000006d 7622   EALLOW
     502                      .dwpsn  file "C:/Users/a0221343/Git/bootROM/f28004x_bootrom/F28004x_ROM_dev_PG2.0/F28004x_ROM/driverl
     503 0000006e 023C          MOVB      ACC,#60               ; [CPU_] |693| 
     504 0000006f 0746          ADDL      ACC,*-SP[6]           ; [CPU_] |693| 
     505 00000070 8AA9          MOVL      XAR4,ACC              ; [CPU_] |693| 
     506 00000071 0644          MOVL      ACC,*-SP[4]           ; [CPU_] |693| 
     507 00000072 FF55          NOT       ACC                   ; [CPU_] |693| 
     508 00000073 C0C4          AND       *+XAR4[0],AL          ; [CPU_] |693| 
     509 00000074 C1CC          AND       *+XAR4[1],AH          ; [CPU_] |693| 
     510                      .dwpsn  file "C:/Users/a0221343/Git/bootROM/f28004x_bootrom/F28004x_ROM_dev_PG2.0/F28004x_ROM/driverl
     511 00000075 761A   EDIS
     512                      .dwpsn  file "C:/Users/a0221343/Git/bootROM/f28004x_bootrom/F28004x_ROM_dev_PG2.0/F28004x_ROM/driverl
     513 00000076 FF69          SPM       #0                    ; [CPU_] 
     514 00000077 FE86          SUBB      SP,#6                 ; [CPU_U] 
     515                      .dwcfi  cfa_offset, -2
     516              $C$DW$54        .dwtag  DW_TAG_TI_branch
     517                      .dwattr $C$DW$54, DW_AT_low_pc(0x00)
     518                      .dwattr $C$DW$54, DW_AT_TI_return
     519 00000078 0006          LRETR     ; [CPU_] 
     520                      ; return occurs ; [] 
     521                      .dwattr $C$DW$48, DW_AT_TI_end_file("C:/Users/a0221343/Git/bootROM/f28004x_bootrom/F28004x_ROM_dev_PG
     522                      .dwattr $C$DW$48, DW_AT_TI_end_line(0x2b7)
     523                      .dwattr $C$DW$48, DW_AT_TI_end_column(0x01)
     524                      .dwendentry
     525                      .dwendtag $C$DW$48
     526              
     527 00000079               .sect   ".text"
     528                      .clink
     529              
     530              $C$DW$55        .dwtag  DW_TAG_subprogram, DW_AT_name("SPI_enableModule")
     531                      .dwattr $C$DW$55, DW_AT_low_pc(_SPI_enableModule)
     532                      .dwattr $C$DW$55, DW_AT_high_pc(0x00)
     533                      .dwattr $C$DW$55, DW_AT_TI_symbol_name("_SPI_enableModule")
     534                      .dwattr $C$DW$55, DW_AT_TI_begin_file("C:/Users/a0221343/Git/bootROM/f28004x_bootrom/F28004x_ROM_dev_
     535                      .dwattr $C$DW$55, DW_AT_TI_begin_line(0xc4)
     536                      .dwattr $C$DW$55, DW_AT_TI_begin_column(0x01)
     537                      .dwattr $C$DW$55, DW_AT_TI_max_frame_size(-4)
     538                      .dwpsn  file "C:/Users/a0221343/Git/bootROM/f28004x_bootrom/F28004x_ROM_dev_PG2.0/F28004x_ROM/driverl
     539              
     540                      .dwfde $C$DW$CIE, _SPI_enableModule
TMS320C2000 Assembler PC v6.4.4 Tue Feb 14 14:42:35 2017

Tools Copyright (c) 1996-2015 Texas Instruments Incorporated
C:\Users\a0221343\AppData\Local\Temp\0495210                         PAGE   11

     541              $C$DW$56        .dwtag  DW_TAG_formal_parameter, DW_AT_name("base")
     542                      .dwattr $C$DW$56, DW_AT_TI_symbol_name("_base")
     543                      .dwattr $C$DW$56, DW_AT_type(*$C$DW$T$39)
     544                      .dwattr $C$DW$56, DW_AT_location[DW_OP_reg0]
     545              
     546              ;***************************************************************
     547              ;* FNAME: _SPI_enableModule             FR SIZE:   2           *
     548              ;*                                                             *
     549              ;* FUNCTION ENVIRONMENT                                        *
     550              ;*                                                             *
     551              ;* FUNCTION PROPERTIES                                         *
     552              ;*                            0 Parameter,  2 Auto,  0 SOE     *
     553              ;***************************************************************
     554              
     555 00000079       _SPI_enableModule:
     556                      .dwcfi  cfa_offset, -2
     557                      .dwcfi  save_reg_to_mem, 26, 0
     558 00000079 FE02          ADDB      SP,#2                 ; [CPU_U] 
     559                      .dwcfi  cfa_offset, -4
     560              $C$DW$57        .dwtag  DW_TAG_variable, DW_AT_name("base")
     561                      .dwattr $C$DW$57, DW_AT_TI_symbol_name("_base")
     562                      .dwattr $C$DW$57, DW_AT_type(*$C$DW$T$39)
     563                      .dwattr $C$DW$57, DW_AT_location[DW_OP_breg20 -2]
     564 0000007a 1E42          MOVL      *-SP[2],ACC           ; [CPU_] |197| 
     565                      .dwpsn  file "C:/Users/a0221343/Git/bootROM/f28004x_bootrom/F28004x_ROM_dev_PG2.0/F28004x_ROM/driverl
     566 0000007b 8A42          MOVL      XAR4,*-SP[2]          ; [CPU_] |203| 
     567 0000007c 1AC4          OR        *+XAR4[0],#0x0080     ; [CPU_] |203| 
         0000007d 0080 
     568                      .dwpsn  file "C:/Users/a0221343/Git/bootROM/f28004x_bootrom/F28004x_ROM_dev_PG2.0/F28004x_ROM/driverl
     569 0000007e FE82          SUBB      SP,#2                 ; [CPU_U] 
     570                      .dwcfi  cfa_offset, -2
     571              $C$DW$58        .dwtag  DW_TAG_TI_branch
     572                      .dwattr $C$DW$58, DW_AT_low_pc(0x00)
     573                      .dwattr $C$DW$58, DW_AT_TI_return
     574 0000007f 0006          LRETR     ; [CPU_] 
     575                      ; return occurs ; [] 
     576                      .dwattr $C$DW$55, DW_AT_TI_end_file("C:/Users/a0221343/Git/bootROM/f28004x_bootrom/F28004x_ROM_dev_PG
     577                      .dwattr $C$DW$55, DW_AT_TI_end_line(0xcc)
     578                      .dwattr $C$DW$55, DW_AT_TI_end_column(0x01)
     579                      .dwendentry
     580                      .dwendtag $C$DW$55
     581              
     582 00000080               .sect   ".text"
     583                      .clink
     584              
     585              $C$DW$59        .dwtag  DW_TAG_subprogram, DW_AT_name("SPI_disableModule")
     586                      .dwattr $C$DW$59, DW_AT_low_pc(_SPI_disableModule)
     587                      .dwattr $C$DW$59, DW_AT_high_pc(0x00)
     588                      .dwattr $C$DW$59, DW_AT_TI_symbol_name("_SPI_disableModule")
     589                      .dwattr $C$DW$59, DW_AT_TI_begin_file("C:/Users/a0221343/Git/bootROM/f28004x_bootrom/F28004x_ROM_dev_
     590                      .dwattr $C$DW$59, DW_AT_TI_begin_line(0xdb)
     591                      .dwattr $C$DW$59, DW_AT_TI_begin_column(0x01)
     592                      .dwattr $C$DW$59, DW_AT_TI_max_frame_size(-4)
     593                      .dwpsn  file "C:/Users/a0221343/Git/bootROM/f28004x_bootrom/F28004x_ROM_dev_PG2.0/F28004x_ROM/driverl
     594              
TMS320C2000 Assembler PC v6.4.4 Tue Feb 14 14:42:35 2017

Tools Copyright (c) 1996-2015 Texas Instruments Incorporated
C:\Users\a0221343\AppData\Local\Temp\0495210                         PAGE   12

     595                      .dwfde $C$DW$CIE, _SPI_disableModule
     596              $C$DW$60        .dwtag  DW_TAG_formal_parameter, DW_AT_name("base")
     597                      .dwattr $C$DW$60, DW_AT_TI_symbol_name("_base")
     598                      .dwattr $C$DW$60, DW_AT_type(*$C$DW$T$39)
     599                      .dwattr $C$DW$60, DW_AT_location[DW_OP_reg0]
     600              
     601              ;***************************************************************
     602              ;* FNAME: _SPI_disableModule            FR SIZE:   2           *
     603              ;*                                                             *
     604              ;* FUNCTION ENVIRONMENT                                        *
     605              ;*                                                             *
     606              ;* FUNCTION PROPERTIES                                         *
     607              ;*                            0 Parameter,  2 Auto,  0 SOE     *
     608              ;***************************************************************
     609              
     610 00000080       _SPI_disableModule:
     611                      .dwcfi  cfa_offset, -2
     612                      .dwcfi  save_reg_to_mem, 26, 0
     613 00000080 FE02          ADDB      SP,#2                 ; [CPU_U] 
     614                      .dwcfi  cfa_offset, -4
     615              $C$DW$61        .dwtag  DW_TAG_variable, DW_AT_name("base")
     616                      .dwattr $C$DW$61, DW_AT_TI_symbol_name("_base")
     617                      .dwattr $C$DW$61, DW_AT_type(*$C$DW$T$39)
     618                      .dwattr $C$DW$61, DW_AT_location[DW_OP_breg20 -2]
     619 00000081 1E42          MOVL      *-SP[2],ACC           ; [CPU_] |220| 
     620                      .dwpsn  file "C:/Users/a0221343/Git/bootROM/f28004x_bootrom/F28004x_ROM_dev_PG2.0/F28004x_ROM/driverl
     621 00000082 8A42          MOVL      XAR4,*-SP[2]          ; [CPU_] |226| 
     622 00000083 18C4          AND       *+XAR4[0],#0xff7f     ; [CPU_] |226| 
         00000084 FF7F 
     623                      .dwpsn  file "C:/Users/a0221343/Git/bootROM/f28004x_bootrom/F28004x_ROM_dev_PG2.0/F28004x_ROM/driverl
     624 00000085 FE82          SUBB      SP,#2                 ; [CPU_U] 
     625                      .dwcfi  cfa_offset, -2
     626              $C$DW$62        .dwtag  DW_TAG_TI_branch
     627                      .dwattr $C$DW$62, DW_AT_low_pc(0x00)
     628                      .dwattr $C$DW$62, DW_AT_TI_return
     629 00000086 0006          LRETR     ; [CPU_] 
     630                      ; return occurs ; [] 
     631                      .dwattr $C$DW$59, DW_AT_TI_end_file("C:/Users/a0221343/Git/bootROM/f28004x_bootrom/F28004x_ROM_dev_PG
     632                      .dwattr $C$DW$59, DW_AT_TI_end_line(0xe3)
     633                      .dwattr $C$DW$59, DW_AT_TI_end_column(0x01)
     634                      .dwendentry
     635                      .dwendtag $C$DW$59
     636              
     637 00000087               .sect   ".text"
     638                      .clink
     639              
     640              $C$DW$63        .dwtag  DW_TAG_subprogram, DW_AT_name("SPI_writeDataNonBlocking")
     641                      .dwattr $C$DW$63, DW_AT_low_pc(_SPI_writeDataNonBlocking)
     642                      .dwattr $C$DW$63, DW_AT_high_pc(0x00)
     643                      .dwattr $C$DW$63, DW_AT_TI_symbol_name("_SPI_writeDataNonBlocking")
     644                      .dwattr $C$DW$63, DW_AT_TI_begin_file("C:/Users/a0221343/Git/bootROM/f28004x_bootrom/F28004x_ROM_dev_
     645                      .dwattr $C$DW$63, DW_AT_TI_begin_line(0x1cc)
     646                      .dwattr $C$DW$63, DW_AT_TI_begin_column(0x01)
     647                      .dwattr $C$DW$63, DW_AT_TI_max_frame_size(-6)
     648                      .dwpsn  file "C:/Users/a0221343/Git/bootROM/f28004x_bootrom/F28004x_ROM_dev_PG2.0/F28004x_ROM/driverl
TMS320C2000 Assembler PC v6.4.4 Tue Feb 14 14:42:35 2017

Tools Copyright (c) 1996-2015 Texas Instruments Incorporated
C:\Users\a0221343\AppData\Local\Temp\0495210                         PAGE   13

     649              
     650                      .dwfde $C$DW$CIE, _SPI_writeDataNonBlocking
     651              $C$DW$64        .dwtag  DW_TAG_formal_parameter, DW_AT_name("base")
     652                      .dwattr $C$DW$64, DW_AT_TI_symbol_name("_base")
     653                      .dwattr $C$DW$64, DW_AT_type(*$C$DW$T$39)
     654                      .dwattr $C$DW$64, DW_AT_location[DW_OP_reg0]
     655              $C$DW$65        .dwtag  DW_TAG_formal_parameter, DW_AT_name("data")
     656                      .dwattr $C$DW$65, DW_AT_TI_symbol_name("_data")
     657                      .dwattr $C$DW$65, DW_AT_type(*$C$DW$T$50)
     658                      .dwattr $C$DW$65, DW_AT_location[DW_OP_reg12]
     659              
     660              ;***************************************************************
     661              ;* FNAME: _SPI_writeDataNonBlocking     FR SIZE:   4           *
     662              ;*                                                             *
     663              ;* FUNCTION ENVIRONMENT                                        *
     664              ;*                                                             *
     665              ;* FUNCTION PROPERTIES                                         *
     666              ;*                            0 Parameter,  3 Auto,  0 SOE     *
     667              ;***************************************************************
     668              
     669 00000087       _SPI_writeDataNonBlocking:
     670                      .dwcfi  cfa_offset, -2
     671                      .dwcfi  save_reg_to_mem, 26, 0
     672 00000087 FE04          ADDB      SP,#4                 ; [CPU_U] 
     673                      .dwcfi  cfa_offset, -6
     674              $C$DW$66        .dwtag  DW_TAG_variable, DW_AT_name("base")
     675                      .dwattr $C$DW$66, DW_AT_TI_symbol_name("_base")
     676                      .dwattr $C$DW$66, DW_AT_type(*$C$DW$T$39)
     677                      .dwattr $C$DW$66, DW_AT_location[DW_OP_breg20 -2]
     678              $C$DW$67        .dwtag  DW_TAG_variable, DW_AT_name("data")
     679                      .dwattr $C$DW$67, DW_AT_TI_symbol_name("_data")
     680                      .dwattr $C$DW$67, DW_AT_type(*$C$DW$T$50)
     681                      .dwattr $C$DW$67, DW_AT_location[DW_OP_breg20 -3]
     682 00000088 7C43          MOV       *-SP[3],AR4           ; [CPU_] |461| 
     683 00000089 1E42          MOVL      *-SP[2],ACC           ; [CPU_] |461| 
     684                      .dwpsn  file "C:/Users/a0221343/Git/bootROM/f28004x_bootrom/F28004x_ROM_dev_PG2.0/F28004x_ROM/driverl
     685 0000008a 8843          MOVZ      AR6,*-SP[3]           ; [CPU_] |470| 
     686 0000008b 0208          MOVB      ACC,#8                ; [CPU_] |470| 
     687 0000008c 0742          ADDL      ACC,*-SP[2]           ; [CPU_] |470| 
     688 0000008d 8AA9          MOVL      XAR4,ACC              ; [CPU_] |470| 
     689 0000008e 7EC4          MOV       *+XAR4[0],AR6         ; [CPU_] |470| 
     690                      .dwpsn  file "C:/Users/a0221343/Git/bootROM/f28004x_bootrom/F28004x_ROM_dev_PG2.0/F28004x_ROM/driverl
     691 0000008f FE84          SUBB      SP,#4                 ; [CPU_U] 
     692                      .dwcfi  cfa_offset, -2
     693              $C$DW$68        .dwtag  DW_TAG_TI_branch
     694                      .dwattr $C$DW$68, DW_AT_low_pc(0x00)
     695                      .dwattr $C$DW$68, DW_AT_TI_return
     696 00000090 0006          LRETR     ; [CPU_] 
     697                      ; return occurs ; [] 
     698                      .dwattr $C$DW$63, DW_AT_TI_end_file("C:/Users/a0221343/Git/bootROM/f28004x_bootrom/F28004x_ROM_dev_PG
     699                      .dwattr $C$DW$63, DW_AT_TI_end_line(0x1d7)
     700                      .dwattr $C$DW$63, DW_AT_TI_end_column(0x01)
     701                      .dwendentry
     702                      .dwendtag $C$DW$63
     703              
TMS320C2000 Assembler PC v6.4.4 Tue Feb 14 14:42:35 2017

Tools Copyright (c) 1996-2015 Texas Instruments Incorporated
C:\Users\a0221343\AppData\Local\Temp\0495210                         PAGE   14

     704 00000091               .sect   ".text"
     705                      .clink
     706              
     707              $C$DW$69        .dwtag  DW_TAG_subprogram, DW_AT_name("SPI_readDataNonBlocking")
     708                      .dwattr $C$DW$69, DW_AT_low_pc(_SPI_readDataNonBlocking)
     709                      .dwattr $C$DW$69, DW_AT_high_pc(0x00)
     710                      .dwattr $C$DW$69, DW_AT_TI_symbol_name("_SPI_readDataNonBlocking")
     711                      .dwattr $C$DW$69, DW_AT_type(*$C$DW$T$50)
     712                      .dwattr $C$DW$69, DW_AT_TI_begin_file("C:/Users/a0221343/Git/bootROM/f28004x_bootrom/F28004x_ROM_dev_
     713                      .dwattr $C$DW$69, DW_AT_TI_begin_line(0x1eb)
     714                      .dwattr $C$DW$69, DW_AT_TI_begin_column(0x01)
     715                      .dwattr $C$DW$69, DW_AT_TI_max_frame_size(-4)
     716                      .dwpsn  file "C:/Users/a0221343/Git/bootROM/f28004x_bootrom/F28004x_ROM_dev_PG2.0/F28004x_ROM/driverl
     717              
     718                      .dwfde $C$DW$CIE, _SPI_readDataNonBlocking
     719              $C$DW$70        .dwtag  DW_TAG_formal_parameter, DW_AT_name("base")
     720                      .dwattr $C$DW$70, DW_AT_TI_symbol_name("_base")
     721                      .dwattr $C$DW$70, DW_AT_type(*$C$DW$T$39)
     722                      .dwattr $C$DW$70, DW_AT_location[DW_OP_reg0]
     723              
     724              ;***************************************************************
     725              ;* FNAME: _SPI_readDataNonBlocking      FR SIZE:   2           *
     726              ;*                                                             *
     727              ;* FUNCTION ENVIRONMENT                                        *
     728              ;*                                                             *
     729              ;* FUNCTION PROPERTIES                                         *
     730              ;*                            0 Parameter,  2 Auto,  0 SOE     *
     731              ;***************************************************************
     732              
     733 00000091       _SPI_readDataNonBlocking:
     734                      .dwcfi  cfa_offset, -2
     735                      .dwcfi  save_reg_to_mem, 26, 0
     736 00000091 FE02          ADDB      SP,#2                 ; [CPU_U] 
     737                      .dwcfi  cfa_offset, -4
     738              $C$DW$71        .dwtag  DW_TAG_variable, DW_AT_name("base")
     739                      .dwattr $C$DW$71, DW_AT_TI_symbol_name("_base")
     740                      .dwattr $C$DW$71, DW_AT_type(*$C$DW$T$39)
     741                      .dwattr $C$DW$71, DW_AT_location[DW_OP_breg20 -2]
     742 00000092 1E42          MOVL      *-SP[2],ACC           ; [CPU_] |492| 
     743                      .dwpsn  file "C:/Users/a0221343/Git/bootROM/f28004x_bootrom/F28004x_ROM_dev_PG2.0/F28004x_ROM/driverl
     744 00000093 8A42          MOVL      XAR4,*-SP[2]          ; [CPU_] |501| 
     745 00000094 92FC          MOV       AL,*+XAR4[7]          ; [CPU_] |501| 
     746                      .dwpsn  file "C:/Users/a0221343/Git/bootROM/f28004x_bootrom/F28004x_ROM_dev_PG2.0/F28004x_ROM/driverl
     747 00000095 FE82          SUBB      SP,#2                 ; [CPU_U] 
     748                      .dwcfi  cfa_offset, -2
     749              $C$DW$72        .dwtag  DW_TAG_TI_branch
     750                      .dwattr $C$DW$72, DW_AT_low_pc(0x00)
     751                      .dwattr $C$DW$72, DW_AT_TI_return
     752 00000096 0006          LRETR     ; [CPU_] 
     753                      ; return occurs ; [] 
     754                      .dwattr $C$DW$69, DW_AT_TI_end_file("C:/Users/a0221343/Git/bootROM/f28004x_bootrom/F28004x_ROM_dev_PG
     755                      .dwattr $C$DW$69, DW_AT_TI_end_line(0x1f6)
     756                      .dwattr $C$DW$69, DW_AT_TI_end_column(0x01)
     757                      .dwendentry
     758                      .dwendtag $C$DW$69
TMS320C2000 Assembler PC v6.4.4 Tue Feb 14 14:42:35 2017

Tools Copyright (c) 1996-2015 Texas Instruments Incorporated
C:\Users\a0221343\AppData\Local\Temp\0495210                         PAGE   15

     759              
     760 00000097               .sect   ".text"
     761                      .clink
     762                      .global _SPI_Boot
     763              
     764              $C$DW$73        .dwtag  DW_TAG_subprogram, DW_AT_name("SPI_Boot")
     765                      .dwattr $C$DW$73, DW_AT_low_pc(_SPI_Boot)
     766                      .dwattr $C$DW$73, DW_AT_high_pc(0x00)
     767                      .dwattr $C$DW$73, DW_AT_TI_symbol_name("_SPI_Boot")
     768                      .dwattr $C$DW$73, DW_AT_external
     769                      .dwattr $C$DW$73, DW_AT_type(*$C$DW$T$39)
     770                      .dwattr $C$DW$73, DW_AT_TI_begin_file("C:/Users/a0221343/Git/bootROM/f28004x_bootrom/F28004x_ROM_dev_
     771                      .dwattr $C$DW$73, DW_AT_TI_begin_line(0x41)
     772                      .dwattr $C$DW$73, DW_AT_TI_begin_column(0x0a)
     773                      .dwattr $C$DW$73, DW_AT_TI_max_frame_size(-6)
     774                      .dwpsn  file "C:/Users/a0221343/Git/bootROM/f28004x_bootrom/F28004x_ROM_dev_PG2.0/F28004x_ROM/bootROM
     775              
     776                      .dwfde $C$DW$CIE, _SPI_Boot
     777              $C$DW$74        .dwtag  DW_TAG_formal_parameter, DW_AT_name("BootMode")
     778                      .dwattr $C$DW$74, DW_AT_TI_symbol_name("_BootMode")
     779                      .dwattr $C$DW$74, DW_AT_type(*$C$DW$T$39)
     780                      .dwattr $C$DW$74, DW_AT_location[DW_OP_reg0]
     781              
     782              ;***************************************************************
     783              ;* FNAME: _SPI_Boot                     FR SIZE:   4           *
     784              ;*                                                             *
     785              ;* FUNCTION ENVIRONMENT                                        *
     786              ;*                                                             *
     787              ;* FUNCTION PROPERTIES                                         *
     788              ;*                            0 Parameter,  4 Auto,  0 SOE     *
     789              ;***************************************************************
     790              
     791 00000097       _SPI_Boot:
     792                      .dwcfi  cfa_offset, -2
     793                      .dwcfi  save_reg_to_mem, 26, 0
     794 00000097 FE04          ADDB      SP,#4                 ; [CPU_U] 
     795                      .dwcfi  cfa_offset, -6
     796              $C$DW$75        .dwtag  DW_TAG_variable, DW_AT_name("BootMode")
     797                      .dwattr $C$DW$75, DW_AT_TI_symbol_name("_BootMode")
     798                      .dwattr $C$DW$75, DW_AT_type(*$C$DW$T$39)
     799                      .dwattr $C$DW$75, DW_AT_location[DW_OP_breg20 -2]
     800              $C$DW$76        .dwtag  DW_TAG_variable, DW_AT_name("EntryAddr")
     801                      .dwattr $C$DW$76, DW_AT_TI_symbol_name("_EntryAddr")
     802                      .dwattr $C$DW$76, DW_AT_type(*$C$DW$T$39)
     803                      .dwattr $C$DW$76, DW_AT_location[DW_OP_breg20 -4]
     804 00000098 1E42          MOVL      *-SP[2],ACC           ; [CPU_] |66| 
     805                      .dwpsn  file "C:/Users/a0221343/Git/bootROM/f28004x_bootrom/F28004x_ROM_dev_PG2.0/F28004x_ROM/bootROM
     806 00000099 8F07          MOVL      XAR4,#459744          ; [CPU_U] |69| 
         0000009a 03E0 
     807 0000009b 06C4          MOVL      ACC,*+XAR4[0]         ; [CPU_] |69| 
     808 0000009c 1E44          MOVL      *-SP[4],ACC           ; [CPU_] |69| 
     809                      .dwpsn  file "C:/Users/a0221343/Git/bootROM/f28004x_bootrom/F28004x_ROM_dev_PG2.0/F28004x_ROM/bootROM
     810 0000009d 0200          MOVB      ACC,#0                ; [CPU_] |70| 
     811 0000009e 1901          SUBB      ACC,#1                ; [CPU_] |70| 
     812 0000009f 0F44          CMPL      ACC,*-SP[4]           ; [CPU_] |70| 
TMS320C2000 Assembler PC v6.4.4 Tue Feb 14 14:42:35 2017

Tools Copyright (c) 1996-2015 Texas Instruments Incorporated
C:\Users\a0221343\AppData\Local\Temp\0495210                         PAGE   16

     813 000000a0 EC05          BF        $C$L4,EQ              ; [CPU_] |70| 
     814                      ; branchcc occurs ; [] |70| 
     815 000000a1 0644          MOVL      ACC,*-SP[4]           ; [CPU_] |70| 
     816 000000a2 EC03          BF        $C$L4,EQ              ; [CPU_] |70| 
     817                      ; branchcc occurs ; [] |70| 
     818                      .dwpsn  file "C:/Users/a0221343/Git/bootROM/f28004x_bootrom/F28004x_ROM_dev_PG2.0/F28004x_ROM/bootROM
     819 000000a3 C544          MOVL      XAR7,*-SP[4]          ; [CPU_] |74| 
     820              $C$DW$77        .dwtag  DW_TAG_TI_branch
     821                      .dwattr $C$DW$77, DW_AT_low_pc(0x00)
     822                      .dwattr $C$DW$77, DW_AT_TI_call
     823                      .dwattr $C$DW$77, DW_AT_TI_indirect
     824 000000a4 3E67          LCR       *XAR7                 ; [CPU_] |74| 
     825                      ; call occurs [XAR7] ; [] |74| 
     826 000000a5       $C$L4:    
     827                      .dwpsn  file "C:/Users/a0221343/Git/bootROM/f28004x_bootrom/F28004x_ROM_dev_PG2.0/F28004x_ROM/bootROM
     828 000000a5 9A08          MOVB      AL,#8                 ; [CPU_] |79| 
     829              $C$DW$78        .dwtag  DW_TAG_TI_branch
     830                      .dwattr $C$DW$78, DW_AT_low_pc(0x00)
     831                      .dwattr $C$DW$78, DW_AT_name("_SysCtl_isPeripheralPresent")
     832                      .dwattr $C$DW$78, DW_AT_TI_call
     833 000000a6 7640'         LCR       #_SysCtl_isPeripheralPresent ; [CPU_] |79| 
         000000a7 0018 
     834                      ; call occurs [#_SysCtl_isPeripheralPresent] ; [] |79| 
     835 000000a8 5200          CMPB      AL,#0                 ; [CPU_] |79| 
     836 000000a9 ED04          BF        $C$L5,NEQ             ; [CPU_] |79| 
     837                      ; branchcc occurs ; [] |79| 
     838                      .dwpsn  file "C:/Users/a0221343/Git/bootROM/f28004x_bootrom/F28004x_ROM_dev_PG2.0/F28004x_ROM/bootROM
     839 000000aa 0200          MOVB      ACC,#0                ; [CPU_] |81| 
     840 000000ab 1901          SUBB      ACC,#1                ; [CPU_] |81| 
     841 000000ac 6F19          B         $C$L7,UNC             ; [CPU_] |81| 
     842                      ; branch occurs ; [] |81| 
     843 000000ad       $C$L5:    
     844                      .dwpsn  file "C:/Users/a0221343/Git/bootROM/f28004x_bootrom/F28004x_ROM_dev_PG2.0/F28004x_ROM/bootROM
     845 000000ad 8F00'         MOVL      XAR4,#_SPIA_GetWordData ; [CPU_U] |86| 
         000000ae 0148 
     846 000000af 761F!         MOVW      DP,#_GetWordData      ; [CPU_U] 
         000000b0 0000 
     847 000000b1 A800!         MOVL      @_GetWordData,XAR4    ; [CPU_] |86| 
     848                      .dwpsn  file "C:/Users/a0221343/Git/bootROM/f28004x_bootrom/F28004x_ROM_dev_PG2.0/F28004x_ROM/bootROM
     849              $C$DW$79        .dwtag  DW_TAG_TI_branch
     850                      .dwattr $C$DW$79, DW_AT_low_pc(0x00)
     851                      .dwattr $C$DW$79, DW_AT_name("_SPIA_Init")
     852                      .dwattr $C$DW$79, DW_AT_TI_call
     853 000000b2 7640'         LCR       #_SPIA_Init           ; [CPU_] |90| 
         000000b3 02A1 
     854                      ; call occurs [#_SPIA_Init] ; [] |90| 
     855                      .dwpsn  file "C:/Users/a0221343/Git/bootROM/f28004x_bootrom/F28004x_ROM_dev_PG2.0/F28004x_ROM/bootROM
     856 000000b4 0642          MOVL      ACC,*-SP[2]           ; [CPU_] |92| 
     857              $C$DW$80        .dwtag  DW_TAG_TI_branch
     858                      .dwattr $C$DW$80, DW_AT_low_pc(0x00)
     859                      .dwattr $C$DW$80, DW_AT_name("_SPIBOOT_configure_gpio")
     860                      .dwattr $C$DW$80, DW_AT_TI_call
     861 000000b5 7640'         LCR       #_SPIBOOT_configure_gpio ; [CPU_] |92| 
         000000b6 0156 
     862                      ; call occurs [#_SPIBOOT_configure_gpio] ; [] |92| 
TMS320C2000 Assembler PC v6.4.4 Tue Feb 14 14:42:35 2017

Tools Copyright (c) 1996-2015 Texas Instruments Incorporated
C:\Users\a0221343\AppData\Local\Temp\0495210                         PAGE   17

     863                      .dwpsn  file "C:/Users/a0221343/Git/bootROM/f28004x_bootrom/F28004x_ROM_dev_PG2.0/F28004x_ROM/bootROM
     864 000000b7 8F07          MOVL      XAR4,#459744          ; [CPU_U] |95| 
         000000b8 03E0 
     865 000000b9 06C4          MOVL      ACC,*+XAR4[0]         ; [CPU_] |95| 
     866 000000ba 1E44          MOVL      *-SP[4],ACC           ; [CPU_] |95| 
     867                      .dwpsn  file "C:/Users/a0221343/Git/bootROM/f28004x_bootrom/F28004x_ROM_dev_PG2.0/F28004x_ROM/bootROM
     868 000000bb 0200          MOVB      ACC,#0                ; [CPU_] |96| 
     869 000000bc 1901          SUBB      ACC,#1                ; [CPU_] |96| 
     870 000000bd 0F44          CMPL      ACC,*-SP[4]           ; [CPU_] |96| 
     871 000000be EC05          BF        $C$L6,EQ              ; [CPU_] |96| 
     872                      ; branchcc occurs ; [] |96| 
     873 000000bf 0644          MOVL      ACC,*-SP[4]           ; [CPU_] |96| 
     874 000000c0 EC03          BF        $C$L6,EQ              ; [CPU_] |96| 
     875                      ; branchcc occurs ; [] |96| 
     876                      .dwpsn  file "C:/Users/a0221343/Git/bootROM/f28004x_bootrom/F28004x_ROM_dev_PG2.0/F28004x_ROM/bootROM
     877 000000c1 C544          MOVL      XAR7,*-SP[4]          ; [CPU_] |100| 
     878              $C$DW$81        .dwtag  DW_TAG_TI_branch
     879                      .dwattr $C$DW$81, DW_AT_low_pc(0x00)
     880                      .dwattr $C$DW$81, DW_AT_TI_call
     881                      .dwattr $C$DW$81, DW_AT_TI_indirect
     882 000000c2 3E67          LCR       *XAR7                 ; [CPU_] |100| 
     883                      ; call occurs [XAR7] ; [] |100| 
     884 000000c3       $C$L6:    
     885                      .dwpsn  file "C:/Users/a0221343/Git/bootROM/f28004x_bootrom/F28004x_ROM_dev_PG2.0/F28004x_ROM/bootROM
     886              $C$DW$82        .dwtag  DW_TAG_TI_branch
     887                      .dwattr $C$DW$82, DW_AT_low_pc(0x00)
     888                      .dwattr $C$DW$82, DW_AT_name("_SPI_start_Boot")
     889                      .dwattr $C$DW$82, DW_AT_TI_call
     890 000000c3 7640'         LCR       #_SPI_start_Boot      ; [CPU_] |106| 
         000000c4 00C7 
     891                      ; call occurs [#_SPI_start_Boot] ; [] |106| 
     892 000000c5       $C$L7:    
     893                      .dwpsn  file "C:/Users/a0221343/Git/bootROM/f28004x_bootrom/F28004x_ROM_dev_PG2.0/F28004x_ROM/bootROM
     894 000000c5 FE84          SUBB      SP,#4                 ; [CPU_U] 
     895                      .dwcfi  cfa_offset, -2
     896              $C$DW$83        .dwtag  DW_TAG_TI_branch
     897                      .dwattr $C$DW$83, DW_AT_low_pc(0x00)
     898                      .dwattr $C$DW$83, DW_AT_TI_return
     899 000000c6 0006          LRETR     ; [CPU_] 
     900                      ; return occurs ; [] 
     901                      .dwattr $C$DW$73, DW_AT_TI_end_file("C:/Users/a0221343/Git/bootROM/f28004x_bootrom/F28004x_ROM_dev_PG
     902                      .dwattr $C$DW$73, DW_AT_TI_end_line(0x6b)
     903                      .dwattr $C$DW$73, DW_AT_TI_end_column(0x01)
     904                      .dwendentry
     905                      .dwendtag $C$DW$73
     906              
     907 000000c7               .sect   ".text"
     908                      .clink
     909                      .global _SPI_start_Boot
     910              
     911              $C$DW$84        .dwtag  DW_TAG_subprogram, DW_AT_name("SPI_start_Boot")
     912                      .dwattr $C$DW$84, DW_AT_low_pc(_SPI_start_Boot)
     913                      .dwattr $C$DW$84, DW_AT_high_pc(0x00)
     914                      .dwattr $C$DW$84, DW_AT_TI_symbol_name("_SPI_start_Boot")
     915                      .dwattr $C$DW$84, DW_AT_external
TMS320C2000 Assembler PC v6.4.4 Tue Feb 14 14:42:35 2017

Tools Copyright (c) 1996-2015 Texas Instruments Incorporated
C:\Users\a0221343\AppData\Local\Temp\0495210                         PAGE   18

     916                      .dwattr $C$DW$84, DW_AT_type(*$C$DW$T$39)
     917                      .dwattr $C$DW$84, DW_AT_TI_begin_file("C:/Users/a0221343/Git/bootROM/f28004x_bootrom/F28004x_ROM_dev_
     918                      .dwattr $C$DW$84, DW_AT_TI_begin_line(0x6d)
     919                      .dwattr $C$DW$84, DW_AT_TI_begin_column(0x0a)
     920                      .dwattr $C$DW$84, DW_AT_TI_max_frame_size(-6)
     921                      .dwpsn  file "C:/Users/a0221343/Git/bootROM/f28004x_bootrom/F28004x_ROM_dev_PG2.0/F28004x_ROM/bootROM
     922              
     923                      .dwfde $C$DW$CIE, _SPI_start_Boot
     924              
     925              ;***************************************************************
     926              ;* FNAME: _SPI_start_Boot               FR SIZE:   4           *
     927              ;*                                                             *
     928              ;* FUNCTION ENVIRONMENT                                        *
     929              ;*                                                             *
     930              ;* FUNCTION PROPERTIES                                         *
     931              ;*                            2 Parameter,  2 Auto,  0 SOE     *
     932              ;***************************************************************
     933              
     934 000000c7       _SPI_start_Boot:
     935                      .dwcfi  cfa_offset, -2
     936                      .dwcfi  save_reg_to_mem, 26, 0
     937 000000c7 FE04          ADDB      SP,#4                 ; [CPU_U] 
     938                      .dwcfi  cfa_offset, -6
     939              $C$DW$85        .dwtag  DW_TAG_variable, DW_AT_name("EntryAddr")
     940                      .dwattr $C$DW$85, DW_AT_TI_symbol_name("_EntryAddr")
     941                      .dwattr $C$DW$85, DW_AT_type(*$C$DW$T$39)
     942                      .dwattr $C$DW$85, DW_AT_location[DW_OP_breg20 -4]
     943                      .dwpsn  file "C:/Users/a0221343/Git/bootROM/f28004x_bootrom/F28004x_ROM_dev_PG2.0/F28004x_ROM/bootROM
     944 000000c8 28A9          MOV       AL,#768               ; [CPU_] |114| 
         000000c9 0300 
     945              $C$DW$86        .dwtag  DW_TAG_TI_branch
     946                      .dwattr $C$DW$86, DW_AT_low_pc(0x00)
     947                      .dwattr $C$DW$86, DW_AT_name("_SPIA_Transmit")
     948                      .dwattr $C$DW$86, DW_AT_TI_call
     949 000000ca 7640'         LCR       #_SPIA_Transmit       ; [CPU_] |114| 
         000000cb 0108 
     950                      ; call occurs [#_SPIA_Transmit] ; [] |114| 
     951                      .dwpsn  file "C:/Users/a0221343/Git/bootROM/f28004x_bootrom/F28004x_ROM_dev_PG2.0/F28004x_ROM/bootROM
     952              $C$DW$87        .dwtag  DW_TAG_TI_branch
     953                      .dwattr $C$DW$87, DW_AT_low_pc(0x00)
     954                      .dwattr $C$DW$87, DW_AT_name("_SPIA_SetAddress_KeyChk")
     955                      .dwattr $C$DW$87, DW_AT_TI_call
     956 000000cc 7640'         LCR       #_SPIA_SetAddress_KeyChk ; [CPU_] |118| 
         000000cd 00E7 
     957                      ; call occurs [#_SPIA_SetAddress_KeyChk] ; [] |118| 
     958 000000ce 88A9          MOVZ      AR6,AL                ; [CPU_] |118| 
     959 000000cf 8F00          MOVL      XAR4,#2218            ; [CPU_U] |118| 
         000000d0 08AA 
     960 000000d1 A8A9          MOVL      ACC,XAR4              ; [CPU_] |118| 
     961 000000d2 0FA6          CMPL      ACC,XAR6              ; [CPU_] |118| 
     962 000000d3 EC04          BF        $C$L8,EQ              ; [CPU_] |118| 
     963                      ; branchcc occurs ; [] |118| 
     964                      .dwpsn  file "C:/Users/a0221343/Git/bootROM/f28004x_bootrom/F28004x_ROM_dev_PG2.0/F28004x_ROM/bootROM
     965 000000d4 8F08          MOVL      XAR4,#524288          ; [CPU_U] |118| 
         000000d5 0000 
TMS320C2000 Assembler PC v6.4.4 Tue Feb 14 14:42:35 2017

Tools Copyright (c) 1996-2015 Texas Instruments Incorporated
C:\Users\a0221343\AppData\Local\Temp\0495210                         PAGE   19

     966 000000d6 6F0E          B         $C$L9,UNC             ; [CPU_] |118| 
     967                      ; branch occurs ; [] |118| 
     968 000000d7       $C$L8:    
     969                      .dwpsn  file "C:/Users/a0221343/Git/bootROM/f28004x_bootrom/F28004x_ROM_dev_PG2.0/F28004x_ROM/bootROM
     970              $C$DW$88        .dwtag  DW_TAG_TI_branch
     971                      .dwattr $C$DW$88, DW_AT_low_pc(0x00)
     972                      .dwattr $C$DW$88, DW_AT_name("_SPIA_ReservedFn")
     973                      .dwattr $C$DW$88, DW_AT_TI_call
     974 000000d7 7640'         LCR       #_SPIA_ReservedFn     ; [CPU_] |120| 
         000000d8 0121 
     975                      ; call occurs [#_SPIA_ReservedFn] ; [] |120| 
     976                      .dwpsn  file "C:/Users/a0221343/Git/bootROM/f28004x_bootrom/F28004x_ROM_dev_PG2.0/F28004x_ROM/bootROM
     977              $C$DW$89        .dwtag  DW_TAG_TI_branch
     978                      .dwattr $C$DW$89, DW_AT_low_pc(0x00)
     979                      .dwattr $C$DW$89, DW_AT_name("_GetLongData")
     980                      .dwattr $C$DW$89, DW_AT_TI_call
     981 000000d9 7640!         LCR       #_GetLongData         ; [CPU_] |122| 
         000000da 0000 
     982                      ; call occurs [#_GetLongData] ; [] |122| 
     983 000000db 1E44          MOVL      *-SP[4],ACC           ; [CPU_] |122| 
     984                      .dwpsn  file "C:/Users/a0221343/Git/bootROM/f28004x_bootrom/F28004x_ROM_dev_PG2.0/F28004x_ROM/bootROM
     985              $C$DW$90        .dwtag  DW_TAG_TI_branch
     986                      .dwattr $C$DW$90, DW_AT_low_pc(0x00)
     987                      .dwattr $C$DW$90, DW_AT_name("_CopyData")
     988                      .dwattr $C$DW$90, DW_AT_TI_call
     989 000000dc 7640!         LCR       #_CopyData            ; [CPU_] |124| 
         000000dd 0000 
     990                      ; call occurs [#_CopyData] ; [] |124| 
     991                      .dwpsn  file "C:/Users/a0221343/Git/bootROM/f28004x_bootrom/F28004x_ROM_dev_PG2.0/F28004x_ROM/bootROM
     992 000000de 0201          MOVB      ACC,#1                ; [CPU_] |128| 
     993 000000df 1E42          MOVL      *-SP[2],ACC           ; [CPU_] |128| 
     994 000000e0 0213          MOVB      ACC,#19               ; [CPU_] |128| 
     995              $C$DW$91        .dwtag  DW_TAG_TI_branch
     996                      .dwattr $C$DW$91, DW_AT_low_pc(0x00)
     997                      .dwattr $C$DW$91, DW_AT_name("_GPIO_writePin")
     998                      .dwattr $C$DW$91, DW_AT_TI_call
     999 000000e1 7640'         LCR       #_GPIO_writePin       ; [CPU_] |128| 
         000000e2 0047 
    1000                      ; call occurs [#_GPIO_writePin] ; [] |128| 
    1001                      .dwpsn  file "C:/Users/a0221343/Git/bootROM/f28004x_bootrom/F28004x_ROM_dev_PG2.0/F28004x_ROM/bootROM
    1002 000000e3 8A44          MOVL      XAR4,*-SP[4]          ; [CPU_] |130| 
    1003 000000e4       $C$L9:    
    1004                      .dwpsn  file "C:/Users/a0221343/Git/bootROM/f28004x_bootrom/F28004x_ROM_dev_PG2.0/F28004x_ROM/bootROM
    1005 000000e4 FE84          SUBB      SP,#4                 ; [CPU_U] |130| 
    1006                      .dwcfi  cfa_offset, -2
    1007 000000e5 A8A9          MOVL      ACC,XAR4              ; [CPU_] |130| 
    1008              $C$DW$92        .dwtag  DW_TAG_TI_branch
    1009                      .dwattr $C$DW$92, DW_AT_low_pc(0x00)
    1010                      .dwattr $C$DW$92, DW_AT_TI_return
    1011 000000e6 0006          LRETR     ; [CPU_] 
    1012                      ; return occurs ; [] 
    1013                      .dwattr $C$DW$84, DW_AT_TI_end_file("C:/Users/a0221343/Git/bootROM/f28004x_bootrom/F28004x_ROM_dev_PG
    1014                      .dwattr $C$DW$84, DW_AT_TI_end_line(0x83)
    1015                      .dwattr $C$DW$84, DW_AT_TI_end_column(0x01)
    1016                      .dwendentry
TMS320C2000 Assembler PC v6.4.4 Tue Feb 14 14:42:35 2017

Tools Copyright (c) 1996-2015 Texas Instruments Incorporated
C:\Users\a0221343\AppData\Local\Temp\0495210                         PAGE   20

    1017                      .dwendtag $C$DW$84
    1018              
    1019 000000e7               .sect   ".text"
    1020                      .clink
    1021                      .global _SPIA_SetAddress_KeyChk
    1022              
    1023              $C$DW$93        .dwtag  DW_TAG_subprogram, DW_AT_name("SPIA_SetAddress_KeyChk")
    1024                      .dwattr $C$DW$93, DW_AT_low_pc(_SPIA_SetAddress_KeyChk)
    1025                      .dwattr $C$DW$93, DW_AT_high_pc(0x00)
    1026                      .dwattr $C$DW$93, DW_AT_TI_symbol_name("_SPIA_SetAddress_KeyChk")
    1027                      .dwattr $C$DW$93, DW_AT_external
    1028                      .dwattr $C$DW$93, DW_AT_type(*$C$DW$T$50)
    1029                      .dwattr $C$DW$93, DW_AT_TI_begin_file("C:/Users/a0221343/Git/bootROM/f28004x_bootrom/F28004x_ROM_dev_
    1030                      .dwattr $C$DW$93, DW_AT_TI_begin_line(0x91)
    1031                      .dwattr $C$DW$93, DW_AT_TI_begin_column(0x0a)
    1032                      .dwattr $C$DW$93, DW_AT_TI_max_frame_size(-4)
    1033                      .dwpsn  file "C:/Users/a0221343/Git/bootROM/f28004x_bootrom/F28004x_ROM_dev_PG2.0/F28004x_ROM/bootROM
    1034              
    1035                      .dwfde $C$DW$CIE, _SPIA_SetAddress_KeyChk
    1036              
    1037              ;***************************************************************
    1038              ;* FNAME: _SPIA_SetAddress_KeyChk       FR SIZE:   2           *
    1039              ;*                                                             *
    1040              ;* FUNCTION ENVIRONMENT                                        *
    1041              ;*                                                             *
    1042              ;* FUNCTION PROPERTIES                                         *
    1043              ;*                            0 Parameter,  1 Auto,  0 SOE     *
    1044              ;***************************************************************
    1045              
    1046 000000e7       _SPIA_SetAddress_KeyChk:
    1047                      .dwcfi  cfa_offset, -2
    1048                      .dwcfi  save_reg_to_mem, 26, 0
    1049 000000e7 FE02          ADDB      SP,#2                 ; [CPU_U] 
    1050                      .dwcfi  cfa_offset, -4
    1051              $C$DW$94        .dwtag  DW_TAG_variable, DW_AT_name("keyValue")
    1052                      .dwattr $C$DW$94, DW_AT_TI_symbol_name("_keyValue")
    1053                      .dwattr $C$DW$94, DW_AT_type(*$C$DW$T$50)
    1054                      .dwattr $C$DW$94, DW_AT_location[DW_OP_breg20 -1]
    1055                      .dwpsn  file "C:/Users/a0221343/Git/bootROM/f28004x_bootrom/F28004x_ROM_dev_PG2.0/F28004x_ROM/bootROM
    1056 000000e8 9A00          MOVB      AL,#0                 ; [CPU_] |149| 
    1057              $C$DW$95        .dwtag  DW_TAG_TI_branch
    1058                      .dwattr $C$DW$95, DW_AT_low_pc(0x00)
    1059                      .dwattr $C$DW$95, DW_AT_name("_SPIA_Transmit")
    1060                      .dwattr $C$DW$95, DW_AT_TI_call
    1061 000000e9 7640'         LCR       #_SPIA_Transmit       ; [CPU_] |149| 
         000000ea 0108 
    1062                      ; call occurs [#_SPIA_Transmit] ; [] |149| 
    1063                      .dwpsn  file "C:/Users/a0221343/Git/bootROM/f28004x_bootrom/F28004x_ROM_dev_PG2.0/F28004x_ROM/bootROM
    1064 000000eb 9A00          MOVB      AL,#0                 ; [CPU_] |151| 
    1065              $C$DW$96        .dwtag  DW_TAG_TI_branch
    1066                      .dwattr $C$DW$96, DW_AT_low_pc(0x00)
    1067                      .dwattr $C$DW$96, DW_AT_name("_SPIA_Transmit")
    1068                      .dwattr $C$DW$96, DW_AT_TI_call
    1069 000000ec 7640'         LCR       #_SPIA_Transmit       ; [CPU_] |151| 
         000000ed 0108 
TMS320C2000 Assembler PC v6.4.4 Tue Feb 14 14:42:35 2017

Tools Copyright (c) 1996-2015 Texas Instruments Incorporated
C:\Users\a0221343\AppData\Local\Temp\0495210                         PAGE   21

    1070                      ; call occurs [#_SPIA_Transmit] ; [] |151| 
    1071                      .dwpsn  file "C:/Users/a0221343/Git/bootROM/f28004x_bootrom/F28004x_ROM_dev_PG2.0/F28004x_ROM/bootROM
    1072 000000ee 9A00          MOVB      AL,#0                 ; [CPU_] |154| 
    1073              $C$DW$97        .dwtag  DW_TAG_TI_branch
    1074                      .dwattr $C$DW$97, DW_AT_low_pc(0x00)
    1075                      .dwattr $C$DW$97, DW_AT_name("_SPIA_Transmit")
    1076                      .dwattr $C$DW$97, DW_AT_TI_call
    1077 000000ef 7640'         LCR       #_SPIA_Transmit       ; [CPU_] |154| 
         000000f0 0108 
    1078                      ; call occurs [#_SPIA_Transmit] ; [] |154| 
    1079 000000f1 9641          MOV       *-SP[1],AL            ; [CPU_] |154| 
    1080                      .dwpsn  file "C:/Users/a0221343/Git/bootROM/f28004x_bootrom/F28004x_ROM_dev_PG2.0/F28004x_ROM/bootROM
    1081 000000f2 52AA          CMPB      AL,#170               ; [CPU_] |156| 
    1082 000000f3 ED08          BF        $C$L10,NEQ            ; [CPU_] |156| 
    1083                      ; branchcc occurs ; [] |156| 
    1084                      .dwpsn  file "C:/Users/a0221343/Git/bootROM/f28004x_bootrom/F28004x_ROM_dev_PG2.0/F28004x_ROM/bootROM
    1085 000000f4 9A00          MOVB      AL,#0                 ; [CPU_] |158| 
    1086              $C$DW$98        .dwtag  DW_TAG_TI_branch
    1087                      .dwattr $C$DW$98, DW_AT_low_pc(0x00)
    1088                      .dwattr $C$DW$98, DW_AT_name("_SPIA_Transmit")
    1089                      .dwattr $C$DW$98, DW_AT_TI_call
    1090 000000f5 7640'         LCR       #_SPIA_Transmit       ; [CPU_] |158| 
         000000f6 0108 
    1091                      ; call occurs [#_SPIA_Transmit] ; [] |158| 
    1092 000000f7 5603          MOV       ACC,AL << #8          ; [CPU_] |158| 
         000000f8 08A9 
    1093 000000f9 9841          OR        *-SP[1],AL            ; [CPU_] |158| 
    1094                      .dwpsn  file "C:/Users/a0221343/Git/bootROM/f28004x_bootrom/F28004x_ROM_dev_PG2.0/F28004x_ROM/bootROM
    1095 000000fa 6F0B          B         $C$L11,UNC            ; [CPU_] |159| 
    1096                      ; branch occurs ; [] |159| 
    1097 000000fb       $C$L10:    
    1098                      .dwpsn  file "C:/Users/a0221343/Git/bootROM/f28004x_bootrom/F28004x_ROM_dev_PG2.0/F28004x_ROM/bootROM
    1099 000000fb 9A00          MOVB      AL,#0                 ; [CPU_] |164| 
    1100              $C$DW$99        .dwtag  DW_TAG_TI_branch
    1101                      .dwattr $C$DW$99, DW_AT_low_pc(0x00)
    1102                      .dwattr $C$DW$99, DW_AT_name("_SPIA_Transmit")
    1103                      .dwattr $C$DW$99, DW_AT_TI_call
    1104 000000fc 7640'         LCR       #_SPIA_Transmit       ; [CPU_] |164| 
         000000fd 0108 
    1105                      ; call occurs [#_SPIA_Transmit] ; [] |164| 
    1106 000000fe 9641          MOV       *-SP[1],AL            ; [CPU_] |164| 
    1107                      .dwpsn  file "C:/Users/a0221343/Git/bootROM/f28004x_bootrom/F28004x_ROM_dev_PG2.0/F28004x_ROM/bootROM
    1108 000000ff 9A00          MOVB      AL,#0                 ; [CPU_] |166| 
    1109              $C$DW$100       .dwtag  DW_TAG_TI_branch
    1110                      .dwattr $C$DW$100, DW_AT_low_pc(0x00)
    1111                      .dwattr $C$DW$100, DW_AT_name("_SPIA_Transmit")
    1112                      .dwattr $C$DW$100, DW_AT_TI_call
    1113 00000100 7640'         LCR       #_SPIA_Transmit       ; [CPU_] |166| 
         00000101 0108 
    1114                      ; call occurs [#_SPIA_Transmit] ; [] |166| 
    1115 00000102 5603          MOV       ACC,AL << #8          ; [CPU_] |166| 
         00000103 08A9 
    1116 00000104 9841          OR        *-SP[1],AL            ; [CPU_] |166| 
    1117 00000105       $C$L11:    
    1118                      .dwpsn  file "C:/Users/a0221343/Git/bootROM/f28004x_bootrom/F28004x_ROM_dev_PG2.0/F28004x_ROM/bootROM
TMS320C2000 Assembler PC v6.4.4 Tue Feb 14 14:42:35 2017

Tools Copyright (c) 1996-2015 Texas Instruments Incorporated
C:\Users\a0221343\AppData\Local\Temp\0495210                         PAGE   22

    1119 00000105 9241          MOV       AL,*-SP[1]            ; [CPU_] |168| 
    1120                      .dwpsn  file "C:/Users/a0221343/Git/bootROM/f28004x_bootrom/F28004x_ROM_dev_PG2.0/F28004x_ROM/bootROM
    1121 00000106 FE82          SUBB      SP,#2                 ; [CPU_U] 
    1122                      .dwcfi  cfa_offset, -2
    1123              $C$DW$101       .dwtag  DW_TAG_TI_branch
    1124                      .dwattr $C$DW$101, DW_AT_low_pc(0x00)
    1125                      .dwattr $C$DW$101, DW_AT_TI_return
    1126 00000107 0006          LRETR     ; [CPU_] 
    1127                      ; return occurs ; [] 
    1128                      .dwattr $C$DW$93, DW_AT_TI_end_file("C:/Users/a0221343/Git/bootROM/f28004x_bootrom/F28004x_ROM_dev_PG
    1129                      .dwattr $C$DW$93, DW_AT_TI_end_line(0xa9)
    1130                      .dwattr $C$DW$93, DW_AT_TI_end_column(0x01)
    1131                      .dwendentry
    1132                      .dwendtag $C$DW$93
    1133              
    1134 00000108               .sect   ".text"
    1135                      .clink
    1136              
    1137              $C$DW$102       .dwtag  DW_TAG_subprogram, DW_AT_name("SPIA_Transmit")
    1138                      .dwattr $C$DW$102, DW_AT_low_pc(_SPIA_Transmit)
    1139                      .dwattr $C$DW$102, DW_AT_high_pc(0x00)
    1140                      .dwattr $C$DW$102, DW_AT_TI_symbol_name("_SPIA_Transmit")
    1141                      .dwattr $C$DW$102, DW_AT_type(*$C$DW$T$50)
    1142                      .dwattr $C$DW$102, DW_AT_TI_begin_file("C:/Users/a0221343/Git/bootROM/f28004x_bootrom/F28004x_ROM_dev
    1143                      .dwattr $C$DW$102, DW_AT_TI_begin_line(0xb2)
    1144                      .dwattr $C$DW$102, DW_AT_TI_begin_column(0x11)
    1145                      .dwattr $C$DW$102, DW_AT_TI_max_frame_size(-4)
    1146                      .dwpsn  file "C:/Users/a0221343/Git/bootROM/f28004x_bootrom/F28004x_ROM_dev_PG2.0/F28004x_ROM/bootROM
    1147              
    1148                      .dwfde $C$DW$CIE, _SPIA_Transmit
    1149              $C$DW$103       .dwtag  DW_TAG_formal_parameter, DW_AT_name("cmdData")
    1150                      .dwattr $C$DW$103, DW_AT_TI_symbol_name("_cmdData")
    1151                      .dwattr $C$DW$103, DW_AT_type(*$C$DW$T$50)
    1152                      .dwattr $C$DW$103, DW_AT_location[DW_OP_reg0]
    1153              
    1154              ;***************************************************************
    1155              ;* FNAME: _SPIA_Transmit                FR SIZE:   2           *
    1156              ;*                                                             *
    1157              ;* FUNCTION ENVIRONMENT                                        *
    1158              ;*                                                             *
    1159              ;* FUNCTION PROPERTIES                                         *
    1160              ;*                            0 Parameter,  2 Auto,  0 SOE     *
    1161              ;***************************************************************
    1162              
    1163 00000108       _SPIA_Transmit:
    1164                      .dwcfi  cfa_offset, -2
    1165                      .dwcfi  save_reg_to_mem, 26, 0
    1166 00000108 FE02          ADDB      SP,#2                 ; [CPU_U] 
    1167                      .dwcfi  cfa_offset, -4
    1168              $C$DW$104       .dwtag  DW_TAG_variable, DW_AT_name("cmdData")
    1169                      .dwattr $C$DW$104, DW_AT_TI_symbol_name("_cmdData")
    1170                      .dwattr $C$DW$104, DW_AT_type(*$C$DW$T$50)
    1171                      .dwattr $C$DW$104, DW_AT_location[DW_OP_breg20 -1]
    1172              $C$DW$105       .dwtag  DW_TAG_variable, DW_AT_name("recvData")
    1173                      .dwattr $C$DW$105, DW_AT_TI_symbol_name("_recvData")
TMS320C2000 Assembler PC v6.4.4 Tue Feb 14 14:42:35 2017

Tools Copyright (c) 1996-2015 Texas Instruments Incorporated
C:\Users\a0221343\AppData\Local\Temp\0495210                         PAGE   23

    1174                      .dwattr $C$DW$105, DW_AT_type(*$C$DW$T$50)
    1175                      .dwattr $C$DW$105, DW_AT_location[DW_OP_breg20 -2]
    1176 00000109 9641          MOV       *-SP[1],AL            ; [CPU_] |179| 
    1177                      .dwpsn  file "C:/Users/a0221343/Git/bootROM/f28004x_bootrom/F28004x_ROM_dev_PG2.0/F28004x_ROM/bootROM
    1178 0000010a 5C41          MOVZ      AR4,*-SP[1]           ; [CPU_] |183| 
    1179 0000010b 8F40          MOVL      XAR5,#24832           ; [CPU_U] |183| 
         0000010c 6100 
    1180 0000010d A0A9          MOVL      ACC,XAR5              ; [CPU_] |183| 
    1181              $C$DW$106       .dwtag  DW_TAG_TI_branch
    1182                      .dwattr $C$DW$106, DW_AT_low_pc(0x00)
    1183                      .dwattr $C$DW$106, DW_AT_name("_SPI_writeDataNonBlocking")
    1184                      .dwattr $C$DW$106, DW_AT_TI_call
    1185 0000010e 7640'         LCR       #_SPI_writeDataNonBlocking ; [CPU_] |183| 
         0000010f 0087 
    1186                      ; call occurs [#_SPI_writeDataNonBlocking] ; [] |183| 
    1187                      .dwpsn  file "C:/Users/a0221343/Git/bootROM/f28004x_bootrom/F28004x_ROM_dev_PG2.0/F28004x_ROM/bootROM
    1188 00000110       $C$L12:    
    1189                      .dwpsn  file "C:/Users/a0221343/Git/bootROM/f28004x_bootrom/F28004x_ROM_dev_PG2.0/F28004x_ROM/bootROM
    1190 00000110 8F00          MOVL      XAR4,#24832           ; [CPU_U] |185| 
         00000111 6100 
    1191 00000112 A8A9          MOVL      ACC,XAR4              ; [CPU_] |185| 
    1192              $C$DW$107       .dwtag  DW_TAG_TI_branch
    1193                      .dwattr $C$DW$107, DW_AT_low_pc(0x00)
    1194                      .dwattr $C$DW$107, DW_AT_name("_SPI_getInterruptStatus")
    1195                      .dwattr $C$DW$107, DW_AT_TI_call
    1196 00000113 7640!         LCR       #_SPI_getInterruptStatus ; [CPU_] |185| 
         00000114 0000 
    1197                      ; call occurs [#_SPI_getInterruptStatus] ; [] |185| 
    1198 00000115 1EA6          MOVL      XAR6,ACC              ; [CPU_] |185| 
    1199 00000116 0202          MOVB      ACC,#2                ; [CPU_] |185| 
    1200 00000117 0FA6          CMPL      ACC,XAR6              ; [CPU_] |185| 
    1201 00000118 EDF8          BF        $C$L12,NEQ            ; [CPU_] |185| 
    1202                      ; branchcc occurs ; [] |185| 
    1203                      .dwpsn  file "C:/Users/a0221343/Git/bootROM/f28004x_bootrom/F28004x_ROM_dev_PG2.0/F28004x_ROM/bootROM
    1204 00000119 8F00          MOVL      XAR4,#24832           ; [CPU_U] |187| 
         0000011a 6100 
    1205 0000011b A8A9          MOVL      ACC,XAR4              ; [CPU_] |187| 
    1206              $C$DW$108       .dwtag  DW_TAG_TI_branch
    1207                      .dwattr $C$DW$108, DW_AT_low_pc(0x00)
    1208                      .dwattr $C$DW$108, DW_AT_name("_SPI_readDataNonBlocking")
    1209                      .dwattr $C$DW$108, DW_AT_TI_call
    1210 0000011c 7640'         LCR       #_SPI_readDataNonBlocking ; [CPU_] |187| 
         0000011d 0091 
    1211                      ; call occurs [#_SPI_readDataNonBlocking] ; [] |187| 
    1212 0000011e 9642          MOV       *-SP[2],AL            ; [CPU_] |187| 
    1213                      .dwpsn  file "C:/Users/a0221343/Git/bootROM/f28004x_bootrom/F28004x_ROM_dev_PG2.0/F28004x_ROM/bootROM
    1214                      .dwpsn  file "C:/Users/a0221343/Git/bootROM/f28004x_bootrom/F28004x_ROM_dev_PG2.0/F28004x_ROM/bootROM
    1215 0000011f FE82          SUBB      SP,#2                 ; [CPU_U] 
    1216                      .dwcfi  cfa_offset, -2
    1217              $C$DW$109       .dwtag  DW_TAG_TI_branch
    1218                      .dwattr $C$DW$109, DW_AT_low_pc(0x00)
    1219                      .dwattr $C$DW$109, DW_AT_TI_return
    1220 00000120 0006          LRETR     ; [CPU_] 
    1221                      ; return occurs ; [] 
    1222                      .dwattr $C$DW$102, DW_AT_TI_end_file("C:/Users/a0221343/Git/bootROM/f28004x_bootrom/F28004x_ROM_dev_P
TMS320C2000 Assembler PC v6.4.4 Tue Feb 14 14:42:35 2017

Tools Copyright (c) 1996-2015 Texas Instruments Incorporated
C:\Users\a0221343\AppData\Local\Temp\0495210                         PAGE   24

    1223                      .dwattr $C$DW$102, DW_AT_TI_end_line(0xbd)
    1224                      .dwattr $C$DW$102, DW_AT_TI_end_column(0x01)
    1225                      .dwendentry
    1226                      .dwendtag $C$DW$102
    1227              
    1228 00000121               .sect   ".text"
    1229                      .clink
    1230              
    1231              $C$DW$110       .dwtag  DW_TAG_subprogram, DW_AT_name("SPIA_ReservedFn")
    1232                      .dwattr $C$DW$110, DW_AT_low_pc(_SPIA_ReservedFn)
    1233                      .dwattr $C$DW$110, DW_AT_high_pc(0x00)
    1234                      .dwattr $C$DW$110, DW_AT_TI_symbol_name("_SPIA_ReservedFn")
    1235                      .dwattr $C$DW$110, DW_AT_TI_begin_file("C:/Users/a0221343/Git/bootROM/f28004x_bootrom/F28004x_ROM_dev
    1236                      .dwattr $C$DW$110, DW_AT_TI_begin_line(0xcf)
    1237                      .dwattr $C$DW$110, DW_AT_TI_begin_column(0x0d)
    1238                      .dwattr $C$DW$110, DW_AT_TI_max_frame_size(-4)
    1239                      .dwpsn  file "C:/Users/a0221343/Git/bootROM/f28004x_bootrom/F28004x_ROM_dev_PG2.0/F28004x_ROM/bootROM
    1240              
    1241                      .dwfde $C$DW$CIE, _SPIA_ReservedFn
    1242              
    1243              ;***************************************************************
    1244              ;* FNAME: _SPIA_ReservedFn              FR SIZE:   2           *
    1245              ;*                                                             *
    1246              ;* FUNCTION ENVIRONMENT                                        *
    1247              ;*                                                             *
    1248              ;* FUNCTION PROPERTIES                                         *
    1249              ;*                            0 Parameter,  2 Auto,  0 SOE     *
    1250              ;***************************************************************
    1251              
    1252 00000121       _SPIA_ReservedFn:
    1253                      .dwcfi  cfa_offset, -2
    1254                      .dwcfi  save_reg_to_mem, 26, 0
    1255 00000121 FE02          ADDB      SP,#2                 ; [CPU_U] 
    1256                      .dwcfi  cfa_offset, -4
    1257              $C$DW$111       .dwtag  DW_TAG_variable, DW_AT_name("speedData")
    1258                      .dwattr $C$DW$111, DW_AT_TI_symbol_name("_speedData")
    1259                      .dwattr $C$DW$111, DW_AT_type(*$C$DW$T$50)
    1260                      .dwattr $C$DW$111, DW_AT_location[DW_OP_breg20 -1]
    1261              $C$DW$112       .dwtag  DW_TAG_variable, DW_AT_name("i")
    1262                      .dwattr $C$DW$112, DW_AT_TI_symbol_name("_i")
    1263                      .dwattr $C$DW$112, DW_AT_type(*$C$DW$T$50)
    1264                      .dwattr $C$DW$112, DW_AT_location[DW_OP_breg20 -2]
    1265                      .dwpsn  file "C:/Users/a0221343/Git/bootROM/f28004x_bootrom/F28004x_ROM_dev_PG2.0/F28004x_ROM/bootROM
    1266 00000122 9A00          MOVB      AL,#0                 ; [CPU_] |213| 
    1267              $C$DW$113       .dwtag  DW_TAG_TI_branch
    1268                      .dwattr $C$DW$113, DW_AT_low_pc(0x00)
    1269                      .dwattr $C$DW$113, DW_AT_name("_SPIA_Transmit")
    1270                      .dwattr $C$DW$113, DW_AT_TI_call
    1271 00000123 7640'         LCR       #_SPIA_Transmit       ; [CPU_] |213| 
         00000124 0108 
    1272                      ; call occurs [#_SPIA_Transmit] ; [] |213| 
    1273 00000125 9641          MOV       *-SP[1],AL            ; [CPU_] |213| 
    1274                      .dwpsn  file "C:/Users/a0221343/Git/bootROM/f28004x_bootrom/F28004x_ROM_dev_PG2.0/F28004x_ROM/bootROM
    1275 00000126 7622   EALLOW
    1276                      .dwpsn  file "C:/Users/a0221343/Git/bootROM/f28004x_bootrom/F28004x_ROM_dev_PG2.0/F28004x_ROM/bootROM
TMS320C2000 Assembler PC v6.4.4 Tue Feb 14 14:42:35 2017

Tools Copyright (c) 1996-2015 Texas Instruments Incorporated
C:\Users\a0221343\AppData\Local\Temp\0495210                         PAGE   25

    1277 00000127 8F05          MOVL      XAR4,#381484          ; [CPU_U] |216| 
         00000128 D22C 
    1278 00000129 0E41          MOVU      ACC,*-SP[1]           ; [CPU_] |216| 
    1279 0000012a 1EC4          MOVL      *+XAR4[0],ACC         ; [CPU_] |216| 
    1280                      .dwpsn  file "C:/Users/a0221343/Git/bootROM/f28004x_bootrom/F28004x_ROM_dev_PG2.0/F28004x_ROM/bootROM
    1281 0000012b 761A   EDIS
    1282                      .dwpsn  file "C:/Users/a0221343/Git/bootROM/f28004x_bootrom/F28004x_ROM_dev_PG2.0/F28004x_ROM/bootROM
    1283 0000012c F60F     RPT #0x0F ||NOP
         0000012d 7700 
    1284                      .dwpsn  file "C:/Users/a0221343/Git/bootROM/f28004x_bootrom/F28004x_ROM_dev_PG2.0/F28004x_ROM/bootROM
    1285 0000012e FF69          SPM       #0                    ; [CPU_] 
    1286 0000012f 9A00          MOVB      AL,#0                 ; [CPU_] |221| 
    1287              $C$DW$114       .dwtag  DW_TAG_TI_branch
    1288                      .dwattr $C$DW$114, DW_AT_low_pc(0x00)
    1289                      .dwattr $C$DW$114, DW_AT_name("_SPIA_Transmit")
    1290                      .dwattr $C$DW$114, DW_AT_TI_call
    1291 00000130 7640'         LCR       #_SPIA_Transmit       ; [CPU_] |221| 
         00000131 0108 
    1292                      ; call occurs [#_SPIA_Transmit] ; [] |221| 
    1293 00000132 9641          MOV       *-SP[1],AL            ; [CPU_] |221| 
    1294                      .dwpsn  file "C:/Users/a0221343/Git/bootROM/f28004x_bootrom/F28004x_ROM_dev_PG2.0/F28004x_ROM/bootROM
    1295 00000133 F441          MOV       *(0:0x6104),*-SP[1]   ; [CPU_] |223| 
         00000134 6104 
    1296                      .dwpsn  file "C:/Users/a0221343/Git/bootROM/f28004x_bootrom/F28004x_ROM_dev_PG2.0/F28004x_ROM/bootROM
    1297 00000135 F60F     RPT #0x0F ||NOP
         00000136 7700 
    1298                      .dwpsn  file "C:/Users/a0221343/Git/bootROM/f28004x_bootrom/F28004x_ROM_dev_PG2.0/F28004x_ROM/bootROM
    1299 00000137 56BF          MOVB      *-SP[2],#1,UNC        ; [CPU_] |228| 
         00000138 0142 
    1300                      .dwpsn  file "C:/Users/a0221343/Git/bootROM/f28004x_bootrom/F28004x_ROM_dev_PG2.0/F28004x_ROM/bootROM
    1301 00000139 9242          MOV       AL,*-SP[2]            ; [CPU_] |228| 
    1302 0000013a 5207          CMPB      AL,#7                 ; [CPU_] |228| 
    1303 0000013b 56C6          BF        $C$L14,HI             ; [CPU_] |228| 
         0000013c 000A 
    1304                      ; branchcc occurs ; [] |228| 
    1305 0000013d       $C$L13:    
    1306                      .dwpsn  file "C:/Users/a0221343/Git/bootROM/f28004x_bootrom/F28004x_ROM_dev_PG2.0/F28004x_ROM/bootROM
    1307 0000013d FF69          SPM       #0                    ; [CPU_] 
    1308              $C$DW$115       .dwtag  DW_TAG_TI_branch
    1309                      .dwattr $C$DW$115, DW_AT_low_pc(0x00)
    1310                      .dwattr $C$DW$115, DW_AT_name("_SPIA_GetWordData")
    1311                      .dwattr $C$DW$115, DW_AT_TI_call
    1312 0000013e 7640'         LCR       #_SPIA_GetWordData    ; [CPU_] |230| 
         0000013f 0148 
    1313                      ; call occurs [#_SPIA_GetWordData] ; [] |230| 
    1314                      .dwpsn  file "C:/Users/a0221343/Git/bootROM/f28004x_bootrom/F28004x_ROM_dev_PG2.0/F28004x_ROM/bootROM
    1315 00000140 0A42          INC       *-SP[2]               ; [CPU_] |228| 
    1316                      .dwpsn  file "C:/Users/a0221343/Git/bootROM/f28004x_bootrom/F28004x_ROM_dev_PG2.0/F28004x_ROM/bootROM
    1317 00000141 9242          MOV       AL,*-SP[2]            ; [CPU_] |228| 
    1318 00000142 5207          CMPB      AL,#7                 ; [CPU_] |228| 
    1319 00000143 56C9          BF        $C$L13,LOS            ; [CPU_] |228| 
         00000144 FFFA 
    1320                      ; branchcc occurs ; [] |228| 
    1321                      .dwpsn  file "C:/Users/a0221343/Git/bootROM/f28004x_bootrom/F28004x_ROM_dev_PG2.0/F28004x_ROM/bootROM
    1322 00000145       $C$L14:    
TMS320C2000 Assembler PC v6.4.4 Tue Feb 14 14:42:35 2017

Tools Copyright (c) 1996-2015 Texas Instruments Incorporated
C:\Users\a0221343\AppData\Local\Temp\0495210                         PAGE   26

    1323                      .dwpsn  file "C:/Users/a0221343/Git/bootROM/f28004x_bootrom/F28004x_ROM_dev_PG2.0/F28004x_ROM/bootROM
    1324 00000145 FE82          SUBB      SP,#2                 ; [CPU_U] 
    1325                      .dwcfi  cfa_offset, -2
    1326 00000146 FF69          SPM       #0                    ; [CPU_] 
    1327              $C$DW$116       .dwtag  DW_TAG_TI_branch
    1328                      .dwattr $C$DW$116, DW_AT_low_pc(0x00)
    1329                      .dwattr $C$DW$116, DW_AT_TI_return
    1330 00000147 0006          LRETR     ; [CPU_] 
    1331                      ; return occurs ; [] 
    1332                      .dwattr $C$DW$110, DW_AT_TI_end_file("C:/Users/a0221343/Git/bootROM/f28004x_bootrom/F28004x_ROM_dev_P
    1333                      .dwattr $C$DW$110, DW_AT_TI_end_line(0xe9)
    1334                      .dwattr $C$DW$110, DW_AT_TI_end_column(0x01)
    1335                      .dwendentry
    1336                      .dwendtag $C$DW$110
    1337              
    1338 00000148               .sect   ".text"
    1339                      .clink
    1340                      .global _SPIA_GetWordData
    1341              
    1342              $C$DW$117       .dwtag  DW_TAG_subprogram, DW_AT_name("SPIA_GetWordData")
    1343                      .dwattr $C$DW$117, DW_AT_low_pc(_SPIA_GetWordData)
    1344                      .dwattr $C$DW$117, DW_AT_high_pc(0x00)
    1345                      .dwattr $C$DW$117, DW_AT_TI_symbol_name("_SPIA_GetWordData")
    1346                      .dwattr $C$DW$117, DW_AT_external
    1347                      .dwattr $C$DW$117, DW_AT_type(*$C$DW$T$50)
    1348                      .dwattr $C$DW$117, DW_AT_TI_begin_file("C:/Users/a0221343/Git/bootROM/f28004x_bootrom/F28004x_ROM_dev
    1349                      .dwattr $C$DW$117, DW_AT_TI_begin_line(0xf4)
    1350                      .dwattr $C$DW$117, DW_AT_TI_begin_column(0x0a)
    1351                      .dwattr $C$DW$117, DW_AT_TI_max_frame_size(-4)
    1352                      .dwpsn  file "C:/Users/a0221343/Git/bootROM/f28004x_bootrom/F28004x_ROM_dev_PG2.0/F28004x_ROM/bootROM
    1353              
    1354                      .dwfde $C$DW$CIE, _SPIA_GetWordData
    1355              
    1356              ;***************************************************************
    1357              ;* FNAME: _SPIA_GetWordData             FR SIZE:   2           *
    1358              ;*                                                             *
    1359              ;* FUNCTION ENVIRONMENT                                        *
    1360              ;*                                                             *
    1361              ;* FUNCTION PROPERTIES                                         *
    1362              ;*                            0 Parameter,  1 Auto,  0 SOE     *
    1363              ;***************************************************************
    1364              
    1365 00000148       _SPIA_GetWordData:
    1366                      .dwcfi  cfa_offset, -2
    1367                      .dwcfi  save_reg_to_mem, 26, 0
    1368 00000148 FE02          ADDB      SP,#2                 ; [CPU_U] 
    1369                      .dwcfi  cfa_offset, -4
    1370              $C$DW$118       .dwtag  DW_TAG_variable, DW_AT_name("wordData")
    1371                      .dwattr $C$DW$118, DW_AT_TI_symbol_name("_wordData")
    1372                      .dwattr $C$DW$118, DW_AT_type(*$C$DW$T$50)
    1373                      .dwattr $C$DW$118, DW_AT_location[DW_OP_breg20 -1]
    1374                      .dwpsn  file "C:/Users/a0221343/Git/bootROM/f28004x_bootrom/F28004x_ROM_dev_PG2.0/F28004x_ROM/bootROM
    1375 00000149 9A00          MOVB      AL,#0                 ; [CPU_] |248| 
    1376              $C$DW$119       .dwtag  DW_TAG_TI_branch
    1377                      .dwattr $C$DW$119, DW_AT_low_pc(0x00)
TMS320C2000 Assembler PC v6.4.4 Tue Feb 14 14:42:35 2017

Tools Copyright (c) 1996-2015 Texas Instruments Incorporated
C:\Users\a0221343\AppData\Local\Temp\0495210                         PAGE   27

    1378                      .dwattr $C$DW$119, DW_AT_name("_SPIA_Transmit")
    1379                      .dwattr $C$DW$119, DW_AT_TI_call
    1380 0000014a 7640'         LCR       #_SPIA_Transmit       ; [CPU_] |248| 
         0000014b 0108 
    1381                      ; call occurs [#_SPIA_Transmit] ; [] |248| 
    1382 0000014c 9641          MOV       *-SP[1],AL            ; [CPU_] |248| 
    1383                      .dwpsn  file "C:/Users/a0221343/Git/bootROM/f28004x_bootrom/F28004x_ROM_dev_PG2.0/F28004x_ROM/bootROM
    1384 0000014d 9A00          MOVB      AL,#0                 ; [CPU_] |250| 
    1385              $C$DW$120       .dwtag  DW_TAG_TI_branch
    1386                      .dwattr $C$DW$120, DW_AT_low_pc(0x00)
    1387                      .dwattr $C$DW$120, DW_AT_name("_SPIA_Transmit")
    1388                      .dwattr $C$DW$120, DW_AT_TI_call
    1389 0000014e 7640'         LCR       #_SPIA_Transmit       ; [CPU_] |250| 
         0000014f 0108 
    1390                      ; call occurs [#_SPIA_Transmit] ; [] |250| 
    1391 00000150 5603          MOV       ACC,AL << #8          ; [CPU_] |250| 
         00000151 08A9 
    1392 00000152 9841          OR        *-SP[1],AL            ; [CPU_] |250| 
    1393                      .dwpsn  file "C:/Users/a0221343/Git/bootROM/f28004x_bootrom/F28004x_ROM_dev_PG2.0/F28004x_ROM/bootROM
    1394 00000153 9241          MOV       AL,*-SP[1]            ; [CPU_] |251| 
    1395                      .dwpsn  file "C:/Users/a0221343/Git/bootROM/f28004x_bootrom/F28004x_ROM_dev_PG2.0/F28004x_ROM/bootROM
    1396 00000154 FE82          SUBB      SP,#2                 ; [CPU_U] 
    1397                      .dwcfi  cfa_offset, -2
    1398              $C$DW$121       .dwtag  DW_TAG_TI_branch
    1399                      .dwattr $C$DW$121, DW_AT_low_pc(0x00)
    1400                      .dwattr $C$DW$121, DW_AT_TI_return
    1401 00000155 0006          LRETR     ; [CPU_] 
    1402                      ; return occurs ; [] 
    1403                      .dwattr $C$DW$117, DW_AT_TI_end_file("C:/Users/a0221343/Git/bootROM/f28004x_bootrom/F28004x_ROM_dev_P
    1404                      .dwattr $C$DW$117, DW_AT_TI_end_line(0xfc)
    1405                      .dwattr $C$DW$117, DW_AT_TI_end_column(0x01)
    1406                      .dwendentry
    1407                      .dwendtag $C$DW$117
    1408              
    1409 00000156               .sect   ".text"
    1410                      .clink
    1411                      .global _SPIBOOT_configure_gpio
    1412              
    1413              $C$DW$122       .dwtag  DW_TAG_subprogram, DW_AT_name("SPIBOOT_configure_gpio")
    1414                      .dwattr $C$DW$122, DW_AT_low_pc(_SPIBOOT_configure_gpio)
    1415                      .dwattr $C$DW$122, DW_AT_high_pc(0x00)
    1416                      .dwattr $C$DW$122, DW_AT_TI_symbol_name("_SPIBOOT_configure_gpio")
    1417                      .dwattr $C$DW$122, DW_AT_external
    1418                      .dwattr $C$DW$122, DW_AT_TI_begin_file("C:/Users/a0221343/Git/bootROM/f28004x_bootrom/F28004x_ROM_dev
    1419                      .dwattr $C$DW$122, DW_AT_TI_begin_line(0x10b)
    1420                      .dwattr $C$DW$122, DW_AT_TI_begin_column(0x06)
    1421                      .dwattr $C$DW$122, DW_AT_TI_max_frame_size(-6)
    1422                      .dwpsn  file "C:/Users/a0221343/Git/bootROM/f28004x_bootrom/F28004x_ROM_dev_PG2.0/F28004x_ROM/bootROM
    1423              
    1424                      .dwfde $C$DW$CIE, _SPIBOOT_configure_gpio
    1425              $C$DW$123       .dwtag  DW_TAG_formal_parameter, DW_AT_name("BootMode")
    1426                      .dwattr $C$DW$123, DW_AT_TI_symbol_name("_BootMode")
    1427                      .dwattr $C$DW$123, DW_AT_type(*$C$DW$T$39)
    1428                      .dwattr $C$DW$123, DW_AT_location[DW_OP_reg0]
    1429              
TMS320C2000 Assembler PC v6.4.4 Tue Feb 14 14:42:35 2017

Tools Copyright (c) 1996-2015 Texas Instruments Incorporated
C:\Users\a0221343\AppData\Local\Temp\0495210                         PAGE   28

    1430              ;***************************************************************
    1431              ;* FNAME: _SPIBOOT_configure_gpio       FR SIZE:   4           *
    1432              ;*                                                             *
    1433              ;* FUNCTION ENVIRONMENT                                        *
    1434              ;*                                                             *
    1435              ;* FUNCTION PROPERTIES                                         *
    1436              ;*                            2 Parameter,  2 Auto,  0 SOE     *
    1437              ;***************************************************************
    1438              
    1439 00000156       _SPIBOOT_configure_gpio:
    1440                      .dwcfi  cfa_offset, -2
    1441                      .dwcfi  save_reg_to_mem, 26, 0
    1442 00000156 FE04          ADDB      SP,#4                 ; [CPU_U] 
    1443                      .dwcfi  cfa_offset, -6
    1444              $C$DW$124       .dwtag  DW_TAG_variable, DW_AT_name("BootMode")
    1445                      .dwattr $C$DW$124, DW_AT_TI_symbol_name("_BootMode")
    1446                      .dwattr $C$DW$124, DW_AT_type(*$C$DW$T$39)
    1447                      .dwattr $C$DW$124, DW_AT_location[DW_OP_breg20 -4]
    1448 00000157 1E44          MOVL      *-SP[4],ACC           ; [CPU_] |268| 
    1449                      .dwpsn  file "C:/Users/a0221343/Git/bootROM/f28004x_bootrom/F28004x_ROM_dev_PG2.0/F28004x_ROM/bootROM
    1450 00000158 7622   EALLOW
    1451                      .dwpsn  file "C:/Users/a0221343/Git/bootROM/f28004x_bootrom/F28004x_ROM_dev_PG2.0/F28004x_ROM/bootROM
    1452 00000159 D400          MOVB      XAR4,#0               ; [CPU_] |271| 
    1453 0000015a FF69          SPM       #0                    ; [CPU_] 
    1454 0000015b 0200          MOVB      ACC,#0                ; [CPU_] |271| 
    1455              $C$DW$125       .dwtag  DW_TAG_TI_branch
    1456                      .dwattr $C$DW$125, DW_AT_low_pc(0x00)
    1457                      .dwattr $C$DW$125, DW_AT_name("_GPIO_unlockPortConfig")
    1458                      .dwattr $C$DW$125, DW_AT_TI_call
    1459 0000015c 7640'         LCR       #_GPIO_unlockPortConfig ; [CPU_] |271| 
         0000015d 0063 
    1460                      ; call occurs [#_GPIO_unlockPortConfig] ; [] |271| 
    1461                      .dwpsn  file "C:/Users/a0221343/Git/bootROM/f28004x_bootrom/F28004x_ROM_dev_PG2.0/F28004x_ROM/bootROM
    1462 0000015e D401          MOVB      XAR4,#1               ; [CPU_] |272| 
    1463 0000015f 0200          MOVB      ACC,#0                ; [CPU_] |272| 
    1464              $C$DW$126       .dwtag  DW_TAG_TI_branch
    1465                      .dwattr $C$DW$126, DW_AT_low_pc(0x00)
    1466                      .dwattr $C$DW$126, DW_AT_name("_GPIO_unlockPortConfig")
    1467                      .dwattr $C$DW$126, DW_AT_TI_call
    1468 00000160 7640'         LCR       #_GPIO_unlockPortConfig ; [CPU_] |272| 
         00000161 0063 
    1469                      ; call occurs [#_GPIO_unlockPortConfig] ; [] |272| 
    1470                      .dwpsn  file "C:/Users/a0221343/Git/bootROM/f28004x_bootrom/F28004x_ROM_dev_PG2.0/F28004x_ROM/bootROM
    1471 00000162 FFEF          B         $C$L20,UNC            ; [CPU_] |274| 
         00000163 0122 
    1472                      ; branch occurs ; [] |274| 
    1473 00000164       $C$L15:    
    1474                      .dwpsn  file "C:/Users/a0221343/Git/bootROM/f28004x_bootrom/F28004x_ROM_dev_PG2.0/F28004x_ROM/bootROM
    1475 00000164 0201          MOVB      ACC,#1                ; [CPU_] |280| 
    1476 00000165 1E42          MOVL      *-SP[2],ACC           ; [CPU_] |280| 
    1477 00000166 0210          MOVB      ACC,#16               ; [CPU_] |280| 
    1478              $C$DW$127       .dwtag  DW_TAG_TI_branch
    1479                      .dwattr $C$DW$127, DW_AT_low_pc(0x00)
    1480                      .dwattr $C$DW$127, DW_AT_name("_GPIO_setPadConfig")
    1481                      .dwattr $C$DW$127, DW_AT_TI_call
TMS320C2000 Assembler PC v6.4.4 Tue Feb 14 14:42:35 2017

Tools Copyright (c) 1996-2015 Texas Instruments Incorporated
C:\Users\a0221343\AppData\Local\Temp\0495210                         PAGE   29

    1482 00000167 7640!         LCR       #_GPIO_setPadConfig   ; [CPU_] |280| 
         00000168 0000 
    1483                      ; call occurs [#_GPIO_setPadConfig] ; [] |280| 
    1484                      .dwpsn  file "C:/Users/a0221343/Git/bootROM/f28004x_bootrom/F28004x_ROM_dev_PG2.0/F28004x_ROM/bootROM
    1485 00000169 0201          MOVB      ACC,#1                ; [CPU_] |281| 
    1486 0000016a 1E42          MOVL      *-SP[2],ACC           ; [CPU_] |281| 
    1487 0000016b 0211          MOVB      ACC,#17               ; [CPU_] |281| 
    1488              $C$DW$128       .dwtag  DW_TAG_TI_branch
    1489                      .dwattr $C$DW$128, DW_AT_low_pc(0x00)
    1490                      .dwattr $C$DW$128, DW_AT_name("_GPIO_setPadConfig")
    1491                      .dwattr $C$DW$128, DW_AT_TI_call
    1492 0000016c 7640!         LCR       #_GPIO_setPadConfig   ; [CPU_] |281| 
         0000016d 0000 
    1493                      ; call occurs [#_GPIO_setPadConfig] ; [] |281| 
    1494                      .dwpsn  file "C:/Users/a0221343/Git/bootROM/f28004x_bootrom/F28004x_ROM_dev_PG2.0/F28004x_ROM/bootROM
    1495 0000016e 0201          MOVB      ACC,#1                ; [CPU_] |282| 
    1496 0000016f 1E42          MOVL      *-SP[2],ACC           ; [CPU_] |282| 
    1497 00000170 0212          MOVB      ACC,#18               ; [CPU_] |282| 
    1498              $C$DW$129       .dwtag  DW_TAG_TI_branch
    1499                      .dwattr $C$DW$129, DW_AT_low_pc(0x00)
    1500                      .dwattr $C$DW$129, DW_AT_name("_GPIO_setPadConfig")
    1501                      .dwattr $C$DW$129, DW_AT_TI_call
    1502 00000171 7640!         LCR       #_GPIO_setPadConfig   ; [CPU_] |282| 
         00000172 0000 
    1503                      ; call occurs [#_GPIO_setPadConfig] ; [] |282| 
    1504                      .dwpsn  file "C:/Users/a0221343/Git/bootROM/f28004x_bootrom/F28004x_ROM_dev_PG2.0/F28004x_ROM/bootROM
    1505 00000173 0201          MOVB      ACC,#1                ; [CPU_] |283| 
    1506 00000174 1E42          MOVL      *-SP[2],ACC           ; [CPU_] |283| 
    1507 00000175 0213          MOVB      ACC,#19               ; [CPU_] |283| 
    1508              $C$DW$130       .dwtag  DW_TAG_TI_branch
    1509                      .dwattr $C$DW$130, DW_AT_low_pc(0x00)
    1510                      .dwattr $C$DW$130, DW_AT_name("_GPIO_setPadConfig")
    1511                      .dwattr $C$DW$130, DW_AT_TI_call
    1512 00000176 7640!         LCR       #_GPIO_setPadConfig   ; [CPU_] |283| 
         00000177 0000 
    1513                      ; call occurs [#_GPIO_setPadConfig] ; [] |283| 
    1514                      .dwpsn  file "C:/Users/a0221343/Git/bootROM/f28004x_bootrom/F28004x_ROM_dev_PG2.0/F28004x_ROM/bootROM
    1515 00000178 8F08          MOVL      XAR4,#524289          ; [CPU_U] |288| 
         00000179 0001 
    1516 0000017a A8A9          MOVL      ACC,XAR4              ; [CPU_] |288| 
    1517              $C$DW$131       .dwtag  DW_TAG_TI_branch
    1518                      .dwattr $C$DW$131, DW_AT_low_pc(0x00)
    1519                      .dwattr $C$DW$131, DW_AT_name("_GPIO_setPinConfig")
    1520                      .dwattr $C$DW$131, DW_AT_TI_call
    1521 0000017b 7640!         LCR       #_GPIO_setPinConfig   ; [CPU_] |288| 
         0000017c 0000 
    1522                      ; call occurs [#_GPIO_setPinConfig] ; [] |288| 
    1523                      .dwpsn  file "C:/Users/a0221343/Git/bootROM/f28004x_bootrom/F28004x_ROM_dev_PG2.0/F28004x_ROM/bootROM
    1524 0000017d 8F08          MOVL      XAR4,#524801          ; [CPU_U] |289| 
         0000017e 0201 
    1525 0000017f A8A9          MOVL      ACC,XAR4              ; [CPU_] |289| 
    1526              $C$DW$132       .dwtag  DW_TAG_TI_branch
    1527                      .dwattr $C$DW$132, DW_AT_low_pc(0x00)
    1528                      .dwattr $C$DW$132, DW_AT_name("_GPIO_setPinConfig")
    1529                      .dwattr $C$DW$132, DW_AT_TI_call
TMS320C2000 Assembler PC v6.4.4 Tue Feb 14 14:42:35 2017

Tools Copyright (c) 1996-2015 Texas Instruments Incorporated
C:\Users\a0221343\AppData\Local\Temp\0495210                         PAGE   30

    1530 00000180 7640!         LCR       #_GPIO_setPinConfig   ; [CPU_] |289| 
         00000181 0000 
    1531                      ; call occurs [#_GPIO_setPinConfig] ; [] |289| 
    1532                      .dwpsn  file "C:/Users/a0221343/Git/bootROM/f28004x_bootrom/F28004x_ROM_dev_PG2.0/F28004x_ROM/bootROM
    1533 00000182 8F08          MOVL      XAR4,#525313          ; [CPU_U] |290| 
         00000183 0401 
    1534 00000184 A8A9          MOVL      ACC,XAR4              ; [CPU_] |290| 
    1535              $C$DW$133       .dwtag  DW_TAG_TI_branch
    1536                      .dwattr $C$DW$133, DW_AT_low_pc(0x00)
    1537                      .dwattr $C$DW$133, DW_AT_name("_GPIO_setPinConfig")
    1538                      .dwattr $C$DW$133, DW_AT_TI_call
    1539 00000185 7640!         LCR       #_GPIO_setPinConfig   ; [CPU_] |290| 
         00000186 0000 
    1540                      ; call occurs [#_GPIO_setPinConfig] ; [] |290| 
    1541                      .dwpsn  file "C:/Users/a0221343/Git/bootROM/f28004x_bootrom/F28004x_ROM_dev_PG2.0/F28004x_ROM/bootROM
    1542 00000187 D401          MOVB      XAR4,#1               ; [CPU_] |293| 
    1543 00000188 0213          MOVB      ACC,#19               ; [CPU_] |293| 
    1544              $C$DW$134       .dwtag  DW_TAG_TI_branch
    1545                      .dwattr $C$DW$134, DW_AT_low_pc(0x00)
    1546                      .dwattr $C$DW$134, DW_AT_name("_GPIO_setDirectionMode")
    1547                      .dwattr $C$DW$134, DW_AT_TI_call
    1548 00000189 7640!         LCR       #_GPIO_setDirectionMode ; [CPU_] |293| 
         0000018a 0000 
    1549                      ; call occurs [#_GPIO_setDirectionMode] ; [] |293| 
    1550                      .dwpsn  file "C:/Users/a0221343/Git/bootROM/f28004x_bootrom/F28004x_ROM_dev_PG2.0/F28004x_ROM/bootROM
    1551 0000018b D403          MOVB      XAR4,#3               ; [CPU_] |296| 
    1552 0000018c 0210          MOVB      ACC,#16               ; [CPU_] |296| 
    1553              $C$DW$135       .dwtag  DW_TAG_TI_branch
    1554                      .dwattr $C$DW$135, DW_AT_low_pc(0x00)
    1555                      .dwattr $C$DW$135, DW_AT_name("_GPIO_setQualificationMode")
    1556                      .dwattr $C$DW$135, DW_AT_TI_call
    1557 0000018d 7640!         LCR       #_GPIO_setQualificationMode ; [CPU_] |296| 
         0000018e 0000 
    1558                      ; call occurs [#_GPIO_setQualificationMode] ; [] |296| 
    1559                      .dwpsn  file "C:/Users/a0221343/Git/bootROM/f28004x_bootrom/F28004x_ROM_dev_PG2.0/F28004x_ROM/bootROM
    1560 0000018f D403          MOVB      XAR4,#3               ; [CPU_] |297| 
    1561 00000190 0211          MOVB      ACC,#17               ; [CPU_] |297| 
    1562              $C$DW$136       .dwtag  DW_TAG_TI_branch
    1563                      .dwattr $C$DW$136, DW_AT_low_pc(0x00)
    1564                      .dwattr $C$DW$136, DW_AT_name("_GPIO_setQualificationMode")
    1565                      .dwattr $C$DW$136, DW_AT_TI_call
    1566 00000191 7640!         LCR       #_GPIO_setQualificationMode ; [CPU_] |297| 
         00000192 0000 
    1567                      ; call occurs [#_GPIO_setQualificationMode] ; [] |297| 
    1568                      .dwpsn  file "C:/Users/a0221343/Git/bootROM/f28004x_bootrom/F28004x_ROM_dev_PG2.0/F28004x_ROM/bootROM
    1569 00000193 D403          MOVB      XAR4,#3               ; [CPU_] |298| 
    1570 00000194 0212          MOVB      ACC,#18               ; [CPU_] |298| 
    1571              $C$DW$137       .dwtag  DW_TAG_TI_branch
    1572                      .dwattr $C$DW$137, DW_AT_low_pc(0x00)
    1573                      .dwattr $C$DW$137, DW_AT_name("_GPIO_setQualificationMode")
    1574                      .dwattr $C$DW$137, DW_AT_TI_call
    1575 00000195 7640!         LCR       #_GPIO_setQualificationMode ; [CPU_] |298| 
         00000196 0000 
    1576                      ; call occurs [#_GPIO_setQualificationMode] ; [] |298| 
    1577                      .dwpsn  file "C:/Users/a0221343/Git/bootROM/f28004x_bootrom/F28004x_ROM_dev_PG2.0/F28004x_ROM/bootROM
TMS320C2000 Assembler PC v6.4.4 Tue Feb 14 14:42:35 2017

Tools Copyright (c) 1996-2015 Texas Instruments Incorporated
C:\Users\a0221343\AppData\Local\Temp\0495210                         PAGE   31

    1578 00000197 0200          MOVB      ACC,#0                ; [CPU_] |301| 
    1579 00000198 1E42          MOVL      *-SP[2],ACC           ; [CPU_] |301| 
    1580 00000199 0213          MOVB      ACC,#19               ; [CPU_] |301| 
    1581              $C$DW$138       .dwtag  DW_TAG_TI_branch
    1582                      .dwattr $C$DW$138, DW_AT_low_pc(0x00)
    1583                      .dwattr $C$DW$138, DW_AT_name("_GPIO_writePin")
    1584                      .dwattr $C$DW$138, DW_AT_TI_call
    1585 0000019a 7640'         LCR       #_GPIO_writePin       ; [CPU_] |301| 
         0000019b 0047 
    1586                      ; call occurs [#_GPIO_writePin] ; [] |301| 
    1587                      .dwpsn  file "C:/Users/a0221343/Git/bootROM/f28004x_bootrom/F28004x_ROM_dev_PG2.0/F28004x_ROM/bootROM
    1588 0000019c FFEF          B         $C$L22,UNC            ; [CPU_] |302| 
         0000019d 0103 
    1589                      ; branch occurs ; [] |302| 
    1590 0000019e       $C$L16:    
    1591                      .dwpsn  file "C:/Users/a0221343/Git/bootROM/f28004x_bootrom/F28004x_ROM_dev_PG2.0/F28004x_ROM/bootROM
    1592 0000019e 0201          MOVB      ACC,#1                ; [CPU_] |307| 
    1593 0000019f 1E42          MOVL      *-SP[2],ACC           ; [CPU_] |307| 
    1594 000001a0 0208          MOVB      ACC,#8                ; [CPU_] |307| 
    1595              $C$DW$139       .dwtag  DW_TAG_TI_branch
    1596                      .dwattr $C$DW$139, DW_AT_low_pc(0x00)
    1597                      .dwattr $C$DW$139, DW_AT_name("_GPIO_setPadConfig")
    1598                      .dwattr $C$DW$139, DW_AT_TI_call
    1599 000001a1 7640!         LCR       #_GPIO_setPadConfig   ; [CPU_] |307| 
         000001a2 0000 
    1600                      ; call occurs [#_GPIO_setPadConfig] ; [] |307| 
    1601                      .dwpsn  file "C:/Users/a0221343/Git/bootROM/f28004x_bootrom/F28004x_ROM_dev_PG2.0/F28004x_ROM/bootROM
    1602 000001a3 0201          MOVB      ACC,#1                ; [CPU_] |308| 
    1603 000001a4 1E42          MOVL      *-SP[2],ACC           ; [CPU_] |308| 
    1604 000001a5 020A          MOVB      ACC,#10               ; [CPU_] |308| 
    1605              $C$DW$140       .dwtag  DW_TAG_TI_branch
    1606                      .dwattr $C$DW$140, DW_AT_low_pc(0x00)
    1607                      .dwattr $C$DW$140, DW_AT_name("_GPIO_setPadConfig")
    1608                      .dwattr $C$DW$140, DW_AT_TI_call
    1609 000001a6 7640!         LCR       #_GPIO_setPadConfig   ; [CPU_] |308| 
         000001a7 0000 
    1610                      ; call occurs [#_GPIO_setPadConfig] ; [] |308| 
    1611                      .dwpsn  file "C:/Users/a0221343/Git/bootROM/f28004x_bootrom/F28004x_ROM_dev_PG2.0/F28004x_ROM/bootROM
    1612 000001a8 0201          MOVB      ACC,#1                ; [CPU_] |309| 
    1613 000001a9 1E42          MOVL      *-SP[2],ACC           ; [CPU_] |309| 
    1614 000001aa 0209          MOVB      ACC,#9                ; [CPU_] |309| 
    1615              $C$DW$141       .dwtag  DW_TAG_TI_branch
    1616                      .dwattr $C$DW$141, DW_AT_low_pc(0x00)
    1617                      .dwattr $C$DW$141, DW_AT_name("_GPIO_setPadConfig")
    1618                      .dwattr $C$DW$141, DW_AT_TI_call
    1619 000001ab 7640!         LCR       #_GPIO_setPadConfig   ; [CPU_] |309| 
         000001ac 0000 
    1620                      ; call occurs [#_GPIO_setPadConfig] ; [] |309| 
    1621                      .dwpsn  file "C:/Users/a0221343/Git/bootROM/f28004x_bootrom/F28004x_ROM_dev_PG2.0/F28004x_ROM/bootROM
    1622 000001ad 0201          MOVB      ACC,#1                ; [CPU_] |310| 
    1623 000001ae 1E42          MOVL      *-SP[2],ACC           ; [CPU_] |310| 
    1624 000001af 020B          MOVB      ACC,#11               ; [CPU_] |310| 
    1625              $C$DW$142       .dwtag  DW_TAG_TI_branch
    1626                      .dwattr $C$DW$142, DW_AT_low_pc(0x00)
    1627                      .dwattr $C$DW$142, DW_AT_name("_GPIO_setPadConfig")
TMS320C2000 Assembler PC v6.4.4 Tue Feb 14 14:42:35 2017

Tools Copyright (c) 1996-2015 Texas Instruments Incorporated
C:\Users\a0221343\AppData\Local\Temp\0495210                         PAGE   32

    1628                      .dwattr $C$DW$142, DW_AT_TI_call
    1629 000001b0 7640!         LCR       #_GPIO_setPadConfig   ; [CPU_] |310| 
         000001b1 0000 
    1630                      ; call occurs [#_GPIO_setPadConfig] ; [] |310| 
    1631                      .dwpsn  file "C:/Users/a0221343/Git/bootROM/f28004x_bootrom/F28004x_ROM_dev_PG2.0/F28004x_ROM/bootROM
    1632 000001b2 8F06          MOVL      XAR4,#397319          ; [CPU_U] |315| 
         000001b3 1007 
    1633 000001b4 A8A9          MOVL      ACC,XAR4              ; [CPU_] |315| 
    1634              $C$DW$143       .dwtag  DW_TAG_TI_branch
    1635                      .dwattr $C$DW$143, DW_AT_low_pc(0x00)
    1636                      .dwattr $C$DW$143, DW_AT_name("_GPIO_setPinConfig")
    1637                      .dwattr $C$DW$143, DW_AT_TI_call
    1638 000001b5 7640!         LCR       #_GPIO_setPinConfig   ; [CPU_] |315| 
         000001b6 0000 
    1639                      ; call occurs [#_GPIO_setPinConfig] ; [] |315| 
    1640                      .dwpsn  file "C:/Users/a0221343/Git/bootROM/f28004x_bootrom/F28004x_ROM_dev_PG2.0/F28004x_ROM/bootROM
    1641 000001b7 8F06          MOVL      XAR4,#398343          ; [CPU_U] |316| 
         000001b8 1407 
    1642 000001b9 A8A9          MOVL      ACC,XAR4              ; [CPU_] |316| 
    1643              $C$DW$144       .dwtag  DW_TAG_TI_branch
    1644                      .dwattr $C$DW$144, DW_AT_low_pc(0x00)
    1645                      .dwattr $C$DW$144, DW_AT_name("_GPIO_setPinConfig")
    1646                      .dwattr $C$DW$144, DW_AT_TI_call
    1647 000001ba 7640!         LCR       #_GPIO_setPinConfig   ; [CPU_] |316| 
         000001bb 0000 
    1648                      ; call occurs [#_GPIO_setPinConfig] ; [] |316| 
    1649                      .dwpsn  file "C:/Users/a0221343/Git/bootROM/f28004x_bootrom/F28004x_ROM_dev_PG2.0/F28004x_ROM/bootROM
    1650 000001bc 8F06          MOVL      XAR4,#397831          ; [CPU_U] |317| 
         000001bd 1207 
    1651 000001be A8A9          MOVL      ACC,XAR4              ; [CPU_] |317| 
    1652              $C$DW$145       .dwtag  DW_TAG_TI_branch
    1653                      .dwattr $C$DW$145, DW_AT_low_pc(0x00)
    1654                      .dwattr $C$DW$145, DW_AT_name("_GPIO_setPinConfig")
    1655                      .dwattr $C$DW$145, DW_AT_TI_call
    1656 000001bf 7640!         LCR       #_GPIO_setPinConfig   ; [CPU_] |317| 
         000001c0 0000 
    1657                      ; call occurs [#_GPIO_setPinConfig] ; [] |317| 
    1658                      .dwpsn  file "C:/Users/a0221343/Git/bootROM/f28004x_bootrom/F28004x_ROM_dev_PG2.0/F28004x_ROM/bootROM
    1659 000001c1 D401          MOVB      XAR4,#1               ; [CPU_] |320| 
    1660 000001c2 020B          MOVB      ACC,#11               ; [CPU_] |320| 
    1661              $C$DW$146       .dwtag  DW_TAG_TI_branch
    1662                      .dwattr $C$DW$146, DW_AT_low_pc(0x00)
    1663                      .dwattr $C$DW$146, DW_AT_name("_GPIO_setDirectionMode")
    1664                      .dwattr $C$DW$146, DW_AT_TI_call
    1665 000001c3 7640!         LCR       #_GPIO_setDirectionMode ; [CPU_] |320| 
         000001c4 0000 
    1666                      ; call occurs [#_GPIO_setDirectionMode] ; [] |320| 
    1667                      .dwpsn  file "C:/Users/a0221343/Git/bootROM/f28004x_bootrom/F28004x_ROM_dev_PG2.0/F28004x_ROM/bootROM
    1668 000001c5 D403          MOVB      XAR4,#3               ; [CPU_] |323| 
    1669 000001c6 0208          MOVB      ACC,#8                ; [CPU_] |323| 
    1670              $C$DW$147       .dwtag  DW_TAG_TI_branch
    1671                      .dwattr $C$DW$147, DW_AT_low_pc(0x00)
    1672                      .dwattr $C$DW$147, DW_AT_name("_GPIO_setQualificationMode")
    1673                      .dwattr $C$DW$147, DW_AT_TI_call
    1674 000001c7 7640!         LCR       #_GPIO_setQualificationMode ; [CPU_] |323| 
TMS320C2000 Assembler PC v6.4.4 Tue Feb 14 14:42:35 2017

Tools Copyright (c) 1996-2015 Texas Instruments Incorporated
C:\Users\a0221343\AppData\Local\Temp\0495210                         PAGE   33

         000001c8 0000 
    1675                      ; call occurs [#_GPIO_setQualificationMode] ; [] |323| 
    1676                      .dwpsn  file "C:/Users/a0221343/Git/bootROM/f28004x_bootrom/F28004x_ROM_dev_PG2.0/F28004x_ROM/bootROM
    1677 000001c9 D403          MOVB      XAR4,#3               ; [CPU_] |324| 
    1678 000001ca 020A          MOVB      ACC,#10               ; [CPU_] |324| 
    1679              $C$DW$148       .dwtag  DW_TAG_TI_branch
    1680                      .dwattr $C$DW$148, DW_AT_low_pc(0x00)
    1681                      .dwattr $C$DW$148, DW_AT_name("_GPIO_setQualificationMode")
    1682                      .dwattr $C$DW$148, DW_AT_TI_call
    1683 000001cb 7640!         LCR       #_GPIO_setQualificationMode ; [CPU_] |324| 
         000001cc 0000 
    1684                      ; call occurs [#_GPIO_setQualificationMode] ; [] |324| 
    1685                      .dwpsn  file "C:/Users/a0221343/Git/bootROM/f28004x_bootrom/F28004x_ROM_dev_PG2.0/F28004x_ROM/bootROM
    1686 000001cd D403          MOVB      XAR4,#3               ; [CPU_] |325| 
    1687 000001ce 0209          MOVB      ACC,#9                ; [CPU_] |325| 
    1688              $C$DW$149       .dwtag  DW_TAG_TI_branch
    1689                      .dwattr $C$DW$149, DW_AT_low_pc(0x00)
    1690                      .dwattr $C$DW$149, DW_AT_name("_GPIO_setQualificationMode")
    1691                      .dwattr $C$DW$149, DW_AT_TI_call
    1692 000001cf 7640!         LCR       #_GPIO_setQualificationMode ; [CPU_] |325| 
         000001d0 0000 
    1693                      ; call occurs [#_GPIO_setQualificationMode] ; [] |325| 
    1694                      .dwpsn  file "C:/Users/a0221343/Git/bootROM/f28004x_bootrom/F28004x_ROM_dev_PG2.0/F28004x_ROM/bootROM
    1695 000001d1 0200          MOVB      ACC,#0                ; [CPU_] |328| 
    1696 000001d2 1E42          MOVL      *-SP[2],ACC           ; [CPU_] |328| 
    1697 000001d3 020B          MOVB      ACC,#11               ; [CPU_] |328| 
    1698              $C$DW$150       .dwtag  DW_TAG_TI_branch
    1699                      .dwattr $C$DW$150, DW_AT_low_pc(0x00)
    1700                      .dwattr $C$DW$150, DW_AT_name("_GPIO_writePin")
    1701                      .dwattr $C$DW$150, DW_AT_TI_call
    1702 000001d4 7640'         LCR       #_GPIO_writePin       ; [CPU_] |328| 
         000001d5 0047 
    1703                      ; call occurs [#_GPIO_writePin] ; [] |328| 
    1704                      .dwpsn  file "C:/Users/a0221343/Git/bootROM/f28004x_bootrom/F28004x_ROM_dev_PG2.0/F28004x_ROM/bootROM
    1705 000001d6 FFEF          B         $C$L22,UNC            ; [CPU_] |329| 
         000001d7 00C9 
    1706                      ; branch occurs ; [] |329| 
    1707 000001d8       $C$L17:    
    1708                      .dwpsn  file "C:/Users/a0221343/Git/bootROM/f28004x_bootrom/F28004x_ROM_dev_PG2.0/F28004x_ROM/bootROM
    1709 000001d8 0201          MOVB      ACC,#1                ; [CPU_] |334| 
    1710 000001d9 1E42          MOVL      *-SP[2],ACC           ; [CPU_] |334| 
    1711 000001da 0236          MOVB      ACC,#54               ; [CPU_] |334| 
    1712              $C$DW$151       .dwtag  DW_TAG_TI_branch
    1713                      .dwattr $C$DW$151, DW_AT_low_pc(0x00)
    1714                      .dwattr $C$DW$151, DW_AT_name("_GPIO_setPadConfig")
    1715                      .dwattr $C$DW$151, DW_AT_TI_call
    1716 000001db 7640!         LCR       #_GPIO_setPadConfig   ; [CPU_] |334| 
         000001dc 0000 
    1717                      ; call occurs [#_GPIO_setPadConfig] ; [] |334| 
    1718                      .dwpsn  file "C:/Users/a0221343/Git/bootROM/f28004x_bootrom/F28004x_ROM_dev_PG2.0/F28004x_ROM/bootROM
    1719 000001dd 0201          MOVB      ACC,#1                ; [CPU_] |335| 
    1720 000001de 1E42          MOVL      *-SP[2],ACC           ; [CPU_] |335| 
    1721 000001df 0237          MOVB      ACC,#55               ; [CPU_] |335| 
    1722              $C$DW$152       .dwtag  DW_TAG_TI_branch
    1723                      .dwattr $C$DW$152, DW_AT_low_pc(0x00)
TMS320C2000 Assembler PC v6.4.4 Tue Feb 14 14:42:35 2017

Tools Copyright (c) 1996-2015 Texas Instruments Incorporated
C:\Users\a0221343\AppData\Local\Temp\0495210                         PAGE   34

    1724                      .dwattr $C$DW$152, DW_AT_name("_GPIO_setPadConfig")
    1725                      .dwattr $C$DW$152, DW_AT_TI_call
    1726 000001e0 7640!         LCR       #_GPIO_setPadConfig   ; [CPU_] |335| 
         000001e1 0000 
    1727                      ; call occurs [#_GPIO_setPadConfig] ; [] |335| 
    1728                      .dwpsn  file "C:/Users/a0221343/Git/bootROM/f28004x_bootrom/F28004x_ROM_dev_PG2.0/F28004x_ROM/bootROM
    1729 000001e2 0201          MOVB      ACC,#1                ; [CPU_] |336| 
    1730 000001e3 1E42          MOVL      *-SP[2],ACC           ; [CPU_] |336| 
    1731 000001e4 0238          MOVB      ACC,#56               ; [CPU_] |336| 
    1732              $C$DW$153       .dwtag  DW_TAG_TI_branch
    1733                      .dwattr $C$DW$153, DW_AT_low_pc(0x00)
    1734                      .dwattr $C$DW$153, DW_AT_name("_GPIO_setPadConfig")
    1735                      .dwattr $C$DW$153, DW_AT_TI_call
    1736 000001e5 7640!         LCR       #_GPIO_setPadConfig   ; [CPU_] |336| 
         000001e6 0000 
    1737                      ; call occurs [#_GPIO_setPadConfig] ; [] |336| 
    1738                      .dwpsn  file "C:/Users/a0221343/Git/bootROM/f28004x_bootrom/F28004x_ROM_dev_PG2.0/F28004x_ROM/bootROM
    1739 000001e7 0201          MOVB      ACC,#1                ; [CPU_] |337| 
    1740 000001e8 1E42          MOVL      *-SP[2],ACC           ; [CPU_] |337| 
    1741 000001e9 0239          MOVB      ACC,#57               ; [CPU_] |337| 
    1742              $C$DW$154       .dwtag  DW_TAG_TI_branch
    1743                      .dwattr $C$DW$154, DW_AT_low_pc(0x00)
    1744                      .dwattr $C$DW$154, DW_AT_name("_GPIO_setPadConfig")
    1745                      .dwattr $C$DW$154, DW_AT_TI_call
    1746 000001ea 7640!         LCR       #_GPIO_setPadConfig   ; [CPU_] |337| 
         000001eb 0000 
    1747                      ; call occurs [#_GPIO_setPadConfig] ; [] |337| 
    1748                      .dwpsn  file "C:/Users/a0221343/Git/bootROM/f28004x_bootrom/F28004x_ROM_dev_PG2.0/F28004x_ROM/bootROM
    1749 000001ec 28A9          MOV       AL,#3073              ; [CPU_] |342| 
         000001ed 0C01 
    1750 000001ee 9B48          MOV       AH,#72                ; [CPU_] |342| 
    1751              $C$DW$155       .dwtag  DW_TAG_TI_branch
    1752                      .dwattr $C$DW$155, DW_AT_low_pc(0x00)
    1753                      .dwattr $C$DW$155, DW_AT_name("_GPIO_setPinConfig")
    1754                      .dwattr $C$DW$155, DW_AT_TI_call
    1755 000001ef 7640!         LCR       #_GPIO_setPinConfig   ; [CPU_] |342| 
         000001f0 0000 
    1756                      ; call occurs [#_GPIO_setPinConfig] ; [] |342| 
    1757                      .dwpsn  file "C:/Users/a0221343/Git/bootROM/f28004x_bootrom/F28004x_ROM_dev_PG2.0/F28004x_ROM/bootROM
    1758 000001f1 28A9          MOV       AL,#3585              ; [CPU_] |343| 
         000001f2 0E01 
    1759 000001f3 9B48          MOV       AH,#72                ; [CPU_] |343| 
    1760              $C$DW$156       .dwtag  DW_TAG_TI_branch
    1761                      .dwattr $C$DW$156, DW_AT_low_pc(0x00)
    1762                      .dwattr $C$DW$156, DW_AT_name("_GPIO_setPinConfig")
    1763                      .dwattr $C$DW$156, DW_AT_TI_call
    1764 000001f4 7640!         LCR       #_GPIO_setPinConfig   ; [CPU_] |343| 
         000001f5 0000 
    1765                      ; call occurs [#_GPIO_setPinConfig] ; [] |343| 
    1766                      .dwpsn  file "C:/Users/a0221343/Git/bootROM/f28004x_bootrom/F28004x_ROM_dev_PG2.0/F28004x_ROM/bootROM
    1767 000001f6 28A9          MOV       AL,#4097              ; [CPU_] |344| 
         000001f7 1001 
    1768 000001f8 9B48          MOV       AH,#72                ; [CPU_] |344| 
    1769              $C$DW$157       .dwtag  DW_TAG_TI_branch
    1770                      .dwattr $C$DW$157, DW_AT_low_pc(0x00)
TMS320C2000 Assembler PC v6.4.4 Tue Feb 14 14:42:35 2017

Tools Copyright (c) 1996-2015 Texas Instruments Incorporated
C:\Users\a0221343\AppData\Local\Temp\0495210                         PAGE   35

    1771                      .dwattr $C$DW$157, DW_AT_name("_GPIO_setPinConfig")
    1772                      .dwattr $C$DW$157, DW_AT_TI_call
    1773 000001f9 7640!         LCR       #_GPIO_setPinConfig   ; [CPU_] |344| 
         000001fa 0000 
    1774                      ; call occurs [#_GPIO_setPinConfig] ; [] |344| 
    1775                      .dwpsn  file "C:/Users/a0221343/Git/bootROM/f28004x_bootrom/F28004x_ROM_dev_PG2.0/F28004x_ROM/bootROM
    1776 000001fb D401          MOVB      XAR4,#1               ; [CPU_] |347| 
    1777 000001fc 0239          MOVB      ACC,#57               ; [CPU_] |347| 
    1778              $C$DW$158       .dwtag  DW_TAG_TI_branch
    1779                      .dwattr $C$DW$158, DW_AT_low_pc(0x00)
    1780                      .dwattr $C$DW$158, DW_AT_name("_GPIO_setDirectionMode")
    1781                      .dwattr $C$DW$158, DW_AT_TI_call
    1782 000001fd 7640!         LCR       #_GPIO_setDirectionMode ; [CPU_] |347| 
         000001fe 0000 
    1783                      ; call occurs [#_GPIO_setDirectionMode] ; [] |347| 
    1784                      .dwpsn  file "C:/Users/a0221343/Git/bootROM/f28004x_bootrom/F28004x_ROM_dev_PG2.0/F28004x_ROM/bootROM
    1785 000001ff D403          MOVB      XAR4,#3               ; [CPU_] |350| 
    1786 00000200 0236          MOVB      ACC,#54               ; [CPU_] |350| 
    1787              $C$DW$159       .dwtag  DW_TAG_TI_branch
    1788                      .dwattr $C$DW$159, DW_AT_low_pc(0x00)
    1789                      .dwattr $C$DW$159, DW_AT_name("_GPIO_setQualificationMode")
    1790                      .dwattr $C$DW$159, DW_AT_TI_call
    1791 00000201 7640!         LCR       #_GPIO_setQualificationMode ; [CPU_] |350| 
         00000202 0000 
    1792                      ; call occurs [#_GPIO_setQualificationMode] ; [] |350| 
    1793                      .dwpsn  file "C:/Users/a0221343/Git/bootROM/f28004x_bootrom/F28004x_ROM_dev_PG2.0/F28004x_ROM/bootROM
    1794 00000203 D403          MOVB      XAR4,#3               ; [CPU_] |351| 
    1795 00000204 0237          MOVB      ACC,#55               ; [CPU_] |351| 
    1796              $C$DW$160       .dwtag  DW_TAG_TI_branch
    1797                      .dwattr $C$DW$160, DW_AT_low_pc(0x00)
    1798                      .dwattr $C$DW$160, DW_AT_name("_GPIO_setQualificationMode")
    1799                      .dwattr $C$DW$160, DW_AT_TI_call
    1800 00000205 7640!         LCR       #_GPIO_setQualificationMode ; [CPU_] |351| 
         00000206 0000 
    1801                      ; call occurs [#_GPIO_setQualificationMode] ; [] |351| 
    1802                      .dwpsn  file "C:/Users/a0221343/Git/bootROM/f28004x_bootrom/F28004x_ROM_dev_PG2.0/F28004x_ROM/bootROM
    1803 00000207 D403          MOVB      XAR4,#3               ; [CPU_] |352| 
    1804 00000208 0238          MOVB      ACC,#56               ; [CPU_] |352| 
    1805              $C$DW$161       .dwtag  DW_TAG_TI_branch
    1806                      .dwattr $C$DW$161, DW_AT_low_pc(0x00)
    1807                      .dwattr $C$DW$161, DW_AT_name("_GPIO_setQualificationMode")
    1808                      .dwattr $C$DW$161, DW_AT_TI_call
    1809 00000209 7640!         LCR       #_GPIO_setQualificationMode ; [CPU_] |352| 
         0000020a 0000 
    1810                      ; call occurs [#_GPIO_setQualificationMode] ; [] |352| 
    1811                      .dwpsn  file "C:/Users/a0221343/Git/bootROM/f28004x_bootrom/F28004x_ROM_dev_PG2.0/F28004x_ROM/bootROM
    1812 0000020b 0200          MOVB      ACC,#0                ; [CPU_] |355| 
    1813 0000020c 1E42          MOVL      *-SP[2],ACC           ; [CPU_] |355| 
    1814 0000020d 0239          MOVB      ACC,#57               ; [CPU_] |355| 
    1815              $C$DW$162       .dwtag  DW_TAG_TI_branch
    1816                      .dwattr $C$DW$162, DW_AT_low_pc(0x00)
    1817                      .dwattr $C$DW$162, DW_AT_name("_GPIO_writePin")
    1818                      .dwattr $C$DW$162, DW_AT_TI_call
    1819 0000020e 7640'         LCR       #_GPIO_writePin       ; [CPU_] |355| 
         0000020f 0047 
TMS320C2000 Assembler PC v6.4.4 Tue Feb 14 14:42:35 2017

Tools Copyright (c) 1996-2015 Texas Instruments Incorporated
C:\Users\a0221343\AppData\Local\Temp\0495210                         PAGE   36

    1820                      ; call occurs [#_GPIO_writePin] ; [] |355| 
    1821                      .dwpsn  file "C:/Users/a0221343/Git/bootROM/f28004x_bootrom/F28004x_ROM_dev_PG2.0/F28004x_ROM/bootROM
    1822 00000210 FFEF          B         $C$L22,UNC            ; [CPU_] |356| 
         00000211 008F 
    1823                      ; branch occurs ; [] |356| 
    1824 00000212       $C$L18:    
    1825                      .dwpsn  file "C:/Users/a0221343/Git/bootROM/f28004x_bootrom/F28004x_ROM_dev_PG2.0/F28004x_ROM/bootROM
    1826 00000212 0201          MOVB      ACC,#1                ; [CPU_] |361| 
    1827 00000213 1E42          MOVL      *-SP[2],ACC           ; [CPU_] |361| 
    1828 00000214 0210          MOVB      ACC,#16               ; [CPU_] |361| 
    1829              $C$DW$163       .dwtag  DW_TAG_TI_branch
    1830                      .dwattr $C$DW$163, DW_AT_low_pc(0x00)
    1831                      .dwattr $C$DW$163, DW_AT_name("_GPIO_setPadConfig")
    1832                      .dwattr $C$DW$163, DW_AT_TI_call
    1833 00000215 7640!         LCR       #_GPIO_setPadConfig   ; [CPU_] |361| 
         00000216 0000 
    1834                      ; call occurs [#_GPIO_setPadConfig] ; [] |361| 
    1835                      .dwpsn  file "C:/Users/a0221343/Git/bootROM/f28004x_bootrom/F28004x_ROM_dev_PG2.0/F28004x_ROM/bootROM
    1836 00000217 0201          MOVB      ACC,#1                ; [CPU_] |362| 
    1837 00000218 1E42          MOVL      *-SP[2],ACC           ; [CPU_] |362| 
    1838 00000219 0211          MOVB      ACC,#17               ; [CPU_] |362| 
    1839              $C$DW$164       .dwtag  DW_TAG_TI_branch
    1840                      .dwattr $C$DW$164, DW_AT_low_pc(0x00)
    1841                      .dwattr $C$DW$164, DW_AT_name("_GPIO_setPadConfig")
    1842                      .dwattr $C$DW$164, DW_AT_TI_call
    1843 0000021a 7640!         LCR       #_GPIO_setPadConfig   ; [CPU_] |362| 
         0000021b 0000 
    1844                      ; call occurs [#_GPIO_setPadConfig] ; [] |362| 
    1845                      .dwpsn  file "C:/Users/a0221343/Git/bootROM/f28004x_bootrom/F28004x_ROM_dev_PG2.0/F28004x_ROM/bootROM
    1846 0000021c 0201          MOVB      ACC,#1                ; [CPU_] |363| 
    1847 0000021d 1E42          MOVL      *-SP[2],ACC           ; [CPU_] |363| 
    1848 0000021e 0238          MOVB      ACC,#56               ; [CPU_] |363| 
    1849              $C$DW$165       .dwtag  DW_TAG_TI_branch
    1850                      .dwattr $C$DW$165, DW_AT_low_pc(0x00)
    1851                      .dwattr $C$DW$165, DW_AT_name("_GPIO_setPadConfig")
    1852                      .dwattr $C$DW$165, DW_AT_TI_call
    1853 0000021f 7640!         LCR       #_GPIO_setPadConfig   ; [CPU_] |363| 
         00000220 0000 
    1854                      ; call occurs [#_GPIO_setPadConfig] ; [] |363| 
    1855                      .dwpsn  file "C:/Users/a0221343/Git/bootROM/f28004x_bootrom/F28004x_ROM_dev_PG2.0/F28004x_ROM/bootROM
    1856 00000221 0201          MOVB      ACC,#1                ; [CPU_] |364| 
    1857 00000222 1E42          MOVL      *-SP[2],ACC           ; [CPU_] |364| 
    1858 00000223 0239          MOVB      ACC,#57               ; [CPU_] |364| 
    1859              $C$DW$166       .dwtag  DW_TAG_TI_branch
    1860                      .dwattr $C$DW$166, DW_AT_low_pc(0x00)
    1861                      .dwattr $C$DW$166, DW_AT_name("_GPIO_setPadConfig")
    1862                      .dwattr $C$DW$166, DW_AT_TI_call
    1863 00000224 7640!         LCR       #_GPIO_setPadConfig   ; [CPU_] |364| 
         00000225 0000 
    1864                      ; call occurs [#_GPIO_setPadConfig] ; [] |364| 
    1865                      .dwpsn  file "C:/Users/a0221343/Git/bootROM/f28004x_bootrom/F28004x_ROM_dev_PG2.0/F28004x_ROM/bootROM
    1866 00000226 8F08          MOVL      XAR4,#524289          ; [CPU_U] |369| 
         00000227 0001 
    1867 00000228 A8A9          MOVL      ACC,XAR4              ; [CPU_] |369| 
    1868              $C$DW$167       .dwtag  DW_TAG_TI_branch
TMS320C2000 Assembler PC v6.4.4 Tue Feb 14 14:42:35 2017

Tools Copyright (c) 1996-2015 Texas Instruments Incorporated
C:\Users\a0221343\AppData\Local\Temp\0495210                         PAGE   37

    1869                      .dwattr $C$DW$167, DW_AT_low_pc(0x00)
    1870                      .dwattr $C$DW$167, DW_AT_name("_GPIO_setPinConfig")
    1871                      .dwattr $C$DW$167, DW_AT_TI_call
    1872 00000229 7640!         LCR       #_GPIO_setPinConfig   ; [CPU_] |369| 
         0000022a 0000 
    1873                      ; call occurs [#_GPIO_setPinConfig] ; [] |369| 
    1874                      .dwpsn  file "C:/Users/a0221343/Git/bootROM/f28004x_bootrom/F28004x_ROM_dev_PG2.0/F28004x_ROM/bootROM
    1875 0000022b 8F08          MOVL      XAR4,#524801          ; [CPU_U] |370| 
         0000022c 0201 
    1876 0000022d A8A9          MOVL      ACC,XAR4              ; [CPU_] |370| 
    1877              $C$DW$168       .dwtag  DW_TAG_TI_branch
    1878                      .dwattr $C$DW$168, DW_AT_low_pc(0x00)
    1879                      .dwattr $C$DW$168, DW_AT_name("_GPIO_setPinConfig")
    1880                      .dwattr $C$DW$168, DW_AT_TI_call
    1881 0000022e 7640!         LCR       #_GPIO_setPinConfig   ; [CPU_] |370| 
         0000022f 0000 
    1882                      ; call occurs [#_GPIO_setPinConfig] ; [] |370| 
    1883                      .dwpsn  file "C:/Users/a0221343/Git/bootROM/f28004x_bootrom/F28004x_ROM_dev_PG2.0/F28004x_ROM/bootROM
    1884 00000230 28A9          MOV       AL,#4097              ; [CPU_] |371| 
         00000231 1001 
    1885 00000232 9B48          MOV       AH,#72                ; [CPU_] |371| 
    1886              $C$DW$169       .dwtag  DW_TAG_TI_branch
    1887                      .dwattr $C$DW$169, DW_AT_low_pc(0x00)
    1888                      .dwattr $C$DW$169, DW_AT_name("_GPIO_setPinConfig")
    1889                      .dwattr $C$DW$169, DW_AT_TI_call
    1890 00000233 7640!         LCR       #_GPIO_setPinConfig   ; [CPU_] |371| 
         00000234 0000 
    1891                      ; call occurs [#_GPIO_setPinConfig] ; [] |371| 
    1892                      .dwpsn  file "C:/Users/a0221343/Git/bootROM/f28004x_bootrom/F28004x_ROM_dev_PG2.0/F28004x_ROM/bootROM
    1893 00000235 D401          MOVB      XAR4,#1               ; [CPU_] |374| 
    1894 00000236 0239          MOVB      ACC,#57               ; [CPU_] |374| 
    1895              $C$DW$170       .dwtag  DW_TAG_TI_branch
    1896                      .dwattr $C$DW$170, DW_AT_low_pc(0x00)
    1897                      .dwattr $C$DW$170, DW_AT_name("_GPIO_setDirectionMode")
    1898                      .dwattr $C$DW$170, DW_AT_TI_call
    1899 00000237 7640!         LCR       #_GPIO_setDirectionMode ; [CPU_] |374| 
         00000238 0000 
    1900                      ; call occurs [#_GPIO_setDirectionMode] ; [] |374| 
    1901                      .dwpsn  file "C:/Users/a0221343/Git/bootROM/f28004x_bootrom/F28004x_ROM_dev_PG2.0/F28004x_ROM/bootROM
    1902 00000239 D403          MOVB      XAR4,#3               ; [CPU_] |377| 
    1903 0000023a 0210          MOVB      ACC,#16               ; [CPU_] |377| 
    1904              $C$DW$171       .dwtag  DW_TAG_TI_branch
    1905                      .dwattr $C$DW$171, DW_AT_low_pc(0x00)
    1906                      .dwattr $C$DW$171, DW_AT_name("_GPIO_setQualificationMode")
    1907                      .dwattr $C$DW$171, DW_AT_TI_call
    1908 0000023b 7640!         LCR       #_GPIO_setQualificationMode ; [CPU_] |377| 
         0000023c 0000 
    1909                      ; call occurs [#_GPIO_setQualificationMode] ; [] |377| 
    1910                      .dwpsn  file "C:/Users/a0221343/Git/bootROM/f28004x_bootrom/F28004x_ROM_dev_PG2.0/F28004x_ROM/bootROM
    1911 0000023d D403          MOVB      XAR4,#3               ; [CPU_] |378| 
    1912 0000023e 0211          MOVB      ACC,#17               ; [CPU_] |378| 
    1913              $C$DW$172       .dwtag  DW_TAG_TI_branch
    1914                      .dwattr $C$DW$172, DW_AT_low_pc(0x00)
    1915                      .dwattr $C$DW$172, DW_AT_name("_GPIO_setQualificationMode")
    1916                      .dwattr $C$DW$172, DW_AT_TI_call
TMS320C2000 Assembler PC v6.4.4 Tue Feb 14 14:42:35 2017

Tools Copyright (c) 1996-2015 Texas Instruments Incorporated
C:\Users\a0221343\AppData\Local\Temp\0495210                         PAGE   38

    1917 0000023f 7640!         LCR       #_GPIO_setQualificationMode ; [CPU_] |378| 
         00000240 0000 
    1918                      ; call occurs [#_GPIO_setQualificationMode] ; [] |378| 
    1919                      .dwpsn  file "C:/Users/a0221343/Git/bootROM/f28004x_bootrom/F28004x_ROM_dev_PG2.0/F28004x_ROM/bootROM
    1920 00000241 D403          MOVB      XAR4,#3               ; [CPU_] |379| 
    1921 00000242 0238          MOVB      ACC,#56               ; [CPU_] |379| 
    1922              $C$DW$173       .dwtag  DW_TAG_TI_branch
    1923                      .dwattr $C$DW$173, DW_AT_low_pc(0x00)
    1924                      .dwattr $C$DW$173, DW_AT_name("_GPIO_setQualificationMode")
    1925                      .dwattr $C$DW$173, DW_AT_TI_call
    1926 00000243 7640!         LCR       #_GPIO_setQualificationMode ; [CPU_] |379| 
         00000244 0000 
    1927                      ; call occurs [#_GPIO_setQualificationMode] ; [] |379| 
    1928                      .dwpsn  file "C:/Users/a0221343/Git/bootROM/f28004x_bootrom/F28004x_ROM_dev_PG2.0/F28004x_ROM/bootROM
    1929 00000245 0200          MOVB      ACC,#0                ; [CPU_] |382| 
    1930 00000246 1E42          MOVL      *-SP[2],ACC           ; [CPU_] |382| 
    1931 00000247 0239          MOVB      ACC,#57               ; [CPU_] |382| 
    1932              $C$DW$174       .dwtag  DW_TAG_TI_branch
    1933                      .dwattr $C$DW$174, DW_AT_low_pc(0x00)
    1934                      .dwattr $C$DW$174, DW_AT_name("_GPIO_writePin")
    1935                      .dwattr $C$DW$174, DW_AT_TI_call
    1936 00000248 7640'         LCR       #_GPIO_writePin       ; [CPU_] |382| 
         00000249 0047 
    1937                      ; call occurs [#_GPIO_writePin] ; [] |382| 
    1938                      .dwpsn  file "C:/Users/a0221343/Git/bootROM/f28004x_bootrom/F28004x_ROM_dev_PG2.0/F28004x_ROM/bootROM
    1939 0000024a 6F55          B         $C$L22,UNC            ; [CPU_] |383| 
    1940                      ; branch occurs ; [] |383| 
    1941 0000024b       $C$L19:    
    1942                      .dwpsn  file "C:/Users/a0221343/Git/bootROM/f28004x_bootrom/F28004x_ROM_dev_PG2.0/F28004x_ROM/bootROM
    1943 0000024b 0201          MOVB      ACC,#1                ; [CPU_] |388| 
    1944 0000024c 1E42          MOVL      *-SP[2],ACC           ; [CPU_] |388| 
    1945 0000024d 0208          MOVB      ACC,#8                ; [CPU_] |388| 
    1946              $C$DW$175       .dwtag  DW_TAG_TI_branch
    1947                      .dwattr $C$DW$175, DW_AT_low_pc(0x00)
    1948                      .dwattr $C$DW$175, DW_AT_name("_GPIO_setPadConfig")
    1949                      .dwattr $C$DW$175, DW_AT_TI_call
    1950 0000024e 7640!         LCR       #_GPIO_setPadConfig   ; [CPU_] |388| 
         0000024f 0000 
    1951                      ; call occurs [#_GPIO_setPadConfig] ; [] |388| 
    1952                      .dwpsn  file "C:/Users/a0221343/Git/bootROM/f28004x_bootrom/F28004x_ROM_dev_PG2.0/F28004x_ROM/bootROM
    1953 00000250 0201          MOVB      ACC,#1                ; [CPU_] |389| 
    1954 00000251 1E42          MOVL      *-SP[2],ACC           ; [CPU_] |389| 
    1955 00000252 0211          MOVB      ACC,#17               ; [CPU_] |389| 
    1956              $C$DW$176       .dwtag  DW_TAG_TI_branch
    1957                      .dwattr $C$DW$176, DW_AT_low_pc(0x00)
    1958                      .dwattr $C$DW$176, DW_AT_name("_GPIO_setPadConfig")
    1959                      .dwattr $C$DW$176, DW_AT_TI_call
    1960 00000253 7640!         LCR       #_GPIO_setPadConfig   ; [CPU_] |389| 
         00000254 0000 
    1961                      ; call occurs [#_GPIO_setPadConfig] ; [] |389| 
    1962                      .dwpsn  file "C:/Users/a0221343/Git/bootROM/f28004x_bootrom/F28004x_ROM_dev_PG2.0/F28004x_ROM/bootROM
    1963 00000255 0201          MOVB      ACC,#1                ; [CPU_] |390| 
    1964 00000256 1E42          MOVL      *-SP[2],ACC           ; [CPU_] |390| 
    1965 00000257 0209          MOVB      ACC,#9                ; [CPU_] |390| 
    1966              $C$DW$177       .dwtag  DW_TAG_TI_branch
TMS320C2000 Assembler PC v6.4.4 Tue Feb 14 14:42:35 2017

Tools Copyright (c) 1996-2015 Texas Instruments Incorporated
C:\Users\a0221343\AppData\Local\Temp\0495210                         PAGE   39

    1967                      .dwattr $C$DW$177, DW_AT_low_pc(0x00)
    1968                      .dwattr $C$DW$177, DW_AT_name("_GPIO_setPadConfig")
    1969                      .dwattr $C$DW$177, DW_AT_TI_call
    1970 00000258 7640!         LCR       #_GPIO_setPadConfig   ; [CPU_] |390| 
         00000259 0000 
    1971                      ; call occurs [#_GPIO_setPadConfig] ; [] |390| 
    1972                      .dwpsn  file "C:/Users/a0221343/Git/bootROM/f28004x_bootrom/F28004x_ROM_dev_PG2.0/F28004x_ROM/bootROM
    1973 0000025a 0201          MOVB      ACC,#1                ; [CPU_] |391| 
    1974 0000025b 1E42          MOVL      *-SP[2],ACC           ; [CPU_] |391| 
    1975 0000025c 020B          MOVB      ACC,#11               ; [CPU_] |391| 
    1976              $C$DW$178       .dwtag  DW_TAG_TI_branch
    1977                      .dwattr $C$DW$178, DW_AT_low_pc(0x00)
    1978                      .dwattr $C$DW$178, DW_AT_name("_GPIO_setPadConfig")
    1979                      .dwattr $C$DW$178, DW_AT_TI_call
    1980 0000025d 7640!         LCR       #_GPIO_setPadConfig   ; [CPU_] |391| 
         0000025e 0000 
    1981                      ; call occurs [#_GPIO_setPadConfig] ; [] |391| 
    1982                      .dwpsn  file "C:/Users/a0221343/Git/bootROM/f28004x_bootrom/F28004x_ROM_dev_PG2.0/F28004x_ROM/bootROM
    1983 0000025f 8F06          MOVL      XAR4,#397319          ; [CPU_U] |396| 
         00000260 1007 
    1984 00000261 A8A9          MOVL      ACC,XAR4              ; [CPU_] |396| 
    1985              $C$DW$179       .dwtag  DW_TAG_TI_branch
    1986                      .dwattr $C$DW$179, DW_AT_low_pc(0x00)
    1987                      .dwattr $C$DW$179, DW_AT_name("_GPIO_setPinConfig")
    1988                      .dwattr $C$DW$179, DW_AT_TI_call
    1989 00000262 7640!         LCR       #_GPIO_setPinConfig   ; [CPU_] |396| 
         00000263 0000 
    1990                      ; call occurs [#_GPIO_setPinConfig] ; [] |396| 
    1991                      .dwpsn  file "C:/Users/a0221343/Git/bootROM/f28004x_bootrom/F28004x_ROM_dev_PG2.0/F28004x_ROM/bootROM
    1992 00000264 8F08          MOVL      XAR4,#524801          ; [CPU_U] |397| 
         00000265 0201 
    1993 00000266 A8A9          MOVL      ACC,XAR4              ; [CPU_] |397| 
    1994              $C$DW$180       .dwtag  DW_TAG_TI_branch
    1995                      .dwattr $C$DW$180, DW_AT_low_pc(0x00)
    1996                      .dwattr $C$DW$180, DW_AT_name("_GPIO_setPinConfig")
    1997                      .dwattr $C$DW$180, DW_AT_TI_call
    1998 00000267 7640!         LCR       #_GPIO_setPinConfig   ; [CPU_] |397| 
         00000268 0000 
    1999                      ; call occurs [#_GPIO_setPinConfig] ; [] |397| 
    2000                      .dwpsn  file "C:/Users/a0221343/Git/bootROM/f28004x_bootrom/F28004x_ROM_dev_PG2.0/F28004x_ROM/bootROM
    2001 00000269 8F06          MOVL      XAR4,#397831          ; [CPU_U] |398| 
         0000026a 1207 
    2002 0000026b A8A9          MOVL      ACC,XAR4              ; [CPU_] |398| 
    2003              $C$DW$181       .dwtag  DW_TAG_TI_branch
    2004                      .dwattr $C$DW$181, DW_AT_low_pc(0x00)
    2005                      .dwattr $C$DW$181, DW_AT_name("_GPIO_setPinConfig")
    2006                      .dwattr $C$DW$181, DW_AT_TI_call
    2007 0000026c 7640!         LCR       #_GPIO_setPinConfig   ; [CPU_] |398| 
         0000026d 0000 
    2008                      ; call occurs [#_GPIO_setPinConfig] ; [] |398| 
    2009                      .dwpsn  file "C:/Users/a0221343/Git/bootROM/f28004x_bootrom/F28004x_ROM_dev_PG2.0/F28004x_ROM/bootROM
    2010 0000026e D401          MOVB      XAR4,#1               ; [CPU_] |401| 
    2011 0000026f 020B          MOVB      ACC,#11               ; [CPU_] |401| 
    2012              $C$DW$182       .dwtag  DW_TAG_TI_branch
    2013                      .dwattr $C$DW$182, DW_AT_low_pc(0x00)
TMS320C2000 Assembler PC v6.4.4 Tue Feb 14 14:42:35 2017

Tools Copyright (c) 1996-2015 Texas Instruments Incorporated
C:\Users\a0221343\AppData\Local\Temp\0495210                         PAGE   40

    2014                      .dwattr $C$DW$182, DW_AT_name("_GPIO_setDirectionMode")
    2015                      .dwattr $C$DW$182, DW_AT_TI_call
    2016 00000270 7640!         LCR       #_GPIO_setDirectionMode ; [CPU_] |401| 
         00000271 0000 
    2017                      ; call occurs [#_GPIO_setDirectionMode] ; [] |401| 
    2018                      .dwpsn  file "C:/Users/a0221343/Git/bootROM/f28004x_bootrom/F28004x_ROM_dev_PG2.0/F28004x_ROM/bootROM
    2019 00000272 D403          MOVB      XAR4,#3               ; [CPU_] |404| 
    2020 00000273 0208          MOVB      ACC,#8                ; [CPU_] |404| 
    2021              $C$DW$183       .dwtag  DW_TAG_TI_branch
    2022                      .dwattr $C$DW$183, DW_AT_low_pc(0x00)
    2023                      .dwattr $C$DW$183, DW_AT_name("_GPIO_setQualificationMode")
    2024                      .dwattr $C$DW$183, DW_AT_TI_call
    2025 00000274 7640!         LCR       #_GPIO_setQualificationMode ; [CPU_] |404| 
         00000275 0000 
    2026                      ; call occurs [#_GPIO_setQualificationMode] ; [] |404| 
    2027                      .dwpsn  file "C:/Users/a0221343/Git/bootROM/f28004x_bootrom/F28004x_ROM_dev_PG2.0/F28004x_ROM/bootROM
    2028 00000276 D403          MOVB      XAR4,#3               ; [CPU_] |405| 
    2029 00000277 0211          MOVB      ACC,#17               ; [CPU_] |405| 
    2030              $C$DW$184       .dwtag  DW_TAG_TI_branch
    2031                      .dwattr $C$DW$184, DW_AT_low_pc(0x00)
    2032                      .dwattr $C$DW$184, DW_AT_name("_GPIO_setQualificationMode")
    2033                      .dwattr $C$DW$184, DW_AT_TI_call
    2034 00000278 7640!         LCR       #_GPIO_setQualificationMode ; [CPU_] |405| 
         00000279 0000 
    2035                      ; call occurs [#_GPIO_setQualificationMode] ; [] |405| 
    2036                      .dwpsn  file "C:/Users/a0221343/Git/bootROM/f28004x_bootrom/F28004x_ROM_dev_PG2.0/F28004x_ROM/bootROM
    2037 0000027a D403          MOVB      XAR4,#3               ; [CPU_] |406| 
    2038 0000027b 0209          MOVB      ACC,#9                ; [CPU_] |406| 
    2039              $C$DW$185       .dwtag  DW_TAG_TI_branch
    2040                      .dwattr $C$DW$185, DW_AT_low_pc(0x00)
    2041                      .dwattr $C$DW$185, DW_AT_name("_GPIO_setQualificationMode")
    2042                      .dwattr $C$DW$185, DW_AT_TI_call
    2043 0000027c 7640!         LCR       #_GPIO_setQualificationMode ; [CPU_] |406| 
         0000027d 0000 
    2044                      ; call occurs [#_GPIO_setQualificationMode] ; [] |406| 
    2045                      .dwpsn  file "C:/Users/a0221343/Git/bootROM/f28004x_bootrom/F28004x_ROM_dev_PG2.0/F28004x_ROM/bootROM
    2046 0000027e 0200          MOVB      ACC,#0                ; [CPU_] |409| 
    2047 0000027f 1E42          MOVL      *-SP[2],ACC           ; [CPU_] |409| 
    2048 00000280 020B          MOVB      ACC,#11               ; [CPU_] |409| 
    2049              $C$DW$186       .dwtag  DW_TAG_TI_branch
    2050                      .dwattr $C$DW$186, DW_AT_low_pc(0x00)
    2051                      .dwattr $C$DW$186, DW_AT_name("_GPIO_writePin")
    2052                      .dwattr $C$DW$186, DW_AT_TI_call
    2053 00000281 7640'         LCR       #_GPIO_writePin       ; [CPU_] |409| 
         00000282 0047 
    2054                      ; call occurs [#_GPIO_writePin] ; [] |409| 
    2055                      .dwpsn  file "C:/Users/a0221343/Git/bootROM/f28004x_bootrom/F28004x_ROM_dev_PG2.0/F28004x_ROM/bootROM
    2056 00000283 6F1C          B         $C$L22,UNC            ; [CPU_] |410| 
    2057                      ; branch occurs ; [] |410| 
    2058 00000284       $C$L20:    
    2059                      .dwpsn  file "C:/Users/a0221343/Git/bootROM/f28004x_bootrom/F28004x_ROM_dev_PG2.0/F28004x_ROM/bootROM
    2060 00000284 C444          MOVL      XAR6,*-SP[4]          ; [CPU_] |274| 
    2061 00000285 0246          MOVB      ACC,#70               ; [CPU_] |274| 
    2062 00000286 0FA6          CMPL      ACC,XAR6              ; [CPU_] |274| 
    2063 00000287 56C4          BF        $C$L21,LT             ; [CPU_] |274| 
TMS320C2000 Assembler PC v6.4.4 Tue Feb 14 14:42:35 2017

Tools Copyright (c) 1996-2015 Texas Instruments Incorporated
C:\Users\a0221343\AppData\Local\Temp\0495210                         PAGE   41

         00000288 000F 
    2064                      ; branchcc occurs ; [] |274| 
    2065 00000289 0FA6          CMPL      ACC,XAR6              ; [CPU_] |274| 
    2066 0000028a 56C1          BF        $C$L17,EQ             ; [CPU_] |274| 
         0000028b FF4E 
    2067                      ; branchcc occurs ; [] |274| 
    2068 0000028c 0206          MOVB      ACC,#6                ; [CPU_] |274| 
    2069 0000028d 0FA6          CMPL      ACC,XAR6              ; [CPU_] |274| 
    2070 0000028e 56C1          BF        $C$L15,EQ             ; [CPU_] |274| 
         0000028f FED6 
    2071                      ; branchcc occurs ; [] |274| 
    2072 00000290 0226          MOVB      ACC,#38               ; [CPU_] |274| 
    2073 00000291 0FA6          CMPL      ACC,XAR6              ; [CPU_] |274| 
    2074 00000292 56C1          BF        $C$L16,EQ             ; [CPU_] |274| 
         00000293 FF0C 
    2075                      ; branchcc occurs ; [] |274| 
    2076 00000294 FFEF          B         $C$L15,UNC            ; [CPU_] |274| 
         00000295 FED0 
    2077                      ; branch occurs ; [] |274| 
    2078 00000296       $C$L21:    
    2079 00000296 0266          MOVB      ACC,#102              ; [CPU_] |274| 
    2080 00000297 0FA6          CMPL      ACC,XAR6              ; [CPU_] |274| 
    2081 00000298 56C1          BF        $C$L18,EQ             ; [CPU_] |274| 
         00000299 FF7A 
    2082                      ; branchcc occurs ; [] |274| 
    2083 0000029a 0286          MOVB      ACC,#134              ; [CPU_] |274| 
    2084 0000029b 0FA6          CMPL      ACC,XAR6              ; [CPU_] |274| 
    2085 0000029c ECAF          BF        $C$L19,EQ             ; [CPU_] |274| 
    2086                      ; branchcc occurs ; [] |274| 
    2087 0000029d FFEF          B         $C$L15,UNC            ; [CPU_] |274| 
         0000029e FEC7 
    2088                      ; branch occurs ; [] |274| 
    2089 0000029f       $C$L22:    
    2090 0000029f FE84          SUBB      SP,#4                 ; [CPU_U] 
    2091                      .dwcfi  cfa_offset, -2
    2092              $C$DW$187       .dwtag  DW_TAG_TI_branch
    2093                      .dwattr $C$DW$187, DW_AT_low_pc(0x00)
    2094                      .dwattr $C$DW$187, DW_AT_TI_return
    2095 000002a0 0006          LRETR     ; [CPU_] 
    2096                      ; return occurs ; [] 
    2097                      .dwattr $C$DW$122, DW_AT_TI_end_file("C:/Users/a0221343/Git/bootROM/f28004x_bootrom/F28004x_ROM_dev_P
    2098                      .dwattr $C$DW$122, DW_AT_TI_end_line(0x19d)
    2099                      .dwattr $C$DW$122, DW_AT_TI_end_column(0x01)
    2100                      .dwendentry
    2101                      .dwendtag $C$DW$122
    2102              
    2103 000002a1               .sect   ".text"
    2104                      .clink
    2105                      .global _SPIA_Init
    2106              
    2107              $C$DW$188       .dwtag  DW_TAG_subprogram, DW_AT_name("SPIA_Init")
    2108                      .dwattr $C$DW$188, DW_AT_low_pc(_SPIA_Init)
    2109                      .dwattr $C$DW$188, DW_AT_high_pc(0x00)
    2110                      .dwattr $C$DW$188, DW_AT_TI_symbol_name("_SPIA_Init")
    2111                      .dwattr $C$DW$188, DW_AT_external
TMS320C2000 Assembler PC v6.4.4 Tue Feb 14 14:42:35 2017

Tools Copyright (c) 1996-2015 Texas Instruments Incorporated
C:\Users\a0221343\AppData\Local\Temp\0495210                         PAGE   42

    2112                      .dwattr $C$DW$188, DW_AT_TI_begin_file("C:/Users/a0221343/Git/bootROM/f28004x_bootrom/F28004x_ROM_dev
    2113                      .dwattr $C$DW$188, DW_AT_TI_begin_line(0x1a0)
    2114                      .dwattr $C$DW$188, DW_AT_TI_begin_column(0x06)
    2115                      .dwattr $C$DW$188, DW_AT_TI_max_frame_size(-8)
    2116                      .dwpsn  file "C:/Users/a0221343/Git/bootROM/f28004x_bootrom/F28004x_ROM_dev_PG2.0/F28004x_ROM/bootROM
    2117              
    2118                      .dwfde $C$DW$CIE, _SPIA_Init
    2119              
    2120              ;***************************************************************
    2121              ;* FNAME: _SPIA_Init                    FR SIZE:   6           *
    2122              ;*                                                             *
    2123              ;* FUNCTION ENVIRONMENT                                        *
    2124              ;*                                                             *
    2125              ;* FUNCTION PROPERTIES                                         *
    2126              ;*                            5 Parameter,  0 Auto,  0 SOE     *
    2127              ;***************************************************************
    2128              
    2129 000002a1       _SPIA_Init:
    2130                      .dwcfi  cfa_offset, -2
    2131                      .dwcfi  save_reg_to_mem, 26, 0
    2132 000002a1 FE06          ADDB      SP,#6                 ; [CPU_U] 
    2133                      .dwcfi  cfa_offset, -8
    2134                      .dwpsn  file "C:/Users/a0221343/Git/bootROM/f28004x_bootrom/F28004x_ROM_dev_PG2.0/F28004x_ROM/bootROM
    2135 000002a2 7622   EALLOW
    2136                      .dwpsn  file "C:/Users/a0221343/Git/bootROM/f28004x_bootrom/F28004x_ROM_dev_PG2.0/F28004x_ROM/bootROM
    2137 000002a3 9A08          MOVB      AL,#8                 ; [CPU_] |426| 
    2138 000002a4 FF69          SPM       #0                    ; [CPU_] 
    2139              $C$DW$189       .dwtag  DW_TAG_TI_branch
    2140                      .dwattr $C$DW$189, DW_AT_low_pc(0x00)
    2141                      .dwattr $C$DW$189, DW_AT_name("_SysCtl_enablePeripheral")
    2142                      .dwattr $C$DW$189, DW_AT_TI_call
    2143 000002a5 7640'         LCR       #_SysCtl_enablePeripheral ; [CPU_] |426| 
         000002a6 0000 
    2144                      ; call occurs [#_SysCtl_enablePeripheral] ; [] |426| 
    2145                      .dwpsn  file "C:/Users/a0221343/Git/bootROM/f28004x_bootrom/F28004x_ROM_dev_PG2.0/F28004x_ROM/bootROM
    2146 000002a7 9A02          MOVB      AL,#2                 ; [CPU_] |429| 
    2147              $C$DW$190       .dwtag  DW_TAG_TI_branch
    2148                      .dwattr $C$DW$190, DW_AT_low_pc(0x00)
    2149                      .dwattr $C$DW$190, DW_AT_name("_SysCtl_setLowSpeedClock")
    2150                      .dwattr $C$DW$190, DW_AT_TI_call
    2151 000002a8 7640'         LCR       #_SysCtl_setLowSpeedClock ; [CPU_] |429| 
         000002a9 0038 
    2152                      ; call occurs [#_SysCtl_setLowSpeedClock] ; [] |429| 
    2153                      .dwpsn  file "C:/Users/a0221343/Git/bootROM/f28004x_bootrom/F28004x_ROM_dev_PG2.0/F28004x_ROM/bootROM
    2154 000002aa 28A9          MOV       AL,#32768             ; [CPU_] |433| 
         000002ab 8000 
    2155 000002ac F4A9          MOV       *(0:0x610a),AL        ; [CPU_] |433| 
         000002ad 610A 
    2156                      .dwpsn  file "C:/Users/a0221343/Git/bootROM/f28004x_bootrom/F28004x_ROM_dev_PG2.0/F28004x_ROM/bootROM
    2157 000002ae 8F00          MOVL      XAR4,#24832           ; [CPU_U] |435| 
         000002af 6100 
    2158 000002b0 A8A9          MOVL      ACC,XAR4              ; [CPU_] |435| 
    2159              $C$DW$191       .dwtag  DW_TAG_TI_branch
    2160                      .dwattr $C$DW$191, DW_AT_low_pc(0x00)
    2161                      .dwattr $C$DW$191, DW_AT_name("_SPI_disableModule")
TMS320C2000 Assembler PC v6.4.4 Tue Feb 14 14:42:35 2017

Tools Copyright (c) 1996-2015 Texas Instruments Incorporated
C:\Users\a0221343\AppData\Local\Temp\0495210                         PAGE   43

    2162                      .dwattr $C$DW$191, DW_AT_TI_call
    2163 000002b1 7640'         LCR       #_SPI_disableModule   ; [CPU_] |435| 
         000002b2 0080 
    2164                      ; call occurs [#_SPI_disableModule] ; [] |435| 
    2165                      .dwpsn  file "C:/Users/a0221343/Git/bootROM/f28004x_bootrom/F28004x_ROM_dev_PG2.0/F28004x_ROM/bootROM
    2166 000002b3 8F66          MOVL      XAR5,#2500000         ; [CPU_U] |436| 
         000002b4 25A0 
    2167 000002b5 8F00          MOVL      XAR4,#19531           ; [CPU_U] |436| 
         000002b6 4C4B 
    2168 000002b7 A042          MOVL      *-SP[2],XAR5          ; [CPU_] |436| 
    2169 000002b8 D506          MOVB      XAR5,#6               ; [CPU_] |436| 
    2170 000002b9 A844          MOVL      *-SP[4],XAR4          ; [CPU_] |436| 
    2171 000002ba D402          MOVB      XAR4,#2               ; [CPU_] |436| 
    2172 000002bb 56BF          MOVB      *-SP[5],#8,UNC        ; [CPU_] |436| 
         000002bc 0845 
    2173              $C$DW$192       .dwtag  DW_TAG_TI_branch
    2174                      .dwattr $C$DW$192, DW_AT_low_pc(0x00)
    2175                      .dwattr $C$DW$192, DW_AT_name("_SPI_setConfig")
    2176                      .dwattr $C$DW$192, DW_AT_TI_call
    2177 000002bd 7640!         LCR       #_SPI_setConfig       ; [CPU_] |436| 
         000002be 0000 
    2178                      ; call occurs [#_SPI_setConfig] ; [] |436| 
    2179                      .dwpsn  file "C:/Users/a0221343/Git/bootROM/f28004x_bootrom/F28004x_ROM_dev_PG2.0/F28004x_ROM/bootROM
    2180 000002bf 8F00          MOVL      XAR4,#24832           ; [CPU_U] |437| 
         000002c0 6100 
    2181 000002c1 A8A9          MOVL      ACC,XAR4              ; [CPU_] |437| 
    2182              $C$DW$193       .dwtag  DW_TAG_TI_branch
    2183                      .dwattr $C$DW$193, DW_AT_low_pc(0x00)
    2184                      .dwattr $C$DW$193, DW_AT_name("_SPI_enableModule")
    2185                      .dwattr $C$DW$193, DW_AT_TI_call
    2186 000002c2 7640'         LCR       #_SPI_enableModule    ; [CPU_] |437| 
         000002c3 0079 
    2187                      ; call occurs [#_SPI_enableModule] ; [] |437| 
    2188                      .dwpsn  file "C:/Users/a0221343/Git/bootROM/f28004x_bootrom/F28004x_ROM_dev_PG2.0/F28004x_ROM/bootROM
    2189 000002c4 761A   EDIS
    2190                      .dwpsn  file "C:/Users/a0221343/Git/bootROM/f28004x_bootrom/F28004x_ROM_dev_PG2.0/F28004x_ROM/bootROM
    2191 000002c5 FF69          SPM       #0                    ; [CPU_] 
    2192 000002c6 FE86          SUBB      SP,#6                 ; [CPU_U] 
    2193                      .dwcfi  cfa_offset, -2
    2194              $C$DW$194       .dwtag  DW_TAG_TI_branch
    2195                      .dwattr $C$DW$194, DW_AT_low_pc(0x00)
    2196                      .dwattr $C$DW$194, DW_AT_TI_return
    2197 000002c7 0006          LRETR     ; [CPU_] 
    2198                      ; return occurs ; [] 
    2199                      .dwattr $C$DW$188, DW_AT_TI_end_file("C:/Users/a0221343/Git/bootROM/f28004x_bootrom/F28004x_ROM_dev_P
    2200                      .dwattr $C$DW$188, DW_AT_TI_end_line(0x1cb)
    2201                      .dwattr $C$DW$188, DW_AT_TI_end_column(0x01)
    2202                      .dwendentry
    2203                      .dwendtag $C$DW$188
    2204              
    2205              ;**************************************************************
    2206              ;* UNDEFINED EXTERNAL REFERENCES                              *
    2207              ;**************************************************************
    2208                      .global _SPI_setConfig
    2209                      .global _CopyData
TMS320C2000 Assembler PC v6.4.4 Tue Feb 14 14:42:35 2017

Tools Copyright (c) 1996-2015 Texas Instruments Incorporated
C:\Users\a0221343\AppData\Local\Temp\0495210                         PAGE   44

    2210                      .global _GPIO_setPadConfig
    2211                      .global _GPIO_setQualificationMode
    2212                      .global _GPIO_setDirectionMode
    2213                      .global _GPIO_setPinConfig
    2214                      .global _GetWordData
    2215                      .global _GetLongData
    2216                      .global _SPI_getInterruptStatus
    2217              
    2218              ;***************************************************************
    2219              ;* TYPE INFORMATION                                            *
    2220              ;***************************************************************
    2221              
    2222              $C$DW$T$19      .dwtag  DW_TAG_enumeration_type
    2223                      .dwattr $C$DW$T$19, DW_AT_byte_size(0x01)
    2224              $C$DW$195       .dwtag  DW_TAG_enumerator, DW_AT_name("SYSCTL_PERIPH_CLK_CLA1"), DW_AT_const_value(0x00)
    2225              $C$DW$196       .dwtag  DW_TAG_enumerator, DW_AT_name("SYSCTL_PERIPH_CLK_DMA"), DW_AT_const_value(0x200)
    2226              $C$DW$197       .dwtag  DW_TAG_enumerator, DW_AT_name("SYSCTL_PERIPH_CLK_TIMER0"), DW_AT_const_value(0x300)
    2227              $C$DW$198       .dwtag  DW_TAG_enumerator, DW_AT_name("SYSCTL_PERIPH_CLK_TIMER1"), DW_AT_const_value(0x400)
    2228              $C$DW$199       .dwtag  DW_TAG_enumerator, DW_AT_name("SYSCTL_PERIPH_CLK_TIMER2"), DW_AT_const_value(0x500)
    2229              $C$DW$200       .dwtag  DW_TAG_enumerator, DW_AT_name("SYSCTL_PERIPH_CLK_HRPWM"), DW_AT_const_value(0x1000)
    2230              $C$DW$201       .dwtag  DW_TAG_enumerator, DW_AT_name("SYSCTL_PERIPH_CLK_TBCLKSYNC"), DW_AT_const_value(0x120
    2231              $C$DW$202       .dwtag  DW_TAG_enumerator, DW_AT_name("SYSCTL_PERIPH_CLK_EPWM1"), DW_AT_const_value(0x02)
    2232              $C$DW$203       .dwtag  DW_TAG_enumerator, DW_AT_name("SYSCTL_PERIPH_CLK_EPWM2"), DW_AT_const_value(0x102)
    2233              $C$DW$204       .dwtag  DW_TAG_enumerator, DW_AT_name("SYSCTL_PERIPH_CLK_EPWM3"), DW_AT_const_value(0x202)
    2234              $C$DW$205       .dwtag  DW_TAG_enumerator, DW_AT_name("SYSCTL_PERIPH_CLK_EPWM4"), DW_AT_const_value(0x302)
    2235              $C$DW$206       .dwtag  DW_TAG_enumerator, DW_AT_name("SYSCTL_PERIPH_CLK_EPWM5"), DW_AT_const_value(0x402)
    2236              $C$DW$207       .dwtag  DW_TAG_enumerator, DW_AT_name("SYSCTL_PERIPH_CLK_EPWM6"), DW_AT_const_value(0x502)
    2237              $C$DW$208       .dwtag  DW_TAG_enumerator, DW_AT_name("SYSCTL_PERIPH_CLK_EPWM7"), DW_AT_const_value(0x602)
    2238              $C$DW$209       .dwtag  DW_TAG_enumerator, DW_AT_name("SYSCTL_PERIPH_CLK_EPWM8"), DW_AT_const_value(0x702)
    2239              $C$DW$210       .dwtag  DW_TAG_enumerator, DW_AT_name("SYSCTL_PERIPH_CLK_ECAP1"), DW_AT_const_value(0x03)
    2240              $C$DW$211       .dwtag  DW_TAG_enumerator, DW_AT_name("SYSCTL_PERIPH_CLK_ECAP2"), DW_AT_const_value(0x103)
    2241              $C$DW$212       .dwtag  DW_TAG_enumerator, DW_AT_name("SYSCTL_PERIPH_CLK_ECAP3"), DW_AT_const_value(0x203)
    2242              $C$DW$213       .dwtag  DW_TAG_enumerator, DW_AT_name("SYSCTL_PERIPH_CLK_ECAP4"), DW_AT_const_value(0x303)
    2243              $C$DW$214       .dwtag  DW_TAG_enumerator, DW_AT_name("SYSCTL_PERIPH_CLK_ECAP5"), DW_AT_const_value(0x403)
    2244              $C$DW$215       .dwtag  DW_TAG_enumerator, DW_AT_name("SYSCTL_PERIPH_CLK_ECAP6"), DW_AT_const_value(0x503)
    2245              $C$DW$216       .dwtag  DW_TAG_enumerator, DW_AT_name("SYSCTL_PERIPH_CLK_ECAP7"), DW_AT_const_value(0x603)
    2246              $C$DW$217       .dwtag  DW_TAG_enumerator, DW_AT_name("SYSCTL_PERIPH_CLK_EQEP1"), DW_AT_const_value(0x04)
    2247              $C$DW$218       .dwtag  DW_TAG_enumerator, DW_AT_name("SYSCTL_PERIPH_CLK_EQEP2"), DW_AT_const_value(0x104)
    2248              $C$DW$219       .dwtag  DW_TAG_enumerator, DW_AT_name("SYSCTL_PERIPH_CLK_SD1"), DW_AT_const_value(0x06)
    2249              $C$DW$220       .dwtag  DW_TAG_enumerator, DW_AT_name("SYSCTL_PERIPH_CLK_SCIA"), DW_AT_const_value(0x07)
    2250              $C$DW$221       .dwtag  DW_TAG_enumerator, DW_AT_name("SYSCTL_PERIPH_CLK_SCIB"), DW_AT_const_value(0x107)
    2251              $C$DW$222       .dwtag  DW_TAG_enumerator, DW_AT_name("SYSCTL_PERIPH_CLK_SPIA"), DW_AT_const_value(0x08)
    2252              $C$DW$223       .dwtag  DW_TAG_enumerator, DW_AT_name("SYSCTL_PERIPH_CLK_SPIB"), DW_AT_const_value(0x108)
    2253              $C$DW$224       .dwtag  DW_TAG_enumerator, DW_AT_name("SYSCTL_PERIPH_CLK_I2CA"), DW_AT_const_value(0x09)
    2254              $C$DW$225       .dwtag  DW_TAG_enumerator, DW_AT_name("SYSCTL_PERIPH_CLK_CANA"), DW_AT_const_value(0x0a)
    2255              $C$DW$226       .dwtag  DW_TAG_enumerator, DW_AT_name("SYSCTL_PERIPH_CLK_CANB"), DW_AT_const_value(0x10a)
    2256              $C$DW$227       .dwtag  DW_TAG_enumerator, DW_AT_name("SYSCTL_PERIPH_CLK_ADCA"), DW_AT_const_value(0x0d)
    2257              $C$DW$228       .dwtag  DW_TAG_enumerator, DW_AT_name("SYSCTL_PERIPH_CLK_ADCB"), DW_AT_const_value(0x10d)
    2258              $C$DW$229       .dwtag  DW_TAG_enumerator, DW_AT_name("SYSCTL_PERIPH_CLK_ADCC"), DW_AT_const_value(0x20d)
    2259              $C$DW$230       .dwtag  DW_TAG_enumerator, DW_AT_name("SYSCTL_PERIPH_CLK_CMPSS1"), DW_AT_const_value(0x0e)
    2260              $C$DW$231       .dwtag  DW_TAG_enumerator, DW_AT_name("SYSCTL_PERIPH_CLK_CMPSS2"), DW_AT_const_value(0x10e)
    2261              $C$DW$232       .dwtag  DW_TAG_enumerator, DW_AT_name("SYSCTL_PERIPH_CLK_CMPSS3"), DW_AT_const_value(0x20e)
    2262              $C$DW$233       .dwtag  DW_TAG_enumerator, DW_AT_name("SYSCTL_PERIPH_CLK_CMPSS4"), DW_AT_const_value(0x30e)
    2263              $C$DW$234       .dwtag  DW_TAG_enumerator, DW_AT_name("SYSCTL_PERIPH_CLK_CMPSS5"), DW_AT_const_value(0x40e)
    2264              $C$DW$235       .dwtag  DW_TAG_enumerator, DW_AT_name("SYSCTL_PERIPH_CLK_CMPSS6"), DW_AT_const_value(0x50e)
TMS320C2000 Assembler PC v6.4.4 Tue Feb 14 14:42:35 2017

Tools Copyright (c) 1996-2015 Texas Instruments Incorporated
C:\Users\a0221343\AppData\Local\Temp\0495210                         PAGE   45

    2265              $C$DW$236       .dwtag  DW_TAG_enumerator, DW_AT_name("SYSCTL_PERIPH_CLK_CMPSS7"), DW_AT_const_value(0x60e)
    2266              $C$DW$237       .dwtag  DW_TAG_enumerator, DW_AT_name("SYSCTL_PERIPH_CLK_CMPSS8"), DW_AT_const_value(0x70e)
    2267              $C$DW$238       .dwtag  DW_TAG_enumerator, DW_AT_name("SYSCTL_PERIPH_CLK_PGA1"), DW_AT_const_value(0x0f)
    2268              $C$DW$239       .dwtag  DW_TAG_enumerator, DW_AT_name("SYSCTL_PERIPH_CLK_PGA2"), DW_AT_const_value(0x10f)
    2269              $C$DW$240       .dwtag  DW_TAG_enumerator, DW_AT_name("SYSCTL_PERIPH_CLK_PGA3"), DW_AT_const_value(0x20f)
    2270              $C$DW$241       .dwtag  DW_TAG_enumerator, DW_AT_name("SYSCTL_PERIPH_CLK_PGA4"), DW_AT_const_value(0x30f)
    2271              $C$DW$242       .dwtag  DW_TAG_enumerator, DW_AT_name("SYSCTL_PERIPH_CLK_PGA5"), DW_AT_const_value(0x40f)
    2272              $C$DW$243       .dwtag  DW_TAG_enumerator, DW_AT_name("SYSCTL_PERIPH_CLK_PGA6"), DW_AT_const_value(0x50f)
    2273              $C$DW$244       .dwtag  DW_TAG_enumerator, DW_AT_name("SYSCTL_PERIPH_CLK_PGA7"), DW_AT_const_value(0x60f)
    2274              $C$DW$245       .dwtag  DW_TAG_enumerator, DW_AT_name("SYSCTL_PERIPH_CLK_DACA"), DW_AT_const_value(0x1010)
    2275              $C$DW$246       .dwtag  DW_TAG_enumerator, DW_AT_name("SYSCTL_PERIPH_CLK_DACB"), DW_AT_const_value(0x1110)
    2276              $C$DW$247       .dwtag  DW_TAG_enumerator, DW_AT_name("SYSCTL_PERIPH_CLK_DACC"), DW_AT_const_value(0x1210)
    2277              $C$DW$248       .dwtag  DW_TAG_enumerator, DW_AT_name("SYSCTL_PERIPH_CLK_CLB1"), DW_AT_const_value(0x11)
    2278              $C$DW$249       .dwtag  DW_TAG_enumerator, DW_AT_name("SYSCTL_PERIPH_CLK_CLB2"), DW_AT_const_value(0x111)
    2279              $C$DW$250       .dwtag  DW_TAG_enumerator, DW_AT_name("SYSCTL_PERIPH_CLK_CLB3"), DW_AT_const_value(0x211)
    2280              $C$DW$251       .dwtag  DW_TAG_enumerator, DW_AT_name("SYSCTL_PERIPH_CLK_CLB4"), DW_AT_const_value(0x311)
    2281              $C$DW$252       .dwtag  DW_TAG_enumerator, DW_AT_name("SYSCTL_PERIPH_CLK_FSITXA"), DW_AT_const_value(0x12)
    2282              $C$DW$253       .dwtag  DW_TAG_enumerator, DW_AT_name("SYSCTL_PERIPH_CLK_FSIRXA"), DW_AT_const_value(0x112)
    2283              $C$DW$254       .dwtag  DW_TAG_enumerator, DW_AT_name("SYSCTL_PERIPH_CLK_LINA"), DW_AT_const_value(0x13)
    2284              $C$DW$255       .dwtag  DW_TAG_enumerator, DW_AT_name("SYSCTL_PERIPH_CLK_PMBUSA"), DW_AT_const_value(0x14)
    2285              $C$DW$256       .dwtag  DW_TAG_enumerator, DW_AT_name("SYSCTL_PERIPH_CLK_DCC0"), DW_AT_const_value(0x15)
    2286                      .dwendtag $C$DW$T$19
    2287              
    2288              $C$DW$T$20      .dwtag  DW_TAG_typedef, DW_AT_name("SysCtl_PeripheralPCLOCKCR")
    2289                      .dwattr $C$DW$T$20, DW_AT_type(*$C$DW$T$19)
    2290                      .dwattr $C$DW$T$20, DW_AT_language(DW_LANG_C)
    2291              
    2292              $C$DW$T$21      .dwtag  DW_TAG_enumeration_type
    2293                      .dwattr $C$DW$T$21, DW_AT_byte_size(0x01)
    2294              $C$DW$257       .dwtag  DW_TAG_enumerator, DW_AT_name("SYSCTL_PERIPH_PRESENT_FPU_TMU"), DW_AT_const_value(0x0
    2295              $C$DW$258       .dwtag  DW_TAG_enumerator, DW_AT_name("SYSCTL_PERIPH_PRESENT_VCU"), DW_AT_const_value(0x200)
    2296              $C$DW$259       .dwtag  DW_TAG_enumerator, DW_AT_name("SYSCTL_PERIPH_PRESENT_CLA1"), DW_AT_const_value(0x600)
    2297              $C$DW$260       .dwtag  DW_TAG_enumerator, DW_AT_name("SYSCTL_PERIPH_PRESENT_EPWM1"), DW_AT_const_value(0x02)
    2298              $C$DW$261       .dwtag  DW_TAG_enumerator, DW_AT_name("SYSCTL_PERIPH_PRESENT_EPWM2"), DW_AT_const_value(0x102
    2299              $C$DW$262       .dwtag  DW_TAG_enumerator, DW_AT_name("SYSCTL_PERIPH_PRESENT_EPWM3"), DW_AT_const_value(0x202
    2300              $C$DW$263       .dwtag  DW_TAG_enumerator, DW_AT_name("SYSCTL_PERIPH_PRESENT_EPWM4"), DW_AT_const_value(0x302
    2301              $C$DW$264       .dwtag  DW_TAG_enumerator, DW_AT_name("SYSCTL_PERIPH_PRESENT_EPWM5"), DW_AT_const_value(0x402
    2302              $C$DW$265       .dwtag  DW_TAG_enumerator, DW_AT_name("SYSCTL_PERIPH_PRESENT_EPWM6"), DW_AT_const_value(0x502
    2303              $C$DW$266       .dwtag  DW_TAG_enumerator, DW_AT_name("SYSCTL_PERIPH_PRESENT_EPWM7"), DW_AT_const_value(0x602
    2304              $C$DW$267       .dwtag  DW_TAG_enumerator, DW_AT_name("SYSCTL_PERIPH_PRESENT_EPWM8"), DW_AT_const_value(0x702
    2305              $C$DW$268       .dwtag  DW_TAG_enumerator, DW_AT_name("SYSCTL_PERIPH_PRESENT_ECAP1"), DW_AT_const_value(0x03)
    2306              $C$DW$269       .dwtag  DW_TAG_enumerator, DW_AT_name("SYSCTL_PERIPH_PRESENT_ECAP2"), DW_AT_const_value(0x103
    2307              $C$DW$270       .dwtag  DW_TAG_enumerator, DW_AT_name("SYSCTL_PERIPH_PRESENT_ECAP3"), DW_AT_const_value(0x203
    2308              $C$DW$271       .dwtag  DW_TAG_enumerator, DW_AT_name("SYSCTL_PERIPH_PRESENT_ECAP4"), DW_AT_const_value(0x303
    2309              $C$DW$272       .dwtag  DW_TAG_enumerator, DW_AT_name("SYSCTL_PERIPH_PRESENT_ECAP5"), DW_AT_const_value(0x403
    2310              $C$DW$273       .dwtag  DW_TAG_enumerator, DW_AT_name("SYSCTL_PERIPH_PRESENT_ECAP6"), DW_AT_const_value(0x503
    2311              $C$DW$274       .dwtag  DW_TAG_enumerator, DW_AT_name("SYSCTL_PERIPH_PRESENT_ECAP7"), DW_AT_const_value(0x603
    2312              $C$DW$275       .dwtag  DW_TAG_enumerator, DW_AT_name("SYSCTL_PERIPH_PRESENT_EQEP1"), DW_AT_const_value(0x04)
    2313              $C$DW$276       .dwtag  DW_TAG_enumerator, DW_AT_name("SYSCTL_PERIPH_PRESENT_EQEP2"), DW_AT_const_value(0x104
    2314              $C$DW$277       .dwtag  DW_TAG_enumerator, DW_AT_name("SYSCTL_PERIPH_PRESENT_SD1"), DW_AT_const_value(0x06)
    2315              $C$DW$278       .dwtag  DW_TAG_enumerator, DW_AT_name("SYSCTL_PERIPH_PRESENT_SCIA"), DW_AT_const_value(0x07)
    2316              $C$DW$279       .dwtag  DW_TAG_enumerator, DW_AT_name("SYSCTL_PERIPH_PRESENT_SCIB"), DW_AT_const_value(0x107)
    2317              $C$DW$280       .dwtag  DW_TAG_enumerator, DW_AT_name("SYSCTL_PERIPH_PRESENT_SPIA"), DW_AT_const_value(0x08)
    2318              $C$DW$281       .dwtag  DW_TAG_enumerator, DW_AT_name("SYSCTL_PERIPH_PRESENT_SPIB"), DW_AT_const_value(0x108)
    2319              $C$DW$282       .dwtag  DW_TAG_enumerator, DW_AT_name("SYSCTL_PERIPH_PRESENT_I2CA"), DW_AT_const_value(0x09)
TMS320C2000 Assembler PC v6.4.4 Tue Feb 14 14:42:35 2017

Tools Copyright (c) 1996-2015 Texas Instruments Incorporated
C:\Users\a0221343\AppData\Local\Temp\0495210                         PAGE   46

    2320              $C$DW$283       .dwtag  DW_TAG_enumerator, DW_AT_name("SYSCTL_PERIPH_PRESENT_CANA"), DW_AT_const_value(0x0a)
    2321              $C$DW$284       .dwtag  DW_TAG_enumerator, DW_AT_name("SYSCTL_PERIPH_PRESENT_CANB"), DW_AT_const_value(0x10a)
    2322              $C$DW$285       .dwtag  DW_TAG_enumerator, DW_AT_name("SYSCTL_PERIPH_PRESENT_ADCA"), DW_AT_const_value(0x0d)
    2323              $C$DW$286       .dwtag  DW_TAG_enumerator, DW_AT_name("SYSCTL_PERIPH_PRESENT_ADCB"), DW_AT_const_value(0x10d)
    2324              $C$DW$287       .dwtag  DW_TAG_enumerator, DW_AT_name("SYSCTL_PERIPH_PRESENT_ADCC"), DW_AT_const_value(0x20d)
    2325              $C$DW$288       .dwtag  DW_TAG_enumerator, DW_AT_name("SYSCTL_PERIPH_PRESENT_CMPSS1"), DW_AT_const_value(0x0e
    2326              $C$DW$289       .dwtag  DW_TAG_enumerator, DW_AT_name("SYSCTL_PERIPH_PRESENT_CMPSS2"), DW_AT_const_value(0x10
    2327              $C$DW$290       .dwtag  DW_TAG_enumerator, DW_AT_name("SYSCTL_PERIPH_PRESENT_CMPSS3"), DW_AT_const_value(0x20
    2328              $C$DW$291       .dwtag  DW_TAG_enumerator, DW_AT_name("SYSCTL_PERIPH_PRESENT_CMPSS4"), DW_AT_const_value(0x30
    2329              $C$DW$292       .dwtag  DW_TAG_enumerator, DW_AT_name("SYSCTL_PERIPH_PRESENT_CMPSS5"), DW_AT_const_value(0x40
    2330              $C$DW$293       .dwtag  DW_TAG_enumerator, DW_AT_name("SYSCTL_PERIPH_PRESENT_CMPSS6"), DW_AT_const_value(0x50
    2331              $C$DW$294       .dwtag  DW_TAG_enumerator, DW_AT_name("SYSCTL_PERIPH_PRESENT_CMPSS7"), DW_AT_const_value(0x60
    2332              $C$DW$295       .dwtag  DW_TAG_enumerator, DW_AT_name("SYSCTL_PERIPH_PRESENT_PGA1"), DW_AT_const_value(0x0f)
    2333              $C$DW$296       .dwtag  DW_TAG_enumerator, DW_AT_name("SYSCTL_PERIPH_PRESENT_PGA2"), DW_AT_const_value(0x10f)
    2334              $C$DW$297       .dwtag  DW_TAG_enumerator, DW_AT_name("SYSCTL_PERIPH_PRESENT_PGA3"), DW_AT_const_value(0x20f)
    2335              $C$DW$298       .dwtag  DW_TAG_enumerator, DW_AT_name("SYSCTL_PERIPH_PRESENT_PGA4"), DW_AT_const_value(0x30f)
    2336              $C$DW$299       .dwtag  DW_TAG_enumerator, DW_AT_name("SYSCTL_PERIPH_PRESENT_PGA5"), DW_AT_const_value(0x40f)
    2337              $C$DW$300       .dwtag  DW_TAG_enumerator, DW_AT_name("SYSCTL_PERIPH_PRESENT_PGA6"), DW_AT_const_value(0x50f)
    2338              $C$DW$301       .dwtag  DW_TAG_enumerator, DW_AT_name("SYSCTL_PERIPH_PRESENT_PGA7"), DW_AT_const_value(0x60f)
    2339              $C$DW$302       .dwtag  DW_TAG_enumerator, DW_AT_name("SYSCTL_PERIPH_PRESENT_DACA"), DW_AT_const_value(0x1010
    2340              $C$DW$303       .dwtag  DW_TAG_enumerator, DW_AT_name("SYSCTL_PERIPH_PRESENT_DACB"), DW_AT_const_value(0x1110
    2341              $C$DW$304       .dwtag  DW_TAG_enumerator, DW_AT_name("SYSCTL_PERIPH_PRESENT_LS0_1"), DW_AT_const_value(0x11)
    2342              $C$DW$305       .dwtag  DW_TAG_enumerator, DW_AT_name("SYSCTL_PERIPH_PRESENT_LS1_1"), DW_AT_const_value(0x111
    2343              $C$DW$306       .dwtag  DW_TAG_enumerator, DW_AT_name("SYSCTL_PERIPH_PRESENT_LS2_1"), DW_AT_const_value(0x211
    2344              $C$DW$307       .dwtag  DW_TAG_enumerator, DW_AT_name("SYSCTL_PERIPH_PRESENT_LS3_1"), DW_AT_const_value(0x311
    2345              $C$DW$308       .dwtag  DW_TAG_enumerator, DW_AT_name("SYSCTL_PERIPH_PRESENT_LS4_1"), DW_AT_const_value(0x411
    2346              $C$DW$309       .dwtag  DW_TAG_enumerator, DW_AT_name("SYSCTL_PERIPH_PRESENT_LS5_1"), DW_AT_const_value(0x511
    2347              $C$DW$310       .dwtag  DW_TAG_enumerator, DW_AT_name("SYSCTL_PERIPH_PRESENT_LS6_1"), DW_AT_const_value(0x611
    2348              $C$DW$311       .dwtag  DW_TAG_enumerator, DW_AT_name("SYSCTL_PERIPH_PRESENT_LS7_1"), DW_AT_const_value(0x711
    2349              $C$DW$312       .dwtag  DW_TAG_enumerator, DW_AT_name("SYSCTL_PERIPH_PRESENT_LS0_2"), DW_AT_const_value(0x12)
    2350              $C$DW$313       .dwtag  DW_TAG_enumerator, DW_AT_name("SYSCTL_PERIPH_PRESENT_LS1_2"), DW_AT_const_value(0x112
    2351              $C$DW$314       .dwtag  DW_TAG_enumerator, DW_AT_name("SYSCTL_PERIPH_PRESENT_LS2_2"), DW_AT_const_value(0x212
    2352              $C$DW$315       .dwtag  DW_TAG_enumerator, DW_AT_name("SYSCTL_PERIPH_PRESENT_LS3_2"), DW_AT_const_value(0x312
    2353              $C$DW$316       .dwtag  DW_TAG_enumerator, DW_AT_name("SYSCTL_PERIPH_PRESENT_LS4_2"), DW_AT_const_value(0x412
    2354              $C$DW$317       .dwtag  DW_TAG_enumerator, DW_AT_name("SYSCTL_PERIPH_PRESENT_LS5_2"), DW_AT_const_value(0x512
    2355              $C$DW$318       .dwtag  DW_TAG_enumerator, DW_AT_name("SYSCTL_PERIPH_PRESENT_GS0"), DW_AT_const_value(0x13)
    2356              $C$DW$319       .dwtag  DW_TAG_enumerator, DW_AT_name("SYSCTL_PERIPH_PRESENT_GS1"), DW_AT_const_value(0x113)
    2357              $C$DW$320       .dwtag  DW_TAG_enumerator, DW_AT_name("SYSCTL_PERIPH_PRESENT_GS2"), DW_AT_const_value(0x213)
    2358              $C$DW$321       .dwtag  DW_TAG_enumerator, DW_AT_name("SYSCTL_PERIPH_PRESENT_GS3"), DW_AT_const_value(0x313)
    2359              $C$DW$322       .dwtag  DW_TAG_enumerator, DW_AT_name("SYSCTL_PERIPH_PRESENT_CLB1"), DW_AT_const_value(0x14)
    2360              $C$DW$323       .dwtag  DW_TAG_enumerator, DW_AT_name("SYSCTL_PERIPH_PRESENT_CLB2"), DW_AT_const_value(0x114)
    2361              $C$DW$324       .dwtag  DW_TAG_enumerator, DW_AT_name("SYSCTL_PERIPH_PRESENT_CLB3"), DW_AT_const_value(0x214)
    2362              $C$DW$325       .dwtag  DW_TAG_enumerator, DW_AT_name("SYSCTL_PERIPH_PRESENT_CLB4"), DW_AT_const_value(0x314)
    2363              $C$DW$326       .dwtag  DW_TAG_enumerator, DW_AT_name("SYSCTL_PERIPH_PRESENT_FSITXA"), DW_AT_const_value(0x15
    2364              $C$DW$327       .dwtag  DW_TAG_enumerator, DW_AT_name("SYSCTL_PERIPH_PRESENT_FSIRXA"), DW_AT_const_value(0x11
    2365              $C$DW$328       .dwtag  DW_TAG_enumerator, DW_AT_name("SYSCTL_PERIPH_PRESENT_LINA"), DW_AT_const_value(0x16)
    2366              $C$DW$329       .dwtag  DW_TAG_enumerator, DW_AT_name("SYSCTL_PERIPH_PRESENT_PMBUSA"), DW_AT_const_value(0x17
    2367              $C$DW$330       .dwtag  DW_TAG_enumerator, DW_AT_name("SYSCTL_PERIPH_PRESENT_DCCA"), DW_AT_const_value(0x18)
    2368                      .dwendtag $C$DW$T$21
    2369              
    2370              $C$DW$T$22      .dwtag  DW_TAG_typedef, DW_AT_name("SysCtl_PeripheralDC")
    2371                      .dwattr $C$DW$T$22, DW_AT_type(*$C$DW$T$21)
    2372                      .dwattr $C$DW$T$22, DW_AT_language(DW_LANG_C)
    2373              
    2374              $C$DW$T$23      .dwtag  DW_TAG_enumeration_type
TMS320C2000 Assembler PC v6.4.4 Tue Feb 14 14:42:35 2017

Tools Copyright (c) 1996-2015 Texas Instruments Incorporated
C:\Users\a0221343\AppData\Local\Temp\0495210                         PAGE   47

    2375                      .dwattr $C$DW$T$23, DW_AT_byte_size(0x01)
    2376              $C$DW$331       .dwtag  DW_TAG_enumerator, DW_AT_name("SYSCTL_LSPCLK_PRESCALE_1"), DW_AT_const_value(0x00)
    2377              $C$DW$332       .dwtag  DW_TAG_enumerator, DW_AT_name("SYSCTL_LSPCLK_PRESCALE_2"), DW_AT_const_value(0x01)
    2378              $C$DW$333       .dwtag  DW_TAG_enumerator, DW_AT_name("SYSCTL_LSPCLK_PRESCALE_4"), DW_AT_const_value(0x02)
    2379              $C$DW$334       .dwtag  DW_TAG_enumerator, DW_AT_name("SYSCTL_LSPCLK_PRESCALE_6"), DW_AT_const_value(0x03)
    2380              $C$DW$335       .dwtag  DW_TAG_enumerator, DW_AT_name("SYSCTL_LSPCLK_PRESCALE_8"), DW_AT_const_value(0x04)
    2381              $C$DW$336       .dwtag  DW_TAG_enumerator, DW_AT_name("SYSCTL_LSPCLK_PRESCALE_10"), DW_AT_const_value(0x05)
    2382              $C$DW$337       .dwtag  DW_TAG_enumerator, DW_AT_name("SYSCTL_LSPCLK_PRESCALE_12"), DW_AT_const_value(0x06)
    2383              $C$DW$338       .dwtag  DW_TAG_enumerator, DW_AT_name("SYSCTL_LSPCLK_PRESCALE_14"), DW_AT_const_value(0x07)
    2384                      .dwendtag $C$DW$T$23
    2385              
    2386              $C$DW$T$24      .dwtag  DW_TAG_typedef, DW_AT_name("SysCtl_LSPCLKPrescaler")
    2387                      .dwattr $C$DW$T$24, DW_AT_type(*$C$DW$T$23)
    2388                      .dwattr $C$DW$T$24, DW_AT_language(DW_LANG_C)
    2389              
    2390              $C$DW$T$25      .dwtag  DW_TAG_enumeration_type
    2391                      .dwattr $C$DW$T$25, DW_AT_byte_size(0x01)
    2392              $C$DW$339       .dwtag  DW_TAG_enumerator, DW_AT_name("GPIO_PORT_A"), DW_AT_const_value(0x00)
    2393              $C$DW$340       .dwtag  DW_TAG_enumerator, DW_AT_name("GPIO_PORT_B"), DW_AT_const_value(0x01)
    2394              $C$DW$341       .dwtag  DW_TAG_enumerator, DW_AT_name("GPIO_PORT_H"), DW_AT_const_value(0x07)
    2395                      .dwendtag $C$DW$T$25
    2396              
    2397              $C$DW$T$26      .dwtag  DW_TAG_typedef, DW_AT_name("GPIO_Port")
    2398                      .dwattr $C$DW$T$26, DW_AT_type(*$C$DW$T$25)
    2399                      .dwattr $C$DW$T$26, DW_AT_language(DW_LANG_C)
    2400              
    2401              $C$DW$T$27      .dwtag  DW_TAG_enumeration_type
    2402                      .dwattr $C$DW$T$27, DW_AT_byte_size(0x01)
    2403              $C$DW$342       .dwtag  DW_TAG_enumerator, DW_AT_name("GPIO_DIR_MODE_IN"), DW_AT_const_value(0x00)
    2404              $C$DW$343       .dwtag  DW_TAG_enumerator, DW_AT_name("GPIO_DIR_MODE_OUT"), DW_AT_const_value(0x01)
    2405                      .dwendtag $C$DW$T$27
    2406              
    2407              $C$DW$T$28      .dwtag  DW_TAG_typedef, DW_AT_name("GPIO_Direction")
    2408                      .dwattr $C$DW$T$28, DW_AT_type(*$C$DW$T$27)
    2409                      .dwattr $C$DW$T$28, DW_AT_language(DW_LANG_C)
    2410              
    2411              $C$DW$T$29      .dwtag  DW_TAG_enumeration_type
    2412                      .dwattr $C$DW$T$29, DW_AT_byte_size(0x01)
    2413              $C$DW$344       .dwtag  DW_TAG_enumerator, DW_AT_name("GPIO_QUAL_SYNC"), DW_AT_const_value(0x00)
    2414              $C$DW$345       .dwtag  DW_TAG_enumerator, DW_AT_name("GPIO_QUAL_3SAMPLE"), DW_AT_const_value(0x01)
    2415              $C$DW$346       .dwtag  DW_TAG_enumerator, DW_AT_name("GPIO_QUAL_6SAMPLE"), DW_AT_const_value(0x02)
    2416              $C$DW$347       .dwtag  DW_TAG_enumerator, DW_AT_name("GPIO_QUAL_ASYNC"), DW_AT_const_value(0x03)
    2417                      .dwendtag $C$DW$T$29
    2418              
    2419              $C$DW$T$30      .dwtag  DW_TAG_typedef, DW_AT_name("GPIO_QualificationMode")
    2420                      .dwattr $C$DW$T$30, DW_AT_type(*$C$DW$T$29)
    2421                      .dwattr $C$DW$T$30, DW_AT_language(DW_LANG_C)
    2422              
    2423              $C$DW$T$31      .dwtag  DW_TAG_enumeration_type
    2424                      .dwattr $C$DW$T$31, DW_AT_byte_size(0x01)
    2425              $C$DW$348       .dwtag  DW_TAG_enumerator, DW_AT_name("SPI_PROT_POL0PHA0"), DW_AT_const_value(0x00)
    2426              $C$DW$349       .dwtag  DW_TAG_enumerator, DW_AT_name("SPI_PROT_POL0PHA1"), DW_AT_const_value(0x02)
    2427              $C$DW$350       .dwtag  DW_TAG_enumerator, DW_AT_name("SPI_PROT_POL1PHA0"), DW_AT_const_value(0x01)
    2428              $C$DW$351       .dwtag  DW_TAG_enumerator, DW_AT_name("SPI_PROT_POL1PHA1"), DW_AT_const_value(0x03)
    2429                      .dwendtag $C$DW$T$31
TMS320C2000 Assembler PC v6.4.4 Tue Feb 14 14:42:35 2017

Tools Copyright (c) 1996-2015 Texas Instruments Incorporated
C:\Users\a0221343\AppData\Local\Temp\0495210                         PAGE   48

    2430              
    2431              $C$DW$T$32      .dwtag  DW_TAG_typedef, DW_AT_name("SPI_TransferProtocol")
    2432                      .dwattr $C$DW$T$32, DW_AT_type(*$C$DW$T$31)
    2433                      .dwattr $C$DW$T$32, DW_AT_language(DW_LANG_C)
    2434              
    2435              $C$DW$T$33      .dwtag  DW_TAG_enumeration_type
    2436                      .dwattr $C$DW$T$33, DW_AT_byte_size(0x01)
    2437              $C$DW$352       .dwtag  DW_TAG_enumerator, DW_AT_name("SPI_MODE_SLAVE"), DW_AT_const_value(0x02)
    2438              $C$DW$353       .dwtag  DW_TAG_enumerator, DW_AT_name("SPI_MODE_MASTER"), DW_AT_const_value(0x06)
    2439              $C$DW$354       .dwtag  DW_TAG_enumerator, DW_AT_name("SPI_MODE_SLAVE_OD"), DW_AT_const_value(0x00)
    2440              $C$DW$355       .dwtag  DW_TAG_enumerator, DW_AT_name("SPI_MODE_MASTER_OD"), DW_AT_const_value(0x04)
    2441                      .dwendtag $C$DW$T$33
    2442              
    2443              $C$DW$T$34      .dwtag  DW_TAG_typedef, DW_AT_name("SPI_Mode")
    2444                      .dwattr $C$DW$T$34, DW_AT_type(*$C$DW$T$33)
    2445                      .dwattr $C$DW$T$34, DW_AT_language(DW_LANG_C)
    2446              $C$DW$T$2       .dwtag  DW_TAG_unspecified_type
    2447                      .dwattr $C$DW$T$2, DW_AT_name("void")
    2448              $C$DW$T$4       .dwtag  DW_TAG_base_type
    2449                      .dwattr $C$DW$T$4, DW_AT_encoding(DW_ATE_boolean)
    2450                      .dwattr $C$DW$T$4, DW_AT_name("bool")
    2451                      .dwattr $C$DW$T$4, DW_AT_byte_size(0x01)
    2452              $C$DW$T$5       .dwtag  DW_TAG_base_type
    2453                      .dwattr $C$DW$T$5, DW_AT_encoding(DW_ATE_signed_char)
    2454                      .dwattr $C$DW$T$5, DW_AT_name("signed char")
    2455                      .dwattr $C$DW$T$5, DW_AT_byte_size(0x01)
    2456              $C$DW$T$6       .dwtag  DW_TAG_base_type
    2457                      .dwattr $C$DW$T$6, DW_AT_encoding(DW_ATE_unsigned_char)
    2458                      .dwattr $C$DW$T$6, DW_AT_name("unsigned char")
    2459                      .dwattr $C$DW$T$6, DW_AT_byte_size(0x01)
    2460              $C$DW$T$7       .dwtag  DW_TAG_base_type
    2461                      .dwattr $C$DW$T$7, DW_AT_encoding(DW_ATE_signed_char)
    2462                      .dwattr $C$DW$T$7, DW_AT_name("wchar_t")
    2463                      .dwattr $C$DW$T$7, DW_AT_byte_size(0x01)
    2464              $C$DW$T$8       .dwtag  DW_TAG_base_type
    2465                      .dwattr $C$DW$T$8, DW_AT_encoding(DW_ATE_signed)
    2466                      .dwattr $C$DW$T$8, DW_AT_name("short")
    2467                      .dwattr $C$DW$T$8, DW_AT_byte_size(0x01)
    2468              $C$DW$T$9       .dwtag  DW_TAG_base_type
    2469                      .dwattr $C$DW$T$9, DW_AT_encoding(DW_ATE_unsigned)
    2470                      .dwattr $C$DW$T$9, DW_AT_name("unsigned short")
    2471                      .dwattr $C$DW$T$9, DW_AT_byte_size(0x01)
    2472              $C$DW$T$10      .dwtag  DW_TAG_base_type
    2473                      .dwattr $C$DW$T$10, DW_AT_encoding(DW_ATE_signed)
    2474                      .dwattr $C$DW$T$10, DW_AT_name("int")
    2475                      .dwattr $C$DW$T$10, DW_AT_byte_size(0x01)
    2476              $C$DW$T$11      .dwtag  DW_TAG_base_type
    2477                      .dwattr $C$DW$T$11, DW_AT_encoding(DW_ATE_unsigned)
    2478                      .dwattr $C$DW$T$11, DW_AT_name("unsigned int")
    2479                      .dwattr $C$DW$T$11, DW_AT_byte_size(0x01)
    2480              $C$DW$T$50      .dwtag  DW_TAG_typedef, DW_AT_name("uint16_t")
    2481                      .dwattr $C$DW$T$50, DW_AT_type(*$C$DW$T$11)
    2482                      .dwattr $C$DW$T$50, DW_AT_language(DW_LANG_C)
    2483              
    2484              $C$DW$T$63      .dwtag  DW_TAG_subroutine_type
TMS320C2000 Assembler PC v6.4.4 Tue Feb 14 14:42:35 2017

Tools Copyright (c) 1996-2015 Texas Instruments Incorporated
C:\Users\a0221343\AppData\Local\Temp\0495210                         PAGE   49

    2485                      .dwattr $C$DW$T$63, DW_AT_type(*$C$DW$T$50)
    2486                      .dwattr $C$DW$T$63, DW_AT_language(DW_LANG_C)
    2487              $C$DW$T$64      .dwtag  DW_TAG_pointer_type
    2488                      .dwattr $C$DW$T$64, DW_AT_type(*$C$DW$T$63)
    2489                      .dwattr $C$DW$T$64, DW_AT_address_class(0x20)
    2490              $C$DW$T$65      .dwtag  DW_TAG_typedef, DW_AT_name("uint16fptr")
    2491                      .dwattr $C$DW$T$65, DW_AT_type(*$C$DW$T$64)
    2492                      .dwattr $C$DW$T$65, DW_AT_language(DW_LANG_C)
    2493              $C$DW$T$12      .dwtag  DW_TAG_base_type
    2494                      .dwattr $C$DW$T$12, DW_AT_encoding(DW_ATE_signed)
    2495                      .dwattr $C$DW$T$12, DW_AT_name("long")
    2496                      .dwattr $C$DW$T$12, DW_AT_byte_size(0x02)
    2497              $C$DW$T$13      .dwtag  DW_TAG_base_type
    2498                      .dwattr $C$DW$T$13, DW_AT_encoding(DW_ATE_unsigned)
    2499                      .dwattr $C$DW$T$13, DW_AT_name("unsigned long")
    2500                      .dwattr $C$DW$T$13, DW_AT_byte_size(0x02)
    2501              $C$DW$T$39      .dwtag  DW_TAG_typedef, DW_AT_name("uint32_t")
    2502                      .dwattr $C$DW$T$39, DW_AT_type(*$C$DW$T$13)
    2503                      .dwattr $C$DW$T$39, DW_AT_language(DW_LANG_C)
    2504              $C$DW$T$72      .dwtag  DW_TAG_pointer_type
    2505                      .dwattr $C$DW$T$72, DW_AT_type(*$C$DW$T$39)
    2506                      .dwattr $C$DW$T$72, DW_AT_address_class(0x20)
    2507              $C$DW$T$14      .dwtag  DW_TAG_base_type
    2508                      .dwattr $C$DW$T$14, DW_AT_encoding(DW_ATE_signed)
    2509                      .dwattr $C$DW$T$14, DW_AT_name("long long")
    2510                      .dwattr $C$DW$T$14, DW_AT_byte_size(0x04)
    2511              $C$DW$T$15      .dwtag  DW_TAG_base_type
    2512                      .dwattr $C$DW$T$15, DW_AT_encoding(DW_ATE_unsigned)
    2513                      .dwattr $C$DW$T$15, DW_AT_name("unsigned long long")
    2514                      .dwattr $C$DW$T$15, DW_AT_byte_size(0x04)
    2515              $C$DW$T$16      .dwtag  DW_TAG_base_type
    2516                      .dwattr $C$DW$T$16, DW_AT_encoding(DW_ATE_float)
    2517                      .dwattr $C$DW$T$16, DW_AT_name("float")
    2518                      .dwattr $C$DW$T$16, DW_AT_byte_size(0x02)
    2519              $C$DW$T$17      .dwtag  DW_TAG_base_type
    2520                      .dwattr $C$DW$T$17, DW_AT_encoding(DW_ATE_float)
    2521                      .dwattr $C$DW$T$17, DW_AT_name("double")
    2522                      .dwattr $C$DW$T$17, DW_AT_byte_size(0x02)
    2523              $C$DW$T$18      .dwtag  DW_TAG_base_type
    2524                      .dwattr $C$DW$T$18, DW_AT_encoding(DW_ATE_float)
    2525                      .dwattr $C$DW$T$18, DW_AT_name("long double")
    2526                      .dwattr $C$DW$T$18, DW_AT_byte_size(0x04)
    2527              $C$DW$T$75      .dwtag  DW_TAG_base_type
    2528                      .dwattr $C$DW$T$75, DW_AT_encoding(DW_ATE_unsigned_char)
    2529                      .dwattr $C$DW$T$75, DW_AT_name("unsigned char")
    2530                      .dwattr $C$DW$T$75, DW_AT_byte_size(0x01)
    2531                      .dwattr $C$DW$CU, DW_AT_language(DW_LANG_C)
    2532              
    2533              ;***************************************************************
    2534              ;* DWARF CIE ENTRIES                                           *
    2535              ;***************************************************************
    2536              
    2537              $C$DW$CIE       .dwcie 26
    2538                      .dwcfi  cfa_register, 20
    2539                      .dwcfi  cfa_offset, 0
TMS320C2000 Assembler PC v6.4.4 Tue Feb 14 14:42:35 2017

Tools Copyright (c) 1996-2015 Texas Instruments Incorporated
C:\Users\a0221343\AppData\Local\Temp\0495210                         PAGE   50

    2540                      .dwcfi  undefined, 0
    2541                      .dwcfi  undefined, 1
    2542                      .dwcfi  undefined, 2
    2543                      .dwcfi  undefined, 3
    2544                      .dwcfi  undefined, 20
    2545                      .dwcfi  undefined, 21
    2546                      .dwcfi  undefined, 22
    2547                      .dwcfi  undefined, 23
    2548                      .dwcfi  undefined, 24
    2549                      .dwcfi  undefined, 25
    2550                      .dwcfi  undefined, 26
    2551                      .dwcfi  same_value, 28
    2552                      .dwcfi  undefined, 29
    2553                      .dwcfi  undefined, 30
    2554                      .dwcfi  undefined, 31
    2555                      .dwcfi  undefined, 32
    2556                      .dwcfi  undefined, 33
    2557                      .dwcfi  undefined, 34
    2558                      .dwcfi  undefined, 35
    2559                      .dwcfi  undefined, 36
    2560                      .dwcfi  undefined, 37
    2561                      .dwcfi  undefined, 38
    2562                      .dwcfi  undefined, 75
    2563                      .dwcfi  undefined, 76
    2564                      .dwcfi  undefined, 77
    2565                      .dwcfi  undefined, 4
    2566                      .dwcfi  undefined, 5
    2567                      .dwcfi  same_value, 6
    2568                      .dwcfi  same_value, 7
    2569                      .dwcfi  same_value, 8
    2570                      .dwcfi  same_value, 9
    2571                      .dwcfi  same_value, 10
    2572                      .dwcfi  same_value, 11
    2573                      .dwcfi  undefined, 12
    2574                      .dwcfi  undefined, 13
    2575                      .dwcfi  undefined, 14
    2576                      .dwcfi  undefined, 15
    2577                      .dwcfi  undefined, 16
    2578                      .dwcfi  undefined, 17
    2579                      .dwcfi  undefined, 18
    2580                      .dwcfi  undefined, 19
    2581                      .dwcfi  undefined, 43
    2582                      .dwcfi  undefined, 44
    2583                      .dwcfi  undefined, 47
    2584                      .dwcfi  undefined, 48
    2585                      .dwcfi  undefined, 51
    2586                      .dwcfi  undefined, 52
    2587                      .dwcfi  undefined, 55
    2588                      .dwcfi  undefined, 56
    2589                      .dwcfi  same_value, 59
    2590                      .dwcfi  same_value, 60
    2591                      .dwcfi  same_value, 63
    2592                      .dwcfi  same_value, 64
    2593                      .dwcfi  same_value, 67
    2594                      .dwcfi  same_value, 68
TMS320C2000 Assembler PC v6.4.4 Tue Feb 14 14:42:35 2017

Tools Copyright (c) 1996-2015 Texas Instruments Incorporated
C:\Users\a0221343\AppData\Local\Temp\0495210                         PAGE   51

    2595                      .dwcfi  same_value, 71
    2596                      .dwcfi  same_value, 72
    2597                      .dwcfi  undefined, 73
    2598                      .dwcfi  undefined, 74
    2599                      .dwcfi  undefined, 39
    2600                      .dwcfi  undefined, 40
    2601                      .dwcfi  undefined, 27
    2602                      .dwendentry
    2603              
    2604              ;***************************************************************
    2605              ;* DWARF REGISTER MAP                                          *
    2606              ;***************************************************************
    2607              
    2608              $C$DW$356       .dwtag  DW_TAG_TI_assign_register, DW_AT_name("AL")
    2609                      .dwattr $C$DW$356, DW_AT_location[DW_OP_reg0]
    2610              $C$DW$357       .dwtag  DW_TAG_TI_assign_register, DW_AT_name("AH")
    2611                      .dwattr $C$DW$357, DW_AT_location[DW_OP_reg1]
    2612              $C$DW$358       .dwtag  DW_TAG_TI_assign_register, DW_AT_name("PL")
    2613                      .dwattr $C$DW$358, DW_AT_location[DW_OP_reg2]
    2614              $C$DW$359       .dwtag  DW_TAG_TI_assign_register, DW_AT_name("PH")
    2615                      .dwattr $C$DW$359, DW_AT_location[DW_OP_reg3]
    2616              $C$DW$360       .dwtag  DW_TAG_TI_assign_register, DW_AT_name("SP")
    2617                      .dwattr $C$DW$360, DW_AT_location[DW_OP_reg20]
    2618              $C$DW$361       .dwtag  DW_TAG_TI_assign_register, DW_AT_name("XT")
    2619                      .dwattr $C$DW$361, DW_AT_location[DW_OP_reg21]
    2620              $C$DW$362       .dwtag  DW_TAG_TI_assign_register, DW_AT_name("T")
    2621                      .dwattr $C$DW$362, DW_AT_location[DW_OP_reg22]
    2622              $C$DW$363       .dwtag  DW_TAG_TI_assign_register, DW_AT_name("ST0")
    2623                      .dwattr $C$DW$363, DW_AT_location[DW_OP_reg23]
    2624              $C$DW$364       .dwtag  DW_TAG_TI_assign_register, DW_AT_name("ST1")
    2625                      .dwattr $C$DW$364, DW_AT_location[DW_OP_reg24]
    2626              $C$DW$365       .dwtag  DW_TAG_TI_assign_register, DW_AT_name("PC")
    2627                      .dwattr $C$DW$365, DW_AT_location[DW_OP_reg25]
    2628              $C$DW$366       .dwtag  DW_TAG_TI_assign_register, DW_AT_name("RPC")
    2629                      .dwattr $C$DW$366, DW_AT_location[DW_OP_reg26]
    2630              $C$DW$367       .dwtag  DW_TAG_TI_assign_register, DW_AT_name("FP")
    2631                      .dwattr $C$DW$367, DW_AT_location[DW_OP_reg28]
    2632              $C$DW$368       .dwtag  DW_TAG_TI_assign_register, DW_AT_name("DP")
    2633                      .dwattr $C$DW$368, DW_AT_location[DW_OP_reg29]
    2634              $C$DW$369       .dwtag  DW_TAG_TI_assign_register, DW_AT_name("SXM")
    2635                      .dwattr $C$DW$369, DW_AT_location[DW_OP_reg30]
    2636              $C$DW$370       .dwtag  DW_TAG_TI_assign_register, DW_AT_name("PM")
    2637                      .dwattr $C$DW$370, DW_AT_location[DW_OP_reg31]
    2638              $C$DW$371       .dwtag  DW_TAG_TI_assign_register, DW_AT_name("OVM")
    2639                      .dwattr $C$DW$371, DW_AT_location[DW_OP_regx 0x20]
    2640              $C$DW$372       .dwtag  DW_TAG_TI_assign_register, DW_AT_name("PAGE0")
    2641                      .dwattr $C$DW$372, DW_AT_location[DW_OP_regx 0x21]
    2642              $C$DW$373       .dwtag  DW_TAG_TI_assign_register, DW_AT_name("AMODE")
    2643                      .dwattr $C$DW$373, DW_AT_location[DW_OP_regx 0x22]
    2644              $C$DW$374       .dwtag  DW_TAG_TI_assign_register, DW_AT_name("INTM")
    2645                      .dwattr $C$DW$374, DW_AT_location[DW_OP_regx 0x23]
    2646              $C$DW$375       .dwtag  DW_TAG_TI_assign_register, DW_AT_name("IFR")
    2647                      .dwattr $C$DW$375, DW_AT_location[DW_OP_regx 0x24]
    2648              $C$DW$376       .dwtag  DW_TAG_TI_assign_register, DW_AT_name("IER")
    2649                      .dwattr $C$DW$376, DW_AT_location[DW_OP_regx 0x25]
TMS320C2000 Assembler PC v6.4.4 Tue Feb 14 14:42:35 2017

Tools Copyright (c) 1996-2015 Texas Instruments Incorporated
C:\Users\a0221343\AppData\Local\Temp\0495210                         PAGE   52

    2650              $C$DW$377       .dwtag  DW_TAG_TI_assign_register, DW_AT_name("V")
    2651                      .dwattr $C$DW$377, DW_AT_location[DW_OP_regx 0x26]
    2652              $C$DW$378       .dwtag  DW_TAG_TI_assign_register, DW_AT_name("PSEUDOH")
    2653                      .dwattr $C$DW$378, DW_AT_location[DW_OP_regx 0x4c]
    2654              $C$DW$379       .dwtag  DW_TAG_TI_assign_register, DW_AT_name("VOL")
    2655                      .dwattr $C$DW$379, DW_AT_location[DW_OP_regx 0x4d]
    2656              $C$DW$380       .dwtag  DW_TAG_TI_assign_register, DW_AT_name("AR0")
    2657                      .dwattr $C$DW$380, DW_AT_location[DW_OP_reg4]
    2658              $C$DW$381       .dwtag  DW_TAG_TI_assign_register, DW_AT_name("XAR0")
    2659                      .dwattr $C$DW$381, DW_AT_location[DW_OP_reg5]
    2660              $C$DW$382       .dwtag  DW_TAG_TI_assign_register, DW_AT_name("AR1")
    2661                      .dwattr $C$DW$382, DW_AT_location[DW_OP_reg6]
    2662              $C$DW$383       .dwtag  DW_TAG_TI_assign_register, DW_AT_name("XAR1")
    2663                      .dwattr $C$DW$383, DW_AT_location[DW_OP_reg7]
    2664              $C$DW$384       .dwtag  DW_TAG_TI_assign_register, DW_AT_name("AR2")
    2665                      .dwattr $C$DW$384, DW_AT_location[DW_OP_reg8]
    2666              $C$DW$385       .dwtag  DW_TAG_TI_assign_register, DW_AT_name("XAR2")
    2667                      .dwattr $C$DW$385, DW_AT_location[DW_OP_reg9]
    2668              $C$DW$386       .dwtag  DW_TAG_TI_assign_register, DW_AT_name("AR3")
    2669                      .dwattr $C$DW$386, DW_AT_location[DW_OP_reg10]
    2670              $C$DW$387       .dwtag  DW_TAG_TI_assign_register, DW_AT_name("XAR3")
    2671                      .dwattr $C$DW$387, DW_AT_location[DW_OP_reg11]
    2672              $C$DW$388       .dwtag  DW_TAG_TI_assign_register, DW_AT_name("AR4")
    2673                      .dwattr $C$DW$388, DW_AT_location[DW_OP_reg12]
    2674              $C$DW$389       .dwtag  DW_TAG_TI_assign_register, DW_AT_name("XAR4")
    2675                      .dwattr $C$DW$389, DW_AT_location[DW_OP_reg13]
    2676              $C$DW$390       .dwtag  DW_TAG_TI_assign_register, DW_AT_name("AR5")
    2677                      .dwattr $C$DW$390, DW_AT_location[DW_OP_reg14]
    2678              $C$DW$391       .dwtag  DW_TAG_TI_assign_register, DW_AT_name("XAR5")
    2679                      .dwattr $C$DW$391, DW_AT_location[DW_OP_reg15]
    2680              $C$DW$392       .dwtag  DW_TAG_TI_assign_register, DW_AT_name("AR6")
    2681                      .dwattr $C$DW$392, DW_AT_location[DW_OP_reg16]
    2682              $C$DW$393       .dwtag  DW_TAG_TI_assign_register, DW_AT_name("XAR6")
    2683                      .dwattr $C$DW$393, DW_AT_location[DW_OP_reg17]
    2684              $C$DW$394       .dwtag  DW_TAG_TI_assign_register, DW_AT_name("AR7")
    2685                      .dwattr $C$DW$394, DW_AT_location[DW_OP_reg18]
    2686              $C$DW$395       .dwtag  DW_TAG_TI_assign_register, DW_AT_name("XAR7")
    2687                      .dwattr $C$DW$395, DW_AT_location[DW_OP_reg19]
    2688              $C$DW$396       .dwtag  DW_TAG_TI_assign_register, DW_AT_name("R0HL")
    2689                      .dwattr $C$DW$396, DW_AT_location[DW_OP_regx 0x2b]
    2690              $C$DW$397       .dwtag  DW_TAG_TI_assign_register, DW_AT_name("R0H")
    2691                      .dwattr $C$DW$397, DW_AT_location[DW_OP_regx 0x2c]
    2692              $C$DW$398       .dwtag  DW_TAG_TI_assign_register, DW_AT_name("R1HL")
    2693                      .dwattr $C$DW$398, DW_AT_location[DW_OP_regx 0x2f]
    2694              $C$DW$399       .dwtag  DW_TAG_TI_assign_register, DW_AT_name("R1H")
    2695                      .dwattr $C$DW$399, DW_AT_location[DW_OP_regx 0x30]
    2696              $C$DW$400       .dwtag  DW_TAG_TI_assign_register, DW_AT_name("R2HL")
    2697                      .dwattr $C$DW$400, DW_AT_location[DW_OP_regx 0x33]
    2698              $C$DW$401       .dwtag  DW_TAG_TI_assign_register, DW_AT_name("R2H")
    2699                      .dwattr $C$DW$401, DW_AT_location[DW_OP_regx 0x34]
    2700              $C$DW$402       .dwtag  DW_TAG_TI_assign_register, DW_AT_name("R3HL")
    2701                      .dwattr $C$DW$402, DW_AT_location[DW_OP_regx 0x37]
    2702              $C$DW$403       .dwtag  DW_TAG_TI_assign_register, DW_AT_name("R3H")
    2703                      .dwattr $C$DW$403, DW_AT_location[DW_OP_regx 0x38]
    2704              $C$DW$404       .dwtag  DW_TAG_TI_assign_register, DW_AT_name("R4HL")
TMS320C2000 Assembler PC v6.4.4 Tue Feb 14 14:42:35 2017

Tools Copyright (c) 1996-2015 Texas Instruments Incorporated
C:\Users\a0221343\AppData\Local\Temp\0495210                         PAGE   53

    2705                      .dwattr $C$DW$404, DW_AT_location[DW_OP_regx 0x3b]
    2706              $C$DW$405       .dwtag  DW_TAG_TI_assign_register, DW_AT_name("R4H")
    2707                      .dwattr $C$DW$405, DW_AT_location[DW_OP_regx 0x3c]
    2708              $C$DW$406       .dwtag  DW_TAG_TI_assign_register, DW_AT_name("R5HL")
    2709                      .dwattr $C$DW$406, DW_AT_location[DW_OP_regx 0x3f]
    2710              $C$DW$407       .dwtag  DW_TAG_TI_assign_register, DW_AT_name("R5H")
    2711                      .dwattr $C$DW$407, DW_AT_location[DW_OP_regx 0x40]
    2712              $C$DW$408       .dwtag  DW_TAG_TI_assign_register, DW_AT_name("R6HL")
    2713                      .dwattr $C$DW$408, DW_AT_location[DW_OP_regx 0x43]
    2714              $C$DW$409       .dwtag  DW_TAG_TI_assign_register, DW_AT_name("R6H")
    2715                      .dwattr $C$DW$409, DW_AT_location[DW_OP_regx 0x44]
    2716              $C$DW$410       .dwtag  DW_TAG_TI_assign_register, DW_AT_name("R7HL")
    2717                      .dwattr $C$DW$410, DW_AT_location[DW_OP_regx 0x47]
    2718              $C$DW$411       .dwtag  DW_TAG_TI_assign_register, DW_AT_name("R7H")
    2719                      .dwattr $C$DW$411, DW_AT_location[DW_OP_regx 0x48]
    2720              $C$DW$412       .dwtag  DW_TAG_TI_assign_register, DW_AT_name("RBL")
    2721                      .dwattr $C$DW$412, DW_AT_location[DW_OP_regx 0x49]
    2722              $C$DW$413       .dwtag  DW_TAG_TI_assign_register, DW_AT_name("RB")
    2723                      .dwattr $C$DW$413, DW_AT_location[DW_OP_regx 0x4a]
    2724              $C$DW$414       .dwtag  DW_TAG_TI_assign_register, DW_AT_name("STFL")
    2725                      .dwattr $C$DW$414, DW_AT_location[DW_OP_regx 0x27]
    2726              $C$DW$415       .dwtag  DW_TAG_TI_assign_register, DW_AT_name("STF")
    2727                      .dwattr $C$DW$415, DW_AT_location[DW_OP_regx 0x28]
    2728              $C$DW$416       .dwtag  DW_TAG_TI_assign_register, DW_AT_name("FPUHAZ")
    2729                      .dwattr $C$DW$416, DW_AT_location[DW_OP_reg27]
    2730                      .dwendtag $C$DW$CU
    2731              

No Assembly Errors, No Assembly Warnings
