TMS320C2000 Assembler PC v6.4.4 Tue Feb 14 14:42:55 2017

Tools Copyright (c) 1996-2015 Texas Instruments Incorporated
C:\Users\a0221343\AppData\Local\Temp\0706410                         PAGE    1

       1              ;***************************************************************
       2              ;* TMS320C2000 C/C++ Codegen                         PC v6.4.4 *
       3              ;* Date/Time created: Tue Feb 14 14:42:54 2017                 *
       4              ;***************************************************************
       5                      .compiler_opts --cla_support=cla0 --float_support=fpu32 --hll_source=on --mem_model:code=flat --mem_m
       6        0002  FP      .set    XAR2
       7              
       8              $C$DW$CU        .dwtag  DW_TAG_compile_unit
       9                      .dwattr $C$DW$CU, DW_AT_name("C:/Users/a0221343/Git/bootROM/f28004x_bootrom/F28004x_ROM_dev_PG2.0/F28
      10                      .dwattr $C$DW$CU, DW_AT_producer("TI TMS320C2000 C/C++ Codegen PC v6.4.4 Copyright (c) 1996-2015 Texa
      11                      .dwattr $C$DW$CU, DW_AT_TI_version(0x01)
      12                      .dwattr $C$DW$CU, DW_AT_comp_dir("C:\Users\a0221343\Git\bootROM\f28004x_bootrom\F28004x_ROM_dev_PG2.0
      13              
      14              $C$DW$1 .dwtag  DW_TAG_subprogram, DW_AT_name("Interrupt_disable")
      15                      .dwattr $C$DW$1, DW_AT_TI_symbol_name("_Interrupt_disable")
      16                      .dwattr $C$DW$1, DW_AT_declaration
      17                      .dwattr $C$DW$1, DW_AT_external
      18              $C$DW$2 .dwtag  DW_TAG_formal_parameter
      19                      .dwattr $C$DW$2, DW_AT_type(*$C$DW$T$19)
      20                      .dwendtag $C$DW$1
      21              
      22              
      23              $C$DW$3 .dwtag  DW_TAG_subprogram, DW_AT_name("Interrupt_enable")
      24                      .dwattr $C$DW$3, DW_AT_TI_symbol_name("_Interrupt_enable")
      25                      .dwattr $C$DW$3, DW_AT_declaration
      26                      .dwattr $C$DW$3, DW_AT_external
      27              $C$DW$4 .dwtag  DW_TAG_formal_parameter
      28                      .dwattr $C$DW$4, DW_AT_type(*$C$DW$T$19)
      29                      .dwendtag $C$DW$3
      30              
      31              
      32              $C$DW$5 .dwtag  DW_TAG_subprogram, DW_AT_name("__byte")
      33                      .dwattr $C$DW$5, DW_AT_TI_symbol_name("___byte")
      34                      .dwattr $C$DW$5, DW_AT_type(*$C$DW$T$53)
      35                      .dwattr $C$DW$5, DW_AT_declaration
      36                      .dwattr $C$DW$5, DW_AT_external
      37              $C$DW$6 .dwtag  DW_TAG_formal_parameter
      38                      .dwattr $C$DW$6, DW_AT_type(*$C$DW$T$53)
      39              $C$DW$7 .dwtag  DW_TAG_formal_parameter
      40                      .dwattr $C$DW$7, DW_AT_type(*$C$DW$T$11)
      41                      .dwendtag $C$DW$5
      42              
      43 00000000               .sect   ".econst:_CAN_bitValues"
      44                      .clink
      45                      .align  1
      46 00000000       _CAN_bitValues:
      47 00000000 1100          .bits   4352,16                 ; _CAN_bitValues[0] @ 0
      48 00000001 1200          .bits   4608,16                 ; _CAN_bitValues[1] @ 16
      49 00000002 2240          .bits   8768,16                 ; _CAN_bitValues[2] @ 32
      50 00000003 2340          .bits   9024,16                 ; _CAN_bitValues[3] @ 48
      51 00000004 3340          .bits   13120,16                        ; _CAN_bitValues[4] @ 64
      52 00000005 3440          .bits   13376,16                        ; _CAN_bitValues[5] @ 80
      53 00000006 3540          .bits   13632,16                        ; _CAN_bitValues[6] @ 96
      54 00000007 3640          .bits   13888,16                        ; _CAN_bitValues[7] @ 112
      55 00000008 3740          .bits   14144,16                        ; _CAN_bitValues[8] @ 128
TMS320C2000 Assembler PC v6.4.4 Tue Feb 14 14:42:55 2017

Tools Copyright (c) 1996-2015 Texas Instruments Incorporated
C:\Users\a0221343\AppData\Local\Temp\0706410                         PAGE    2

      56              
      57              $C$DW$8 .dwtag  DW_TAG_variable, DW_AT_name("CAN_bitValues")
      58                      .dwattr $C$DW$8, DW_AT_TI_symbol_name("_CAN_bitValues")
      59                      .dwattr $C$DW$8, DW_AT_type(*$C$DW$T$56)
      60                      .dwattr $C$DW$8, DW_AT_location[DW_OP_addr _CAN_bitValues]
      61              ;       C:\ti\ccsv6\tools\compiler\ti-cgt-c2000_6.4.4\bin\ac2000.exe -@C:\\Users\\a0221343\\AppData\\Local\\T
      62 00000000               .sect   ".text:_Interrupt_defaultHandler"
      63                      .clink
      64              
      65              $C$DW$9 .dwtag  DW_TAG_subprogram, DW_AT_name("Interrupt_defaultHandler")
      66                      .dwattr $C$DW$9, DW_AT_low_pc(_Interrupt_defaultHandler)
      67                      .dwattr $C$DW$9, DW_AT_high_pc(0x00)
      68                      .dwattr $C$DW$9, DW_AT_TI_symbol_name("_Interrupt_defaultHandler")
      69                      .dwattr $C$DW$9, DW_AT_TI_begin_file("C:\Users\a0221343\Git\bootROM\f28004x_bootrom\F28004x_ROM_dev_P
      70                      .dwattr $C$DW$9, DW_AT_TI_begin_line(0x69)
      71                      .dwattr $C$DW$9, DW_AT_TI_begin_column(0x0d)
      72                      .dwattr $C$DW$9, DW_AT_TI_max_frame_size(-4)
      73                      .dwpsn  file "C:\Users\a0221343\Git\bootROM\f28004x_bootrom\F28004x_ROM_dev_PG2.0\F28004x_ROM\driverl
      74              
      75                      .dwfde $C$DW$CIE, _Interrupt_defaultHandler
      76              
      77              ;***************************************************************
      78              ;* FNAME: _Interrupt_defaultHandler     FR SIZE:   2           *
      79              ;*                                                             *
      80              ;* FUNCTION ENVIRONMENT                                        *
      81              ;*                                                             *
      82              ;* FUNCTION PROPERTIES                                         *
      83              ;*                            0 Parameter,  1 Auto,  0 SOE     *
      84              ;***************************************************************
      85              
      86 00000000       _Interrupt_defaultHandler:
      87                      .dwcfi  cfa_offset, -2
      88                      .dwcfi  save_reg_to_mem, 26, 0
      89 00000000 FE02          ADDB      SP,#2                 ; [CPU_U] 
      90                      .dwcfi  cfa_offset, -4
      91              $C$DW$10        .dwtag  DW_TAG_variable, DW_AT_name("vectID")
      92                      .dwattr $C$DW$10, DW_AT_TI_symbol_name("_vectID")
      93                      .dwattr $C$DW$10, DW_AT_type(*$C$DW$T$21)
      94                      .dwattr $C$DW$10, DW_AT_location[DW_OP_breg20 -1]
      95                      .dwpsn  file "C:\Users\a0221343\Git\bootROM\f28004x_bootrom\F28004x_ROM_dev_PG2.0\F28004x_ROM\driverl
      96 00000001 F5A9          MOV       AL,*(0:0x0ce0)        ; [CPU_] |111| 
         00000002 0CE0 
      97 00000003 90FE          ANDB      AL,#0xfe              ; [CPU_] |111| 
      98 00000004 FFC0          LSR       AL,1                  ; [CPU_] |111| 
      99 00000005 9641          MOV       *-SP[1],AL            ; [CPU_] |111| 
     100                      .dwpsn  file "C:\Users\a0221343\Git\bootROM\f28004x_bootrom\F28004x_ROM_dev_PG2.0\F28004x_ROM\driverl
     101                      .dwpsn  file "C:\Users\a0221343\Git\bootROM\f28004x_bootrom\F28004x_ROM_dev_PG2.0\F28004x_ROM\driverl
     102 00000006 7625   ESTOP0
     103 00000007       $C$L1:    
     104                      .dwpsn  file "C:\Users\a0221343\Git\bootROM\f28004x_bootrom\F28004x_ROM_dev_PG2.0\F28004x_ROM\driverl
     105 00000007 6F00          B         $C$L1,UNC             ; [CPU_] |120| 
     106                      ; branch occurs ; [] |120| 
     107                      .dwattr $C$DW$9, DW_AT_TI_end_file("C:\Users\a0221343\Git\bootROM\f28004x_bootrom\F28004x_ROM_dev_PG2
     108                      .dwattr $C$DW$9, DW_AT_TI_end_line(0x79)
     109                      .dwattr $C$DW$9, DW_AT_TI_end_column(0x01)
TMS320C2000 Assembler PC v6.4.4 Tue Feb 14 14:42:55 2017

Tools Copyright (c) 1996-2015 Texas Instruments Incorporated
C:\Users\a0221343\AppData\Local\Temp\0706410                         PAGE    3

     110                      .dwendentry
     111                      .dwendtag $C$DW$9
     112              
     113 00000000               .sect   ".text:_Interrupt_register"
     114                      .clink
     115              
     116              $C$DW$11        .dwtag  DW_TAG_subprogram, DW_AT_name("Interrupt_register")
     117                      .dwattr $C$DW$11, DW_AT_low_pc(_Interrupt_register)
     118                      .dwattr $C$DW$11, DW_AT_high_pc(0x00)
     119                      .dwattr $C$DW$11, DW_AT_TI_symbol_name("_Interrupt_register")
     120                      .dwattr $C$DW$11, DW_AT_TI_begin_file("C:\Users\a0221343\Git\bootROM\f28004x_bootrom\F28004x_ROM_dev_
     121                      .dwattr $C$DW$11, DW_AT_TI_begin_line(0xe6)
     122                      .dwattr $C$DW$11, DW_AT_TI_begin_column(0x01)
     123                      .dwattr $C$DW$11, DW_AT_TI_max_frame_size(-6)
     124                      .dwpsn  file "C:\Users\a0221343\Git\bootROM\f28004x_bootrom\F28004x_ROM_dev_PG2.0\F28004x_ROM\driverl
     125              
     126                      .dwfde $C$DW$CIE, _Interrupt_register
     127              $C$DW$12        .dwtag  DW_TAG_formal_parameter, DW_AT_name("interruptNumber")
     128                      .dwattr $C$DW$12, DW_AT_TI_symbol_name("_interruptNumber")
     129                      .dwattr $C$DW$12, DW_AT_type(*$C$DW$T$19)
     130                      .dwattr $C$DW$12, DW_AT_location[DW_OP_reg0]
     131              $C$DW$13        .dwtag  DW_TAG_formal_parameter, DW_AT_name("handler")
     132                      .dwattr $C$DW$13, DW_AT_TI_symbol_name("_handler")
     133                      .dwattr $C$DW$13, DW_AT_type(*$C$DW$T$35)
     134                      .dwattr $C$DW$13, DW_AT_location[DW_OP_reg12]
     135              
     136              ;***************************************************************
     137              ;* FNAME: _Interrupt_register           FR SIZE:   4           *
     138              ;*                                                             *
     139              ;* FUNCTION ENVIRONMENT                                        *
     140              ;*                                                             *
     141              ;* FUNCTION PROPERTIES                                         *
     142              ;*                            0 Parameter,  4 Auto,  0 SOE     *
     143              ;***************************************************************
     144              
     145 00000000       _Interrupt_register:
     146                      .dwcfi  cfa_offset, -2
     147                      .dwcfi  save_reg_to_mem, 26, 0
     148 00000000 FE04          ADDB      SP,#4                 ; [CPU_U] 
     149                      .dwcfi  cfa_offset, -6
     150              $C$DW$14        .dwtag  DW_TAG_variable, DW_AT_name("interruptNumber")
     151                      .dwattr $C$DW$14, DW_AT_TI_symbol_name("_interruptNumber")
     152                      .dwattr $C$DW$14, DW_AT_type(*$C$DW$T$19)
     153                      .dwattr $C$DW$14, DW_AT_location[DW_OP_breg20 -2]
     154              $C$DW$15        .dwtag  DW_TAG_variable, DW_AT_name("handler")
     155                      .dwattr $C$DW$15, DW_AT_TI_symbol_name("_handler")
     156                      .dwattr $C$DW$15, DW_AT_type(*$C$DW$T$35)
     157                      .dwattr $C$DW$15, DW_AT_location[DW_OP_breg20 -4]
     158 00000001 A844          MOVL      *-SP[4],XAR4          ; [CPU_] |231| 
     159 00000002 1E42          MOVL      *-SP[2],ACC           ; [CPU_] |231| 
     160                      .dwpsn  file "C:\Users\a0221343\Git\bootROM\f28004x_bootrom\F28004x_ROM_dev_PG2.0\F28004x_ROM\driverl
     161 00000003 7622   EALLOW
     162                      .dwpsn  file "C:\Users\a0221343\Git\bootROM\f28004x_bootrom\F28004x_ROM_dev_PG2.0\F28004x_ROM\driverl
     163 00000004 0EA8          MOVU      ACC,AH                ; [CPU_] |234| 
     164 00000005 C444          MOVL      XAR6,*-SP[4]          ; [CPU_] |234| 
TMS320C2000 Assembler PC v6.4.4 Tue Feb 14 14:42:55 2017

Tools Copyright (c) 1996-2015 Texas Instruments Incorporated
C:\Users\a0221343\AppData\Local\Temp\0706410                         PAGE    4

     165 00000006 FF30          LSL       ACC,1                 ; [CPU_] |234| 
     166 00000007 FF18          ADD       ACC,#13 << 8          ; [CPU_] |234| 
         00000008 000D 
     167 00000009 8AA9          MOVL      XAR4,ACC              ; [CPU_] |234| 
     168 0000000a C2C4          MOVL      *+XAR4[0],XAR6        ; [CPU_] |234| 
     169                      .dwpsn  file "C:\Users\a0221343\Git\bootROM\f28004x_bootrom\F28004x_ROM_dev_PG2.0\F28004x_ROM\driverl
     170 0000000b 761A   EDIS
     171                      .dwpsn  file "C:\Users\a0221343\Git\bootROM\f28004x_bootrom\F28004x_ROM_dev_PG2.0\F28004x_ROM\driverl
     172 0000000c FF69          SPM       #0                    ; [CPU_] 
     173 0000000d FE84          SUBB      SP,#4                 ; [CPU_U] 
     174                      .dwcfi  cfa_offset, -2
     175              $C$DW$16        .dwtag  DW_TAG_TI_branch
     176                      .dwattr $C$DW$16, DW_AT_low_pc(0x00)
     177                      .dwattr $C$DW$16, DW_AT_TI_return
     178 0000000e 0006          LRETR     ; [CPU_] 
     179                      ; return occurs ; [] 
     180                      .dwattr $C$DW$11, DW_AT_TI_end_file("C:\Users\a0221343\Git\bootROM\f28004x_bootrom\F28004x_ROM_dev_PG
     181                      .dwattr $C$DW$11, DW_AT_TI_end_line(0xed)
     182                      .dwattr $C$DW$11, DW_AT_TI_end_column(0x01)
     183                      .dwendentry
     184                      .dwendtag $C$DW$11
     185              
     186 00000000               .sect   ".text:_Interrupt_unregister"
     187                      .clink
     188              
     189              $C$DW$17        .dwtag  DW_TAG_subprogram, DW_AT_name("Interrupt_unregister")
     190                      .dwattr $C$DW$17, DW_AT_low_pc(_Interrupt_unregister)
     191                      .dwattr $C$DW$17, DW_AT_high_pc(0x00)
     192                      .dwattr $C$DW$17, DW_AT_TI_symbol_name("_Interrupt_unregister")
     193                      .dwattr $C$DW$17, DW_AT_TI_begin_file("C:\Users\a0221343\Git\bootROM\f28004x_bootrom\F28004x_ROM_dev_
     194                      .dwattr $C$DW$17, DW_AT_TI_begin_line(0x104)
     195                      .dwattr $C$DW$17, DW_AT_TI_begin_column(0x01)
     196                      .dwattr $C$DW$17, DW_AT_TI_max_frame_size(-4)
     197                      .dwpsn  file "C:\Users\a0221343\Git\bootROM\f28004x_bootrom\F28004x_ROM_dev_PG2.0\F28004x_ROM\driverl
     198              
     199                      .dwfde $C$DW$CIE, _Interrupt_unregister
     200              $C$DW$18        .dwtag  DW_TAG_formal_parameter, DW_AT_name("interruptNumber")
     201                      .dwattr $C$DW$18, DW_AT_TI_symbol_name("_interruptNumber")
     202                      .dwattr $C$DW$18, DW_AT_type(*$C$DW$T$19)
     203                      .dwattr $C$DW$18, DW_AT_location[DW_OP_reg0]
     204              
     205              ;***************************************************************
     206              ;* FNAME: _Interrupt_unregister         FR SIZE:   2           *
     207              ;*                                                             *
     208              ;* FUNCTION ENVIRONMENT                                        *
     209              ;*                                                             *
     210              ;* FUNCTION PROPERTIES                                         *
     211              ;*                            0 Parameter,  2 Auto,  0 SOE     *
     212              ;***************************************************************
     213              
     214 00000000       _Interrupt_unregister:
     215                      .dwcfi  cfa_offset, -2
     216                      .dwcfi  save_reg_to_mem, 26, 0
     217 00000000 FE02          ADDB      SP,#2                 ; [CPU_U] 
     218                      .dwcfi  cfa_offset, -4
TMS320C2000 Assembler PC v6.4.4 Tue Feb 14 14:42:55 2017

Tools Copyright (c) 1996-2015 Texas Instruments Incorporated
C:\Users\a0221343\AppData\Local\Temp\0706410                         PAGE    5

     219              $C$DW$19        .dwtag  DW_TAG_variable, DW_AT_name("interruptNumber")
     220                      .dwattr $C$DW$19, DW_AT_TI_symbol_name("_interruptNumber")
     221                      .dwattr $C$DW$19, DW_AT_type(*$C$DW$T$19)
     222                      .dwattr $C$DW$19, DW_AT_location[DW_OP_breg20 -2]
     223 00000001 1E42          MOVL      *-SP[2],ACC           ; [CPU_] |261| 
     224                      .dwpsn  file "C:\Users\a0221343\Git\bootROM\f28004x_bootrom\F28004x_ROM_dev_PG2.0\F28004x_ROM\driverl
     225 00000002 7622   EALLOW
     226                      .dwpsn  file "C:\Users\a0221343\Git\bootROM\f28004x_bootrom\F28004x_ROM_dev_PG2.0\F28004x_ROM\driverl
     227 00000003 0EA8          MOVU      ACC,AH                ; [CPU_] |264| 
     228 00000004 FF30          LSL       ACC,1                 ; [CPU_] |264| 
     229 00000005 FF18          ADD       ACC,#13 << 8          ; [CPU_] |264| 
         00000006 000D 
     230 00000007 8AA9          MOVL      XAR4,ACC              ; [CPU_] |264| 
     231 00000008 8F40+         MOVL      XAR5,#_Interrupt_defaultHandler ; [CPU_U] |264| 
         00000009 0000 
     232 0000000a A0C4          MOVL      *+XAR4[0],XAR5        ; [CPU_] |264| 
     233                      .dwpsn  file "C:\Users\a0221343\Git\bootROM\f28004x_bootrom\F28004x_ROM_dev_PG2.0\F28004x_ROM\driverl
     234 0000000b 761A   EDIS
     235                      .dwpsn  file "C:\Users\a0221343\Git\bootROM\f28004x_bootrom\F28004x_ROM_dev_PG2.0\F28004x_ROM\driverl
     236 0000000c FF69          SPM       #0                    ; [CPU_] 
     237 0000000d FE82          SUBB      SP,#2                 ; [CPU_U] 
     238                      .dwcfi  cfa_offset, -2
     239              $C$DW$20        .dwtag  DW_TAG_TI_branch
     240                      .dwattr $C$DW$20, DW_AT_low_pc(0x00)
     241                      .dwattr $C$DW$20, DW_AT_TI_return
     242 0000000e 0006          LRETR     ; [CPU_] 
     243                      ; return occurs ; [] 
     244                      .dwattr $C$DW$17, DW_AT_TI_end_file("C:\Users\a0221343\Git\bootROM\f28004x_bootrom\F28004x_ROM_dev_PG
     245                      .dwattr $C$DW$17, DW_AT_TI_end_line(0x10b)
     246                      .dwattr $C$DW$17, DW_AT_TI_end_column(0x01)
     247                      .dwendentry
     248                      .dwendtag $C$DW$17
     249              
     250 00000000               .sect   ".text:_CAN_getIntNumber"
     251                      .clink
     252              
     253              $C$DW$21        .dwtag  DW_TAG_subprogram, DW_AT_name("CAN_getIntNumber")
     254                      .dwattr $C$DW$21, DW_AT_low_pc(_CAN_getIntNumber)
     255                      .dwattr $C$DW$21, DW_AT_high_pc(0x00)
     256                      .dwattr $C$DW$21, DW_AT_TI_symbol_name("_CAN_getIntNumber")
     257                      .dwattr $C$DW$21, DW_AT_type(*$C$DW$T$60)
     258                      .dwattr $C$DW$21, DW_AT_TI_begin_file("C:/Users/a0221343/Git/bootROM/f28004x_bootrom/F28004x_ROM_dev_
     259                      .dwattr $C$DW$21, DW_AT_TI_begin_line(0x6f)
     260                      .dwattr $C$DW$21, DW_AT_TI_begin_column(0x01)
     261                      .dwattr $C$DW$21, DW_AT_TI_max_frame_size(-8)
     262                      .dwpsn  file "C:/Users/a0221343/Git/bootROM/f28004x_bootrom/F28004x_ROM_dev_PG2.0/F28004x_ROM/driverl
     263              
     264                      .dwfde $C$DW$CIE, _CAN_getIntNumber
     265              $C$DW$22        .dwtag  DW_TAG_formal_parameter, DW_AT_name("base")
     266                      .dwattr $C$DW$22, DW_AT_TI_symbol_name("_base")
     267                      .dwattr $C$DW$22, DW_AT_type(*$C$DW$T$19)
     268                      .dwattr $C$DW$22, DW_AT_location[DW_OP_reg0]
     269              $C$DW$23        .dwtag  DW_TAG_formal_parameter, DW_AT_name("number")
     270                      .dwattr $C$DW$23, DW_AT_TI_symbol_name("_number")
     271                      .dwattr $C$DW$23, DW_AT_type(*$C$DW$T$21)
TMS320C2000 Assembler PC v6.4.4 Tue Feb 14 14:42:55 2017

Tools Copyright (c) 1996-2015 Texas Instruments Incorporated
C:\Users\a0221343\AppData\Local\Temp\0706410                         PAGE    6

     272                      .dwattr $C$DW$23, DW_AT_location[DW_OP_reg12]
     273              
     274              ;***************************************************************
     275              ;* FNAME: _CAN_getIntNumber             FR SIZE:   6           *
     276              ;*                                                             *
     277              ;* FUNCTION ENVIRONMENT                                        *
     278              ;*                                                             *
     279              ;* FUNCTION PROPERTIES                                         *
     280              ;*                            0 Parameter,  6 Auto,  0 SOE     *
     281              ;***************************************************************
     282              
     283 00000000       _CAN_getIntNumber:
     284                      .dwcfi  cfa_offset, -2
     285                      .dwcfi  save_reg_to_mem, 26, 0
     286 00000000 FE06          ADDB      SP,#6                 ; [CPU_U] 
     287                      .dwcfi  cfa_offset, -8
     288              $C$DW$24        .dwtag  DW_TAG_variable, DW_AT_name("base")
     289                      .dwattr $C$DW$24, DW_AT_TI_symbol_name("_base")
     290                      .dwattr $C$DW$24, DW_AT_type(*$C$DW$T$19)
     291                      .dwattr $C$DW$24, DW_AT_location[DW_OP_breg20 -2]
     292              $C$DW$25        .dwtag  DW_TAG_variable, DW_AT_name("number")
     293                      .dwattr $C$DW$25, DW_AT_TI_symbol_name("_number")
     294                      .dwattr $C$DW$25, DW_AT_type(*$C$DW$T$21)
     295                      .dwattr $C$DW$25, DW_AT_location[DW_OP_breg20 -3]
     296              $C$DW$26        .dwtag  DW_TAG_variable, DW_AT_name("intNumber")
     297                      .dwattr $C$DW$26, DW_AT_TI_symbol_name("_intNumber")
     298                      .dwattr $C$DW$26, DW_AT_type(*$C$DW$T$60)
     299                      .dwattr $C$DW$26, DW_AT_location[DW_OP_breg20 -6]
     300 00000001 7C43          MOV       *-SP[3],AR4           ; [CPU_] |112| 
     301 00000002 1E42          MOVL      *-SP[2],ACC           ; [CPU_] |112| 
     302                      .dwpsn  file "C:/Users/a0221343/Git/bootROM/f28004x_bootrom/F28004x_ROM_dev_PG2.0/F28004x_ROM/driverl
     303 00000003 6F18          B         $C$L7,UNC             ; [CPU_] |118| 
     304                      ; branch occurs ; [] |118| 
     305 00000004       $C$L2:    
     306                      .dwpsn  file "C:/Users/a0221343/Git/bootROM/f28004x_bootrom/F28004x_ROM_dev_PG2.0/F28004x_ROM/driverl
     307 00000004 28A9          MOV       AL,#2309              ; [CPU_] |129| 
         00000005 0905 
     308 00000006 9B64          MOV       AH,#100               ; [CPU_] |129| 
     309 00000007 1E46          MOVL      *-SP[6],ACC           ; [CPU_] |129| 
     310                      .dwpsn  file "C:/Users/a0221343/Git/bootROM/f28004x_bootrom/F28004x_ROM_dev_PG2.0/F28004x_ROM/driverl
     311 00000008 6F1A          B         $C$L8,UNC             ; [CPU_] |130| 
     312                      ; branch occurs ; [] |130| 
     313 00000009       $C$L3:    
     314                      .dwpsn  file "C:/Users/a0221343/Git/bootROM/f28004x_bootrom/F28004x_ROM_dev_PG2.0/F28004x_ROM/driverl
     315 00000009 28A9          MOV       AL,#2310              ; [CPU_] |134| 
         0000000a 0906 
     316 0000000b 9B65          MOV       AH,#101               ; [CPU_] |134| 
     317 0000000c 1E46          MOVL      *-SP[6],ACC           ; [CPU_] |134| 
     318                      .dwpsn  file "C:/Users/a0221343/Git/bootROM/f28004x_bootrom/F28004x_ROM_dev_PG2.0/F28004x_ROM/driverl
     319 0000000d 6F15          B         $C$L8,UNC             ; [CPU_] |135| 
     320                      ; branch occurs ; [] |135| 
     321 0000000e       $C$L4:    
     322                      .dwpsn  file "C:/Users/a0221343/Git/bootROM/f28004x_bootrom/F28004x_ROM_dev_PG2.0/F28004x_ROM/driverl
     323 0000000e 0200          MOVB      ACC,#0                ; [CPU_] |140| 
     324 0000000f 1901          SUBB      ACC,#1                ; [CPU_] |140| 
TMS320C2000 Assembler PC v6.4.4 Tue Feb 14 14:42:55 2017

Tools Copyright (c) 1996-2015 Texas Instruments Incorporated
C:\Users\a0221343\AppData\Local\Temp\0706410                         PAGE    7

     325 00000010 1E46          MOVL      *-SP[6],ACC           ; [CPU_] |140| 
     326                      .dwpsn  file "C:/Users/a0221343/Git/bootROM/f28004x_bootrom/F28004x_ROM_dev_PG2.0/F28004x_ROM/driverl
     327 00000011 6F11          B         $C$L8,UNC             ; [CPU_] |141| 
     328                      ; branch occurs ; [] |141| 
     329 00000012       $C$L5:    
     330                      .dwpsn  file "C:/Users/a0221343/Git/bootROM/f28004x_bootrom/F28004x_ROM_dev_PG2.0/F28004x_ROM/driverl
     331 00000012 9243          MOV       AL,*-SP[3]            ; [CPU_] |125| 
     332 00000013 ECF1          BF        $C$L2,EQ              ; [CPU_] |125| 
     333                      ; branchcc occurs ; [] |125| 
     334 00000014 5201          CMPB      AL,#1                 ; [CPU_] |125| 
     335 00000015 ECF4          BF        $C$L3,EQ              ; [CPU_] |125| 
     336                      ; branchcc occurs ; [] |125| 
     337 00000016 6FF8          B         $C$L4,UNC             ; [CPU_] |125| 
     338                      ; branch occurs ; [] |125| 
     339 00000017       $C$L6:    
     340                      .dwpsn  file "C:/Users/a0221343/Git/bootROM/f28004x_bootrom/F28004x_ROM_dev_PG2.0/F28004x_ROM/driverl
     341 00000017 0200          MOVB      ACC,#0                ; [CPU_] |152| 
     342 00000018 1901          SUBB      ACC,#1                ; [CPU_] |152| 
     343 00000019 1E46          MOVL      *-SP[6],ACC           ; [CPU_] |152| 
     344                      .dwpsn  file "C:/Users/a0221343/Git/bootROM/f28004x_bootrom/F28004x_ROM_dev_PG2.0/F28004x_ROM/driverl
     345 0000001a 6F08          B         $C$L8,UNC             ; [CPU_] |153| 
     346                      ; branch occurs ; [] |153| 
     347 0000001b       $C$L7:    
     348                      .dwpsn  file "C:/Users/a0221343/Git/bootROM/f28004x_bootrom/F28004x_ROM_dev_PG2.0/F28004x_ROM/driverl
     349 0000001b C442          MOVL      XAR6,*-SP[2]          ; [CPU_] |118| 
     350 0000001c 8F04          MOVL      XAR4,#294912          ; [CPU_U] |118| 
         0000001d 8000 
     351 0000001e A8A9          MOVL      ACC,XAR4              ; [CPU_] |118| 
     352 0000001f 0FA6          CMPL      ACC,XAR6              ; [CPU_] |118| 
     353 00000020 ECF2          BF        $C$L5,EQ              ; [CPU_] |118| 
     354                      ; branchcc occurs ; [] |118| 
     355 00000021 6FF6          B         $C$L6,UNC             ; [CPU_] |118| 
     356                      ; branch occurs ; [] |118| 
     357 00000022       $C$L8:    
     358                      .dwpsn  file "C:/Users/a0221343/Git/bootROM/f28004x_bootrom/F28004x_ROM_dev_PG2.0/F28004x_ROM/driverl
     359                      .dwpsn  file "C:/Users/a0221343/Git/bootROM/f28004x_bootrom/F28004x_ROM_dev_PG2.0/F28004x_ROM/driverl
     360 00000022 FE86          SUBB      SP,#6                 ; [CPU_U] 
     361                      .dwcfi  cfa_offset, -2
     362              $C$DW$27        .dwtag  DW_TAG_TI_branch
     363                      .dwattr $C$DW$27, DW_AT_low_pc(0x00)
     364                      .dwattr $C$DW$27, DW_AT_TI_return
     365 00000023 0006          LRETR     ; [CPU_] 
     366                      ; return occurs ; [] 
     367                      .dwattr $C$DW$21, DW_AT_TI_end_file("C:/Users/a0221343/Git/bootROM/f28004x_bootrom/F28004x_ROM_dev_PG
     368                      .dwattr $C$DW$21, DW_AT_TI_end_line(0x9e)
     369                      .dwattr $C$DW$21, DW_AT_TI_end_column(0x01)
     370                      .dwendentry
     371                      .dwendtag $C$DW$21
     372              
     373 00000000               .sect   ".text:_CAN_writeDataReg"
     374                      .clink
     375              
     376              $C$DW$28        .dwtag  DW_TAG_subprogram, DW_AT_name("CAN_writeDataReg")
     377                      .dwattr $C$DW$28, DW_AT_low_pc(_CAN_writeDataReg)
     378                      .dwattr $C$DW$28, DW_AT_high_pc(0x00)
TMS320C2000 Assembler PC v6.4.4 Tue Feb 14 14:42:55 2017

Tools Copyright (c) 1996-2015 Texas Instruments Incorporated
C:\Users\a0221343\AppData\Local\Temp\0706410                         PAGE    8

     379                      .dwattr $C$DW$28, DW_AT_TI_symbol_name("_CAN_writeDataReg")
     380                      .dwattr $C$DW$28, DW_AT_TI_begin_file("C:/Users/a0221343/Git/bootROM/f28004x_bootrom/F28004x_ROM_dev_
     381                      .dwattr $C$DW$28, DW_AT_TI_begin_line(0xba)
     382                      .dwattr $C$DW$28, DW_AT_TI_begin_column(0x01)
     383                      .dwattr $C$DW$28, DW_AT_TI_max_frame_size(-12)
     384                      .dwpsn  file "C:/Users/a0221343/Git/bootROM/f28004x_bootrom/F28004x_ROM_dev_PG2.0/F28004x_ROM/driverl
     385              
     386                      .dwfde $C$DW$CIE, _CAN_writeDataReg
     387              $C$DW$29        .dwtag  DW_TAG_formal_parameter, DW_AT_name("data")
     388                      .dwattr $C$DW$29, DW_AT_TI_symbol_name("_data")
     389                      .dwattr $C$DW$29, DW_AT_type(*$C$DW$T$22)
     390                      .dwattr $C$DW$29, DW_AT_location[DW_OP_reg12]
     391              $C$DW$30        .dwtag  DW_TAG_formal_parameter, DW_AT_name("address")
     392                      .dwattr $C$DW$30, DW_AT_TI_symbol_name("_address")
     393                      .dwattr $C$DW$30, DW_AT_type(*$C$DW$T$40)
     394                      .dwattr $C$DW$30, DW_AT_location[DW_OP_reg14]
     395              $C$DW$31        .dwtag  DW_TAG_formal_parameter, DW_AT_name("size")
     396                      .dwattr $C$DW$31, DW_AT_TI_symbol_name("_size")
     397                      .dwattr $C$DW$31, DW_AT_type(*$C$DW$T$19)
     398                      .dwattr $C$DW$31, DW_AT_location[DW_OP_reg0]
     399              
     400              ;***************************************************************
     401              ;* FNAME: _CAN_writeDataReg             FR SIZE:  10           *
     402              ;*                                                             *
     403              ;* FUNCTION ENVIRONMENT                                        *
     404              ;*                                                             *
     405              ;* FUNCTION PROPERTIES                                         *
     406              ;*                            0 Parameter, 10 Auto,  0 SOE     *
     407              ;***************************************************************
     408              
     409 00000000       _CAN_writeDataReg:
     410                      .dwcfi  cfa_offset, -2
     411                      .dwcfi  save_reg_to_mem, 26, 0
     412 00000000 FE0A          ADDB      SP,#10                ; [CPU_U] 
     413                      .dwcfi  cfa_offset, -12
     414              $C$DW$32        .dwtag  DW_TAG_variable, DW_AT_name("data")
     415                      .dwattr $C$DW$32, DW_AT_TI_symbol_name("_data")
     416                      .dwattr $C$DW$32, DW_AT_type(*$C$DW$T$22)
     417                      .dwattr $C$DW$32, DW_AT_location[DW_OP_breg20 -2]
     418              $C$DW$33        .dwtag  DW_TAG_variable, DW_AT_name("address")
     419                      .dwattr $C$DW$33, DW_AT_TI_symbol_name("_address")
     420                      .dwattr $C$DW$33, DW_AT_type(*$C$DW$T$40)
     421                      .dwattr $C$DW$33, DW_AT_location[DW_OP_breg20 -4]
     422              $C$DW$34        .dwtag  DW_TAG_variable, DW_AT_name("size")
     423                      .dwattr $C$DW$34, DW_AT_TI_symbol_name("_size")
     424                      .dwattr $C$DW$34, DW_AT_type(*$C$DW$T$19)
     425                      .dwattr $C$DW$34, DW_AT_location[DW_OP_breg20 -6]
     426              $C$DW$35        .dwtag  DW_TAG_variable, DW_AT_name("idx")
     427                      .dwattr $C$DW$35, DW_AT_TI_symbol_name("_idx")
     428                      .dwattr $C$DW$35, DW_AT_type(*$C$DW$T$19)
     429                      .dwattr $C$DW$35, DW_AT_location[DW_OP_breg20 -8]
     430              $C$DW$36        .dwtag  DW_TAG_variable, DW_AT_name("dataReg")
     431                      .dwattr $C$DW$36, DW_AT_TI_symbol_name("_dataReg")
     432                      .dwattr $C$DW$36, DW_AT_type(*$C$DW$T$22)
     433                      .dwattr $C$DW$36, DW_AT_location[DW_OP_breg20 -10]
TMS320C2000 Assembler PC v6.4.4 Tue Feb 14 14:42:55 2017

Tools Copyright (c) 1996-2015 Texas Instruments Incorporated
C:\Users\a0221343\AppData\Local\Temp\0706410                         PAGE    9

     434 00000001 1E46          MOVL      *-SP[6],ACC           ; [CPU_] |187| 
     435 00000002 A044          MOVL      *-SP[4],XAR5          ; [CPU_] |187| 
     436 00000003 A842          MOVL      *-SP[2],XAR4          ; [CPU_] |187| 
     437                      .dwpsn  file "C:/Users/a0221343/Git/bootROM/f28004x_bootrom/F28004x_ROM_dev_PG2.0/F28004x_ROM/driverl
     438 00000004 0644          MOVL      ACC,*-SP[4]           ; [CPU_] |189| 
     439 00000005 1E4A          MOVL      *-SP[10],ACC          ; [CPU_] |189| 
     440                      .dwpsn  file "C:/Users/a0221343/Git/bootROM/f28004x_bootrom/F28004x_ROM_dev_PG2.0/F28004x_ROM/driverl
     441 00000006 0200          MOVB      ACC,#0                ; [CPU_] |194| 
     442 00000007 1E48          MOVL      *-SP[8],ACC           ; [CPU_] |194| 
     443                      .dwpsn  file "C:/Users/a0221343/Git/bootROM/f28004x_bootrom/F28004x_ROM_dev_PG2.0/F28004x_ROM/driverl
     444 00000008 0646          MOVL      ACC,*-SP[6]           ; [CPU_] |194| 
     445 00000009 0F48          CMPL      ACC,*-SP[8]           ; [CPU_] |194| 
     446 0000000a 56C9          BF        $C$L10,LOS            ; [CPU_] |194| 
         0000000b 0012 
     447                      ; branchcc occurs ; [] |194| 
     448 0000000c       $C$L9:    
     449                      .dwpsn  file "C:/Users/a0221343/Git/bootROM/f28004x_bootrom/F28004x_ROM_dev_PG2.0/F28004x_ROM/driverl
     450 0000000c 0648          MOVL      ACC,*-SP[8]           ; [CPU_] |199| 
     451 0000000d 0742          ADDL      ACC,*-SP[2]           ; [CPU_] |199| 
     452 0000000e 8AA9          MOVL      XAR4,ACC              ; [CPU_] |199| 
     453 0000000f 834A          MOVL      XAR5,*-SP[10]         ; [CPU_] |199| 
     454 00000010 92C4          MOV       AL,*+XAR4[0]          ; [CPU_] |199| 
     455 00000011 3CC5          MOVB      *+XAR5[0],AL.LSB      ; [CPU_] |199| 
     456                      .dwpsn  file "C:/Users/a0221343/Git/bootROM/f28004x_bootrom/F28004x_ROM_dev_PG2.0/F28004x_ROM/driverl
     457 00000012 0201          MOVB      ACC,#1                ; [CPU_] |201| 
     458 00000013 074A          ADDL      ACC,*-SP[10]          ; [CPU_] |201| 
     459 00000014 1E4A          MOVL      *-SP[10],ACC          ; [CPU_] |201| 
     460                      .dwpsn  file "C:/Users/a0221343/Git/bootROM/f28004x_bootrom/F28004x_ROM_dev_PG2.0/F28004x_ROM/driverl
     461 00000015 0201          MOVB      ACC,#1                ; [CPU_] |194| 
     462 00000016 0748          ADDL      ACC,*-SP[8]           ; [CPU_] |194| 
     463 00000017 1E48          MOVL      *-SP[8],ACC           ; [CPU_] |194| 
     464                      .dwpsn  file "C:/Users/a0221343/Git/bootROM/f28004x_bootrom/F28004x_ROM_dev_PG2.0/F28004x_ROM/driverl
     465 00000018 0646          MOVL      ACC,*-SP[6]           ; [CPU_] |194| 
     466 00000019 0F48          CMPL      ACC,*-SP[8]           ; [CPU_] |194| 
     467 0000001a 56C6          BF        $C$L9,HI              ; [CPU_] |194| 
         0000001b FFF2 
     468                      ; branchcc occurs ; [] |194| 
     469                      .dwpsn  file "C:/Users/a0221343/Git/bootROM/f28004x_bootrom/F28004x_ROM_dev_PG2.0/F28004x_ROM/driverl
     470 0000001c       $C$L10:    
     471 0000001c FE8A          SUBB      SP,#10                ; [CPU_U] 
     472                      .dwcfi  cfa_offset, -2
     473              $C$DW$37        .dwtag  DW_TAG_TI_branch
     474                      .dwattr $C$DW$37, DW_AT_low_pc(0x00)
     475                      .dwattr $C$DW$37, DW_AT_TI_return
     476 0000001d 0006          LRETR     ; [CPU_] 
     477                      ; return occurs ; [] 
     478                      .dwattr $C$DW$28, DW_AT_TI_end_file("C:/Users/a0221343/Git/bootROM/f28004x_bootrom/F28004x_ROM_dev_PG
     479                      .dwattr $C$DW$28, DW_AT_TI_end_line(0xcb)
     480                      .dwattr $C$DW$28, DW_AT_TI_end_column(0x01)
     481                      .dwendentry
     482                      .dwendtag $C$DW$28
     483              
     484 00000000               .sect   ".text:_CAN_readDataReg"
     485                      .clink
     486              
TMS320C2000 Assembler PC v6.4.4 Tue Feb 14 14:42:55 2017

Tools Copyright (c) 1996-2015 Texas Instruments Incorporated
C:\Users\a0221343\AppData\Local\Temp\0706410                         PAGE   10

     487              $C$DW$38        .dwtag  DW_TAG_subprogram, DW_AT_name("CAN_readDataReg")
     488                      .dwattr $C$DW$38, DW_AT_low_pc(_CAN_readDataReg)
     489                      .dwattr $C$DW$38, DW_AT_high_pc(0x00)
     490                      .dwattr $C$DW$38, DW_AT_TI_symbol_name("_CAN_readDataReg")
     491                      .dwattr $C$DW$38, DW_AT_TI_begin_file("C:/Users/a0221343/Git/bootROM/f28004x_bootrom/F28004x_ROM_dev_
     492                      .dwattr $C$DW$38, DW_AT_TI_begin_line(0xe7)
     493                      .dwattr $C$DW$38, DW_AT_TI_begin_column(0x01)
     494                      .dwattr $C$DW$38, DW_AT_TI_max_frame_size(-12)
     495                      .dwpsn  file "C:/Users/a0221343/Git/bootROM/f28004x_bootrom/F28004x_ROM_dev_PG2.0/F28004x_ROM/driverl
     496              
     497                      .dwfde $C$DW$CIE, _CAN_readDataReg
     498              $C$DW$39        .dwtag  DW_TAG_formal_parameter, DW_AT_name("data")
     499                      .dwattr $C$DW$39, DW_AT_TI_symbol_name("_data")
     500                      .dwattr $C$DW$39, DW_AT_type(*$C$DW$T$22)
     501                      .dwattr $C$DW$39, DW_AT_location[DW_OP_reg12]
     502              $C$DW$40        .dwtag  DW_TAG_formal_parameter, DW_AT_name("address")
     503                      .dwattr $C$DW$40, DW_AT_TI_symbol_name("_address")
     504                      .dwattr $C$DW$40, DW_AT_type(*$C$DW$T$40)
     505                      .dwattr $C$DW$40, DW_AT_location[DW_OP_reg14]
     506              $C$DW$41        .dwtag  DW_TAG_formal_parameter, DW_AT_name("size")
     507                      .dwattr $C$DW$41, DW_AT_TI_symbol_name("_size")
     508                      .dwattr $C$DW$41, DW_AT_type(*$C$DW$T$19)
     509                      .dwattr $C$DW$41, DW_AT_location[DW_OP_reg0]
     510              
     511              ;***************************************************************
     512              ;* FNAME: _CAN_readDataReg              FR SIZE:  10           *
     513              ;*                                                             *
     514              ;* FUNCTION ENVIRONMENT                                        *
     515              ;*                                                             *
     516              ;* FUNCTION PROPERTIES                                         *
     517              ;*                            0 Parameter, 10 Auto,  0 SOE     *
     518              ;***************************************************************
     519              
     520 00000000       _CAN_readDataReg:
     521                      .dwcfi  cfa_offset, -2
     522                      .dwcfi  save_reg_to_mem, 26, 0
     523 00000000 FE0A          ADDB      SP,#10                ; [CPU_U] 
     524                      .dwcfi  cfa_offset, -12
     525              $C$DW$42        .dwtag  DW_TAG_variable, DW_AT_name("data")
     526                      .dwattr $C$DW$42, DW_AT_TI_symbol_name("_data")
     527                      .dwattr $C$DW$42, DW_AT_type(*$C$DW$T$22)
     528                      .dwattr $C$DW$42, DW_AT_location[DW_OP_breg20 -2]
     529              $C$DW$43        .dwtag  DW_TAG_variable, DW_AT_name("address")
     530                      .dwattr $C$DW$43, DW_AT_TI_symbol_name("_address")
     531                      .dwattr $C$DW$43, DW_AT_type(*$C$DW$T$40)
     532                      .dwattr $C$DW$43, DW_AT_location[DW_OP_breg20 -4]
     533              $C$DW$44        .dwtag  DW_TAG_variable, DW_AT_name("size")
     534                      .dwattr $C$DW$44, DW_AT_TI_symbol_name("_size")
     535                      .dwattr $C$DW$44, DW_AT_type(*$C$DW$T$19)
     536                      .dwattr $C$DW$44, DW_AT_location[DW_OP_breg20 -6]
     537              $C$DW$45        .dwtag  DW_TAG_variable, DW_AT_name("idx")
     538                      .dwattr $C$DW$45, DW_AT_TI_symbol_name("_idx")
     539                      .dwattr $C$DW$45, DW_AT_type(*$C$DW$T$19)
     540                      .dwattr $C$DW$45, DW_AT_location[DW_OP_breg20 -8]
     541              $C$DW$46        .dwtag  DW_TAG_variable, DW_AT_name("dataReg")
TMS320C2000 Assembler PC v6.4.4 Tue Feb 14 14:42:55 2017

Tools Copyright (c) 1996-2015 Texas Instruments Incorporated
C:\Users\a0221343\AppData\Local\Temp\0706410                         PAGE   11

     542                      .dwattr $C$DW$46, DW_AT_TI_symbol_name("_dataReg")
     543                      .dwattr $C$DW$46, DW_AT_type(*$C$DW$T$22)
     544                      .dwattr $C$DW$46, DW_AT_location[DW_OP_breg20 -10]
     545 00000001 1E46          MOVL      *-SP[6],ACC           ; [CPU_] |232| 
     546 00000002 A044          MOVL      *-SP[4],XAR5          ; [CPU_] |232| 
     547 00000003 A842          MOVL      *-SP[2],XAR4          ; [CPU_] |232| 
     548                      .dwpsn  file "C:/Users/a0221343/Git/bootROM/f28004x_bootrom/F28004x_ROM_dev_PG2.0/F28004x_ROM/driverl
     549 00000004 0644          MOVL      ACC,*-SP[4]           ; [CPU_] |234| 
     550 00000005 1E4A          MOVL      *-SP[10],ACC          ; [CPU_] |234| 
     551                      .dwpsn  file "C:/Users/a0221343/Git/bootROM/f28004x_bootrom/F28004x_ROM_dev_PG2.0/F28004x_ROM/driverl
     552 00000006 0200          MOVB      ACC,#0                ; [CPU_] |239| 
     553 00000007 1E48          MOVL      *-SP[8],ACC           ; [CPU_] |239| 
     554                      .dwpsn  file "C:/Users/a0221343/Git/bootROM/f28004x_bootrom/F28004x_ROM_dev_PG2.0/F28004x_ROM/driverl
     555 00000008 0646          MOVL      ACC,*-SP[6]           ; [CPU_] |239| 
     556 00000009 0F48          CMPL      ACC,*-SP[8]           ; [CPU_] |239| 
     557 0000000a 56C9          BF        $C$L12,LOS            ; [CPU_] |239| 
         0000000b 0013 
     558                      ; branchcc occurs ; [] |239| 
     559 0000000c       $C$L11:    
     560                      .dwpsn  file "C:/Users/a0221343/Git/bootROM/f28004x_bootrom/F28004x_ROM_dev_PG2.0/F28004x_ROM/driverl
     561 0000000c 8A4A          MOVL      XAR4,*-SP[10]         ; [CPU_] |244| 
     562 0000000d C6C4          MOVB      AL.LSB,*+XAR4[0]      ; [CPU_] |244| 
     563 0000000e 88A9          MOVZ      AR6,AL                ; [CPU_] |244| 
     564 0000000f 0648          MOVL      ACC,*-SP[8]           ; [CPU_] |244| 
     565 00000010 0742          ADDL      ACC,*-SP[2]           ; [CPU_] |244| 
     566 00000011 8AA9          MOVL      XAR4,ACC              ; [CPU_] |244| 
     567 00000012 7EC4          MOV       *+XAR4[0],AR6         ; [CPU_] |244| 
     568                      .dwpsn  file "C:/Users/a0221343/Git/bootROM/f28004x_bootrom/F28004x_ROM_dev_PG2.0/F28004x_ROM/driverl
     569 00000013 0201          MOVB      ACC,#1                ; [CPU_] |246| 
     570 00000014 074A          ADDL      ACC,*-SP[10]          ; [CPU_] |246| 
     571 00000015 1E4A          MOVL      *-SP[10],ACC          ; [CPU_] |246| 
     572                      .dwpsn  file "C:/Users/a0221343/Git/bootROM/f28004x_bootrom/F28004x_ROM_dev_PG2.0/F28004x_ROM/driverl
     573 00000016 0201          MOVB      ACC,#1                ; [CPU_] |239| 
     574 00000017 0748          ADDL      ACC,*-SP[8]           ; [CPU_] |239| 
     575 00000018 1E48          MOVL      *-SP[8],ACC           ; [CPU_] |239| 
     576                      .dwpsn  file "C:/Users/a0221343/Git/bootROM/f28004x_bootrom/F28004x_ROM_dev_PG2.0/F28004x_ROM/driverl
     577 00000019 0646          MOVL      ACC,*-SP[6]           ; [CPU_] |239| 
     578 0000001a 0F48          CMPL      ACC,*-SP[8]           ; [CPU_] |239| 
     579 0000001b 56C6          BF        $C$L11,HI             ; [CPU_] |239| 
         0000001c FFF1 
     580                      ; branchcc occurs ; [] |239| 
     581                      .dwpsn  file "C:/Users/a0221343/Git/bootROM/f28004x_bootrom/F28004x_ROM_dev_PG2.0/F28004x_ROM/driverl
     582 0000001d       $C$L12:    
     583 0000001d FE8A          SUBB      SP,#10                ; [CPU_U] 
     584                      .dwcfi  cfa_offset, -2
     585              $C$DW$47        .dwtag  DW_TAG_TI_branch
     586                      .dwattr $C$DW$47, DW_AT_low_pc(0x00)
     587                      .dwattr $C$DW$47, DW_AT_TI_return
     588 0000001e 0006          LRETR     ; [CPU_] 
     589                      ; return occurs ; [] 
     590                      .dwattr $C$DW$38, DW_AT_TI_end_file("C:/Users/a0221343/Git/bootROM/f28004x_bootrom/F28004x_ROM_dev_PG
     591                      .dwattr $C$DW$38, DW_AT_TI_end_line(0xf8)
     592                      .dwattr $C$DW$38, DW_AT_TI_end_column(0x01)
     593                      .dwendentry
     594                      .dwendtag $C$DW$38
TMS320C2000 Assembler PC v6.4.4 Tue Feb 14 14:42:55 2017

Tools Copyright (c) 1996-2015 Texas Instruments Incorporated
C:\Users\a0221343\AppData\Local\Temp\0706410                         PAGE   12

     595              
     596 00000000               .sect   ".text:_CAN_initModule"
     597                      .clink
     598                      .global _CAN_initModule
     599              
     600              $C$DW$48        .dwtag  DW_TAG_subprogram, DW_AT_name("CAN_initModule")
     601                      .dwattr $C$DW$48, DW_AT_low_pc(_CAN_initModule)
     602                      .dwattr $C$DW$48, DW_AT_high_pc(0x00)
     603                      .dwattr $C$DW$48, DW_AT_TI_symbol_name("_CAN_initModule")
     604                      .dwattr $C$DW$48, DW_AT_external
     605                      .dwattr $C$DW$48, DW_AT_TI_begin_file("C:/Users/a0221343/Git/bootROM/f28004x_bootrom/F28004x_ROM_dev_
     606                      .dwattr $C$DW$48, DW_AT_TI_begin_line(0x10a)
     607                      .dwattr $C$DW$48, DW_AT_TI_begin_column(0x01)
     608                      .dwattr $C$DW$48, DW_AT_TI_max_frame_size(-6)
     609                      .dwpsn  file "C:/Users/a0221343/Git/bootROM/f28004x_bootrom/F28004x_ROM_dev_PG2.0/F28004x_ROM/driverl
     610              
     611                      .dwfde $C$DW$CIE, _CAN_initModule
     612              $C$DW$49        .dwtag  DW_TAG_formal_parameter, DW_AT_name("base")
     613                      .dwattr $C$DW$49, DW_AT_TI_symbol_name("_base")
     614                      .dwattr $C$DW$49, DW_AT_type(*$C$DW$T$19)
     615                      .dwattr $C$DW$49, DW_AT_location[DW_OP_reg0]
     616              
     617              ;***************************************************************
     618              ;* FNAME: _CAN_initModule               FR SIZE:   4           *
     619              ;*                                                             *
     620              ;* FUNCTION ENVIRONMENT                                        *
     621              ;*                                                             *
     622              ;* FUNCTION PROPERTIES                                         *
     623              ;*                            0 Parameter,  4 Auto,  0 SOE     *
     624              ;***************************************************************
     625              
     626 00000000       _CAN_initModule:
     627                      .dwcfi  cfa_offset, -2
     628                      .dwcfi  save_reg_to_mem, 26, 0
     629 00000000 FE04          ADDB      SP,#4                 ; [CPU_U] 
     630                      .dwcfi  cfa_offset, -6
     631              $C$DW$50        .dwtag  DW_TAG_variable, DW_AT_name("base")
     632                      .dwattr $C$DW$50, DW_AT_TI_symbol_name("_base")
     633                      .dwattr $C$DW$50, DW_AT_type(*$C$DW$T$19)
     634                      .dwattr $C$DW$50, DW_AT_location[DW_OP_breg20 -2]
     635              $C$DW$51        .dwtag  DW_TAG_variable, DW_AT_name("msg")
     636                      .dwattr $C$DW$51, DW_AT_TI_symbol_name("_msg")
     637                      .dwattr $C$DW$51, DW_AT_type(*$C$DW$T$60)
     638                      .dwattr $C$DW$51, DW_AT_location[DW_OP_breg20 -4]
     639 00000001 1E42          MOVL      *-SP[2],ACC           ; [CPU_] |267| 
     640                      .dwpsn  file "C:/Users/a0221343/Git/bootROM/f28004x_bootrom/F28004x_ROM_dev_PG2.0/F28004x_ROM/driverl
     641              $C$DW$52        .dwtag  DW_TAG_TI_branch
     642                      .dwattr $C$DW$52, DW_AT_low_pc(0x00)
     643                      .dwattr $C$DW$52, DW_AT_name("_CAN_initRam")
     644                      .dwattr $C$DW$52, DW_AT_TI_call
     645 00000002 7640+         LCR       #_CAN_initRam         ; [CPU_] |278| 
         00000003 0000 
     646                      ; call occurs [#_CAN_initRam] ; [] |278| 
     647                      .dwpsn  file "C:/Users/a0221343/Git/bootROM/f28004x_bootrom/F28004x_ROM_dev_PG2.0/F28004x_ROM/driverl
     648 00000004 8342          MOVL      XAR5,*-SP[2]          ; [CPU_] |285| 
TMS320C2000 Assembler PC v6.4.4 Tue Feb 14 14:42:55 2017

Tools Copyright (c) 1996-2015 Texas Instruments Incorporated
C:\Users\a0221343\AppData\Local\Temp\0706410                         PAGE   13

     649 00000005 8F00          MOVL      XAR4,#5121            ; [CPU_U] |285| 
         00000006 1401 
     650 00000007 A8C5          MOVL      *+XAR5[0],XAR4        ; [CPU_] |285| 
     651                      .dwpsn  file "C:/Users/a0221343/Git/bootROM/f28004x_bootrom/F28004x_ROM_dev_PG2.0/F28004x_ROM/driverl
     652 00000008 8A42          MOVL      XAR4,*-SP[2]          ; [CPU_] |286| 
     653 00000009 1AC4          OR        *+XAR4[0],#32768      ; [CPU_] |286| 
         0000000a 8000 
     654                      .dwpsn  file "C:/Users/a0221343/Git/bootROM/f28004x_bootrom/F28004x_ROM_dev_PG2.0/F28004x_ROM/driverl
     655 0000000b       $C$L13:    
     656                      .dwpsn  file "C:/Users/a0221343/Git/bootROM/f28004x_bootrom/F28004x_ROM_dev_PG2.0/F28004x_ROM/driverl
     657 0000000b 8F00          MOVL      XAR4,#256             ; [CPU_U] |291| 
         0000000c 0100 
     658 0000000d A8A9          MOVL      ACC,XAR4              ; [CPU_] |291| 
     659 0000000e 0742          ADDL      ACC,*-SP[2]           ; [CPU_] |291| 
     660 0000000f 8AA9          MOVL      XAR4,ACC              ; [CPU_] |291| 
     661 00000010 06C4          MOVL      ACC,*+XAR4[0]         ; [CPU_] |291| 
     662 00000011 9B00          MOVB      AH,#0                 ; [CPU_] |291| 
     663 00000012 18A9          AND       AL,#0x8000            ; [CPU_] |291| 
         00000013 8000 
     664 00000014 8F00          MOVL      XAR4,#32768           ; [CPU_U] |291| 
         00000015 8000 
     665 00000016 0FA4          CMPL      ACC,XAR4              ; [CPU_] |291| 
     666 00000017 ECF4          BF        $C$L13,EQ             ; [CPU_] |291| 
     667                      ; branchcc occurs ; [] |291| 
     668                      .dwpsn  file "C:/Users/a0221343/Git/bootROM/f28004x_bootrom/F28004x_ROM_dev_PG2.0/F28004x_ROM/driverl
     669 00000018 8F00          MOVL      XAR4,#258             ; [CPU_U] |300| 
         00000019 0102 
     670 0000001a A8A9          MOVL      ACC,XAR4              ; [CPU_] |300| 
     671 0000001b 0742          ADDL      ACC,*-SP[2]           ; [CPU_] |300| 
     672 0000001c 8AA9          MOVL      XAR4,ACC              ; [CPU_] |300| 
     673 0000001d 56BF          MOVB      *+XAR4[0],#176,UNC    ; [CPU_] |300| 
         0000001e B0C4 
     674                      .dwpsn  file "C:/Users/a0221343/Git/bootROM/f28004x_bootrom/F28004x_ROM_dev_PG2.0/F28004x_ROM/driverl
     675 0000001f BE00          MOVB      XAR6,#0               ; [CPU_] |302| 
     676 00000020 8F00          MOVL      XAR4,#264             ; [CPU_U] |302| 
         00000021 0108 
     677 00000022 A8A9          MOVL      ACC,XAR4              ; [CPU_] |302| 
     678 00000023 0742          ADDL      ACC,*-SP[2]           ; [CPU_] |302| 
     679 00000024 8AA9          MOVL      XAR4,ACC              ; [CPU_] |302| 
     680 00000025 C2C4          MOVL      *+XAR4[0],XAR6        ; [CPU_] |302| 
     681                      .dwpsn  file "C:/Users/a0221343/Git/bootROM/f28004x_bootrom/F28004x_ROM_dev_PG2.0/F28004x_ROM/driverl
     682 00000026 8F00          MOVL      XAR4,#268             ; [CPU_U] |303| 
         00000027 010C 
     683 00000028 A8A9          MOVL      ACC,XAR4              ; [CPU_] |303| 
     684 00000029 0742          ADDL      ACC,*-SP[2]           ; [CPU_] |303| 
     685 0000002a 8AA9          MOVL      XAR4,ACC              ; [CPU_] |303| 
     686 0000002b C2C4          MOVL      *+XAR4[0],XAR6        ; [CPU_] |303| 
     687                      .dwpsn  file "C:/Users/a0221343/Git/bootROM/f28004x_bootrom/F28004x_ROM_dev_PG2.0/F28004x_ROM/driverl
     688 0000002c 8F00          MOVL      XAR4,#290             ; [CPU_U] |305| 
         0000002d 0122 
     689 0000002e A8A9          MOVL      ACC,XAR4              ; [CPU_] |305| 
     690 0000002f 0742          ADDL      ACC,*-SP[2]           ; [CPU_] |305| 
     691 00000030 8AA9          MOVL      XAR4,ACC              ; [CPU_] |305| 
     692 00000031 56BF          MOVB      *+XAR4[0],#176,UNC    ; [CPU_] |305| 
         00000032 B0C4 
TMS320C2000 Assembler PC v6.4.4 Tue Feb 14 14:42:55 2017

Tools Copyright (c) 1996-2015 Texas Instruments Incorporated
C:\Users\a0221343\AppData\Local\Temp\0706410                         PAGE   14

     693                      .dwpsn  file "C:/Users/a0221343/Git/bootROM/f28004x_bootrom/F28004x_ROM_dev_PG2.0/F28004x_ROM/driverl
     694 00000033 8F00          MOVL      XAR4,#296             ; [CPU_U] |307| 
         00000034 0128 
     695 00000035 A8A9          MOVL      ACC,XAR4              ; [CPU_] |307| 
     696 00000036 0742          ADDL      ACC,*-SP[2]           ; [CPU_] |307| 
     697 00000037 8AA9          MOVL      XAR4,ACC              ; [CPU_] |307| 
     698 00000038 C2C4          MOVL      *+XAR4[0],XAR6        ; [CPU_] |307| 
     699                      .dwpsn  file "C:/Users/a0221343/Git/bootROM/f28004x_bootrom/F28004x_ROM_dev_PG2.0/F28004x_ROM/driverl
     700 00000039 8F00          MOVL      XAR4,#300             ; [CPU_U] |308| 
         0000003a 012C 
     701 0000003b A8A9          MOVL      ACC,XAR4              ; [CPU_] |308| 
     702 0000003c 0742          ADDL      ACC,*-SP[2]           ; [CPU_] |308| 
     703 0000003d 8AA9          MOVL      XAR4,ACC              ; [CPU_] |308| 
     704 0000003e C2C4          MOVL      *+XAR4[0],XAR6        ; [CPU_] |308| 
     705                      .dwpsn  file "C:/Users/a0221343/Git/bootROM/f28004x_bootrom/F28004x_ROM_dev_PG2.0/F28004x_ROM/driverl
     706 0000003f 0201          MOVB      ACC,#1                ; [CPU_] |313| 
     707 00000040 1E44          MOVL      *-SP[4],ACC           ; [CPU_] |313| 
     708                      .dwpsn  file "C:/Users/a0221343/Git/bootROM/f28004x_bootrom/F28004x_ROM_dev_PG2.0/F28004x_ROM/driverl
     709 00000041 0220          MOVB      ACC,#32               ; [CPU_] |313| 
     710 00000042 0F44          CMPL      ACC,*-SP[4]           ; [CPU_] |313| 
     711 00000043 56C4          BF        $C$L17,LT             ; [CPU_] |313| 
         00000044 0035 
     712                      ; branchcc occurs ; [] |313| 
     713 00000045       $C$L14:    
     714                      .dwpsn  file "C:/Users/a0221343/Git/bootROM/f28004x_bootrom/F28004x_ROM_dev_PG2.0/F28004x_ROM/driverl
     715 00000045 0201          MOVB      ACC,#1                ; [CPU_] |315| 
     716 00000046 0744          ADDL      ACC,*-SP[4]           ; [CPU_] |315| 
     717 00000047 1E44          MOVL      *-SP[4],ACC           ; [CPU_] |315| 
     718                      .dwpsn  file "C:/Users/a0221343/Git/bootROM/f28004x_bootrom/F28004x_ROM_dev_PG2.0/F28004x_ROM/driverl
     719 00000048       $C$L15:    
     720                      .dwpsn  file "C:/Users/a0221343/Git/bootROM/f28004x_bootrom/F28004x_ROM_dev_PG2.0/F28004x_ROM/driverl
     721 00000048 8F00          MOVL      XAR4,#256             ; [CPU_U] |320| 
         00000049 0100 
     722 0000004a A8A9          MOVL      ACC,XAR4              ; [CPU_] |320| 
     723 0000004b 0742          ADDL      ACC,*-SP[2]           ; [CPU_] |320| 
     724 0000004c 8AA9          MOVL      XAR4,ACC              ; [CPU_] |320| 
     725 0000004d 06C4          MOVL      ACC,*+XAR4[0]         ; [CPU_] |320| 
     726 0000004e 9B00          MOVB      AH,#0                 ; [CPU_] |320| 
     727 0000004f 18A9          AND       AL,#0x8000            ; [CPU_] |320| 
         00000050 8000 
     728 00000051 8F00          MOVL      XAR4,#32768           ; [CPU_U] |320| 
         00000052 8000 
     729 00000053 0FA4          CMPL      ACC,XAR4              ; [CPU_] |320| 
     730 00000054 ECF4          BF        $C$L15,EQ             ; [CPU_] |320| 
     731                      ; branchcc occurs ; [] |320| 
     732                      .dwpsn  file "C:/Users/a0221343/Git/bootROM/f28004x_bootrom/F28004x_ROM_dev_PG2.0/F28004x_ROM/driverl
     733 00000055 8F00          MOVL      XAR4,#256             ; [CPU_U] |328| 
         00000056 0100 
     734 00000057 8844          MOVZ      AR6,*-SP[4]           ; [CPU_] |328| 
     735 00000058 A8A9          MOVL      ACC,XAR4              ; [CPU_] |328| 
     736 00000059 0742          ADDL      ACC,*-SP[2]           ; [CPU_] |328| 
     737 0000005a 8AA9          MOVL      XAR4,ACC              ; [CPU_] |328| 
     738 0000005b 7EC4          MOV       *+XAR4[0],AR6         ; [CPU_] |328| 
     739                      .dwpsn  file "C:/Users/a0221343/Git/bootROM/f28004x_bootrom/F28004x_ROM_dev_PG2.0/F28004x_ROM/driverl
     740 0000005c       $C$L16:    
TMS320C2000 Assembler PC v6.4.4 Tue Feb 14 14:42:55 2017

Tools Copyright (c) 1996-2015 Texas Instruments Incorporated
C:\Users\a0221343\AppData\Local\Temp\0706410                         PAGE   15

     741                      .dwpsn  file "C:/Users/a0221343/Git/bootROM/f28004x_bootrom/F28004x_ROM_dev_PG2.0/F28004x_ROM/driverl
     742 0000005c 8F00          MOVL      XAR4,#288             ; [CPU_U] |333| 
         0000005d 0120 
     743 0000005e A8A9          MOVL      ACC,XAR4              ; [CPU_] |333| 
     744 0000005f 0742          ADDL      ACC,*-SP[2]           ; [CPU_] |333| 
     745 00000060 8AA9          MOVL      XAR4,ACC              ; [CPU_] |333| 
     746 00000061 06C4          MOVL      ACC,*+XAR4[0]         ; [CPU_] |333| 
     747 00000062 9B00          MOVB      AH,#0                 ; [CPU_] |333| 
     748 00000063 18A9          AND       AL,#0x8000            ; [CPU_] |333| 
         00000064 8000 
     749 00000065 8F00          MOVL      XAR4,#32768           ; [CPU_U] |333| 
         00000066 8000 
     750 00000067 0FA4          CMPL      ACC,XAR4              ; [CPU_] |333| 
     751 00000068 ECF4          BF        $C$L16,EQ             ; [CPU_] |333| 
     752                      ; branchcc occurs ; [] |333| 
     753                      .dwpsn  file "C:/Users/a0221343/Git/bootROM/f28004x_bootrom/F28004x_ROM_dev_PG2.0/F28004x_ROM/driverl
     754 00000069 8F00          MOVL      XAR4,#288             ; [CPU_U] |341| 
         0000006a 0120 
     755 0000006b 5D44          MOVZ      AR5,*-SP[4]           ; [CPU_] |341| 
     756 0000006c A8A9          MOVL      ACC,XAR4              ; [CPU_] |341| 
     757 0000006d 0742          ADDL      ACC,*-SP[2]           ; [CPU_] |341| 
     758 0000006e 8AA9          MOVL      XAR4,ACC              ; [CPU_] |341| 
     759 0000006f DD01          ADDB      XAR5,#1               ; [CPU_] |341| 
     760 00000070 7DC4          MOV       *+XAR4[0],AR5         ; [CPU_] |341| 
     761                      .dwpsn  file "C:/Users/a0221343/Git/bootROM/f28004x_bootrom/F28004x_ROM_dev_PG2.0/F28004x_ROM/driverl
     762 00000071 0201          MOVB      ACC,#1                ; [CPU_] |313| 
     763 00000072 0744          ADDL      ACC,*-SP[4]           ; [CPU_] |313| 
     764 00000073 1E44          MOVL      *-SP[4],ACC           ; [CPU_] |313| 
     765                      .dwpsn  file "C:/Users/a0221343/Git/bootROM/f28004x_bootrom/F28004x_ROM_dev_PG2.0/F28004x_ROM/driverl
     766 00000074 0220          MOVB      ACC,#32               ; [CPU_] |313| 
     767 00000075 0F44          CMPL      ACC,*-SP[4]           ; [CPU_] |313| 
     768 00000076 56C3          BF        $C$L14,GEQ            ; [CPU_] |313| 
         00000077 FFCF 
     769                      ; branchcc occurs ; [] |313| 
     770 00000078       $C$L17:    
     771                      .dwpsn  file "C:/Users/a0221343/Git/bootROM/f28004x_bootrom/F28004x_ROM_dev_PG2.0/F28004x_ROM/driverl
     772 00000078 8F00          MOVL      XAR4,#258             ; [CPU_U] |348| 
         00000079 0102 
     773 0000007a A8A9          MOVL      ACC,XAR4              ; [CPU_] |348| 
     774 0000007b 0742          ADDL      ACC,*-SP[2]           ; [CPU_] |348| 
     775 0000007c 8AA9          MOVL      XAR4,ACC              ; [CPU_] |348| 
     776 0000007d 56BF          MOVB      *+XAR4[0],#12,UNC     ; [CPU_] |348| 
         0000007e 0CC4 
     777                      .dwpsn  file "C:/Users/a0221343/Git/bootROM/f28004x_bootrom/F28004x_ROM_dev_PG2.0/F28004x_ROM/driverl
     778 0000007f 8F00          MOVL      XAR4,#290             ; [CPU_U] |350| 
         00000080 0122 
     779 00000081 A8A9          MOVL      ACC,XAR4              ; [CPU_] |350| 
     780 00000082 0742          ADDL      ACC,*-SP[2]           ; [CPU_] |350| 
     781 00000083 8AA9          MOVL      XAR4,ACC              ; [CPU_] |350| 
     782 00000084 56BF          MOVB      *+XAR4[0],#12,UNC     ; [CPU_] |350| 
         00000085 0CC4 
     783                      .dwpsn  file "C:/Users/a0221343/Git/bootROM/f28004x_bootrom/F28004x_ROM_dev_PG2.0/F28004x_ROM/driverl
     784 00000086 0201          MOVB      ACC,#1                ; [CPU_] |356| 
     785 00000087 1E44          MOVL      *-SP[4],ACC           ; [CPU_] |356| 
     786                      .dwpsn  file "C:/Users/a0221343/Git/bootROM/f28004x_bootrom/F28004x_ROM_dev_PG2.0/F28004x_ROM/driverl
TMS320C2000 Assembler PC v6.4.4 Tue Feb 14 14:42:55 2017

Tools Copyright (c) 1996-2015 Texas Instruments Incorporated
C:\Users\a0221343\AppData\Local\Temp\0706410                         PAGE   16

     787 00000088 0220          MOVB      ACC,#32               ; [CPU_] |356| 
     788 00000089 0F44          CMPL      ACC,*-SP[4]           ; [CPU_] |356| 
     789 0000008a 56C4          BF        $C$L21,LT             ; [CPU_] |356| 
         0000008b 0035 
     790                      ; branchcc occurs ; [] |356| 
     791 0000008c       $C$L18:    
     792                      .dwpsn  file "C:/Users/a0221343/Git/bootROM/f28004x_bootrom/F28004x_ROM_dev_PG2.0/F28004x_ROM/driverl
     793 0000008c 0201          MOVB      ACC,#1                ; [CPU_] |358| 
     794 0000008d 0744          ADDL      ACC,*-SP[4]           ; [CPU_] |358| 
     795 0000008e 1E44          MOVL      *-SP[4],ACC           ; [CPU_] |358| 
     796                      .dwpsn  file "C:/Users/a0221343/Git/bootROM/f28004x_bootrom/F28004x_ROM_dev_PG2.0/F28004x_ROM/driverl
     797 0000008f       $C$L19:    
     798                      .dwpsn  file "C:/Users/a0221343/Git/bootROM/f28004x_bootrom/F28004x_ROM_dev_PG2.0/F28004x_ROM/driverl
     799 0000008f 8F00          MOVL      XAR4,#256             ; [CPU_U] |363| 
         00000090 0100 
     800 00000091 A8A9          MOVL      ACC,XAR4              ; [CPU_] |363| 
     801 00000092 0742          ADDL      ACC,*-SP[2]           ; [CPU_] |363| 
     802 00000093 8AA9          MOVL      XAR4,ACC              ; [CPU_] |363| 
     803 00000094 06C4          MOVL      ACC,*+XAR4[0]         ; [CPU_] |363| 
     804 00000095 9B00          MOVB      AH,#0                 ; [CPU_] |363| 
     805 00000096 18A9          AND       AL,#0x8000            ; [CPU_] |363| 
         00000097 8000 
     806 00000098 8F00          MOVL      XAR4,#32768           ; [CPU_U] |363| 
         00000099 8000 
     807 0000009a 0FA4          CMPL      ACC,XAR4              ; [CPU_] |363| 
     808 0000009b ECF4          BF        $C$L19,EQ             ; [CPU_] |363| 
     809                      ; branchcc occurs ; [] |363| 
     810                      .dwpsn  file "C:/Users/a0221343/Git/bootROM/f28004x_bootrom/F28004x_ROM_dev_PG2.0/F28004x_ROM/driverl
     811 0000009c 8F00          MOVL      XAR4,#256             ; [CPU_U] |371| 
         0000009d 0100 
     812 0000009e 8844          MOVZ      AR6,*-SP[4]           ; [CPU_] |371| 
     813 0000009f A8A9          MOVL      ACC,XAR4              ; [CPU_] |371| 
     814 000000a0 0742          ADDL      ACC,*-SP[2]           ; [CPU_] |371| 
     815 000000a1 8AA9          MOVL      XAR4,ACC              ; [CPU_] |371| 
     816 000000a2 7EC4          MOV       *+XAR4[0],AR6         ; [CPU_] |371| 
     817                      .dwpsn  file "C:/Users/a0221343/Git/bootROM/f28004x_bootrom/F28004x_ROM_dev_PG2.0/F28004x_ROM/driverl
     818 000000a3       $C$L20:    
     819                      .dwpsn  file "C:/Users/a0221343/Git/bootROM/f28004x_bootrom/F28004x_ROM_dev_PG2.0/F28004x_ROM/driverl
     820 000000a3 8F00          MOVL      XAR4,#288             ; [CPU_U] |376| 
         000000a4 0120 
     821 000000a5 A8A9          MOVL      ACC,XAR4              ; [CPU_] |376| 
     822 000000a6 0742          ADDL      ACC,*-SP[2]           ; [CPU_] |376| 
     823 000000a7 8AA9          MOVL      XAR4,ACC              ; [CPU_] |376| 
     824 000000a8 06C4          MOVL      ACC,*+XAR4[0]         ; [CPU_] |376| 
     825 000000a9 9B00          MOVB      AH,#0                 ; [CPU_] |376| 
     826 000000aa 18A9          AND       AL,#0x8000            ; [CPU_] |376| 
         000000ab 8000 
     827 000000ac 8F00          MOVL      XAR4,#32768           ; [CPU_U] |376| 
         000000ad 8000 
     828 000000ae 0FA4          CMPL      ACC,XAR4              ; [CPU_] |376| 
     829 000000af ECF4          BF        $C$L20,EQ             ; [CPU_] |376| 
     830                      ; branchcc occurs ; [] |376| 
     831                      .dwpsn  file "C:/Users/a0221343/Git/bootROM/f28004x_bootrom/F28004x_ROM_dev_PG2.0/F28004x_ROM/driverl
     832 000000b0 8F00          MOVL      XAR4,#288             ; [CPU_U] |384| 
         000000b1 0120 
TMS320C2000 Assembler PC v6.4.4 Tue Feb 14 14:42:55 2017

Tools Copyright (c) 1996-2015 Texas Instruments Incorporated
C:\Users\a0221343\AppData\Local\Temp\0706410                         PAGE   17

     833 000000b2 5D44          MOVZ      AR5,*-SP[4]           ; [CPU_] |384| 
     834 000000b3 A8A9          MOVL      ACC,XAR4              ; [CPU_] |384| 
     835 000000b4 0742          ADDL      ACC,*-SP[2]           ; [CPU_] |384| 
     836 000000b5 8AA9          MOVL      XAR4,ACC              ; [CPU_] |384| 
     837 000000b6 DD01          ADDB      XAR5,#1               ; [CPU_] |384| 
     838 000000b7 7DC4          MOV       *+XAR4[0],AR5         ; [CPU_] |384| 
     839                      .dwpsn  file "C:/Users/a0221343/Git/bootROM/f28004x_bootrom/F28004x_ROM_dev_PG2.0/F28004x_ROM/driverl
     840 000000b8 0201          MOVB      ACC,#1                ; [CPU_] |356| 
     841 000000b9 0744          ADDL      ACC,*-SP[4]           ; [CPU_] |356| 
     842 000000ba 1E44          MOVL      *-SP[4],ACC           ; [CPU_] |356| 
     843                      .dwpsn  file "C:/Users/a0221343/Git/bootROM/f28004x_bootrom/F28004x_ROM_dev_PG2.0/F28004x_ROM/driverl
     844 000000bb 0220          MOVB      ACC,#32               ; [CPU_] |356| 
     845 000000bc 0F44          CMPL      ACC,*-SP[4]           ; [CPU_] |356| 
     846 000000bd 56C3          BF        $C$L18,GEQ            ; [CPU_] |356| 
         000000be FFCF 
     847                      ; branchcc occurs ; [] |356| 
     848 000000bf       $C$L21:    
     849                      .dwpsn  file "C:/Users/a0221343/Git/bootROM/f28004x_bootrom/F28004x_ROM_dev_PG2.0/F28004x_ROM/driverl
     850 000000bf 8A42          MOVL      XAR4,*-SP[2]          ; [CPU_] |390| 
     851 000000c0 06E4          MOVL      ACC,*+XAR4[4]         ; [CPU_] |390| 
     852                      .dwpsn  file "C:/Users/a0221343/Git/bootROM/f28004x_bootrom/F28004x_ROM_dev_PG2.0/F28004x_ROM/driverl
     853 000000c1 FE84          SUBB      SP,#4                 ; [CPU_U] 
     854                      .dwcfi  cfa_offset, -2
     855              $C$DW$53        .dwtag  DW_TAG_TI_branch
     856                      .dwattr $C$DW$53, DW_AT_low_pc(0x00)
     857                      .dwattr $C$DW$53, DW_AT_TI_return
     858 000000c2 0006          LRETR     ; [CPU_] 
     859                      ; return occurs ; [] 
     860                      .dwattr $C$DW$48, DW_AT_TI_end_file("C:/Users/a0221343/Git/bootROM/f28004x_bootrom/F28004x_ROM_dev_PG
     861                      .dwattr $C$DW$48, DW_AT_TI_end_line(0x187)
     862                      .dwattr $C$DW$48, DW_AT_TI_end_column(0x01)
     863                      .dwendentry
     864                      .dwendtag $C$DW$48
     865              
     866 00000000               .sect   ".text:_CAN_initRam"
     867                      .clink
     868                      .global _CAN_initRam
     869              
     870              $C$DW$54        .dwtag  DW_TAG_subprogram, DW_AT_name("CAN_initRam")
     871                      .dwattr $C$DW$54, DW_AT_low_pc(_CAN_initRam)
     872                      .dwattr $C$DW$54, DW_AT_high_pc(0x00)
     873                      .dwattr $C$DW$54, DW_AT_TI_symbol_name("_CAN_initRam")
     874                      .dwattr $C$DW$54, DW_AT_external
     875                      .dwattr $C$DW$54, DW_AT_TI_begin_file("C:/Users/a0221343/Git/bootROM/f28004x_bootrom/F28004x_ROM_dev_
     876                      .dwattr $C$DW$54, DW_AT_TI_begin_line(0x194)
     877                      .dwattr $C$DW$54, DW_AT_TI_begin_column(0x01)
     878                      .dwattr $C$DW$54, DW_AT_TI_max_frame_size(-4)
     879                      .dwpsn  file "C:/Users/a0221343/Git/bootROM/f28004x_bootrom/F28004x_ROM_dev_PG2.0/F28004x_ROM/driverl
     880              
     881                      .dwfde $C$DW$CIE, _CAN_initRam
     882              $C$DW$55        .dwtag  DW_TAG_formal_parameter, DW_AT_name("base")
     883                      .dwattr $C$DW$55, DW_AT_TI_symbol_name("_base")
     884                      .dwattr $C$DW$55, DW_AT_type(*$C$DW$T$19)
     885                      .dwattr $C$DW$55, DW_AT_location[DW_OP_reg0]
     886              
TMS320C2000 Assembler PC v6.4.4 Tue Feb 14 14:42:55 2017

Tools Copyright (c) 1996-2015 Texas Instruments Incorporated
C:\Users\a0221343\AppData\Local\Temp\0706410                         PAGE   18

     887              ;***************************************************************
     888              ;* FNAME: _CAN_initRam                  FR SIZE:   2           *
     889              ;*                                                             *
     890              ;* FUNCTION ENVIRONMENT                                        *
     891              ;*                                                             *
     892              ;* FUNCTION PROPERTIES                                         *
     893              ;*                            0 Parameter,  2 Auto,  0 SOE     *
     894              ;***************************************************************
     895              
     896 00000000       _CAN_initRam:
     897                      .dwcfi  cfa_offset, -2
     898                      .dwcfi  save_reg_to_mem, 26, 0
     899 00000000 FE02          ADDB      SP,#2                 ; [CPU_U] 
     900                      .dwcfi  cfa_offset, -4
     901              $C$DW$56        .dwtag  DW_TAG_variable, DW_AT_name("base")
     902                      .dwattr $C$DW$56, DW_AT_TI_symbol_name("_base")
     903                      .dwattr $C$DW$56, DW_AT_type(*$C$DW$T$19)
     904                      .dwattr $C$DW$56, DW_AT_location[DW_OP_breg20 -2]
     905 00000001 1E42          MOVL      *-SP[2],ACC           ; [CPU_] |405| 
     906                      .dwpsn  file "C:/Users/a0221343/Git/bootROM/f28004x_bootrom/F28004x_ROM_dev_PG2.0/F28004x_ROM/driverl
     907 00000002 BE1A          MOVB      XAR6,#26              ; [CPU_] |411| 
     908 00000003 0240          MOVB      ACC,#64               ; [CPU_] |411| 
     909 00000004 0742          ADDL      ACC,*-SP[2]           ; [CPU_] |411| 
     910 00000005 8AA9          MOVL      XAR4,ACC              ; [CPU_] |411| 
     911 00000006 C2C4          MOVL      *+XAR4[0],XAR6        ; [CPU_] |411| 
     912                      .dwpsn  file "C:/Users/a0221343/Git/bootROM/f28004x_bootrom/F28004x_ROM_dev_PG2.0/F28004x_ROM/driverl
     913 00000007 BE20          MOVB      XAR6,#32              ; [CPU_] |413| 
     914 00000008       $C$L22:    
     915                      .dwpsn  file "C:/Users/a0221343/Git/bootROM/f28004x_bootrom/F28004x_ROM_dev_PG2.0/F28004x_ROM/driverl
     916 00000008 0240          MOVB      ACC,#64               ; [CPU_] |413| 
     917 00000009 0742          ADDL      ACC,*-SP[2]           ; [CPU_] |413| 
     918 0000000a 8AA9          MOVL      XAR4,ACC              ; [CPU_] |413| 
     919 0000000b 06C4          MOVL      ACC,*+XAR4[0]         ; [CPU_] |413| 
     920 0000000c 9B00          MOVB      AH,#0                 ; [CPU_] |413| 
     921 0000000d 9020          ANDB      AL,#0x20              ; [CPU_] |413| 
     922 0000000e 0FA6          CMPL      ACC,XAR6              ; [CPU_] |413| 
     923 0000000f EDF9          BF        $C$L22,NEQ            ; [CPU_] |413| 
     924                      ; branchcc occurs ; [] |413| 
     925                      .dwpsn  file "C:/Users/a0221343/Git/bootROM/f28004x_bootrom/F28004x_ROM_dev_PG2.0/F28004x_ROM/driverl
     926 00000010 FE82          SUBB      SP,#2                 ; [CPU_U] 
     927                      .dwcfi  cfa_offset, -2
     928              $C$DW$57        .dwtag  DW_TAG_TI_branch
     929                      .dwattr $C$DW$57, DW_AT_low_pc(0x00)
     930                      .dwattr $C$DW$57, DW_AT_TI_return
     931 00000011 0006          LRETR     ; [CPU_] 
     932                      ; return occurs ; [] 
     933                      .dwattr $C$DW$54, DW_AT_TI_end_file("C:/Users/a0221343/Git/bootROM/f28004x_bootrom/F28004x_ROM_dev_PG
     934                      .dwattr $C$DW$54, DW_AT_TI_end_line(0x1a4)
     935                      .dwattr $C$DW$54, DW_AT_TI_end_column(0x01)
     936                      .dwendentry
     937                      .dwendtag $C$DW$54
     938              
     939 00000000               .sect   ".text:_CAN_enableController"
     940                      .clink
     941                      .global _CAN_enableController
TMS320C2000 Assembler PC v6.4.4 Tue Feb 14 14:42:55 2017

Tools Copyright (c) 1996-2015 Texas Instruments Incorporated
C:\Users\a0221343\AppData\Local\Temp\0706410                         PAGE   19

     942              
     943              $C$DW$58        .dwtag  DW_TAG_subprogram, DW_AT_name("CAN_enableController")
     944                      .dwattr $C$DW$58, DW_AT_low_pc(_CAN_enableController)
     945                      .dwattr $C$DW$58, DW_AT_high_pc(0x00)
     946                      .dwattr $C$DW$58, DW_AT_TI_symbol_name("_CAN_enableController")
     947                      .dwattr $C$DW$58, DW_AT_external
     948                      .dwattr $C$DW$58, DW_AT_TI_begin_file("C:/Users/a0221343/Git/bootROM/f28004x_bootrom/F28004x_ROM_dev_
     949                      .dwattr $C$DW$58, DW_AT_TI_begin_line(0x1b6)
     950                      .dwattr $C$DW$58, DW_AT_TI_begin_column(0x01)
     951                      .dwattr $C$DW$58, DW_AT_TI_max_frame_size(-4)
     952                      .dwpsn  file "C:/Users/a0221343/Git/bootROM/f28004x_bootrom/F28004x_ROM_dev_PG2.0/F28004x_ROM/driverl
     953              
     954                      .dwfde $C$DW$CIE, _CAN_enableController
     955              $C$DW$59        .dwtag  DW_TAG_formal_parameter, DW_AT_name("base")
     956                      .dwattr $C$DW$59, DW_AT_TI_symbol_name("_base")
     957                      .dwattr $C$DW$59, DW_AT_type(*$C$DW$T$19)
     958                      .dwattr $C$DW$59, DW_AT_location[DW_OP_reg0]
     959              
     960              ;***************************************************************
     961              ;* FNAME: _CAN_enableController         FR SIZE:   2           *
     962              ;*                                                             *
     963              ;* FUNCTION ENVIRONMENT                                        *
     964              ;*                                                             *
     965              ;* FUNCTION PROPERTIES                                         *
     966              ;*                            0 Parameter,  2 Auto,  0 SOE     *
     967              ;***************************************************************
     968              
     969 00000000       _CAN_enableController:
     970                      .dwcfi  cfa_offset, -2
     971                      .dwcfi  save_reg_to_mem, 26, 0
     972 00000000 FE02          ADDB      SP,#2                 ; [CPU_U] 
     973                      .dwcfi  cfa_offset, -4
     974              $C$DW$60        .dwtag  DW_TAG_variable, DW_AT_name("base")
     975                      .dwattr $C$DW$60, DW_AT_TI_symbol_name("_base")
     976                      .dwattr $C$DW$60, DW_AT_type(*$C$DW$T$19)
     977                      .dwattr $C$DW$60, DW_AT_location[DW_OP_breg20 -2]
     978 00000001 1E42          MOVL      *-SP[2],ACC           ; [CPU_] |439| 
     979                      .dwpsn  file "C:/Users/a0221343/Git/bootROM/f28004x_bootrom/F28004x_ROM_dev_PG2.0/F28004x_ROM/driverl
     980 00000002 8A42          MOVL      XAR4,*-SP[2]          ; [CPU_] |448| 
     981 00000003 8342          MOVL      XAR5,*-SP[2]          ; [CPU_] |448| 
     982 00000004 CCC4          AND       AL,*+XAR4[0],#0xfffe  ; [CPU_] |448| 
         00000005 FFFE 
     983 00000006 96C5          MOV       *+XAR5[0],AL          ; [CPU_] |448| 
     984                      .dwpsn  file "C:/Users/a0221343/Git/bootROM/f28004x_bootrom/F28004x_ROM_dev_PG2.0/F28004x_ROM/driverl
     985 00000007 FE82          SUBB      SP,#2                 ; [CPU_U] 
     986                      .dwcfi  cfa_offset, -2
     987              $C$DW$61        .dwtag  DW_TAG_TI_branch
     988                      .dwattr $C$DW$61, DW_AT_low_pc(0x00)
     989                      .dwattr $C$DW$61, DW_AT_TI_return
     990 00000008 0006          LRETR     ; [CPU_] 
     991                      ; return occurs ; [] 
     992                      .dwattr $C$DW$58, DW_AT_TI_end_file("C:/Users/a0221343/Git/bootROM/f28004x_bootrom/F28004x_ROM_dev_PG
     993                      .dwattr $C$DW$58, DW_AT_TI_end_line(0x1c1)
     994                      .dwattr $C$DW$58, DW_AT_TI_end_column(0x01)
     995                      .dwendentry
TMS320C2000 Assembler PC v6.4.4 Tue Feb 14 14:42:55 2017

Tools Copyright (c) 1996-2015 Texas Instruments Incorporated
C:\Users\a0221343\AppData\Local\Temp\0706410                         PAGE   20

     996                      .dwendtag $C$DW$58
     997              
     998 00000000               .sect   ".text:_CAN_disableController"
     999                      .clink
    1000                      .global _CAN_disableController
    1001              
    1002              $C$DW$62        .dwtag  DW_TAG_subprogram, DW_AT_name("CAN_disableController")
    1003                      .dwattr $C$DW$62, DW_AT_low_pc(_CAN_disableController)
    1004                      .dwattr $C$DW$62, DW_AT_high_pc(0x00)
    1005                      .dwattr $C$DW$62, DW_AT_TI_symbol_name("_CAN_disableController")
    1006                      .dwattr $C$DW$62, DW_AT_external
    1007                      .dwattr $C$DW$62, DW_AT_TI_begin_file("C:/Users/a0221343/Git/bootROM/f28004x_bootrom/F28004x_ROM_dev_
    1008                      .dwattr $C$DW$62, DW_AT_TI_begin_line(0x1d2)
    1009                      .dwattr $C$DW$62, DW_AT_TI_begin_column(0x01)
    1010                      .dwattr $C$DW$62, DW_AT_TI_max_frame_size(-4)
    1011                      .dwpsn  file "C:/Users/a0221343/Git/bootROM/f28004x_bootrom/F28004x_ROM_dev_PG2.0/F28004x_ROM/driverl
    1012              
    1013                      .dwfde $C$DW$CIE, _CAN_disableController
    1014              $C$DW$63        .dwtag  DW_TAG_formal_parameter, DW_AT_name("base")
    1015                      .dwattr $C$DW$63, DW_AT_TI_symbol_name("_base")
    1016                      .dwattr $C$DW$63, DW_AT_type(*$C$DW$T$19)
    1017                      .dwattr $C$DW$63, DW_AT_location[DW_OP_reg0]
    1018              
    1019              ;***************************************************************
    1020              ;* FNAME: _CAN_disableController        FR SIZE:   2           *
    1021              ;*                                                             *
    1022              ;* FUNCTION ENVIRONMENT                                        *
    1023              ;*                                                             *
    1024              ;* FUNCTION PROPERTIES                                         *
    1025              ;*                            0 Parameter,  2 Auto,  0 SOE     *
    1026              ;***************************************************************
    1027              
    1028 00000000       _CAN_disableController:
    1029                      .dwcfi  cfa_offset, -2
    1030                      .dwcfi  save_reg_to_mem, 26, 0
    1031 00000000 FE02          ADDB      SP,#2                 ; [CPU_U] 
    1032                      .dwcfi  cfa_offset, -4
    1033              $C$DW$64        .dwtag  DW_TAG_variable, DW_AT_name("base")
    1034                      .dwattr $C$DW$64, DW_AT_TI_symbol_name("_base")
    1035                      .dwattr $C$DW$64, DW_AT_type(*$C$DW$T$19)
    1036                      .dwattr $C$DW$64, DW_AT_location[DW_OP_breg20 -2]
    1037 00000001 1E42          MOVL      *-SP[2],ACC           ; [CPU_] |467| 
    1038                      .dwpsn  file "C:/Users/a0221343/Git/bootROM/f28004x_bootrom/F28004x_ROM_dev_PG2.0/F28004x_ROM/driverl
    1039 00000002 8A42          MOVL      XAR4,*-SP[2]          ; [CPU_] |476| 
    1040 00000003 92C4          MOV       AL,*+XAR4[0]          ; [CPU_] |476| 
    1041 00000004 5001          ORB       AL,#0x01              ; [CPU_] |476| 
    1042 00000005 96C4          MOV       *+XAR4[0],AL          ; [CPU_] |476| 
    1043                      .dwpsn  file "C:/Users/a0221343/Git/bootROM/f28004x_bootrom/F28004x_ROM_dev_PG2.0/F28004x_ROM/driverl
    1044 00000006 FE82          SUBB      SP,#2                 ; [CPU_U] 
    1045                      .dwcfi  cfa_offset, -2
    1046              $C$DW$65        .dwtag  DW_TAG_TI_branch
    1047                      .dwattr $C$DW$65, DW_AT_low_pc(0x00)
    1048                      .dwattr $C$DW$65, DW_AT_TI_return
    1049 00000007 0006          LRETR     ; [CPU_] 
    1050                      ; return occurs ; [] 
TMS320C2000 Assembler PC v6.4.4 Tue Feb 14 14:42:55 2017

Tools Copyright (c) 1996-2015 Texas Instruments Incorporated
C:\Users\a0221343\AppData\Local\Temp\0706410                         PAGE   21

    1051                      .dwattr $C$DW$62, DW_AT_TI_end_file("C:/Users/a0221343/Git/bootROM/f28004x_bootrom/F28004x_ROM_dev_PG
    1052                      .dwattr $C$DW$62, DW_AT_TI_end_line(0x1dd)
    1053                      .dwattr $C$DW$62, DW_AT_TI_end_column(0x01)
    1054                      .dwendentry
    1055                      .dwendtag $C$DW$62
    1056              
    1057 00000000               .sect   ".text:_CAN_enableTestMode"
    1058                      .clink
    1059                      .global _CAN_enableTestMode
    1060              
    1061              $C$DW$66        .dwtag  DW_TAG_subprogram, DW_AT_name("CAN_enableTestMode")
    1062                      .dwattr $C$DW$66, DW_AT_low_pc(_CAN_enableTestMode)
    1063                      .dwattr $C$DW$66, DW_AT_high_pc(0x00)
    1064                      .dwattr $C$DW$66, DW_AT_TI_symbol_name("_CAN_enableTestMode")
    1065                      .dwattr $C$DW$66, DW_AT_external
    1066                      .dwattr $C$DW$66, DW_AT_TI_begin_file("C:/Users/a0221343/Git/bootROM/f28004x_bootrom/F28004x_ROM_dev_
    1067                      .dwattr $C$DW$66, DW_AT_TI_begin_line(0x1f2)
    1068                      .dwattr $C$DW$66, DW_AT_TI_begin_column(0x01)
    1069                      .dwattr $C$DW$66, DW_AT_TI_max_frame_size(-6)
    1070                      .dwpsn  file "C:/Users/a0221343/Git/bootROM/f28004x_bootrom/F28004x_ROM_dev_PG2.0/F28004x_ROM/driverl
    1071              
    1072                      .dwfde $C$DW$CIE, _CAN_enableTestMode
    1073              $C$DW$67        .dwtag  DW_TAG_formal_parameter, DW_AT_name("base")
    1074                      .dwattr $C$DW$67, DW_AT_TI_symbol_name("_base")
    1075                      .dwattr $C$DW$67, DW_AT_type(*$C$DW$T$19)
    1076                      .dwattr $C$DW$67, DW_AT_location[DW_OP_reg0]
    1077              $C$DW$68        .dwtag  DW_TAG_formal_parameter, DW_AT_name("mode")
    1078                      .dwattr $C$DW$68, DW_AT_TI_symbol_name("_mode")
    1079                      .dwattr $C$DW$68, DW_AT_type(*$C$DW$T$21)
    1080                      .dwattr $C$DW$68, DW_AT_location[DW_OP_reg12]
    1081              
    1082              ;***************************************************************
    1083              ;* FNAME: _CAN_enableTestMode           FR SIZE:   4           *
    1084              ;*                                                             *
    1085              ;* FUNCTION ENVIRONMENT                                        *
    1086              ;*                                                             *
    1087              ;* FUNCTION PROPERTIES                                         *
    1088              ;*                            0 Parameter,  3 Auto,  0 SOE     *
    1089              ;***************************************************************
    1090              
    1091 00000000       _CAN_enableTestMode:
    1092                      .dwcfi  cfa_offset, -2
    1093                      .dwcfi  save_reg_to_mem, 26, 0
    1094 00000000 FE04          ADDB      SP,#4                 ; [CPU_U] 
    1095                      .dwcfi  cfa_offset, -6
    1096              $C$DW$69        .dwtag  DW_TAG_variable, DW_AT_name("base")
    1097                      .dwattr $C$DW$69, DW_AT_TI_symbol_name("_base")
    1098                      .dwattr $C$DW$69, DW_AT_type(*$C$DW$T$19)
    1099                      .dwattr $C$DW$69, DW_AT_location[DW_OP_breg20 -2]
    1100              $C$DW$70        .dwtag  DW_TAG_variable, DW_AT_name("mode")
    1101                      .dwattr $C$DW$70, DW_AT_TI_symbol_name("_mode")
    1102                      .dwattr $C$DW$70, DW_AT_type(*$C$DW$T$21)
    1103                      .dwattr $C$DW$70, DW_AT_location[DW_OP_breg20 -3]
    1104 00000001 7C43          MOV       *-SP[3],AR4           ; [CPU_] |499| 
    1105 00000002 1E42          MOVL      *-SP[2],ACC           ; [CPU_] |499| 
TMS320C2000 Assembler PC v6.4.4 Tue Feb 14 14:42:55 2017

Tools Copyright (c) 1996-2015 Texas Instruments Incorporated
C:\Users\a0221343\AppData\Local\Temp\0706410                         PAGE   22

    1106                      .dwpsn  file "C:/Users/a0221343/Git/bootROM/f28004x_bootrom/F28004x_ROM_dev_PG2.0/F28004x_ROM/driverl
    1107 00000003 8A42          MOVL      XAR4,*-SP[2]          ; [CPU_] |508| 
    1108 00000004 1AC4          OR        *+XAR4[0],#0x0080     ; [CPU_] |508| 
         00000005 0080 
    1109                      .dwpsn  file "C:/Users/a0221343/Git/bootROM/f28004x_bootrom/F28004x_ROM_dev_PG2.0/F28004x_ROM/driverl
    1110 00000006 0214          MOVB      ACC,#20               ; [CPU_] |509| 
    1111 00000007 0742          ADDL      ACC,*-SP[2]           ; [CPU_] |509| 
    1112 00000008 8AA9          MOVL      XAR4,ACC              ; [CPU_] |509| 
    1113 00000009 9243          MOV       AL,*-SP[3]            ; [CPU_] |509| 
    1114 0000000a 98C4          OR        *+XAR4[0],AL          ; [CPU_] |509| 
    1115                      .dwpsn  file "C:/Users/a0221343/Git/bootROM/f28004x_bootrom/F28004x_ROM_dev_PG2.0/F28004x_ROM/driverl
    1116 0000000b FE84          SUBB      SP,#4                 ; [CPU_U] 
    1117                      .dwcfi  cfa_offset, -2
    1118              $C$DW$71        .dwtag  DW_TAG_TI_branch
    1119                      .dwattr $C$DW$71, DW_AT_low_pc(0x00)
    1120                      .dwattr $C$DW$71, DW_AT_TI_return
    1121 0000000c 0006          LRETR     ; [CPU_] 
    1122                      ; return occurs ; [] 
    1123                      .dwattr $C$DW$66, DW_AT_TI_end_file("C:/Users/a0221343/Git/bootROM/f28004x_bootrom/F28004x_ROM_dev_PG
    1124                      .dwattr $C$DW$66, DW_AT_TI_end_line(0x1fe)
    1125                      .dwattr $C$DW$66, DW_AT_TI_end_column(0x01)
    1126                      .dwendentry
    1127                      .dwendtag $C$DW$66
    1128              
    1129 00000000               .sect   ".text:_CAN_setInterruptionDebugMode"
    1130                      .clink
    1131                      .global _CAN_setInterruptionDebugMode
    1132              
    1133              $C$DW$72        .dwtag  DW_TAG_subprogram, DW_AT_name("CAN_setInterruptionDebugMode")
    1134                      .dwattr $C$DW$72, DW_AT_low_pc(_CAN_setInterruptionDebugMode)
    1135                      .dwattr $C$DW$72, DW_AT_high_pc(0x00)
    1136                      .dwattr $C$DW$72, DW_AT_TI_symbol_name("_CAN_setInterruptionDebugMode")
    1137                      .dwattr $C$DW$72, DW_AT_external
    1138                      .dwattr $C$DW$72, DW_AT_TI_begin_file("C:/Users/a0221343/Git/bootROM/f28004x_bootrom/F28004x_ROM_dev_
    1139                      .dwattr $C$DW$72, DW_AT_TI_begin_line(0x210)
    1140                      .dwattr $C$DW$72, DW_AT_TI_begin_column(0x01)
    1141                      .dwattr $C$DW$72, DW_AT_TI_max_frame_size(-6)
    1142                      .dwpsn  file "C:/Users/a0221343/Git/bootROM/f28004x_bootrom/F28004x_ROM_dev_PG2.0/F28004x_ROM/driverl
    1143              
    1144                      .dwfde $C$DW$CIE, _CAN_setInterruptionDebugMode
    1145              $C$DW$73        .dwtag  DW_TAG_formal_parameter, DW_AT_name("base")
    1146                      .dwattr $C$DW$73, DW_AT_TI_symbol_name("_base")
    1147                      .dwattr $C$DW$73, DW_AT_type(*$C$DW$T$19)
    1148                      .dwattr $C$DW$73, DW_AT_location[DW_OP_reg0]
    1149              $C$DW$74        .dwtag  DW_TAG_formal_parameter, DW_AT_name("enable")
    1150                      .dwattr $C$DW$74, DW_AT_TI_symbol_name("_enable")
    1151                      .dwattr $C$DW$74, DW_AT_type(*$C$DW$T$44)
    1152                      .dwattr $C$DW$74, DW_AT_location[DW_OP_reg12]
    1153              
    1154              ;***************************************************************
    1155              ;* FNAME: _CAN_setInterruptionDebugMode FR SIZE:   4           *
    1156              ;*                                                             *
    1157              ;* FUNCTION ENVIRONMENT                                        *
    1158              ;*                                                             *
    1159              ;* FUNCTION PROPERTIES                                         *
TMS320C2000 Assembler PC v6.4.4 Tue Feb 14 14:42:55 2017

Tools Copyright (c) 1996-2015 Texas Instruments Incorporated
C:\Users\a0221343\AppData\Local\Temp\0706410                         PAGE   23

    1160              ;*                            0 Parameter,  3 Auto,  0 SOE     *
    1161              ;***************************************************************
    1162              
    1163 00000000       _CAN_setInterruptionDebugMode:
    1164                      .dwcfi  cfa_offset, -2
    1165                      .dwcfi  save_reg_to_mem, 26, 0
    1166 00000000 FE04          ADDB      SP,#4                 ; [CPU_U] 
    1167                      .dwcfi  cfa_offset, -6
    1168              $C$DW$75        .dwtag  DW_TAG_variable, DW_AT_name("base")
    1169                      .dwattr $C$DW$75, DW_AT_TI_symbol_name("_base")
    1170                      .dwattr $C$DW$75, DW_AT_type(*$C$DW$T$19)
    1171                      .dwattr $C$DW$75, DW_AT_location[DW_OP_breg20 -2]
    1172              $C$DW$76        .dwtag  DW_TAG_variable, DW_AT_name("enable")
    1173                      .dwattr $C$DW$76, DW_AT_TI_symbol_name("_enable")
    1174                      .dwattr $C$DW$76, DW_AT_type(*$C$DW$T$44)
    1175                      .dwattr $C$DW$76, DW_AT_location[DW_OP_breg20 -3]
    1176 00000001 7C43          MOV       *-SP[3],AR4           ; [CPU_] |529| 
    1177 00000002 1E42          MOVL      *-SP[2],ACC           ; [CPU_] |529| 
    1178                      .dwpsn  file "C:/Users/a0221343/Git/bootROM/f28004x_bootrom/F28004x_ROM_dev_PG2.0/F28004x_ROM/driverl
    1179 00000003 9243          MOV       AL,*-SP[3]            ; [CPU_] |535| 
    1180 00000004 EC05          BF        $C$L23,EQ             ; [CPU_] |535| 
    1181                      ; branchcc occurs ; [] |535| 
    1182                      .dwpsn  file "C:/Users/a0221343/Git/bootROM/f28004x_bootrom/F28004x_ROM_dev_PG2.0/F28004x_ROM/driverl
    1183 00000005 8A42          MOVL      XAR4,*-SP[2]          ; [CPU_] |540| 
    1184 00000006 1AC4          OR        *+XAR4[0],#0x0100     ; [CPU_] |540| 
         00000007 0100 
    1185                      .dwpsn  file "C:/Users/a0221343/Git/bootROM/f28004x_bootrom/F28004x_ROM_dev_PG2.0/F28004x_ROM/driverl
    1186 00000008 6F04          B         $C$L24,UNC            ; [CPU_] |541| 
    1187                      ; branch occurs ; [] |541| 
    1188 00000009       $C$L23:    
    1189                      .dwpsn  file "C:/Users/a0221343/Git/bootROM/f28004x_bootrom/F28004x_ROM_dev_PG2.0/F28004x_ROM/driverl
    1190 00000009 8A42          MOVL      XAR4,*-SP[2]          ; [CPU_] |547| 
    1191 0000000a 18C4          AND       *+XAR4[0],#0xfeff     ; [CPU_] |547| 
         0000000b FEFF 
    1192                      .dwpsn  file "C:/Users/a0221343/Git/bootROM/f28004x_bootrom/F28004x_ROM_dev_PG2.0/F28004x_ROM/driverl
    1193 0000000c       $C$L24:    
    1194 0000000c FE84          SUBB      SP,#4                 ; [CPU_U] 
    1195                      .dwcfi  cfa_offset, -2
    1196              $C$DW$77        .dwtag  DW_TAG_TI_branch
    1197                      .dwattr $C$DW$77, DW_AT_low_pc(0x00)
    1198                      .dwattr $C$DW$77, DW_AT_TI_return
    1199 0000000d 0006          LRETR     ; [CPU_] 
    1200                      ; return occurs ; [] 
    1201                      .dwattr $C$DW$72, DW_AT_TI_end_file("C:/Users/a0221343/Git/bootROM/f28004x_bootrom/F28004x_ROM_dev_PG
    1202                      .dwattr $C$DW$72, DW_AT_TI_end_line(0x225)
    1203                      .dwattr $C$DW$72, DW_AT_TI_end_column(0x01)
    1204                      .dwendentry
    1205                      .dwendtag $C$DW$72
    1206              
    1207 00000000               .sect   ".text:_CAN_disableTestMode"
    1208                      .clink
    1209                      .global _CAN_disableTestMode
    1210              
    1211              $C$DW$78        .dwtag  DW_TAG_subprogram, DW_AT_name("CAN_disableTestMode")
    1212                      .dwattr $C$DW$78, DW_AT_low_pc(_CAN_disableTestMode)
TMS320C2000 Assembler PC v6.4.4 Tue Feb 14 14:42:55 2017

Tools Copyright (c) 1996-2015 Texas Instruments Incorporated
C:\Users\a0221343\AppData\Local\Temp\0706410                         PAGE   24

    1213                      .dwattr $C$DW$78, DW_AT_high_pc(0x00)
    1214                      .dwattr $C$DW$78, DW_AT_TI_symbol_name("_CAN_disableTestMode")
    1215                      .dwattr $C$DW$78, DW_AT_external
    1216                      .dwattr $C$DW$78, DW_AT_TI_begin_file("C:/Users/a0221343/Git/bootROM/f28004x_bootrom/F28004x_ROM_dev_
    1217                      .dwattr $C$DW$78, DW_AT_TI_begin_line(0x23a)
    1218                      .dwattr $C$DW$78, DW_AT_TI_begin_column(0x01)
    1219                      .dwattr $C$DW$78, DW_AT_TI_max_frame_size(-6)
    1220                      .dwpsn  file "C:/Users/a0221343/Git/bootROM/f28004x_bootrom/F28004x_ROM_dev_PG2.0/F28004x_ROM/driverl
    1221              
    1222                      .dwfde $C$DW$CIE, _CAN_disableTestMode
    1223              $C$DW$79        .dwtag  DW_TAG_formal_parameter, DW_AT_name("base")
    1224                      .dwattr $C$DW$79, DW_AT_TI_symbol_name("_base")
    1225                      .dwattr $C$DW$79, DW_AT_type(*$C$DW$T$19)
    1226                      .dwattr $C$DW$79, DW_AT_location[DW_OP_reg0]
    1227              $C$DW$80        .dwtag  DW_TAG_formal_parameter, DW_AT_name("mode")
    1228                      .dwattr $C$DW$80, DW_AT_TI_symbol_name("_mode")
    1229                      .dwattr $C$DW$80, DW_AT_type(*$C$DW$T$21)
    1230                      .dwattr $C$DW$80, DW_AT_location[DW_OP_reg12]
    1231              
    1232              ;***************************************************************
    1233              ;* FNAME: _CAN_disableTestMode          FR SIZE:   4           *
    1234              ;*                                                             *
    1235              ;* FUNCTION ENVIRONMENT                                        *
    1236              ;*                                                             *
    1237              ;* FUNCTION PROPERTIES                                         *
    1238              ;*                            0 Parameter,  3 Auto,  0 SOE     *
    1239              ;***************************************************************
    1240              
    1241 00000000       _CAN_disableTestMode:
    1242                      .dwcfi  cfa_offset, -2
    1243                      .dwcfi  save_reg_to_mem, 26, 0
    1244 00000000 FE04          ADDB      SP,#4                 ; [CPU_U] 
    1245                      .dwcfi  cfa_offset, -6
    1246              $C$DW$81        .dwtag  DW_TAG_variable, DW_AT_name("base")
    1247                      .dwattr $C$DW$81, DW_AT_TI_symbol_name("_base")
    1248                      .dwattr $C$DW$81, DW_AT_type(*$C$DW$T$19)
    1249                      .dwattr $C$DW$81, DW_AT_location[DW_OP_breg20 -2]
    1250              $C$DW$82        .dwtag  DW_TAG_variable, DW_AT_name("mode")
    1251                      .dwattr $C$DW$82, DW_AT_TI_symbol_name("_mode")
    1252                      .dwattr $C$DW$82, DW_AT_type(*$C$DW$T$21)
    1253                      .dwattr $C$DW$82, DW_AT_location[DW_OP_breg20 -3]
    1254 00000001 7C43          MOV       *-SP[3],AR4           ; [CPU_] |571| 
    1255 00000002 1E42          MOVL      *-SP[2],ACC           ; [CPU_] |571| 
    1256                      .dwpsn  file "C:/Users/a0221343/Git/bootROM/f28004x_bootrom/F28004x_ROM_dev_PG2.0/F28004x_ROM/driverl
    1257 00000003 0214          MOVB      ACC,#20               ; [CPU_] |580| 
    1258 00000004 0742          ADDL      ACC,*-SP[2]           ; [CPU_] |580| 
    1259 00000005 8AA9          MOVL      XAR4,ACC              ; [CPU_] |580| 
    1260 00000006 9243          MOV       AL,*-SP[3]            ; [CPU_] |580| 
    1261 00000007 FF5E          NOT       AL                    ; [CPU_] |580| 
    1262 00000008 C0C4          AND       *+XAR4[0],AL          ; [CPU_] |580| 
    1263                      .dwpsn  file "C:/Users/a0221343/Git/bootROM/f28004x_bootrom/F28004x_ROM_dev_PG2.0/F28004x_ROM/driverl
    1264 00000009 FE84          SUBB      SP,#4                 ; [CPU_U] 
    1265                      .dwcfi  cfa_offset, -2
    1266              $C$DW$83        .dwtag  DW_TAG_TI_branch
    1267                      .dwattr $C$DW$83, DW_AT_low_pc(0x00)
TMS320C2000 Assembler PC v6.4.4 Tue Feb 14 14:42:55 2017

Tools Copyright (c) 1996-2015 Texas Instruments Incorporated
C:\Users\a0221343\AppData\Local\Temp\0706410                         PAGE   25

    1268                      .dwattr $C$DW$83, DW_AT_TI_return
    1269 0000000a 0006          LRETR     ; [CPU_] 
    1270                      ; return occurs ; [] 
    1271                      .dwattr $C$DW$78, DW_AT_TI_end_file("C:/Users/a0221343/Git/bootROM/f28004x_bootrom/F28004x_ROM_dev_PG
    1272                      .dwattr $C$DW$78, DW_AT_TI_end_line(0x245)
    1273                      .dwattr $C$DW$78, DW_AT_TI_end_column(0x01)
    1274                      .dwendentry
    1275                      .dwendtag $C$DW$78
    1276              
    1277 00000000               .sect   ".text:_CAN_enableDMARequests"
    1278                      .clink
    1279                      .global _CAN_enableDMARequests
    1280              
    1281              $C$DW$84        .dwtag  DW_TAG_subprogram, DW_AT_name("CAN_enableDMARequests")
    1282                      .dwattr $C$DW$84, DW_AT_low_pc(_CAN_enableDMARequests)
    1283                      .dwattr $C$DW$84, DW_AT_high_pc(0x00)
    1284                      .dwattr $C$DW$84, DW_AT_TI_symbol_name("_CAN_enableDMARequests")
    1285                      .dwattr $C$DW$84, DW_AT_external
    1286                      .dwattr $C$DW$84, DW_AT_TI_begin_file("C:/Users/a0221343/Git/bootROM/f28004x_bootrom/F28004x_ROM_dev_
    1287                      .dwattr $C$DW$84, DW_AT_TI_begin_line(0x254)
    1288                      .dwattr $C$DW$84, DW_AT_TI_begin_column(0x01)
    1289                      .dwattr $C$DW$84, DW_AT_TI_max_frame_size(-4)
    1290                      .dwpsn  file "C:/Users/a0221343/Git/bootROM/f28004x_bootrom/F28004x_ROM_dev_PG2.0/F28004x_ROM/driverl
    1291              
    1292                      .dwfde $C$DW$CIE, _CAN_enableDMARequests
    1293              $C$DW$85        .dwtag  DW_TAG_formal_parameter, DW_AT_name("base")
    1294                      .dwattr $C$DW$85, DW_AT_TI_symbol_name("_base")
    1295                      .dwattr $C$DW$85, DW_AT_type(*$C$DW$T$19)
    1296                      .dwattr $C$DW$85, DW_AT_location[DW_OP_reg0]
    1297              
    1298              ;***************************************************************
    1299              ;* FNAME: _CAN_enableDMARequests        FR SIZE:   2           *
    1300              ;*                                                             *
    1301              ;* FUNCTION ENVIRONMENT                                        *
    1302              ;*                                                             *
    1303              ;* FUNCTION PROPERTIES                                         *
    1304              ;*                            0 Parameter,  2 Auto,  0 SOE     *
    1305              ;***************************************************************
    1306              
    1307 00000000       _CAN_enableDMARequests:
    1308                      .dwcfi  cfa_offset, -2
    1309                      .dwcfi  save_reg_to_mem, 26, 0
    1310 00000000 FE02          ADDB      SP,#2                 ; [CPU_U] 
    1311                      .dwcfi  cfa_offset, -4
    1312              $C$DW$86        .dwtag  DW_TAG_variable, DW_AT_name("base")
    1313                      .dwattr $C$DW$86, DW_AT_TI_symbol_name("_base")
    1314                      .dwattr $C$DW$86, DW_AT_type(*$C$DW$T$19)
    1315                      .dwattr $C$DW$86, DW_AT_location[DW_OP_breg20 -2]
    1316 00000001 1E42          MOVL      *-SP[2],ACC           ; [CPU_] |597| 
    1317                      .dwpsn  file "C:/Users/a0221343/Git/bootROM/f28004x_bootrom/F28004x_ROM_dev_PG2.0/F28004x_ROM/driverl
    1318 00000002 0202          MOVB      ACC,#2                ; [CPU_] |606| 
    1319 00000003 0742          ADDL      ACC,*-SP[2]           ; [CPU_] |606| 
    1320 00000004 8AA9          MOVL      XAR4,ACC              ; [CPU_] |606| 
    1321 00000005 1AC4          OR        *+XAR4[0],#0x001c     ; [CPU_] |606| 
         00000006 001C 
TMS320C2000 Assembler PC v6.4.4 Tue Feb 14 14:42:55 2017

Tools Copyright (c) 1996-2015 Texas Instruments Incorporated
C:\Users\a0221343\AppData\Local\Temp\0706410                         PAGE   26

    1322                      .dwpsn  file "C:/Users/a0221343/Git/bootROM/f28004x_bootrom/F28004x_ROM_dev_PG2.0/F28004x_ROM/driverl
    1323 00000007 FE82          SUBB      SP,#2                 ; [CPU_U] 
    1324                      .dwcfi  cfa_offset, -2
    1325              $C$DW$87        .dwtag  DW_TAG_TI_branch
    1326                      .dwattr $C$DW$87, DW_AT_low_pc(0x00)
    1327                      .dwattr $C$DW$87, DW_AT_TI_return
    1328 00000008 0006          LRETR     ; [CPU_] 
    1329                      ; return occurs ; [] 
    1330                      .dwattr $C$DW$84, DW_AT_TI_end_file("C:/Users/a0221343/Git/bootROM/f28004x_bootrom/F28004x_ROM_dev_PG
    1331                      .dwattr $C$DW$84, DW_AT_TI_end_line(0x260)
    1332                      .dwattr $C$DW$84, DW_AT_TI_end_column(0x01)
    1333                      .dwendentry
    1334                      .dwendtag $C$DW$84
    1335              
    1336 00000000               .sect   ".text:_CAN_disableDMARequests"
    1337                      .clink
    1338                      .global _CAN_disableDMARequests
    1339              
    1340              $C$DW$88        .dwtag  DW_TAG_subprogram, DW_AT_name("CAN_disableDMARequests")
    1341                      .dwattr $C$DW$88, DW_AT_low_pc(_CAN_disableDMARequests)
    1342                      .dwattr $C$DW$88, DW_AT_high_pc(0x00)
    1343                      .dwattr $C$DW$88, DW_AT_TI_symbol_name("_CAN_disableDMARequests")
    1344                      .dwattr $C$DW$88, DW_AT_external
    1345                      .dwattr $C$DW$88, DW_AT_TI_begin_file("C:/Users/a0221343/Git/bootROM/f28004x_bootrom/F28004x_ROM_dev_
    1346                      .dwattr $C$DW$88, DW_AT_TI_begin_line(0x26e)
    1347                      .dwattr $C$DW$88, DW_AT_TI_begin_column(0x01)
    1348                      .dwattr $C$DW$88, DW_AT_TI_max_frame_size(-4)
    1349                      .dwpsn  file "C:/Users/a0221343/Git/bootROM/f28004x_bootrom/F28004x_ROM_dev_PG2.0/F28004x_ROM/driverl
    1350              
    1351                      .dwfde $C$DW$CIE, _CAN_disableDMARequests
    1352              $C$DW$89        .dwtag  DW_TAG_formal_parameter, DW_AT_name("base")
    1353                      .dwattr $C$DW$89, DW_AT_TI_symbol_name("_base")
    1354                      .dwattr $C$DW$89, DW_AT_type(*$C$DW$T$19)
    1355                      .dwattr $C$DW$89, DW_AT_location[DW_OP_reg0]
    1356              
    1357              ;***************************************************************
    1358              ;* FNAME: _CAN_disableDMARequests       FR SIZE:   2           *
    1359              ;*                                                             *
    1360              ;* FUNCTION ENVIRONMENT                                        *
    1361              ;*                                                             *
    1362              ;* FUNCTION PROPERTIES                                         *
    1363              ;*                            0 Parameter,  2 Auto,  0 SOE     *
    1364              ;***************************************************************
    1365              
    1366 00000000       _CAN_disableDMARequests:
    1367                      .dwcfi  cfa_offset, -2
    1368                      .dwcfi  save_reg_to_mem, 26, 0
    1369 00000000 FE02          ADDB      SP,#2                 ; [CPU_U] 
    1370                      .dwcfi  cfa_offset, -4
    1371              $C$DW$90        .dwtag  DW_TAG_variable, DW_AT_name("base")
    1372                      .dwattr $C$DW$90, DW_AT_TI_symbol_name("_base")
    1373                      .dwattr $C$DW$90, DW_AT_type(*$C$DW$T$19)
    1374                      .dwattr $C$DW$90, DW_AT_location[DW_OP_breg20 -2]
    1375 00000001 1E42          MOVL      *-SP[2],ACC           ; [CPU_] |623| 
    1376                      .dwpsn  file "C:/Users/a0221343/Git/bootROM/f28004x_bootrom/F28004x_ROM_dev_PG2.0/F28004x_ROM/driverl
TMS320C2000 Assembler PC v6.4.4 Tue Feb 14 14:42:55 2017

Tools Copyright (c) 1996-2015 Texas Instruments Incorporated
C:\Users\a0221343\AppData\Local\Temp\0706410                         PAGE   27

    1377 00000002 0202          MOVB      ACC,#2                ; [CPU_] |632| 
    1378 00000003 0742          ADDL      ACC,*-SP[2]           ; [CPU_] |632| 
    1379 00000004 8AA9          MOVL      XAR4,ACC              ; [CPU_] |632| 
    1380 00000005 18C4          AND       *+XAR4[0],#0xffe3     ; [CPU_] |632| 
         00000006 FFE3 
    1381                      .dwpsn  file "C:/Users/a0221343/Git/bootROM/f28004x_bootrom/F28004x_ROM_dev_PG2.0/F28004x_ROM/driverl
    1382 00000007 FE82          SUBB      SP,#2                 ; [CPU_U] 
    1383                      .dwcfi  cfa_offset, -2
    1384              $C$DW$91        .dwtag  DW_TAG_TI_branch
    1385                      .dwattr $C$DW$91, DW_AT_low_pc(0x00)
    1386                      .dwattr $C$DW$91, DW_AT_TI_return
    1387 00000008 0006          LRETR     ; [CPU_] 
    1388                      ; return occurs ; [] 
    1389                      .dwattr $C$DW$88, DW_AT_TI_end_file("C:/Users/a0221343/Git/bootROM/f28004x_bootrom/F28004x_ROM_dev_PG
    1390                      .dwattr $C$DW$88, DW_AT_TI_end_line(0x27a)
    1391                      .dwattr $C$DW$88, DW_AT_TI_end_column(0x01)
    1392                      .dwendentry
    1393                      .dwendtag $C$DW$88
    1394              
    1395 00000000               .sect   ".text:_CAN_getBitTiming"
    1396                      .clink
    1397                      .global _CAN_getBitTiming
    1398              
    1399              $C$DW$92        .dwtag  DW_TAG_subprogram, DW_AT_name("CAN_getBitTiming")
    1400                      .dwattr $C$DW$92, DW_AT_low_pc(_CAN_getBitTiming)
    1401                      .dwattr $C$DW$92, DW_AT_high_pc(0x00)
    1402                      .dwattr $C$DW$92, DW_AT_TI_symbol_name("_CAN_getBitTiming")
    1403                      .dwattr $C$DW$92, DW_AT_external
    1404                      .dwattr $C$DW$92, DW_AT_TI_begin_file("C:/Users/a0221343/Git/bootROM/f28004x_bootrom/F28004x_ROM_dev_
    1405                      .dwattr $C$DW$92, DW_AT_TI_begin_line(0x28f)
    1406                      .dwattr $C$DW$92, DW_AT_TI_begin_column(0x01)
    1407                      .dwattr $C$DW$92, DW_AT_TI_max_frame_size(-8)
    1408                      .dwpsn  file "C:/Users/a0221343/Git/bootROM/f28004x_bootrom/F28004x_ROM_dev_PG2.0/F28004x_ROM/driverl
    1409              
    1410                      .dwfde $C$DW$CIE, _CAN_getBitTiming
    1411              $C$DW$93        .dwtag  DW_TAG_formal_parameter, DW_AT_name("base")
    1412                      .dwattr $C$DW$93, DW_AT_TI_symbol_name("_base")
    1413                      .dwattr $C$DW$93, DW_AT_type(*$C$DW$T$19)
    1414                      .dwattr $C$DW$93, DW_AT_location[DW_OP_reg0]
    1415              $C$DW$94        .dwtag  DW_TAG_formal_parameter, DW_AT_name("clkParms")
    1416                      .dwattr $C$DW$94, DW_AT_TI_symbol_name("_clkParms")
    1417                      .dwattr $C$DW$94, DW_AT_type(*$C$DW$T$31)
    1418                      .dwattr $C$DW$94, DW_AT_location[DW_OP_reg12]
    1419              
    1420              ;***************************************************************
    1421              ;* FNAME: _CAN_getBitTiming             FR SIZE:   6           *
    1422              ;*                                                             *
    1423              ;* FUNCTION ENVIRONMENT                                        *
    1424              ;*                                                             *
    1425              ;* FUNCTION PROPERTIES                                         *
    1426              ;*                            0 Parameter,  6 Auto,  0 SOE     *
    1427              ;***************************************************************
    1428              
    1429 00000000       _CAN_getBitTiming:
    1430                      .dwcfi  cfa_offset, -2
TMS320C2000 Assembler PC v6.4.4 Tue Feb 14 14:42:55 2017

Tools Copyright (c) 1996-2015 Texas Instruments Incorporated
C:\Users\a0221343\AppData\Local\Temp\0706410                         PAGE   28

    1431                      .dwcfi  save_reg_to_mem, 26, 0
    1432 00000000 FE06          ADDB      SP,#6                 ; [CPU_U] 
    1433                      .dwcfi  cfa_offset, -8
    1434              $C$DW$95        .dwtag  DW_TAG_variable, DW_AT_name("base")
    1435                      .dwattr $C$DW$95, DW_AT_TI_symbol_name("_base")
    1436                      .dwattr $C$DW$95, DW_AT_type(*$C$DW$T$19)
    1437                      .dwattr $C$DW$95, DW_AT_location[DW_OP_breg20 -2]
    1438              $C$DW$96        .dwtag  DW_TAG_variable, DW_AT_name("clkParms")
    1439                      .dwattr $C$DW$96, DW_AT_TI_symbol_name("_clkParms")
    1440                      .dwattr $C$DW$96, DW_AT_type(*$C$DW$T$31)
    1441                      .dwattr $C$DW$96, DW_AT_location[DW_OP_breg20 -4]
    1442              $C$DW$97        .dwtag  DW_TAG_variable, DW_AT_name("bitReg")
    1443                      .dwattr $C$DW$97, DW_AT_TI_symbol_name("_bitReg")
    1444                      .dwattr $C$DW$97, DW_AT_type(*$C$DW$T$19)
    1445                      .dwattr $C$DW$97, DW_AT_location[DW_OP_breg20 -6]
    1446 00000001 A844          MOVL      *-SP[4],XAR4          ; [CPU_] |656| 
    1447 00000002 1E42          MOVL      *-SP[2],ACC           ; [CPU_] |656| 
    1448                      .dwpsn  file "C:/Users/a0221343/Git/bootROM/f28004x_bootrom/F28004x_ROM_dev_PG2.0/F28004x_ROM/driverl
    1449 00000003 020C          MOVB      ACC,#12               ; [CPU_] |665| 
    1450 00000004 0742          ADDL      ACC,*-SP[2]           ; [CPU_] |665| 
    1451 00000005 8AA9          MOVL      XAR4,ACC              ; [CPU_] |665| 
    1452 00000006 06C4          MOVL      ACC,*+XAR4[0]         ; [CPU_] |665| 
    1453 00000007 1E46          MOVL      *-SP[6],ACC           ; [CPU_] |665| 
    1454                      .dwpsn  file "C:/Users/a0221343/Git/bootROM/f28004x_bootrom/F28004x_ROM_dev_PG2.0/F28004x_ROM/driverl
    1455 00000008 2901          CLRC      SXM                   ; [CPU_] 
    1456 00000009 8F00          MOVL      XAR4,#28672           ; [CPU_U] |670| 
         0000000a 7000 
    1457 0000000b A8A9          MOVL      ACC,XAR4              ; [CPU_] |670| 
    1458 0000000c CE46          AND       AL,*-SP[6]            ; [CPU_] |670| 
    1459 0000000d 8A44          MOVL      XAR4,*-SP[4]          ; [CPU_] |670| 
    1460 0000000e CF45          AND       AH,*-SP[5]            ; [CPU_] |670| 
    1461 0000000f FF4B          SFR       ACC,12                ; [CPU_] |670| 
    1462 00000010 0901          ADDB      ACC,#1                ; [CPU_] |670| 
    1463 00000011 1ED4          MOVL      *+XAR4[2],ACC         ; [CPU_] |670| 
    1464                      .dwpsn  file "C:/Users/a0221343/Git/bootROM/f28004x_bootrom/F28004x_ROM_dev_PG2.0/F28004x_ROM/driverl
    1465 00000012 8F00          MOVL      XAR4,#3840            ; [CPU_U] |675| 
         00000013 0F00 
    1466 00000014 A8A9          MOVL      ACC,XAR4              ; [CPU_] |675| 
    1467 00000015 CE46          AND       AL,*-SP[6]            ; [CPU_] |675| 
    1468 00000016 8A44          MOVL      XAR4,*-SP[4]          ; [CPU_] |675| 
    1469 00000017 CF45          AND       AH,*-SP[5]            ; [CPU_] |675| 
    1470 00000018 FF47          SFR       ACC,8                 ; [CPU_] |675| 
    1471 00000019 0901          ADDB      ACC,#1                ; [CPU_] |675| 
    1472 0000001a 1EC4          MOVL      *+XAR4[0],ACC         ; [CPU_] |675| 
    1473                      .dwpsn  file "C:/Users/a0221343/Git/bootROM/f28004x_bootrom/F28004x_ROM_dev_PG2.0/F28004x_ROM/driverl
    1474 0000001b 0646          MOVL      ACC,*-SP[6]           ; [CPU_] |680| 
    1475 0000001c 9B00          MOVB      AH,#0                 ; [CPU_] |680| 
    1476 0000001d 8A44          MOVL      XAR4,*-SP[4]          ; [CPU_] |680| 
    1477 0000001e 90C0          ANDB      AL,#0xc0              ; [CPU_] |680| 
    1478 0000001f FF45          SFR       ACC,6                 ; [CPU_] |680| 
    1479 00000020 0901          ADDB      ACC,#1                ; [CPU_] |680| 
    1480 00000021 1EE4          MOVL      *+XAR4[4],ACC         ; [CPU_] |680| 
    1481                      .dwpsn  file "C:/Users/a0221343/Git/bootROM/f28004x_bootrom/F28004x_ROM_dev_PG2.0/F28004x_ROM/driverl
    1482 00000022 8F0F          MOVL      XAR4,#983040          ; [CPU_U] |685| 
         00000023 0000 
TMS320C2000 Assembler PC v6.4.4 Tue Feb 14 14:42:55 2017

Tools Copyright (c) 1996-2015 Texas Instruments Incorporated
C:\Users\a0221343\AppData\Local\Temp\0706410                         PAGE   29

    1483 00000024 A8AB          MOVL      P,XAR4                ; [CPU_] |685| 
    1484 00000025 92AB          MOV       AL,PL                 ; [CPU_] |685| 
    1485 00000026 93AA          MOV       AH,PH                 ; [CPU_] |685| 
    1486 00000027 CE46          AND       AL,*-SP[6]            ; [CPU_] |685| 
    1487 00000028 CF45          AND       AH,*-SP[5]            ; [CPU_] |685| 
    1488 00000029 8A44          MOVL      XAR4,*-SP[4]          ; [CPU_] |685| 
    1489 0000002a 27A9          MOV       PL,AL                 ; [CPU_] |685| 
    1490 0000002b 2FA8          MOV       PH,AH                 ; [CPU_] |685| 
    1491 0000002c A9A9          MOVL      ACC,P                 ; [CPU_] |685| 
    1492 0000002d FF49          SFR       ACC,10                ; [CPU_] |685| 
    1493 0000002e FF5A          MOVL      P,ACC                 ; [CPU_] |685| 
    1494 0000002f 0646          MOVL      ACC,*-SP[6]           ; [CPU_] |685| 
    1495 00000030 9B00          MOVB      AH,#0                 ; [CPU_] |685| 
    1496 00000031 903F          ANDB      AL,#0x3f              ; [CPU_] |685| 
    1497 00000032 CBAA          OR        AH,PH                 ; [CPU_] |685| 
    1498 00000033 CAAB          OR        AL,PL                 ; [CPU_] |685| 
    1499 00000034 0901          ADDB      ACC,#1                ; [CPU_] |685| 
    1500 00000035 1EF4          MOVL      *+XAR4[6],ACC         ; [CPU_] |685| 
    1501                      .dwpsn  file "C:/Users/a0221343/Git/bootROM/f28004x_bootrom/F28004x_ROM_dev_PG2.0/F28004x_ROM/driverl
    1502 00000036 FE86          SUBB      SP,#6                 ; [CPU_U] 
    1503                      .dwcfi  cfa_offset, -2
    1504              $C$DW$98        .dwtag  DW_TAG_TI_branch
    1505                      .dwattr $C$DW$98, DW_AT_low_pc(0x00)
    1506                      .dwattr $C$DW$98, DW_AT_TI_return
    1507 00000037 0006          LRETR     ; [CPU_] 
    1508                      ; return occurs ; [] 
    1509                      .dwattr $C$DW$92, DW_AT_TI_end_file("C:/Users/a0221343/Git/bootROM/f28004x_bootrom/F28004x_ROM_dev_PG
    1510                      .dwattr $C$DW$92, DW_AT_TI_end_line(0x2af)
    1511                      .dwattr $C$DW$92, DW_AT_TI_end_column(0x01)
    1512                      .dwendentry
    1513                      .dwendtag $C$DW$92
    1514              
    1515 00000000               .sect   ".text:_CAN_setBitRate"
    1516                      .clink
    1517                      .global _CAN_setBitRate
    1518              
    1519              $C$DW$99        .dwtag  DW_TAG_subprogram, DW_AT_name("CAN_setBitRate")
    1520                      .dwattr $C$DW$99, DW_AT_low_pc(_CAN_setBitRate)
    1521                      .dwattr $C$DW$99, DW_AT_high_pc(0x00)
    1522                      .dwattr $C$DW$99, DW_AT_TI_symbol_name("_CAN_setBitRate")
    1523                      .dwattr $C$DW$99, DW_AT_external
    1524                      .dwattr $C$DW$99, DW_AT_type(*$C$DW$T$19)
    1525                      .dwattr $C$DW$99, DW_AT_TI_begin_file("C:/Users/a0221343/Git/bootROM/f28004x_bootrom/F28004x_ROM_dev_
    1526                      .dwattr $C$DW$99, DW_AT_TI_begin_line(0x2c8)
    1527                      .dwattr $C$DW$99, DW_AT_TI_begin_column(0x01)
    1528                      .dwattr $C$DW$99, DW_AT_TI_max_frame_size(-14)
    1529                      .dwpsn  file "C:/Users/a0221343/Git/bootROM/f28004x_bootrom/F28004x_ROM_dev_PG2.0/F28004x_ROM/driverl
    1530              
    1531                      .dwfde $C$DW$CIE, _CAN_setBitRate
    1532              $C$DW$100       .dwtag  DW_TAG_formal_parameter, DW_AT_name("base")
    1533                      .dwattr $C$DW$100, DW_AT_TI_symbol_name("_base")
    1534                      .dwattr $C$DW$100, DW_AT_type(*$C$DW$T$19)
    1535                      .dwattr $C$DW$100, DW_AT_location[DW_OP_reg0]
    1536              $C$DW$101       .dwtag  DW_TAG_formal_parameter, DW_AT_name("sourceClock")
    1537                      .dwattr $C$DW$101, DW_AT_TI_symbol_name("_sourceClock")
TMS320C2000 Assembler PC v6.4.4 Tue Feb 14 14:42:55 2017

Tools Copyright (c) 1996-2015 Texas Instruments Incorporated
C:\Users\a0221343\AppData\Local\Temp\0706410                         PAGE   30

    1538                      .dwattr $C$DW$101, DW_AT_type(*$C$DW$T$19)
    1539                      .dwattr $C$DW$101, DW_AT_location[DW_OP_breg20 -16]
    1540              $C$DW$102       .dwtag  DW_TAG_formal_parameter, DW_AT_name("bitRate")
    1541                      .dwattr $C$DW$102, DW_AT_TI_symbol_name("_bitRate")
    1542                      .dwattr $C$DW$102, DW_AT_type(*$C$DW$T$19)
    1543                      .dwattr $C$DW$102, DW_AT_location[DW_OP_breg20 -18]
    1544              
    1545              ;***************************************************************
    1546              ;* FNAME: _CAN_setBitRate               FR SIZE:  12           *
    1547              ;*                                                             *
    1548              ;* FUNCTION ENVIRONMENT                                        *
    1549              ;*                                                             *
    1550              ;* FUNCTION PROPERTIES                                         *
    1551              ;*                            0 Parameter, 11 Auto,  0 SOE     *
    1552              ;***************************************************************
    1553              
    1554 00000000       _CAN_setBitRate:
    1555                      .dwcfi  cfa_offset, -2
    1556                      .dwcfi  save_reg_to_mem, 26, 0
    1557 00000000 FE0C          ADDB      SP,#12                ; [CPU_U] 
    1558                      .dwcfi  cfa_offset, -14
    1559              $C$DW$103       .dwtag  DW_TAG_variable, DW_AT_name("base")
    1560                      .dwattr $C$DW$103, DW_AT_TI_symbol_name("_base")
    1561                      .dwattr $C$DW$103, DW_AT_type(*$C$DW$T$19)
    1562                      .dwattr $C$DW$103, DW_AT_location[DW_OP_breg20 -2]
    1563              $C$DW$104       .dwtag  DW_TAG_variable, DW_AT_name("desiredRatio")
    1564                      .dwattr $C$DW$104, DW_AT_TI_symbol_name("_desiredRatio")
    1565                      .dwattr $C$DW$104, DW_AT_type(*$C$DW$T$19)
    1566                      .dwattr $C$DW$104, DW_AT_location[DW_OP_breg20 -4]
    1567              $C$DW$105       .dwtag  DW_TAG_variable, DW_AT_name("canBits")
    1568                      .dwattr $C$DW$105, DW_AT_TI_symbol_name("_canBits")
    1569                      .dwattr $C$DW$105, DW_AT_type(*$C$DW$T$19)
    1570                      .dwattr $C$DW$105, DW_AT_location[DW_OP_breg20 -6]
    1571              $C$DW$106       .dwtag  DW_TAG_variable, DW_AT_name("preDivide")
    1572                      .dwattr $C$DW$106, DW_AT_TI_symbol_name("_preDivide")
    1573                      .dwattr $C$DW$106, DW_AT_type(*$C$DW$T$19)
    1574                      .dwattr $C$DW$106, DW_AT_location[DW_OP_breg20 -8]
    1575              $C$DW$107       .dwtag  DW_TAG_variable, DW_AT_name("regValue")
    1576                      .dwattr $C$DW$107, DW_AT_TI_symbol_name("_regValue")
    1577                      .dwattr $C$DW$107, DW_AT_type(*$C$DW$T$19)
    1578                      .dwattr $C$DW$107, DW_AT_location[DW_OP_breg20 -10]
    1579              $C$DW$108       .dwtag  DW_TAG_variable, DW_AT_name("canCtl")
    1580                      .dwattr $C$DW$108, DW_AT_TI_symbol_name("_canCtl")
    1581                      .dwattr $C$DW$108, DW_AT_type(*$C$DW$T$21)
    1582                      .dwattr $C$DW$108, DW_AT_location[DW_OP_breg20 -11]
    1583 00000001 1E42          MOVL      *-SP[2],ACC           ; [CPU_] |713| 
    1584                      .dwpsn  file "C:/Users/a0221343/Git/bootROM/f28004x_bootrom/F28004x_ROM_dev_PG2.0/F28004x_ROM/driverl
    1585 00000002 5CAD          MOVZ      AR4,SP                ; [CPU_] |725| 
    1586 00000003 A350          MOVL      P,*-SP[16]            ; [CPU_] |725| 
    1587 00000004 0200          MOVB      ACC,#0                ; [CPU_] |725| 
    1588 00000005 DC92          SUBB      XAR4,#18              ; [CPU_U] |725| 
    1589 00000006 F61F          RPT       #31
    1590 00000007 5617  ||     SUBCUL    ACC,*+XAR4[0]         ; [CPU_] |725| 
         00000008 00C4 
    1591 00000009 A944          MOVL      *-SP[4],P             ; [CPU_] |725| 
TMS320C2000 Assembler PC v6.4.4 Tue Feb 14 14:42:55 2017

Tools Copyright (c) 1996-2015 Texas Instruments Incorporated
C:\Users\a0221343\AppData\Local\Temp\0706410                         PAGE   31

    1592                      .dwpsn  file "C:/Users/a0221343/Git/bootROM/f28004x_bootrom/F28004x_ROM_dev_PG2.0/F28004x_ROM/driverl
    1593 0000000a 0200          MOVB      ACC,#0                ; [CPU_] |738| 
    1594 0000000b A350          MOVL      P,*-SP[16]            ; [CPU_] |738| 
    1595 0000000c F61F          RPT       #31
    1596 0000000d 5617  ||     SUBCUL    ACC,*-SP[4]           ; [CPU_] |738| 
         0000000e 0044 
    1597 0000000f A9A9          MOVL      ACC,P                 ; [CPU_] |738| 
    1598 00000010 0F52          CMPL      ACC,*-SP[18]          ; [CPU_] |738| 
    1599 00000011 56C9          BF        $C$L25,LOS            ; [CPU_] |738| 
         00000012 0005 
    1600                      ; branchcc occurs ; [] |738| 
    1601                      .dwpsn  file "C:/Users/a0221343/Git/bootROM/f28004x_bootrom/F28004x_ROM_dev_PG2.0/F28004x_ROM/driverl
    1602 00000013 0201          MOVB      ACC,#1                ; [CPU_] |740| 
    1603 00000014 0744          ADDL      ACC,*-SP[4]           ; [CPU_] |740| 
    1604 00000015 1E44          MOVL      *-SP[4],ACC           ; [CPU_] |740| 
    1605 00000016       $C$L25:    
    1606                      .dwpsn  file "C:/Users/a0221343/Git/bootROM/f28004x_bootrom/F28004x_ROM_dev_PG2.0/F28004x_ROM/driverl
    1607 00000016 8F00          MOVL      XAR4,#13312           ; [CPU_U] |746| 
         00000017 3400 
    1608 00000018 A8A9          MOVL      ACC,XAR4              ; [CPU_] |746| 
    1609 00000019 0F44          CMPL      ACC,*-SP[4]           ; [CPU_] |746| 
    1610 0000001a 56C8          BF        $C$L30,LO             ; [CPU_] |746| 
         0000001b 0059 
    1611                      ; branchcc occurs ; [] |746| 
    1612 0000001c       $C$L26:    
    1613                      .dwpsn  file "C:/Users/a0221343/Git/bootROM/f28004x_bootrom/F28004x_ROM_dev_PG2.0/F28004x_ROM/driverl
    1614 0000001c 020D          MOVB      ACC,#13               ; [CPU_] |751| 
    1615 0000001d 1E46          MOVL      *-SP[6],ACC           ; [CPU_] |751| 
    1616                      .dwpsn  file "C:/Users/a0221343/Git/bootROM/f28004x_bootrom/F28004x_ROM_dev_PG2.0/F28004x_ROM/driverl
    1617 0000001e 0205          MOVB      ACC,#5                ; [CPU_] |751| 
    1618 0000001f 0F46          CMPL      ACC,*-SP[6]           ; [CPU_] |751| 
    1619 00000020 56C6          BF        $C$L29,HI             ; [CPU_] |751| 
         00000021 004C 
    1620                      ; branchcc occurs ; [] |751| 
    1621 00000022       $C$L27:    
    1622                      .dwpsn  file "C:/Users/a0221343/Git/bootROM/f28004x_bootrom/F28004x_ROM_dev_PG2.0/F28004x_ROM/driverl
    1623 00000022 A344          MOVL      P,*-SP[4]             ; [CPU_] |757| 
    1624 00000023 0200          MOVB      ACC,#0                ; [CPU_] |757| 
    1625 00000024 F61F          RPT       #31
    1626 00000025 5617  ||     SUBCUL    ACC,*-SP[6]           ; [CPU_] |757| 
         00000026 0046 
    1627 00000027 A948          MOVL      *-SP[8],P             ; [CPU_] |757| 
    1628                      .dwpsn  file "C:/Users/a0221343/Git/bootROM/f28004x_bootrom/F28004x_ROM_dev_PG2.0/F28004x_ROM/driverl
    1629 00000028 8746          MOVL      XT,*-SP[6]            ; [CPU_] |763| 
    1630 00000029 5644          IMPYL     ACC,XT,*-SP[8]        ; [CPU_] |763| 
         0000002a 0048 
    1631 0000002b 0F44          CMPL      ACC,*-SP[4]           ; [CPU_] |763| 
    1632 0000002c ED39          BF        $C$L28,NEQ            ; [CPU_] |763| 
    1633                      ; branchcc occurs ; [] |763| 
    1634                      .dwpsn  file "C:/Users/a0221343/Git/bootROM/f28004x_bootrom/F28004x_ROM_dev_PG2.0/F28004x_ROM/driverl
    1635 0000002d 0646          MOVL      ACC,*-SP[6]           ; [CPU_] |769| 
    1636 0000002e 8F00+         MOVL      XAR4,#_CAN_bitValues  ; [CPU_U] |769| 
         0000002f 0000 
    1637 00000030 1905          SUBB      ACC,#5                ; [CPU_] |769| 
    1638 00000031 5601          ADDL      XAR4,ACC              ; [CPU_] |769| 
TMS320C2000 Assembler PC v6.4.4 Tue Feb 14 14:42:55 2017

Tools Copyright (c) 1996-2015 Texas Instruments Incorporated
C:\Users\a0221343\AppData\Local\Temp\0706410                         PAGE   32

         00000032 00A4 
    1639 00000033 0EC4          MOVU      ACC,*+XAR4[0]         ; [CPU_] |769| 
    1640 00000034 1E4A          MOVL      *-SP[10],ACC          ; [CPU_] |769| 
    1641                      .dwpsn  file "C:/Users/a0221343/Git/bootROM/f28004x_bootrom/F28004x_ROM_dev_PG2.0/F28004x_ROM/driverl
    1642 00000035 8A42          MOVL      XAR4,*-SP[2]          ; [CPU_] |777| 
    1643 00000036 06C4          MOVL      ACC,*+XAR4[0]         ; [CPU_] |777| 
    1644 00000037 964B          MOV       *-SP[11],AL           ; [CPU_] |777| 
    1645                      .dwpsn  file "C:/Users/a0221343/Git/bootROM/f28004x_bootrom/F28004x_ROM_dev_PG2.0/F28004x_ROM/driverl
    1646 00000038 5041          ORB       AL,#0x41              ; [CPU_] |778| 
    1647 00000039 0EA9          MOVU      ACC,AL                ; [CPU_] |778| 
    1648 0000003a 1EC4          MOVL      *+XAR4[0],ACC         ; [CPU_] |778| 
    1649                      .dwpsn  file "C:/Users/a0221343/Git/bootROM/f28004x_bootrom/F28004x_ROM_dev_PG2.0/F28004x_ROM/driverl
    1650 0000003b 0648          MOVL      ACC,*-SP[8]           ; [CPU_] |783| 
    1651 0000003c 1901          SUBB      ACC,#1                ; [CPU_] |783| 
    1652 0000003d 8F0F          MOVL      XAR4,#983040          ; [CPU_U] |783| 
         0000003e 0000 
    1653 0000003f FF39          LSL       ACC,10                ; [CPU_] |783| 
    1654 00000040 FF5A          MOVL      P,ACC                 ; [CPU_] |783| 
    1655 00000041 A8A9          MOVL      ACC,XAR4              ; [CPU_] |783| 
    1656 00000042 88A9          MOVZ      AR6,AL                ; [CPU_] |783| 
    1657 00000043 92AB          MOV       AL,PL                 ; [CPU_] |783| 
    1658 00000044 CEA6          AND       AL,AR6                ; [CPU_] |783| 
    1659 00000045 27A9          MOV       PL,AL                 ; [CPU_] |783| 
    1660 00000046 92A8          MOV       AL,AH                 ; [CPU_] |783| 
    1661 00000047 93AA          MOV       AH,PH                 ; [CPU_] |783| 
    1662 00000048 CFA9          AND       AH,AL                 ; [CPU_] |783| 
    1663 00000049 2FA8          MOV       PH,AH                 ; [CPU_] |783| 
    1664 0000004a 0648          MOVL      ACC,*-SP[8]           ; [CPU_] |783| 
    1665 0000004b 1901          SUBB      ACC,#1                ; [CPU_] |783| 
    1666 0000004c 9B00          MOVB      AH,#0                 ; [CPU_] |783| 
    1667 0000004d 903F          ANDB      AL,#0x3f              ; [CPU_] |783| 
    1668 0000004e CB49          OR        AH,*-SP[9]            ; [CPU_] |783| 
    1669 0000004f CA4A          OR        AL,*-SP[10]           ; [CPU_] |783| 
    1670 00000050 CBAA          OR        AH,PH                 ; [CPU_] |783| 
    1671 00000051 CAAB          OR        AL,PL                 ; [CPU_] |783| 
    1672 00000052 1E4A          MOVL      *-SP[10],ACC          ; [CPU_] |783| 
    1673                      .dwpsn  file "C:/Users/a0221343/Git/bootROM/f28004x_bootrom/F28004x_ROM_dev_PG2.0/F28004x_ROM/driverl
    1674 00000053 C44A          MOVL      XAR6,*-SP[10]         ; [CPU_] |789| 
    1675 00000054 020C          MOVB      ACC,#12               ; [CPU_] |789| 
    1676 00000055 0742          ADDL      ACC,*-SP[2]           ; [CPU_] |789| 
    1677 00000056 8AA9          MOVL      XAR4,ACC              ; [CPU_] |789| 
    1678 00000057 C2C4          MOVL      *+XAR4[0],XAR6        ; [CPU_] |789| 
    1679                      .dwpsn  file "C:/Users/a0221343/Git/bootROM/f28004x_bootrom/F28004x_ROM_dev_PG2.0/F28004x_ROM/driverl
    1680 00000058 8A42          MOVL      XAR4,*-SP[2]          ; [CPU_] |794| 
    1681 00000059 0E4B          MOVU      ACC,*-SP[11]          ; [CPU_] |794| 
    1682 0000005a 1EC4          MOVL      *+XAR4[0],ACC         ; [CPU_] |794| 
    1683                      .dwpsn  file "C:/Users/a0221343/Git/bootROM/f28004x_bootrom/F28004x_ROM_dev_PG2.0/F28004x_ROM/driverl
    1684 0000005b 8746          MOVL      XT,*-SP[6]            ; [CPU_] |799| 
    1685 0000005c 5665          IMPYXUL   P,XT,*-SP[8]          ; [CPU_] |799| 
         0000005d 0048 
    1686 0000005e A9A6          MOVL      XAR6,P                ; [CPU_] |799| 
    1687 0000005f 0200          MOVB      ACC,#0                ; [CPU_] |799| 
    1688 00000060 A350          MOVL      P,*-SP[16]            ; [CPU_] |799| 
    1689 00000061 F61F          RPT       #31
    1690 00000062 5617  ||     SUBCUL    ACC,XAR6              ; [CPU_] |799| 
TMS320C2000 Assembler PC v6.4.4 Tue Feb 14 14:42:55 2017

Tools Copyright (c) 1996-2015 Texas Instruments Incorporated
C:\Users\a0221343\AppData\Local\Temp\0706410                         PAGE   33

         00000063 00A6 
    1691 00000064 6F10          B         $C$L31,UNC            ; [CPU_] |799| 
    1692                      ; branch occurs ; [] |799| 
    1693 00000065       $C$L28:    
    1694                      .dwpsn  file "C:/Users/a0221343/Git/bootROM/f28004x_bootrom/F28004x_ROM_dev_PG2.0/F28004x_ROM/driverl
    1695 00000065 0201          MOVB      ACC,#1                ; [CPU_] |752| 
    1696 00000066 5641          SUBL      *-SP[6],ACC           ; [CPU_] |752| 
         00000067 0046 
    1697                      .dwpsn  file "C:/Users/a0221343/Git/bootROM/f28004x_bootrom/F28004x_ROM_dev_PG2.0/F28004x_ROM/driverl
    1698 00000068 0205          MOVB      ACC,#5                ; [CPU_] |751| 
    1699 00000069 0F46          CMPL      ACC,*-SP[6]           ; [CPU_] |751| 
    1700 0000006a 56C9          BF        $C$L27,LOS            ; [CPU_] |751| 
         0000006b FFB8 
    1701                      ; branchcc occurs ; [] |751| 
    1702 0000006c       $C$L29:    
    1703                      .dwpsn  file "C:/Users/a0221343/Git/bootROM/f28004x_bootrom/F28004x_ROM_dev_PG2.0/F28004x_ROM/driverl
    1704 0000006c 0201          MOVB      ACC,#1                ; [CPU_] |807| 
    1705 0000006d 0744          ADDL      ACC,*-SP[4]           ; [CPU_] |807| 
    1706 0000006e 1E44          MOVL      *-SP[4],ACC           ; [CPU_] |807| 
    1707                      .dwpsn  file "C:/Users/a0221343/Git/bootROM/f28004x_bootrom/F28004x_ROM_dev_PG2.0/F28004x_ROM/driverl
    1708 0000006f A8A9          MOVL      ACC,XAR4              ; [CPU_] |746| 
    1709 00000070 0F44          CMPL      ACC,*-SP[4]           ; [CPU_] |746| 
    1710 00000071 56C7          BF        $C$L26,HIS            ; [CPU_] |746| 
         00000072 FFAB 
    1711                      ; branchcc occurs ; [] |746| 
    1712 00000073       $C$L30:    
    1713                      .dwpsn  file "C:/Users/a0221343/Git/bootROM/f28004x_bootrom/F28004x_ROM_dev_PG2.0/F28004x_ROM/driverl
    1714 00000073 3100          MOV       P,#0                  ; [CPU_] |809| 
    1715 00000074       $C$L31:    
    1716                      .dwpsn  file "C:/Users/a0221343/Git/bootROM/f28004x_bootrom/F28004x_ROM_dev_PG2.0/F28004x_ROM/driverl
    1717 00000074 FE8C          SUBB      SP,#12                ; [CPU_U] |809| 
    1718                      .dwcfi  cfa_offset, -2
    1719 00000075 A9A9          MOVL      ACC,P                 ; [CPU_] |809| 
    1720              $C$DW$109       .dwtag  DW_TAG_TI_branch
    1721                      .dwattr $C$DW$109, DW_AT_low_pc(0x00)
    1722                      .dwattr $C$DW$109, DW_AT_TI_return
    1723 00000076 0006          LRETR     ; [CPU_] 
    1724                      ; return occurs ; [] 
    1725                      .dwattr $C$DW$99, DW_AT_TI_end_file("C:/Users/a0221343/Git/bootROM/f28004x_bootrom/F28004x_ROM_dev_PG
    1726                      .dwattr $C$DW$99, DW_AT_TI_end_line(0x32a)
    1727                      .dwattr $C$DW$99, DW_AT_TI_end_column(0x01)
    1728                      .dwendentry
    1729                      .dwendtag $C$DW$99
    1730              
    1731 00000000               .sect   ".text:_CAN_setBitTiming"
    1732                      .clink
    1733                      .global _CAN_setBitTiming
    1734              
    1735              $C$DW$110       .dwtag  DW_TAG_subprogram, DW_AT_name("CAN_setBitTiming")
    1736                      .dwattr $C$DW$110, DW_AT_low_pc(_CAN_setBitTiming)
    1737                      .dwattr $C$DW$110, DW_AT_high_pc(0x00)
    1738                      .dwattr $C$DW$110, DW_AT_TI_symbol_name("_CAN_setBitTiming")
    1739                      .dwattr $C$DW$110, DW_AT_external
    1740                      .dwattr $C$DW$110, DW_AT_TI_begin_file("C:/Users/a0221343/Git/bootROM/f28004x_bootrom/F28004x_ROM_dev
    1741                      .dwattr $C$DW$110, DW_AT_TI_begin_line(0x351)
TMS320C2000 Assembler PC v6.4.4 Tue Feb 14 14:42:55 2017

Tools Copyright (c) 1996-2015 Texas Instruments Incorporated
C:\Users\a0221343\AppData\Local\Temp\0706410                         PAGE   34

    1742                      .dwattr $C$DW$110, DW_AT_TI_begin_column(0x01)
    1743                      .dwattr $C$DW$110, DW_AT_TI_max_frame_size(-10)
    1744                      .dwpsn  file "C:/Users/a0221343/Git/bootROM/f28004x_bootrom/F28004x_ROM_dev_PG2.0/F28004x_ROM/driverl
    1745              
    1746                      .dwfde $C$DW$CIE, _CAN_setBitTiming
    1747              $C$DW$111       .dwtag  DW_TAG_formal_parameter, DW_AT_name("base")
    1748                      .dwattr $C$DW$111, DW_AT_TI_symbol_name("_base")
    1749                      .dwattr $C$DW$111, DW_AT_type(*$C$DW$T$19)
    1750                      .dwattr $C$DW$111, DW_AT_location[DW_OP_reg0]
    1751              $C$DW$112       .dwtag  DW_TAG_formal_parameter, DW_AT_name("clkParms")
    1752                      .dwattr $C$DW$112, DW_AT_TI_symbol_name("_clkParms")
    1753                      .dwattr $C$DW$112, DW_AT_type(*$C$DW$T$31)
    1754                      .dwattr $C$DW$112, DW_AT_location[DW_OP_reg12]
    1755              
    1756              ;***************************************************************
    1757              ;* FNAME: _CAN_setBitTiming             FR SIZE:   8           *
    1758              ;*                                                             *
    1759              ;* FUNCTION ENVIRONMENT                                        *
    1760              ;*                                                             *
    1761              ;* FUNCTION PROPERTIES                                         *
    1762              ;*                            0 Parameter,  8 Auto,  0 SOE     *
    1763              ;***************************************************************
    1764              
    1765 00000000       _CAN_setBitTiming:
    1766                      .dwcfi  cfa_offset, -2
    1767                      .dwcfi  save_reg_to_mem, 26, 0
    1768 00000000 FE08          ADDB      SP,#8                 ; [CPU_U] 
    1769                      .dwcfi  cfa_offset, -10
    1770              $C$DW$113       .dwtag  DW_TAG_variable, DW_AT_name("base")
    1771                      .dwattr $C$DW$113, DW_AT_TI_symbol_name("_base")
    1772                      .dwattr $C$DW$113, DW_AT_type(*$C$DW$T$19)
    1773                      .dwattr $C$DW$113, DW_AT_location[DW_OP_breg20 -2]
    1774              $C$DW$114       .dwtag  DW_TAG_variable, DW_AT_name("clkParms")
    1775                      .dwattr $C$DW$114, DW_AT_TI_symbol_name("_clkParms")
    1776                      .dwattr $C$DW$114, DW_AT_type(*$C$DW$T$31)
    1777                      .dwattr $C$DW$114, DW_AT_location[DW_OP_breg20 -4]
    1778              $C$DW$115       .dwtag  DW_TAG_variable, DW_AT_name("bitReg")
    1779                      .dwattr $C$DW$115, DW_AT_TI_symbol_name("_bitReg")
    1780                      .dwattr $C$DW$115, DW_AT_type(*$C$DW$T$19)
    1781                      .dwattr $C$DW$115, DW_AT_location[DW_OP_breg20 -6]
    1782              $C$DW$116       .dwtag  DW_TAG_variable, DW_AT_name("savedInit")
    1783                      .dwattr $C$DW$116, DW_AT_TI_symbol_name("_savedInit")
    1784                      .dwattr $C$DW$116, DW_AT_type(*$C$DW$T$19)
    1785                      .dwattr $C$DW$116, DW_AT_location[DW_OP_breg20 -8]
    1786 00000001 A844          MOVL      *-SP[4],XAR4          ; [CPU_] |850| 
    1787 00000002 1E42          MOVL      *-SP[2],ACC           ; [CPU_] |850| 
    1788                      .dwpsn  file "C:/Users/a0221343/Git/bootROM/f28004x_bootrom/F28004x_ROM_dev_PG2.0/F28004x_ROM/driverl
    1789 00000003 8A42          MOVL      XAR4,*-SP[2]          ; [CPU_] |887| 
    1790 00000004 06C4          MOVL      ACC,*+XAR4[0]         ; [CPU_] |887| 
    1791 00000005 1E48          MOVL      *-SP[8],ACC           ; [CPU_] |887| 
    1792                      .dwpsn  file "C:/Users/a0221343/Git/bootROM/f28004x_bootrom/F28004x_ROM_dev_PG2.0/F28004x_ROM/driverl
    1793 00000006 5041          ORB       AL,#0x41              ; [CPU_] |888| 
    1794 00000007 1EC4          MOVL      *+XAR4[0],ACC         ; [CPU_] |888| 
    1795                      .dwpsn  file "C:/Users/a0221343/Git/bootROM/f28004x_bootrom/F28004x_ROM_dev_PG2.0/F28004x_ROM/driverl
    1796 00000008 8A44          MOVL      XAR4,*-SP[4]          ; [CPU_] |893| 
TMS320C2000 Assembler PC v6.4.4 Tue Feb 14 14:42:55 2017

Tools Copyright (c) 1996-2015 Texas Instruments Incorporated
C:\Users\a0221343\AppData\Local\Temp\0706410                         PAGE   35

    1797 00000009 06D4          MOVL      ACC,*+XAR4[2]         ; [CPU_] |893| 
    1798 0000000a 1901          SUBB      ACC,#1                ; [CPU_] |893| 
    1799 0000000b FF3B          LSL       ACC,12                ; [CPU_] |893| 
    1800 0000000c 9B00          MOVB      AH,#0                 ; [CPU_] |893| 
    1801 0000000d 18A9          AND       AL,#0x7000            ; [CPU_] |893| 
         0000000e 7000 
    1802 0000000f 1E46          MOVL      *-SP[6],ACC           ; [CPU_] |893| 
    1803                      .dwpsn  file "C:/Users/a0221343/Git/bootROM/f28004x_bootrom/F28004x_ROM_dev_PG2.0/F28004x_ROM/driverl
    1804 00000010 06C4          MOVL      ACC,*+XAR4[0]         ; [CPU_] |894| 
    1805 00000011 1901          SUBB      ACC,#1                ; [CPU_] |894| 
    1806 00000012 FF37          LSL       ACC,8                 ; [CPU_] |894| 
    1807 00000013 9B00          MOVB      AH,#0                 ; [CPU_] |894| 
    1808 00000014 18A9          AND       AL,#0x0f00            ; [CPU_] |894| 
         00000015 0F00 
    1809 00000016 9846          OR        *-SP[6],AL            ; [CPU_] |894| 
    1810 00000017 9945          OR        *-SP[5],AH            ; [CPU_] |894| 
    1811                      .dwpsn  file "C:/Users/a0221343/Git/bootROM/f28004x_bootrom/F28004x_ROM_dev_PG2.0/F28004x_ROM/driverl
    1812 00000018 06E4          MOVL      ACC,*+XAR4[4]         ; [CPU_] |895| 
    1813 00000019 1901          SUBB      ACC,#1                ; [CPU_] |895| 
    1814 0000001a FF35          LSL       ACC,6                 ; [CPU_] |895| 
    1815 0000001b 9B00          MOVB      AH,#0                 ; [CPU_] |895| 
    1816 0000001c 90C0          ANDB      AL,#0xc0              ; [CPU_] |895| 
    1817 0000001d 9846          OR        *-SP[6],AL            ; [CPU_] |895| 
    1818 0000001e 9945          OR        *-SP[5],AH            ; [CPU_] |895| 
    1819                      .dwpsn  file "C:/Users/a0221343/Git/bootROM/f28004x_bootrom/F28004x_ROM_dev_PG2.0/F28004x_ROM/driverl
    1820 0000001f 06F4          MOVL      ACC,*+XAR4[6]         ; [CPU_] |896| 
    1821 00000020 1901          SUBB      ACC,#1                ; [CPU_] |896| 
    1822 00000021 9B00          MOVB      AH,#0                 ; [CPU_] |896| 
    1823 00000022 903F          ANDB      AL,#0x3f              ; [CPU_] |896| 
    1824 00000023 9846          OR        *-SP[6],AL            ; [CPU_] |896| 
    1825 00000024 9945          OR        *-SP[5],AH            ; [CPU_] |896| 
    1826                      .dwpsn  file "C:/Users/a0221343/Git/bootROM/f28004x_bootrom/F28004x_ROM_dev_PG2.0/F28004x_ROM/driverl
    1827 00000025 06F4          MOVL      ACC,*+XAR4[6]         ; [CPU_] |897| 
    1828 00000026 1901          SUBB      ACC,#1                ; [CPU_] |897| 
    1829 00000027 FF39          LSL       ACC,10                ; [CPU_] |897| 
    1830 00000028 8F0F          MOVL      XAR4,#983040          ; [CPU_U] |897| 
         00000029 0000 
    1831 0000002a A8AB          MOVL      P,XAR4                ; [CPU_] |897| 
    1832 0000002b CEAB          AND       AL,PL                 ; [CPU_] |897| 
    1833 0000002c CFAA          AND       AH,PH                 ; [CPU_] |897| 
    1834 0000002d 9846          OR        *-SP[6],AL            ; [CPU_] |897| 
    1835 0000002e 9945          OR        *-SP[5],AH            ; [CPU_] |897| 
    1836                      .dwpsn  file "C:/Users/a0221343/Git/bootROM/f28004x_bootrom/F28004x_ROM_dev_PG2.0/F28004x_ROM/driverl
    1837 0000002f C446          MOVL      XAR6,*-SP[6]          ; [CPU_] |898| 
    1838 00000030 020C          MOVB      ACC,#12               ; [CPU_] |898| 
    1839 00000031 0742          ADDL      ACC,*-SP[2]           ; [CPU_] |898| 
    1840 00000032 8AA9          MOVL      XAR4,ACC              ; [CPU_] |898| 
    1841 00000033 C2C4          MOVL      *+XAR4[0],XAR6        ; [CPU_] |898| 
    1842                      .dwpsn  file "C:/Users/a0221343/Git/bootROM/f28004x_bootrom/F28004x_ROM_dev_PG2.0/F28004x_ROM/driverl
    1843 00000034 8F00          MOVL      XAR4,#65471           ; [CPU_U] |903| 
         00000035 FFBF 
    1844 00000036 A8AB          MOVL      P,XAR4                ; [CPU_] |903| 
    1845 00000037 93AB          MOV       AH,PL                 ; [CPU_] |903| 
    1846 00000038 92AA          MOV       AL,PH                 ; [CPU_] |903| 
    1847 00000039 C148          AND       *-SP[8],AH            ; [CPU_] |903| 
TMS320C2000 Assembler PC v6.4.4 Tue Feb 14 14:42:55 2017

Tools Copyright (c) 1996-2015 Texas Instruments Incorporated
C:\Users\a0221343\AppData\Local\Temp\0706410                         PAGE   36

    1848 0000003a C047          AND       *-SP[7],AL            ; [CPU_] |903| 
    1849                      .dwpsn  file "C:/Users/a0221343/Git/bootROM/f28004x_bootrom/F28004x_ROM_dev_PG2.0/F28004x_ROM/driverl
    1850 0000003b BE01          MOVB      XAR6,#1               ; [CPU_] |908| 
    1851 0000003c 0648          MOVL      ACC,*-SP[8]           ; [CPU_] |908| 
    1852 0000003d 9B00          MOVB      AH,#0                 ; [CPU_] |908| 
    1853 0000003e 9001          ANDB      AL,#0x01              ; [CPU_] |908| 
    1854 0000003f 0FA6          CMPL      ACC,XAR6              ; [CPU_] |908| 
    1855 00000040 ED08          BF        $C$L32,NEQ            ; [CPU_] |908| 
    1856                      ; branchcc occurs ; [] |908| 
    1857                      .dwpsn  file "C:/Users/a0221343/Git/bootROM/f28004x_bootrom/F28004x_ROM_dev_PG2.0/F28004x_ROM/driverl
    1858 00000041 8F00          MOVL      XAR4,#65534           ; [CPU_U] |910| 
         00000042 FFFE 
    1859 00000043 A8AB          MOVL      P,XAR4                ; [CPU_] |910| 
    1860 00000044 93AB          MOV       AH,PL                 ; [CPU_] |910| 
    1861 00000045 92AA          MOV       AL,PH                 ; [CPU_] |910| 
    1862 00000046 C148          AND       *-SP[8],AH            ; [CPU_] |910| 
    1863 00000047 C047          AND       *-SP[7],AL            ; [CPU_] |910| 
    1864 00000048       $C$L32:    
    1865                      .dwpsn  file "C:/Users/a0221343/Git/bootROM/f28004x_bootrom/F28004x_ROM_dev_PG2.0/F28004x_ROM/driverl
    1866 00000048 8A42          MOVL      XAR4,*-SP[2]          ; [CPU_] |912| 
    1867 00000049 0648          MOVL      ACC,*-SP[8]           ; [CPU_] |912| 
    1868 0000004a 1EC4          MOVL      *+XAR4[0],ACC         ; [CPU_] |912| 
    1869                      .dwpsn  file "C:/Users/a0221343/Git/bootROM/f28004x_bootrom/F28004x_ROM_dev_PG2.0/F28004x_ROM/driverl
    1870 0000004b FE88          SUBB      SP,#8                 ; [CPU_U] 
    1871                      .dwcfi  cfa_offset, -2
    1872              $C$DW$117       .dwtag  DW_TAG_TI_branch
    1873                      .dwattr $C$DW$117, DW_AT_low_pc(0x00)
    1874                      .dwattr $C$DW$117, DW_AT_TI_return
    1875 0000004c 0006          LRETR     ; [CPU_] 
    1876                      ; return occurs ; [] 
    1877                      .dwattr $C$DW$110, DW_AT_TI_end_file("C:/Users/a0221343/Git/bootROM/f28004x_bootrom/F28004x_ROM_dev_P
    1878                      .dwattr $C$DW$110, DW_AT_TI_end_line(0x391)
    1879                      .dwattr $C$DW$110, DW_AT_TI_end_column(0x01)
    1880                      .dwendentry
    1881                      .dwendtag $C$DW$110
    1882              
    1883 00000000               .sect   ".text:_CAN_disableAutoBusOn"
    1884                      .clink
    1885                      .global _CAN_disableAutoBusOn
    1886              
    1887              $C$DW$118       .dwtag  DW_TAG_subprogram, DW_AT_name("CAN_disableAutoBusOn")
    1888                      .dwattr $C$DW$118, DW_AT_low_pc(_CAN_disableAutoBusOn)
    1889                      .dwattr $C$DW$118, DW_AT_high_pc(0x00)
    1890                      .dwattr $C$DW$118, DW_AT_TI_symbol_name("_CAN_disableAutoBusOn")
    1891                      .dwattr $C$DW$118, DW_AT_external
    1892                      .dwattr $C$DW$118, DW_AT_TI_begin_file("C:/Users/a0221343/Git/bootROM/f28004x_bootrom/F28004x_ROM_dev
    1893                      .dwattr $C$DW$118, DW_AT_TI_begin_line(0x39e)
    1894                      .dwattr $C$DW$118, DW_AT_TI_begin_column(0x01)
    1895                      .dwattr $C$DW$118, DW_AT_TI_max_frame_size(-4)
    1896                      .dwpsn  file "C:/Users/a0221343/Git/bootROM/f28004x_bootrom/F28004x_ROM_dev_PG2.0/F28004x_ROM/driverl
    1897              
    1898                      .dwfde $C$DW$CIE, _CAN_disableAutoBusOn
    1899              $C$DW$119       .dwtag  DW_TAG_formal_parameter, DW_AT_name("base")
    1900                      .dwattr $C$DW$119, DW_AT_TI_symbol_name("_base")
    1901                      .dwattr $C$DW$119, DW_AT_type(*$C$DW$T$19)
TMS320C2000 Assembler PC v6.4.4 Tue Feb 14 14:42:55 2017

Tools Copyright (c) 1996-2015 Texas Instruments Incorporated
C:\Users\a0221343\AppData\Local\Temp\0706410                         PAGE   37

    1902                      .dwattr $C$DW$119, DW_AT_location[DW_OP_reg0]
    1903              
    1904              ;***************************************************************
    1905              ;* FNAME: _CAN_disableAutoBusOn         FR SIZE:   2           *
    1906              ;*                                                             *
    1907              ;* FUNCTION ENVIRONMENT                                        *
    1908              ;*                                                             *
    1909              ;* FUNCTION PROPERTIES                                         *
    1910              ;*                            0 Parameter,  2 Auto,  0 SOE     *
    1911              ;***************************************************************
    1912              
    1913 00000000       _CAN_disableAutoBusOn:
    1914                      .dwcfi  cfa_offset, -2
    1915                      .dwcfi  save_reg_to_mem, 26, 0
    1916 00000000 FE02          ADDB      SP,#2                 ; [CPU_U] 
    1917                      .dwcfi  cfa_offset, -4
    1918              $C$DW$120       .dwtag  DW_TAG_variable, DW_AT_name("base")
    1919                      .dwattr $C$DW$120, DW_AT_TI_symbol_name("_base")
    1920                      .dwattr $C$DW$120, DW_AT_type(*$C$DW$T$19)
    1921                      .dwattr $C$DW$120, DW_AT_location[DW_OP_breg20 -2]
    1922 00000001 1E42          MOVL      *-SP[2],ACC           ; [CPU_] |927| 
    1923                      .dwpsn  file "C:/Users/a0221343/Git/bootROM/f28004x_bootrom/F28004x_ROM_dev_PG2.0/F28004x_ROM/driverl
    1924 00000002 8F00          MOVL      XAR4,#65023           ; [CPU_U] |936| 
         00000003 FDFF 
    1925 00000004 8342          MOVL      XAR5,*-SP[2]          ; [CPU_] |936| 
    1926 00000005 A8AB          MOVL      P,XAR4                ; [CPU_] |936| 
    1927 00000006 93AB          MOV       AH,PL                 ; [CPU_] |936| 
    1928 00000007 92AA          MOV       AL,PH                 ; [CPU_] |936| 
    1929 00000008 C1C5          AND       *+XAR5[0],AH          ; [CPU_] |936| 
    1930 00000009 C0CD          AND       *+XAR5[1],AL          ; [CPU_] |936| 
    1931                      .dwpsn  file "C:/Users/a0221343/Git/bootROM/f28004x_bootrom/F28004x_ROM_dev_PG2.0/F28004x_ROM/driverl
    1932 0000000a FE82          SUBB      SP,#2                 ; [CPU_U] 
    1933                      .dwcfi  cfa_offset, -2
    1934              $C$DW$121       .dwtag  DW_TAG_TI_branch
    1935                      .dwattr $C$DW$121, DW_AT_low_pc(0x00)
    1936                      .dwattr $C$DW$121, DW_AT_TI_return
    1937 0000000b 0006          LRETR     ; [CPU_] 
    1938                      ; return occurs ; [] 
    1939                      .dwattr $C$DW$118, DW_AT_TI_end_file("C:/Users/a0221343/Git/bootROM/f28004x_bootrom/F28004x_ROM_dev_P
    1940                      .dwattr $C$DW$118, DW_AT_TI_end_line(0x3a9)
    1941                      .dwattr $C$DW$118, DW_AT_TI_end_column(0x01)
    1942                      .dwendentry
    1943                      .dwendtag $C$DW$118
    1944              
    1945 00000000               .sect   ".text:_CAN_enableAutoBusOn"
    1946                      .clink
    1947                      .global _CAN_enableAutoBusOn
    1948              
    1949              $C$DW$122       .dwtag  DW_TAG_subprogram, DW_AT_name("CAN_enableAutoBusOn")
    1950                      .dwattr $C$DW$122, DW_AT_low_pc(_CAN_enableAutoBusOn)
    1951                      .dwattr $C$DW$122, DW_AT_high_pc(0x00)
    1952                      .dwattr $C$DW$122, DW_AT_TI_symbol_name("_CAN_enableAutoBusOn")
    1953                      .dwattr $C$DW$122, DW_AT_external
    1954                      .dwattr $C$DW$122, DW_AT_TI_begin_file("C:/Users/a0221343/Git/bootROM/f28004x_bootrom/F28004x_ROM_dev
    1955                      .dwattr $C$DW$122, DW_AT_TI_begin_line(0x3b7)
TMS320C2000 Assembler PC v6.4.4 Tue Feb 14 14:42:55 2017

Tools Copyright (c) 1996-2015 Texas Instruments Incorporated
C:\Users\a0221343\AppData\Local\Temp\0706410                         PAGE   38

    1956                      .dwattr $C$DW$122, DW_AT_TI_begin_column(0x01)
    1957                      .dwattr $C$DW$122, DW_AT_TI_max_frame_size(-4)
    1958                      .dwpsn  file "C:/Users/a0221343/Git/bootROM/f28004x_bootrom/F28004x_ROM_dev_PG2.0/F28004x_ROM/driverl
    1959              
    1960                      .dwfde $C$DW$CIE, _CAN_enableAutoBusOn
    1961              $C$DW$123       .dwtag  DW_TAG_formal_parameter, DW_AT_name("base")
    1962                      .dwattr $C$DW$123, DW_AT_TI_symbol_name("_base")
    1963                      .dwattr $C$DW$123, DW_AT_type(*$C$DW$T$19)
    1964                      .dwattr $C$DW$123, DW_AT_location[DW_OP_reg0]
    1965              
    1966              ;***************************************************************
    1967              ;* FNAME: _CAN_enableAutoBusOn          FR SIZE:   2           *
    1968              ;*                                                             *
    1969              ;* FUNCTION ENVIRONMENT                                        *
    1970              ;*                                                             *
    1971              ;* FUNCTION PROPERTIES                                         *
    1972              ;*                            0 Parameter,  2 Auto,  0 SOE     *
    1973              ;***************************************************************
    1974              
    1975 00000000       _CAN_enableAutoBusOn:
    1976                      .dwcfi  cfa_offset, -2
    1977                      .dwcfi  save_reg_to_mem, 26, 0
    1978 00000000 FE02          ADDB      SP,#2                 ; [CPU_U] 
    1979                      .dwcfi  cfa_offset, -4
    1980              $C$DW$124       .dwtag  DW_TAG_variable, DW_AT_name("base")
    1981                      .dwattr $C$DW$124, DW_AT_TI_symbol_name("_base")
    1982                      .dwattr $C$DW$124, DW_AT_type(*$C$DW$T$19)
    1983                      .dwattr $C$DW$124, DW_AT_location[DW_OP_breg20 -2]
    1984 00000001 1E42          MOVL      *-SP[2],ACC           ; [CPU_] |952| 
    1985                      .dwpsn  file "C:/Users/a0221343/Git/bootROM/f28004x_bootrom/F28004x_ROM_dev_PG2.0/F28004x_ROM/driverl
    1986 00000002 8A42          MOVL      XAR4,*-SP[2]          ; [CPU_] |961| 
    1987 00000003 1AC4          OR        *+XAR4[0],#512        ; [CPU_] |961| 
         00000004 0200 
    1988                      .dwpsn  file "C:/Users/a0221343/Git/bootROM/f28004x_bootrom/F28004x_ROM_dev_PG2.0/F28004x_ROM/driverl
    1989 00000005 FE82          SUBB      SP,#2                 ; [CPU_U] 
    1990                      .dwcfi  cfa_offset, -2
    1991              $C$DW$125       .dwtag  DW_TAG_TI_branch
    1992                      .dwattr $C$DW$125, DW_AT_low_pc(0x00)
    1993                      .dwattr $C$DW$125, DW_AT_TI_return
    1994 00000006 0006          LRETR     ; [CPU_] 
    1995                      ; return occurs ; [] 
    1996                      .dwattr $C$DW$122, DW_AT_TI_end_file("C:/Users/a0221343/Git/bootROM/f28004x_bootrom/F28004x_ROM_dev_P
    1997                      .dwattr $C$DW$122, DW_AT_TI_end_line(0x3c2)
    1998                      .dwattr $C$DW$122, DW_AT_TI_end_column(0x01)
    1999                      .dwendentry
    2000                      .dwendtag $C$DW$122
    2001              
    2002 00000000               .sect   ".text:_CAN_setAutoBusOnTime"
    2003                      .clink
    2004                      .global _CAN_setAutoBusOnTime
    2005              
    2006              $C$DW$126       .dwtag  DW_TAG_subprogram, DW_AT_name("CAN_setAutoBusOnTime")
    2007                      .dwattr $C$DW$126, DW_AT_low_pc(_CAN_setAutoBusOnTime)
    2008                      .dwattr $C$DW$126, DW_AT_high_pc(0x00)
    2009                      .dwattr $C$DW$126, DW_AT_TI_symbol_name("_CAN_setAutoBusOnTime")
TMS320C2000 Assembler PC v6.4.4 Tue Feb 14 14:42:55 2017

Tools Copyright (c) 1996-2015 Texas Instruments Incorporated
C:\Users\a0221343\AppData\Local\Temp\0706410                         PAGE   39

    2010                      .dwattr $C$DW$126, DW_AT_external
    2011                      .dwattr $C$DW$126, DW_AT_TI_begin_file("C:/Users/a0221343/Git/bootROM/f28004x_bootrom/F28004x_ROM_dev
    2012                      .dwattr $C$DW$126, DW_AT_TI_begin_line(0x3d3)
    2013                      .dwattr $C$DW$126, DW_AT_TI_begin_column(0x01)
    2014                      .dwattr $C$DW$126, DW_AT_TI_max_frame_size(-4)
    2015                      .dwpsn  file "C:/Users/a0221343/Git/bootROM/f28004x_bootrom/F28004x_ROM_dev_PG2.0/F28004x_ROM/driverl
    2016              
    2017                      .dwfde $C$DW$CIE, _CAN_setAutoBusOnTime
    2018              $C$DW$127       .dwtag  DW_TAG_formal_parameter, DW_AT_name("base")
    2019                      .dwattr $C$DW$127, DW_AT_TI_symbol_name("_base")
    2020                      .dwattr $C$DW$127, DW_AT_type(*$C$DW$T$19)
    2021                      .dwattr $C$DW$127, DW_AT_location[DW_OP_reg0]
    2022              $C$DW$128       .dwtag  DW_TAG_formal_parameter, DW_AT_name("time")
    2023                      .dwattr $C$DW$128, DW_AT_TI_symbol_name("_time")
    2024                      .dwattr $C$DW$128, DW_AT_type(*$C$DW$T$19)
    2025                      .dwattr $C$DW$128, DW_AT_location[DW_OP_breg20 -6]
    2026              
    2027              ;***************************************************************
    2028              ;* FNAME: _CAN_setAutoBusOnTime         FR SIZE:   2           *
    2029              ;*                                                             *
    2030              ;* FUNCTION ENVIRONMENT                                        *
    2031              ;*                                                             *
    2032              ;* FUNCTION PROPERTIES                                         *
    2033              ;*                            0 Parameter,  2 Auto,  0 SOE     *
    2034              ;***************************************************************
    2035              
    2036 00000000       _CAN_setAutoBusOnTime:
    2037                      .dwcfi  cfa_offset, -2
    2038                      .dwcfi  save_reg_to_mem, 26, 0
    2039 00000000 FE02          ADDB      SP,#2                 ; [CPU_U] 
    2040                      .dwcfi  cfa_offset, -4
    2041              $C$DW$129       .dwtag  DW_TAG_variable, DW_AT_name("base")
    2042                      .dwattr $C$DW$129, DW_AT_TI_symbol_name("_base")
    2043                      .dwattr $C$DW$129, DW_AT_type(*$C$DW$T$19)
    2044                      .dwattr $C$DW$129, DW_AT_location[DW_OP_breg20 -2]
    2045 00000001 1E42          MOVL      *-SP[2],ACC           ; [CPU_] |980| 
    2046                      .dwpsn  file "C:/Users/a0221343/Git/bootROM/f28004x_bootrom/F28004x_ROM_dev_PG2.0/F28004x_ROM/driverl
    2047 00000002 C446          MOVL      XAR6,*-SP[6]          ; [CPU_] |981| 
    2048 00000003 0280          MOVB      ACC,#128              ; [CPU_] |981| 
    2049 00000004 0742          ADDL      ACC,*-SP[2]           ; [CPU_] |981| 
    2050 00000005 8AA9          MOVL      XAR4,ACC              ; [CPU_] |981| 
    2051 00000006 C2C4          MOVL      *+XAR4[0],XAR6        ; [CPU_] |981| 
    2052                      .dwpsn  file "C:/Users/a0221343/Git/bootROM/f28004x_bootrom/F28004x_ROM_dev_PG2.0/F28004x_ROM/driverl
    2053 00000007 FE82          SUBB      SP,#2                 ; [CPU_U] 
    2054                      .dwcfi  cfa_offset, -2
    2055              $C$DW$130       .dwtag  DW_TAG_TI_branch
    2056                      .dwattr $C$DW$130, DW_AT_low_pc(0x00)
    2057                      .dwattr $C$DW$130, DW_AT_TI_return
    2058 00000008 0006          LRETR     ; [CPU_] 
    2059                      ; return occurs ; [] 
    2060                      .dwattr $C$DW$126, DW_AT_TI_end_file("C:/Users/a0221343/Git/bootROM/f28004x_bootrom/F28004x_ROM_dev_P
    2061                      .dwattr $C$DW$126, DW_AT_TI_end_line(0x3d6)
    2062                      .dwattr $C$DW$126, DW_AT_TI_end_column(0x01)
    2063                      .dwendentry
    2064                      .dwendtag $C$DW$126
TMS320C2000 Assembler PC v6.4.4 Tue Feb 14 14:42:55 2017

Tools Copyright (c) 1996-2015 Texas Instruments Incorporated
C:\Users\a0221343\AppData\Local\Temp\0706410                         PAGE   40

    2065              
    2066 00000000               .sect   ".text:_CAN_registerInterrupt"
    2067                      .clink
    2068                      .global _CAN_registerInterrupt
    2069              
    2070              $C$DW$131       .dwtag  DW_TAG_subprogram, DW_AT_name("CAN_registerInterrupt")
    2071                      .dwattr $C$DW$131, DW_AT_low_pc(_CAN_registerInterrupt)
    2072                      .dwattr $C$DW$131, DW_AT_high_pc(0x00)
    2073                      .dwattr $C$DW$131, DW_AT_TI_symbol_name("_CAN_registerInterrupt")
    2074                      .dwattr $C$DW$131, DW_AT_external
    2075                      .dwattr $C$DW$131, DW_AT_TI_begin_file("C:/Users/a0221343/Git/bootROM/f28004x_bootrom/F28004x_ROM_dev
    2076                      .dwattr $C$DW$131, DW_AT_TI_begin_line(0x3f2)
    2077                      .dwattr $C$DW$131, DW_AT_TI_begin_column(0x01)
    2078                      .dwattr $C$DW$131, DW_AT_TI_max_frame_size(-10)
    2079                      .dwpsn  file "C:/Users/a0221343/Git/bootROM/f28004x_bootrom/F28004x_ROM_dev_PG2.0/F28004x_ROM/driverl
    2080              
    2081                      .dwfde $C$DW$CIE, _CAN_registerInterrupt
    2082              $C$DW$132       .dwtag  DW_TAG_formal_parameter, DW_AT_name("base")
    2083                      .dwattr $C$DW$132, DW_AT_TI_symbol_name("_base")
    2084                      .dwattr $C$DW$132, DW_AT_type(*$C$DW$T$19)
    2085                      .dwattr $C$DW$132, DW_AT_location[DW_OP_reg0]
    2086              $C$DW$133       .dwtag  DW_TAG_formal_parameter, DW_AT_name("canIntNumber")
    2087                      .dwattr $C$DW$133, DW_AT_TI_symbol_name("_canIntNumber")
    2088                      .dwattr $C$DW$133, DW_AT_type(*$C$DW$T$21)
    2089                      .dwattr $C$DW$133, DW_AT_location[DW_OP_reg14]
    2090              $C$DW$134       .dwtag  DW_TAG_formal_parameter, DW_AT_name("handler")
    2091                      .dwattr $C$DW$134, DW_AT_TI_symbol_name("_handler")
    2092                      .dwattr $C$DW$134, DW_AT_type(*$C$DW$T$35)
    2093                      .dwattr $C$DW$134, DW_AT_location[DW_OP_reg12]
    2094              
    2095              ;***************************************************************
    2096              ;* FNAME: _CAN_registerInterrupt        FR SIZE:   8           *
    2097              ;*                                                             *
    2098              ;* FUNCTION ENVIRONMENT                                        *
    2099              ;*                                                             *
    2100              ;* FUNCTION PROPERTIES                                         *
    2101              ;*                            0 Parameter,  8 Auto,  0 SOE     *
    2102              ;***************************************************************
    2103              
    2104 00000000       _CAN_registerInterrupt:
    2105                      .dwcfi  cfa_offset, -2
    2106                      .dwcfi  save_reg_to_mem, 26, 0
    2107 00000000 FE08          ADDB      SP,#8                 ; [CPU_U] 
    2108                      .dwcfi  cfa_offset, -10
    2109              $C$DW$135       .dwtag  DW_TAG_variable, DW_AT_name("base")
    2110                      .dwattr $C$DW$135, DW_AT_TI_symbol_name("_base")
    2111                      .dwattr $C$DW$135, DW_AT_type(*$C$DW$T$19)
    2112                      .dwattr $C$DW$135, DW_AT_location[DW_OP_breg20 -2]
    2113              $C$DW$136       .dwtag  DW_TAG_variable, DW_AT_name("canIntNumber")
    2114                      .dwattr $C$DW$136, DW_AT_TI_symbol_name("_canIntNumber")
    2115                      .dwattr $C$DW$136, DW_AT_type(*$C$DW$T$21)
    2116                      .dwattr $C$DW$136, DW_AT_location[DW_OP_breg20 -3]
    2117              $C$DW$137       .dwtag  DW_TAG_variable, DW_AT_name("handler")
    2118                      .dwattr $C$DW$137, DW_AT_TI_symbol_name("_handler")
    2119                      .dwattr $C$DW$137, DW_AT_type(*$C$DW$T$35)
TMS320C2000 Assembler PC v6.4.4 Tue Feb 14 14:42:55 2017

Tools Copyright (c) 1996-2015 Texas Instruments Incorporated
C:\Users\a0221343\AppData\Local\Temp\0706410                         PAGE   41

    2120                      .dwattr $C$DW$137, DW_AT_location[DW_OP_breg20 -6]
    2121              $C$DW$138       .dwtag  DW_TAG_variable, DW_AT_name("intNumber")
    2122                      .dwattr $C$DW$138, DW_AT_TI_symbol_name("_intNumber")
    2123                      .dwattr $C$DW$138, DW_AT_type(*$C$DW$T$19)
    2124                      .dwattr $C$DW$138, DW_AT_location[DW_OP_breg20 -8]
    2125 00000001 7D43          MOV       *-SP[3],AR5           ; [CPU_] |1012| 
    2126 00000002 A846          MOVL      *-SP[6],XAR4          ; [CPU_] |1012| 
    2127 00000003 1E42          MOVL      *-SP[2],ACC           ; [CPU_] |1012| 
    2128                      .dwpsn  file "C:/Users/a0221343/Git/bootROM/f28004x_bootrom/F28004x_ROM_dev_PG2.0/F28004x_ROM/driverl
    2129 00000004 5C43          MOVZ      AR4,*-SP[3]           ; [CPU_] |1023| 
    2130              $C$DW$139       .dwtag  DW_TAG_TI_branch
    2131                      .dwattr $C$DW$139, DW_AT_low_pc(0x00)
    2132                      .dwattr $C$DW$139, DW_AT_name("_CAN_getIntNumber")
    2133                      .dwattr $C$DW$139, DW_AT_TI_call
    2134 00000005 7640+         LCR       #_CAN_getIntNumber    ; [CPU_] |1023| 
         00000006 0000 
    2135                      ; call occurs [#_CAN_getIntNumber] ; [] |1023| 
    2136 00000007 1E48          MOVL      *-SP[8],ACC           ; [CPU_] |1023| 
    2137                      .dwpsn  file "C:/Users/a0221343/Git/bootROM/f28004x_bootrom/F28004x_ROM_dev_PG2.0/F28004x_ROM/driverl
    2138 00000008 8A46          MOVL      XAR4,*-SP[6]          ; [CPU_] |1028| 
    2139              $C$DW$140       .dwtag  DW_TAG_TI_branch
    2140                      .dwattr $C$DW$140, DW_AT_low_pc(0x00)
    2141                      .dwattr $C$DW$140, DW_AT_name("_Interrupt_register")
    2142                      .dwattr $C$DW$140, DW_AT_TI_call
    2143 00000009 7640+         LCR       #_Interrupt_register  ; [CPU_] |1028| 
         0000000a 0000 
    2144                      ; call occurs [#_Interrupt_register] ; [] |1028| 
    2145                      .dwpsn  file "C:/Users/a0221343/Git/bootROM/f28004x_bootrom/F28004x_ROM_dev_PG2.0/F28004x_ROM/driverl
    2146 0000000b 0648          MOVL      ACC,*-SP[8]           ; [CPU_] |1033| 
    2147              $C$DW$141       .dwtag  DW_TAG_TI_branch
    2148                      .dwattr $C$DW$141, DW_AT_low_pc(0x00)
    2149                      .dwattr $C$DW$141, DW_AT_name("_Interrupt_enable")
    2150                      .dwattr $C$DW$141, DW_AT_TI_call
    2151 0000000c 7640!         LCR       #_Interrupt_enable    ; [CPU_] |1033| 
         0000000d 0000 
    2152                      ; call occurs [#_Interrupt_enable] ; [] |1033| 
    2153                      .dwpsn  file "C:/Users/a0221343/Git/bootROM/f28004x_bootrom/F28004x_ROM_dev_PG2.0/F28004x_ROM/driverl
    2154 0000000e FE88          SUBB      SP,#8                 ; [CPU_U] 
    2155                      .dwcfi  cfa_offset, -2
    2156              $C$DW$142       .dwtag  DW_TAG_TI_branch
    2157                      .dwattr $C$DW$142, DW_AT_low_pc(0x00)
    2158                      .dwattr $C$DW$142, DW_AT_TI_return
    2159 0000000f 0006          LRETR     ; [CPU_] 
    2160                      ; return occurs ; [] 
    2161                      .dwattr $C$DW$131, DW_AT_TI_end_file("C:/Users/a0221343/Git/bootROM/f28004x_bootrom/F28004x_ROM_dev_P
    2162                      .dwattr $C$DW$131, DW_AT_TI_end_line(0x40a)
    2163                      .dwattr $C$DW$131, DW_AT_TI_end_column(0x01)
    2164                      .dwendentry
    2165                      .dwendtag $C$DW$131
    2166              
    2167 00000000               .sect   ".text:_CAN_unregisterInterrupt"
    2168                      .clink
    2169                      .global _CAN_unregisterInterrupt
    2170              
    2171              $C$DW$143       .dwtag  DW_TAG_subprogram, DW_AT_name("CAN_unregisterInterrupt")
TMS320C2000 Assembler PC v6.4.4 Tue Feb 14 14:42:55 2017

Tools Copyright (c) 1996-2015 Texas Instruments Incorporated
C:\Users\a0221343\AppData\Local\Temp\0706410                         PAGE   42

    2172                      .dwattr $C$DW$143, DW_AT_low_pc(_CAN_unregisterInterrupt)
    2173                      .dwattr $C$DW$143, DW_AT_high_pc(0x00)
    2174                      .dwattr $C$DW$143, DW_AT_TI_symbol_name("_CAN_unregisterInterrupt")
    2175                      .dwattr $C$DW$143, DW_AT_external
    2176                      .dwattr $C$DW$143, DW_AT_TI_begin_file("C:/Users/a0221343/Git/bootROM/f28004x_bootrom/F28004x_ROM_dev
    2177                      .dwattr $C$DW$143, DW_AT_TI_begin_line(0x41c)
    2178                      .dwattr $C$DW$143, DW_AT_TI_begin_column(0x01)
    2179                      .dwattr $C$DW$143, DW_AT_TI_max_frame_size(-8)
    2180                      .dwpsn  file "C:/Users/a0221343/Git/bootROM/f28004x_bootrom/F28004x_ROM_dev_PG2.0/F28004x_ROM/driverl
    2181              
    2182                      .dwfde $C$DW$CIE, _CAN_unregisterInterrupt
    2183              $C$DW$144       .dwtag  DW_TAG_formal_parameter, DW_AT_name("base")
    2184                      .dwattr $C$DW$144, DW_AT_TI_symbol_name("_base")
    2185                      .dwattr $C$DW$144, DW_AT_type(*$C$DW$T$19)
    2186                      .dwattr $C$DW$144, DW_AT_location[DW_OP_reg0]
    2187              $C$DW$145       .dwtag  DW_TAG_formal_parameter, DW_AT_name("canIntNumber")
    2188                      .dwattr $C$DW$145, DW_AT_TI_symbol_name("_canIntNumber")
    2189                      .dwattr $C$DW$145, DW_AT_type(*$C$DW$T$21)
    2190                      .dwattr $C$DW$145, DW_AT_location[DW_OP_reg12]
    2191              
    2192              ;***************************************************************
    2193              ;* FNAME: _CAN_unregisterInterrupt      FR SIZE:   6           *
    2194              ;*                                                             *
    2195              ;* FUNCTION ENVIRONMENT                                        *
    2196              ;*                                                             *
    2197              ;* FUNCTION PROPERTIES                                         *
    2198              ;*                            0 Parameter,  6 Auto,  0 SOE     *
    2199              ;***************************************************************
    2200              
    2201 00000000       _CAN_unregisterInterrupt:
    2202                      .dwcfi  cfa_offset, -2
    2203                      .dwcfi  save_reg_to_mem, 26, 0
    2204 00000000 FE06          ADDB      SP,#6                 ; [CPU_U] 
    2205                      .dwcfi  cfa_offset, -8
    2206              $C$DW$146       .dwtag  DW_TAG_variable, DW_AT_name("base")
    2207                      .dwattr $C$DW$146, DW_AT_TI_symbol_name("_base")
    2208                      .dwattr $C$DW$146, DW_AT_type(*$C$DW$T$19)
    2209                      .dwattr $C$DW$146, DW_AT_location[DW_OP_breg20 -2]
    2210              $C$DW$147       .dwtag  DW_TAG_variable, DW_AT_name("canIntNumber")
    2211                      .dwattr $C$DW$147, DW_AT_TI_symbol_name("_canIntNumber")
    2212                      .dwattr $C$DW$147, DW_AT_type(*$C$DW$T$21)
    2213                      .dwattr $C$DW$147, DW_AT_location[DW_OP_breg20 -3]
    2214              $C$DW$148       .dwtag  DW_TAG_variable, DW_AT_name("intNumber")
    2215                      .dwattr $C$DW$148, DW_AT_TI_symbol_name("_intNumber")
    2216                      .dwattr $C$DW$148, DW_AT_type(*$C$DW$T$19)
    2217                      .dwattr $C$DW$148, DW_AT_location[DW_OP_breg20 -6]
    2218 00000001 7C43          MOV       *-SP[3],AR4           ; [CPU_] |1053| 
    2219 00000002 1E42          MOVL      *-SP[2],ACC           ; [CPU_] |1053| 
    2220                      .dwpsn  file "C:/Users/a0221343/Git/bootROM/f28004x_bootrom/F28004x_ROM_dev_PG2.0/F28004x_ROM/driverl
    2221              $C$DW$149       .dwtag  DW_TAG_TI_branch
    2222                      .dwattr $C$DW$149, DW_AT_low_pc(0x00)
    2223                      .dwattr $C$DW$149, DW_AT_name("_CAN_getIntNumber")
    2224                      .dwattr $C$DW$149, DW_AT_TI_call
    2225 00000003 7640+         LCR       #_CAN_getIntNumber    ; [CPU_] |1064| 
         00000004 0000 
TMS320C2000 Assembler PC v6.4.4 Tue Feb 14 14:42:55 2017

Tools Copyright (c) 1996-2015 Texas Instruments Incorporated
C:\Users\a0221343\AppData\Local\Temp\0706410                         PAGE   43

    2226                      ; call occurs [#_CAN_getIntNumber] ; [] |1064| 
    2227 00000005 1E46          MOVL      *-SP[6],ACC           ; [CPU_] |1064| 
    2228                      .dwpsn  file "C:/Users/a0221343/Git/bootROM/f28004x_bootrom/F28004x_ROM_dev_PG2.0/F28004x_ROM/driverl
    2229              $C$DW$150       .dwtag  DW_TAG_TI_branch
    2230                      .dwattr $C$DW$150, DW_AT_low_pc(0x00)
    2231                      .dwattr $C$DW$150, DW_AT_name("_Interrupt_unregister")
    2232                      .dwattr $C$DW$150, DW_AT_TI_call
    2233 00000006 7640+         LCR       #_Interrupt_unregister ; [CPU_] |1069| 
         00000007 0000 
    2234                      ; call occurs [#_Interrupt_unregister] ; [] |1069| 
    2235                      .dwpsn  file "C:/Users/a0221343/Git/bootROM/f28004x_bootrom/F28004x_ROM_dev_PG2.0/F28004x_ROM/driverl
    2236 00000008 0646          MOVL      ACC,*-SP[6]           ; [CPU_] |1074| 
    2237              $C$DW$151       .dwtag  DW_TAG_TI_branch
    2238                      .dwattr $C$DW$151, DW_AT_low_pc(0x00)
    2239                      .dwattr $C$DW$151, DW_AT_name("_Interrupt_disable")
    2240                      .dwattr $C$DW$151, DW_AT_TI_call
    2241 00000009 7640!         LCR       #_Interrupt_disable   ; [CPU_] |1074| 
         0000000a 0000 
    2242                      ; call occurs [#_Interrupt_disable] ; [] |1074| 
    2243                      .dwpsn  file "C:/Users/a0221343/Git/bootROM/f28004x_bootrom/F28004x_ROM_dev_PG2.0/F28004x_ROM/driverl
    2244 0000000b FE86          SUBB      SP,#6                 ; [CPU_U] 
    2245                      .dwcfi  cfa_offset, -2
    2246              $C$DW$152       .dwtag  DW_TAG_TI_branch
    2247                      .dwattr $C$DW$152, DW_AT_low_pc(0x00)
    2248                      .dwattr $C$DW$152, DW_AT_TI_return
    2249 0000000c 0006          LRETR     ; [CPU_] 
    2250                      ; return occurs ; [] 
    2251                      .dwattr $C$DW$143, DW_AT_TI_end_file("C:/Users/a0221343/Git/bootROM/f28004x_bootrom/F28004x_ROM_dev_P
    2252                      .dwattr $C$DW$143, DW_AT_TI_end_line(0x433)
    2253                      .dwattr $C$DW$143, DW_AT_TI_end_column(0x01)
    2254                      .dwendentry
    2255                      .dwendtag $C$DW$143
    2256              
    2257 00000000               .sect   ".text:_CAN_enableInterrupt"
    2258                      .clink
    2259                      .global _CAN_enableInterrupt
    2260              
    2261              $C$DW$153       .dwtag  DW_TAG_subprogram, DW_AT_name("CAN_enableInterrupt")
    2262                      .dwattr $C$DW$153, DW_AT_low_pc(_CAN_enableInterrupt)
    2263                      .dwattr $C$DW$153, DW_AT_high_pc(0x00)
    2264                      .dwattr $C$DW$153, DW_AT_TI_symbol_name("_CAN_enableInterrupt")
    2265                      .dwattr $C$DW$153, DW_AT_external
    2266                      .dwattr $C$DW$153, DW_AT_TI_begin_file("C:/Users/a0221343/Git/bootROM/f28004x_bootrom/F28004x_ROM_dev
    2267                      .dwattr $C$DW$153, DW_AT_TI_begin_line(0x457)
    2268                      .dwattr $C$DW$153, DW_AT_TI_begin_column(0x01)
    2269                      .dwattr $C$DW$153, DW_AT_TI_max_frame_size(-4)
    2270                      .dwpsn  file "C:/Users/a0221343/Git/bootROM/f28004x_bootrom/F28004x_ROM_dev_PG2.0/F28004x_ROM/driverl
    2271              
    2272                      .dwfde $C$DW$CIE, _CAN_enableInterrupt
    2273              $C$DW$154       .dwtag  DW_TAG_formal_parameter, DW_AT_name("base")
    2274                      .dwattr $C$DW$154, DW_AT_TI_symbol_name("_base")
    2275                      .dwattr $C$DW$154, DW_AT_type(*$C$DW$T$19)
    2276                      .dwattr $C$DW$154, DW_AT_location[DW_OP_reg0]
    2277              $C$DW$155       .dwtag  DW_TAG_formal_parameter, DW_AT_name("intFlags")
    2278                      .dwattr $C$DW$155, DW_AT_TI_symbol_name("_intFlags")
TMS320C2000 Assembler PC v6.4.4 Tue Feb 14 14:42:55 2017

Tools Copyright (c) 1996-2015 Texas Instruments Incorporated
C:\Users\a0221343\AppData\Local\Temp\0706410                         PAGE   44

    2279                      .dwattr $C$DW$155, DW_AT_type(*$C$DW$T$19)
    2280                      .dwattr $C$DW$155, DW_AT_location[DW_OP_breg20 -6]
    2281              
    2282              ;***************************************************************
    2283              ;* FNAME: _CAN_enableInterrupt          FR SIZE:   2           *
    2284              ;*                                                             *
    2285              ;* FUNCTION ENVIRONMENT                                        *
    2286              ;*                                                             *
    2287              ;* FUNCTION PROPERTIES                                         *
    2288              ;*                            0 Parameter,  2 Auto,  0 SOE     *
    2289              ;***************************************************************
    2290              
    2291 00000000       _CAN_enableInterrupt:
    2292                      .dwcfi  cfa_offset, -2
    2293                      .dwcfi  save_reg_to_mem, 26, 0
    2294 00000000 FE02          ADDB      SP,#2                 ; [CPU_U] 
    2295                      .dwcfi  cfa_offset, -4
    2296              $C$DW$156       .dwtag  DW_TAG_variable, DW_AT_name("base")
    2297                      .dwattr $C$DW$156, DW_AT_TI_symbol_name("_base")
    2298                      .dwattr $C$DW$156, DW_AT_type(*$C$DW$T$19)
    2299                      .dwattr $C$DW$156, DW_AT_location[DW_OP_breg20 -2]
    2300 00000001 1E42          MOVL      *-SP[2],ACC           ; [CPU_] |1112| 
    2301                      .dwpsn  file "C:/Users/a0221343/Git/bootROM/f28004x_bootrom/F28004x_ROM_dev_PG2.0/F28004x_ROM/driverl
    2302 00000002 8A42          MOVL      XAR4,*-SP[2]          ; [CPU_] |1123| 
    2303 00000003 8342          MOVL      XAR5,*-SP[2]          ; [CPU_] |1123| 
    2304 00000004 0646          MOVL      ACC,*-SP[6]           ; [CPU_] |1123| 
    2305 00000005 CAC4          OR        AL,*+XAR4[0]          ; [CPU_] |1123| 
    2306 00000006 CBCC          OR        AH,*+XAR4[1]          ; [CPU_] |1123| 
    2307 00000007 1EC5          MOVL      *+XAR5[0],ACC         ; [CPU_] |1123| 
    2308                      .dwpsn  file "C:/Users/a0221343/Git/bootROM/f28004x_bootrom/F28004x_ROM_dev_PG2.0/F28004x_ROM/driverl
    2309 00000008 FE82          SUBB      SP,#2                 ; [CPU_U] 
    2310                      .dwcfi  cfa_offset, -2
    2311              $C$DW$157       .dwtag  DW_TAG_TI_branch
    2312                      .dwattr $C$DW$157, DW_AT_low_pc(0x00)
    2313                      .dwattr $C$DW$157, DW_AT_TI_return
    2314 00000009 0006          LRETR     ; [CPU_] 
    2315                      ; return occurs ; [] 
    2316                      .dwattr $C$DW$153, DW_AT_TI_end_file("C:/Users/a0221343/Git/bootROM/f28004x_bootrom/F28004x_ROM_dev_P
    2317                      .dwattr $C$DW$153, DW_AT_TI_end_line(0x464)
    2318                      .dwattr $C$DW$153, DW_AT_TI_end_column(0x01)
    2319                      .dwendentry
    2320                      .dwendtag $C$DW$153
    2321              
    2322 00000000               .sect   ".text:_CAN_disableInterrupt"
    2323                      .clink
    2324                      .global _CAN_disableInterrupt
    2325              
    2326              $C$DW$158       .dwtag  DW_TAG_subprogram, DW_AT_name("CAN_disableInterrupt")
    2327                      .dwattr $C$DW$158, DW_AT_low_pc(_CAN_disableInterrupt)
    2328                      .dwattr $C$DW$158, DW_AT_high_pc(0x00)
    2329                      .dwattr $C$DW$158, DW_AT_TI_symbol_name("_CAN_disableInterrupt")
    2330                      .dwattr $C$DW$158, DW_AT_external
    2331                      .dwattr $C$DW$158, DW_AT_TI_begin_file("C:/Users/a0221343/Git/bootROM/f28004x_bootrom/F28004x_ROM_dev
    2332                      .dwattr $C$DW$158, DW_AT_TI_begin_line(0x476)
    2333                      .dwattr $C$DW$158, DW_AT_TI_begin_column(0x01)
TMS320C2000 Assembler PC v6.4.4 Tue Feb 14 14:42:55 2017

Tools Copyright (c) 1996-2015 Texas Instruments Incorporated
C:\Users\a0221343\AppData\Local\Temp\0706410                         PAGE   45

    2334                      .dwattr $C$DW$158, DW_AT_TI_max_frame_size(-4)
    2335                      .dwpsn  file "C:/Users/a0221343/Git/bootROM/f28004x_bootrom/F28004x_ROM_dev_PG2.0/F28004x_ROM/driverl
    2336              
    2337                      .dwfde $C$DW$CIE, _CAN_disableInterrupt
    2338              $C$DW$159       .dwtag  DW_TAG_formal_parameter, DW_AT_name("base")
    2339                      .dwattr $C$DW$159, DW_AT_TI_symbol_name("_base")
    2340                      .dwattr $C$DW$159, DW_AT_type(*$C$DW$T$19)
    2341                      .dwattr $C$DW$159, DW_AT_location[DW_OP_reg0]
    2342              $C$DW$160       .dwtag  DW_TAG_formal_parameter, DW_AT_name("intFlags")
    2343                      .dwattr $C$DW$160, DW_AT_TI_symbol_name("_intFlags")
    2344                      .dwattr $C$DW$160, DW_AT_type(*$C$DW$T$19)
    2345                      .dwattr $C$DW$160, DW_AT_location[DW_OP_breg20 -6]
    2346              
    2347              ;***************************************************************
    2348              ;* FNAME: _CAN_disableInterrupt         FR SIZE:   2           *
    2349              ;*                                                             *
    2350              ;* FUNCTION ENVIRONMENT                                        *
    2351              ;*                                                             *
    2352              ;* FUNCTION PROPERTIES                                         *
    2353              ;*                            0 Parameter,  2 Auto,  0 SOE     *
    2354              ;***************************************************************
    2355              
    2356 00000000       _CAN_disableInterrupt:
    2357                      .dwcfi  cfa_offset, -2
    2358                      .dwcfi  save_reg_to_mem, 26, 0
    2359 00000000 FE02          ADDB      SP,#2                 ; [CPU_U] 
    2360                      .dwcfi  cfa_offset, -4
    2361              $C$DW$161       .dwtag  DW_TAG_variable, DW_AT_name("base")
    2362                      .dwattr $C$DW$161, DW_AT_TI_symbol_name("_base")
    2363                      .dwattr $C$DW$161, DW_AT_type(*$C$DW$T$19)
    2364                      .dwattr $C$DW$161, DW_AT_location[DW_OP_breg20 -2]
    2365 00000001 1E42          MOVL      *-SP[2],ACC           ; [CPU_] |1143| 
    2366                      .dwpsn  file "C:/Users/a0221343/Git/bootROM/f28004x_bootrom/F28004x_ROM_dev_PG2.0/F28004x_ROM/driverl
    2367 00000002 8A42          MOVL      XAR4,*-SP[2]          ; [CPU_] |1154| 
    2368 00000003 0646          MOVL      ACC,*-SP[6]           ; [CPU_] |1154| 
    2369 00000004 8342          MOVL      XAR5,*-SP[2]          ; [CPU_] |1154| 
    2370 00000005 FF55          NOT       ACC                   ; [CPU_] |1154| 
    2371 00000006 CEC4          AND       AL,*+XAR4[0]          ; [CPU_] |1154| 
    2372 00000007 CFCC          AND       AH,*+XAR4[1]          ; [CPU_] |1154| 
    2373 00000008 1EC5          MOVL      *+XAR5[0],ACC         ; [CPU_] |1154| 
    2374                      .dwpsn  file "C:/Users/a0221343/Git/bootROM/f28004x_bootrom/F28004x_ROM_dev_PG2.0/F28004x_ROM/driverl
    2375 00000009 FE82          SUBB      SP,#2                 ; [CPU_U] 
    2376                      .dwcfi  cfa_offset, -2
    2377              $C$DW$162       .dwtag  DW_TAG_TI_branch
    2378                      .dwattr $C$DW$162, DW_AT_low_pc(0x00)
    2379                      .dwattr $C$DW$162, DW_AT_TI_return
    2380 0000000a 0006          LRETR     ; [CPU_] 
    2381                      ; return occurs ; [] 
    2382                      .dwattr $C$DW$158, DW_AT_TI_end_file("C:/Users/a0221343/Git/bootROM/f28004x_bootrom/F28004x_ROM_dev_P
    2383                      .dwattr $C$DW$158, DW_AT_TI_end_line(0x483)
    2384                      .dwattr $C$DW$158, DW_AT_TI_end_column(0x01)
    2385                      .dwendentry
    2386                      .dwendtag $C$DW$158
    2387              
    2388 00000000               .sect   ".text:_CAN_getInterruptStatus"
TMS320C2000 Assembler PC v6.4.4 Tue Feb 14 14:42:55 2017

Tools Copyright (c) 1996-2015 Texas Instruments Incorporated
C:\Users\a0221343\AppData\Local\Temp\0706410                         PAGE   46

    2389                      .clink
    2390                      .global _CAN_getInterruptStatus
    2391              
    2392              $C$DW$163       .dwtag  DW_TAG_subprogram, DW_AT_name("CAN_getInterruptStatus")
    2393                      .dwattr $C$DW$163, DW_AT_low_pc(_CAN_getInterruptStatus)
    2394                      .dwattr $C$DW$163, DW_AT_high_pc(0x00)
    2395                      .dwattr $C$DW$163, DW_AT_TI_symbol_name("_CAN_getInterruptStatus")
    2396                      .dwattr $C$DW$163, DW_AT_external
    2397                      .dwattr $C$DW$163, DW_AT_type(*$C$DW$T$19)
    2398                      .dwattr $C$DW$163, DW_AT_TI_begin_file("C:/Users/a0221343/Git/bootROM/f28004x_bootrom/F28004x_ROM_dev
    2399                      .dwattr $C$DW$163, DW_AT_TI_begin_line(0x4a9)
    2400                      .dwattr $C$DW$163, DW_AT_TI_begin_column(0x01)
    2401                      .dwattr $C$DW$163, DW_AT_TI_max_frame_size(-8)
    2402                      .dwpsn  file "C:/Users/a0221343/Git/bootROM/f28004x_bootrom/F28004x_ROM_dev_PG2.0/F28004x_ROM/driverl
    2403              
    2404                      .dwfde $C$DW$CIE, _CAN_getInterruptStatus
    2405              $C$DW$164       .dwtag  DW_TAG_formal_parameter, DW_AT_name("base")
    2406                      .dwattr $C$DW$164, DW_AT_TI_symbol_name("_base")
    2407                      .dwattr $C$DW$164, DW_AT_type(*$C$DW$T$19)
    2408                      .dwattr $C$DW$164, DW_AT_location[DW_OP_reg0]
    2409              $C$DW$165       .dwtag  DW_TAG_formal_parameter, DW_AT_name("intStsReg")
    2410                      .dwattr $C$DW$165, DW_AT_TI_symbol_name("_intStsReg")
    2411                      .dwattr $C$DW$165, DW_AT_type(*$C$DW$T$25)
    2412                      .dwattr $C$DW$165, DW_AT_location[DW_OP_reg12]
    2413              
    2414              ;***************************************************************
    2415              ;* FNAME: _CAN_getInterruptStatus       FR SIZE:   6           *
    2416              ;*                                                             *
    2417              ;* FUNCTION ENVIRONMENT                                        *
    2418              ;*                                                             *
    2419              ;* FUNCTION PROPERTIES                                         *
    2420              ;*                            0 Parameter,  6 Auto,  0 SOE     *
    2421              ;***************************************************************
    2422              
    2423 00000000       _CAN_getInterruptStatus:
    2424                      .dwcfi  cfa_offset, -2
    2425                      .dwcfi  save_reg_to_mem, 26, 0
    2426 00000000 FE06          ADDB      SP,#6                 ; [CPU_U] 
    2427                      .dwcfi  cfa_offset, -8
    2428              $C$DW$166       .dwtag  DW_TAG_variable, DW_AT_name("base")
    2429                      .dwattr $C$DW$166, DW_AT_TI_symbol_name("_base")
    2430                      .dwattr $C$DW$166, DW_AT_type(*$C$DW$T$19)
    2431                      .dwattr $C$DW$166, DW_AT_location[DW_OP_breg20 -2]
    2432              $C$DW$167       .dwtag  DW_TAG_variable, DW_AT_name("intStsReg")
    2433                      .dwattr $C$DW$167, DW_AT_TI_symbol_name("_intStsReg")
    2434                      .dwattr $C$DW$167, DW_AT_type(*$C$DW$T$25)
    2435                      .dwattr $C$DW$167, DW_AT_location[DW_OP_breg20 -3]
    2436              $C$DW$168       .dwtag  DW_TAG_variable, DW_AT_name("status")
    2437                      .dwattr $C$DW$168, DW_AT_TI_symbol_name("_status")
    2438                      .dwattr $C$DW$168, DW_AT_type(*$C$DW$T$19)
    2439                      .dwattr $C$DW$168, DW_AT_location[DW_OP_breg20 -6]
    2440 00000001 7C43          MOV       *-SP[3],AR4           ; [CPU_] |1194| 
    2441 00000002 1E42          MOVL      *-SP[2],ACC           ; [CPU_] |1194| 
    2442                      .dwpsn  file "C:/Users/a0221343/Git/bootROM/f28004x_bootrom/F28004x_ROM_dev_PG2.0/F28004x_ROM/driverl
    2443 00000003 6F10          B         $C$L36,UNC            ; [CPU_] |1205| 
TMS320C2000 Assembler PC v6.4.4 Tue Feb 14 14:42:55 2017

Tools Copyright (c) 1996-2015 Texas Instruments Incorporated
C:\Users\a0221343\AppData\Local\Temp\0706410                         PAGE   47

    2444                      ; branch occurs ; [] |1205| 
    2445 00000004       $C$L33:    
    2446                      .dwpsn  file "C:/Users/a0221343/Git/bootROM/f28004x_bootrom/F28004x_ROM_dev_PG2.0/F28004x_ROM/driverl
    2447 00000004 0210          MOVB      ACC,#16               ; [CPU_] |1213| 
    2448 00000005 0742          ADDL      ACC,*-SP[2]           ; [CPU_] |1213| 
    2449 00000006 8AA9          MOVL      XAR4,ACC              ; [CPU_] |1213| 
    2450 00000007 06C4          MOVL      ACC,*+XAR4[0]         ; [CPU_] |1213| 
    2451 00000008 1E46          MOVL      *-SP[6],ACC           ; [CPU_] |1213| 
    2452                      .dwpsn  file "C:/Users/a0221343/Git/bootROM/f28004x_bootrom/F28004x_ROM_dev_PG2.0/F28004x_ROM/driverl
    2453 00000009 6F0F          B         $C$L37,UNC            ; [CPU_] |1214| 
    2454                      ; branch occurs ; [] |1214| 
    2455 0000000a       $C$L34:    
    2456                      .dwpsn  file "C:/Users/a0221343/Git/bootROM/f28004x_bootrom/F28004x_ROM_dev_PG2.0/F28004x_ROM/driverl
    2457 0000000a 02B0          MOVB      ACC,#176              ; [CPU_] |1226| 
    2458 0000000b 0742          ADDL      ACC,*-SP[2]           ; [CPU_] |1226| 
    2459 0000000c 8AA9          MOVL      XAR4,ACC              ; [CPU_] |1226| 
    2460 0000000d 06C4          MOVL      ACC,*+XAR4[0]         ; [CPU_] |1226| 
    2461 0000000e 1E46          MOVL      *-SP[6],ACC           ; [CPU_] |1226| 
    2462                      .dwpsn  file "C:/Users/a0221343/Git/bootROM/f28004x_bootrom/F28004x_ROM_dev_PG2.0/F28004x_ROM/driverl
    2463 0000000f 6F09          B         $C$L37,UNC            ; [CPU_] |1227| 
    2464                      ; branch occurs ; [] |1227| 
    2465 00000010       $C$L35:    
    2466                      .dwpsn  file "C:/Users/a0221343/Git/bootROM/f28004x_bootrom/F28004x_ROM_dev_PG2.0/F28004x_ROM/driverl
    2467 00000010 0200          MOVB      ACC,#0                ; [CPU_] |1235| 
    2468 00000011 1E46          MOVL      *-SP[6],ACC           ; [CPU_] |1235| 
    2469                      .dwpsn  file "C:/Users/a0221343/Git/bootROM/f28004x_bootrom/F28004x_ROM_dev_PG2.0/F28004x_ROM/driverl
    2470 00000012 6F06          B         $C$L37,UNC            ; [CPU_] |1236| 
    2471                      ; branch occurs ; [] |1236| 
    2472 00000013       $C$L36:    
    2473                      .dwpsn  file "C:/Users/a0221343/Git/bootROM/f28004x_bootrom/F28004x_ROM_dev_PG2.0/F28004x_ROM/driverl
    2474 00000013 9243          MOV       AL,*-SP[3]            ; [CPU_] |1205| 
    2475 00000014 ECF0          BF        $C$L33,EQ             ; [CPU_] |1205| 
    2476                      ; branchcc occurs ; [] |1205| 
    2477 00000015 5201          CMPB      AL,#1                 ; [CPU_] |1205| 
    2478 00000016 ECF4          BF        $C$L34,EQ             ; [CPU_] |1205| 
    2479                      ; branchcc occurs ; [] |1205| 
    2480 00000017 6FF9          B         $C$L35,UNC            ; [CPU_] |1205| 
    2481                      ; branch occurs ; [] |1205| 
    2482 00000018       $C$L37:    
    2483                      .dwpsn  file "C:/Users/a0221343/Git/bootROM/f28004x_bootrom/F28004x_ROM_dev_PG2.0/F28004x_ROM/driverl
    2484                      .dwpsn  file "C:/Users/a0221343/Git/bootROM/f28004x_bootrom/F28004x_ROM_dev_PG2.0/F28004x_ROM/driverl
    2485 00000018 FE86          SUBB      SP,#6                 ; [CPU_U] 
    2486                      .dwcfi  cfa_offset, -2
    2487              $C$DW$169       .dwtag  DW_TAG_TI_branch
    2488                      .dwattr $C$DW$169, DW_AT_low_pc(0x00)
    2489                      .dwattr $C$DW$169, DW_AT_TI_return
    2490 00000019 0006          LRETR     ; [CPU_] 
    2491                      ; return occurs ; [] 
    2492                      .dwattr $C$DW$163, DW_AT_TI_end_file("C:/Users/a0221343/Git/bootROM/f28004x_bootrom/F28004x_ROM_dev_P
    2493                      .dwattr $C$DW$163, DW_AT_TI_end_line(0x4db)
    2494                      .dwattr $C$DW$163, DW_AT_TI_end_column(0x01)
    2495                      .dwendentry
    2496                      .dwendtag $C$DW$163
    2497              
    2498 00000000               .sect   ".text:_CAN_clearInterruptStatus"
TMS320C2000 Assembler PC v6.4.4 Tue Feb 14 14:42:55 2017

Tools Copyright (c) 1996-2015 Texas Instruments Incorporated
C:\Users\a0221343\AppData\Local\Temp\0706410                         PAGE   48

    2499                      .clink
    2500                      .global _CAN_clearInterruptStatus
    2501              
    2502              $C$DW$170       .dwtag  DW_TAG_subprogram, DW_AT_name("CAN_clearInterruptStatus")
    2503                      .dwattr $C$DW$170, DW_AT_low_pc(_CAN_clearInterruptStatus)
    2504                      .dwattr $C$DW$170, DW_AT_high_pc(0x00)
    2505                      .dwattr $C$DW$170, DW_AT_TI_symbol_name("_CAN_clearInterruptStatus")
    2506                      .dwattr $C$DW$170, DW_AT_external
    2507                      .dwattr $C$DW$170, DW_AT_TI_begin_file("C:/Users/a0221343/Git/bootROM/f28004x_bootrom/F28004x_ROM_dev
    2508                      .dwattr $C$DW$170, DW_AT_TI_begin_line(0x4fe)
    2509                      .dwattr $C$DW$170, DW_AT_TI_begin_column(0x01)
    2510                      .dwattr $C$DW$170, DW_AT_TI_max_frame_size(-4)
    2511                      .dwpsn  file "C:/Users/a0221343/Git/bootROM/f28004x_bootrom/F28004x_ROM_dev_PG2.0/F28004x_ROM/driverl
    2512              
    2513                      .dwfde $C$DW$CIE, _CAN_clearInterruptStatus
    2514              $C$DW$171       .dwtag  DW_TAG_formal_parameter, DW_AT_name("base")
    2515                      .dwattr $C$DW$171, DW_AT_TI_symbol_name("_base")
    2516                      .dwattr $C$DW$171, DW_AT_type(*$C$DW$T$19)
    2517                      .dwattr $C$DW$171, DW_AT_location[DW_OP_reg0]
    2518              $C$DW$172       .dwtag  DW_TAG_formal_parameter, DW_AT_name("intClr")
    2519                      .dwattr $C$DW$172, DW_AT_TI_symbol_name("_intClr")
    2520                      .dwattr $C$DW$172, DW_AT_type(*$C$DW$T$19)
    2521                      .dwattr $C$DW$172, DW_AT_location[DW_OP_breg20 -6]
    2522              
    2523              ;***************************************************************
    2524              ;* FNAME: _CAN_clearInterruptStatus     FR SIZE:   2           *
    2525              ;*                                                             *
    2526              ;* FUNCTION ENVIRONMENT                                        *
    2527              ;*                                                             *
    2528              ;* FUNCTION PROPERTIES                                         *
    2529              ;*                            0 Parameter,  2 Auto,  0 SOE     *
    2530              ;***************************************************************
    2531              
    2532 00000000       _CAN_clearInterruptStatus:
    2533                      .dwcfi  cfa_offset, -2
    2534                      .dwcfi  save_reg_to_mem, 26, 0
    2535 00000000 FE02          ADDB      SP,#2                 ; [CPU_U] 
    2536                      .dwcfi  cfa_offset, -4
    2537              $C$DW$173       .dwtag  DW_TAG_variable, DW_AT_name("base")
    2538                      .dwattr $C$DW$173, DW_AT_TI_symbol_name("_base")
    2539                      .dwattr $C$DW$173, DW_AT_type(*$C$DW$T$19)
    2540                      .dwattr $C$DW$173, DW_AT_location[DW_OP_breg20 -2]
    2541 00000001 1E42          MOVL      *-SP[2],ACC           ; [CPU_] |1279| 
    2542                      .dwpsn  file "C:/Users/a0221343/Git/bootROM/f28004x_bootrom/F28004x_ROM_dev_PG2.0/F28004x_ROM/driverl
    2543 00000002 8F00          MOVL      XAR4,#32768           ; [CPU_U] |1287| 
         00000003 8000 
    2544 00000004 A8A9          MOVL      ACC,XAR4              ; [CPU_] |1287| 
    2545 00000005 0F46          CMPL      ACC,*-SP[6]           ; [CPU_] |1287| 
    2546 00000006 ED04          BF        $C$L38,NEQ            ; [CPU_] |1287| 
    2547                      ; branchcc occurs ; [] |1287| 
    2548                      .dwpsn  file "C:/Users/a0221343/Git/bootROM/f28004x_bootrom/F28004x_ROM_dev_PG2.0/F28004x_ROM/driverl
    2549 00000007 8A42          MOVL      XAR4,*-SP[2]          ; [CPU_] |1292| 
    2550 00000008 06E4          MOVL      ACC,*+XAR4[4]         ; [CPU_] |1292| 
    2551                      .dwpsn  file "C:/Users/a0221343/Git/bootROM/f28004x_bootrom/F28004x_ROM_dev_PG2.0/F28004x_ROM/driverl
    2552 00000009 6F2A          B         $C$L40,UNC            ; [CPU_] |1293| 
TMS320C2000 Assembler PC v6.4.4 Tue Feb 14 14:42:55 2017

Tools Copyright (c) 1996-2015 Texas Instruments Incorporated
C:\Users\a0221343\AppData\Local\Temp\0706410                         PAGE   49

    2553                      ; branch occurs ; [] |1293| 
    2554 0000000a       $C$L38:    
    2555                      .dwpsn  file "C:/Users/a0221343/Git/bootROM/f28004x_bootrom/F28004x_ROM_dev_PG2.0/F28004x_ROM/driverl
    2556 0000000a 8F00          MOVL      XAR4,#256             ; [CPU_U] |1299| 
         0000000b 0100 
    2557 0000000c A8A9          MOVL      ACC,XAR4              ; [CPU_] |1299| 
    2558 0000000d 0742          ADDL      ACC,*-SP[2]           ; [CPU_] |1299| 
    2559 0000000e 8AA9          MOVL      XAR4,ACC              ; [CPU_] |1299| 
    2560 0000000f 06C4          MOVL      ACC,*+XAR4[0]         ; [CPU_] |1299| 
    2561 00000010 9B00          MOVB      AH,#0                 ; [CPU_] |1299| 
    2562 00000011 18A9          AND       AL,#0x8000            ; [CPU_] |1299| 
         00000012 8000 
    2563 00000013 8F00          MOVL      XAR4,#32768           ; [CPU_U] |1299| 
         00000014 8000 
    2564 00000015 0FA4          CMPL      ACC,XAR4              ; [CPU_] |1299| 
    2565 00000016 ECF4          BF        $C$L38,EQ             ; [CPU_] |1299| 
    2566                      ; branchcc occurs ; [] |1299| 
    2567                      .dwpsn  file "C:/Users/a0221343/Git/bootROM/f28004x_bootrom/F28004x_ROM_dev_PG2.0/F28004x_ROM/driverl
    2568 00000017 8F00          MOVL      XAR4,#258             ; [CPU_U] |1308| 
         00000018 0102 
    2569 00000019 A8A9          MOVL      ACC,XAR4              ; [CPU_] |1308| 
    2570 0000001a 0742          ADDL      ACC,*-SP[2]           ; [CPU_] |1308| 
    2571 0000001b 8AA9          MOVL      XAR4,ACC              ; [CPU_] |1308| 
    2572 0000001c 56BF          MOVB      *+XAR4[0],#8,UNC      ; [CPU_] |1308| 
         0000001d 08C4 
    2573                      .dwpsn  file "C:/Users/a0221343/Git/bootROM/f28004x_bootrom/F28004x_ROM_dev_PG2.0/F28004x_ROM/driverl
    2574 0000001e 8F00          MOVL      XAR4,#256             ; [CPU_U] |1314| 
         0000001f 0100 
    2575 00000020 A8A9          MOVL      ACC,XAR4              ; [CPU_] |1314| 
    2576 00000021 0742          ADDL      ACC,*-SP[2]           ; [CPU_] |1314| 
    2577 00000022 8AA9          MOVL      XAR4,ACC              ; [CPU_] |1314| 
    2578 00000023 9246          MOV       AL,*-SP[6]            ; [CPU_] |1314| 
    2579 00000024 90FF          ANDB      AL,#0xff              ; [CPU_] |1314| 
    2580 00000025 96C4          MOV       *+XAR4[0],AL          ; [CPU_] |1314| 
    2581                      .dwpsn  file "C:/Users/a0221343/Git/bootROM/f28004x_bootrom/F28004x_ROM_dev_PG2.0/F28004x_ROM/driverl
    2582 00000026       $C$L39:    
    2583                      .dwpsn  file "C:/Users/a0221343/Git/bootROM/f28004x_bootrom/F28004x_ROM_dev_PG2.0/F28004x_ROM/driverl
    2584 00000026 8F00          MOVL      XAR4,#256             ; [CPU_U] |1319| 
         00000027 0100 
    2585 00000028 A8A9          MOVL      ACC,XAR4              ; [CPU_] |1319| 
    2586 00000029 0742          ADDL      ACC,*-SP[2]           ; [CPU_] |1319| 
    2587 0000002a 8AA9          MOVL      XAR4,ACC              ; [CPU_] |1319| 
    2588 0000002b 06C4          MOVL      ACC,*+XAR4[0]         ; [CPU_] |1319| 
    2589 0000002c 9B00          MOVB      AH,#0                 ; [CPU_] |1319| 
    2590 0000002d 18A9          AND       AL,#0x8000            ; [CPU_] |1319| 
         0000002e 8000 
    2591 0000002f 8F00          MOVL      XAR4,#32768           ; [CPU_U] |1319| 
         00000030 8000 
    2592 00000031 0FA4          CMPL      ACC,XAR4              ; [CPU_] |1319| 
    2593 00000032 ECF4          BF        $C$L39,EQ             ; [CPU_] |1319| 
    2594                      ; branchcc occurs ; [] |1319| 
    2595                      .dwpsn  file "C:/Users/a0221343/Git/bootROM/f28004x_bootrom/F28004x_ROM_dev_PG2.0/F28004x_ROM/driverl
    2596 00000033       $C$L40:    
    2597 00000033 FE82          SUBB      SP,#2                 ; [CPU_U] 
    2598                      .dwcfi  cfa_offset, -2
TMS320C2000 Assembler PC v6.4.4 Tue Feb 14 14:42:55 2017

Tools Copyright (c) 1996-2015 Texas Instruments Incorporated
C:\Users\a0221343\AppData\Local\Temp\0706410                         PAGE   50

    2599              $C$DW$174       .dwtag  DW_TAG_TI_branch
    2600                      .dwattr $C$DW$174, DW_AT_low_pc(0x00)
    2601                      .dwattr $C$DW$174, DW_AT_TI_return
    2602 00000034 0006          LRETR     ; [CPU_] 
    2603                      ; return occurs ; [] 
    2604                      .dwattr $C$DW$170, DW_AT_TI_end_file("C:/Users/a0221343/Git/bootROM/f28004x_bootrom/F28004x_ROM_dev_P
    2605                      .dwattr $C$DW$170, DW_AT_TI_end_line(0x52c)
    2606                      .dwattr $C$DW$170, DW_AT_TI_end_column(0x01)
    2607                      .dwendentry
    2608                      .dwendtag $C$DW$170
    2609              
    2610 00000000               .sect   ".text:_CAN_getInterruptMux"
    2611                      .clink
    2612                      .global _CAN_getInterruptMux
    2613              
    2614              $C$DW$175       .dwtag  DW_TAG_subprogram, DW_AT_name("CAN_getInterruptMux")
    2615                      .dwattr $C$DW$175, DW_AT_low_pc(_CAN_getInterruptMux)
    2616                      .dwattr $C$DW$175, DW_AT_high_pc(0x00)
    2617                      .dwattr $C$DW$175, DW_AT_TI_symbol_name("_CAN_getInterruptMux")
    2618                      .dwattr $C$DW$175, DW_AT_external
    2619                      .dwattr $C$DW$175, DW_AT_type(*$C$DW$T$19)
    2620                      .dwattr $C$DW$175, DW_AT_TI_begin_file("C:/Users/a0221343/Git/bootROM/f28004x_bootrom/F28004x_ROM_dev
    2621                      .dwattr $C$DW$175, DW_AT_TI_begin_line(0x53e)
    2622                      .dwattr $C$DW$175, DW_AT_TI_begin_column(0x01)
    2623                      .dwattr $C$DW$175, DW_AT_TI_max_frame_size(-4)
    2624                      .dwpsn  file "C:/Users/a0221343/Git/bootROM/f28004x_bootrom/F28004x_ROM_dev_PG2.0/F28004x_ROM/driverl
    2625              
    2626                      .dwfde $C$DW$CIE, _CAN_getInterruptMux
    2627              $C$DW$176       .dwtag  DW_TAG_formal_parameter, DW_AT_name("base")
    2628                      .dwattr $C$DW$176, DW_AT_TI_symbol_name("_base")
    2629                      .dwattr $C$DW$176, DW_AT_type(*$C$DW$T$19)
    2630                      .dwattr $C$DW$176, DW_AT_location[DW_OP_reg0]
    2631              
    2632              ;***************************************************************
    2633              ;* FNAME: _CAN_getInterruptMux          FR SIZE:   2           *
    2634              ;*                                                             *
    2635              ;* FUNCTION ENVIRONMENT                                        *
    2636              ;*                                                             *
    2637              ;* FUNCTION PROPERTIES                                         *
    2638              ;*                            0 Parameter,  2 Auto,  0 SOE     *
    2639              ;***************************************************************
    2640              
    2641 00000000       _CAN_getInterruptMux:
    2642                      .dwcfi  cfa_offset, -2
    2643                      .dwcfi  save_reg_to_mem, 26, 0
    2644 00000000 FE02          ADDB      SP,#2                 ; [CPU_U] 
    2645                      .dwcfi  cfa_offset, -4
    2646              $C$DW$177       .dwtag  DW_TAG_variable, DW_AT_name("base")
    2647                      .dwattr $C$DW$177, DW_AT_TI_symbol_name("_base")
    2648                      .dwattr $C$DW$177, DW_AT_type(*$C$DW$T$19)
    2649                      .dwattr $C$DW$177, DW_AT_location[DW_OP_breg20 -2]
    2650 00000001 1E42          MOVL      *-SP[2],ACC           ; [CPU_] |1343| 
    2651                      .dwpsn  file "C:/Users/a0221343/Git/bootROM/f28004x_bootrom/F28004x_ROM_dev_PG2.0/F28004x_ROM/driverl
    2652 00000002 02D8          MOVB      ACC,#216              ; [CPU_] |1352| 
    2653 00000003 0742          ADDL      ACC,*-SP[2]           ; [CPU_] |1352| 
TMS320C2000 Assembler PC v6.4.4 Tue Feb 14 14:42:55 2017

Tools Copyright (c) 1996-2015 Texas Instruments Incorporated
C:\Users\a0221343\AppData\Local\Temp\0706410                         PAGE   51

    2654 00000004 8AA9          MOVL      XAR4,ACC              ; [CPU_] |1352| 
    2655 00000005 06C4          MOVL      ACC,*+XAR4[0]         ; [CPU_] |1352| 
    2656                      .dwpsn  file "C:/Users/a0221343/Git/bootROM/f28004x_bootrom/F28004x_ROM_dev_PG2.0/F28004x_ROM/driverl
    2657 00000006 FE82          SUBB      SP,#2                 ; [CPU_U] 
    2658                      .dwcfi  cfa_offset, -2
    2659              $C$DW$178       .dwtag  DW_TAG_TI_branch
    2660                      .dwattr $C$DW$178, DW_AT_low_pc(0x00)
    2661                      .dwattr $C$DW$178, DW_AT_TI_return
    2662 00000007 0006          LRETR     ; [CPU_] 
    2663                      ; return occurs ; [] 
    2664                      .dwattr $C$DW$175, DW_AT_TI_end_file("C:/Users/a0221343/Git/bootROM/f28004x_bootrom/F28004x_ROM_dev_P
    2665                      .dwattr $C$DW$175, DW_AT_TI_end_line(0x549)
    2666                      .dwattr $C$DW$175, DW_AT_TI_end_column(0x01)
    2667                      .dwendentry
    2668                      .dwendtag $C$DW$175
    2669              
    2670 00000000               .sect   ".text:_CAN_setInterruptMux"
    2671                      .clink
    2672                      .global _CAN_setInterruptMux
    2673              
    2674              $C$DW$179       .dwtag  DW_TAG_subprogram, DW_AT_name("CAN_setInterruptMux")
    2675                      .dwattr $C$DW$179, DW_AT_low_pc(_CAN_setInterruptMux)
    2676                      .dwattr $C$DW$179, DW_AT_high_pc(0x00)
    2677                      .dwattr $C$DW$179, DW_AT_TI_symbol_name("_CAN_setInterruptMux")
    2678                      .dwattr $C$DW$179, DW_AT_external
    2679                      .dwattr $C$DW$179, DW_AT_TI_begin_file("C:/Users/a0221343/Git/bootROM/f28004x_bootrom/F28004x_ROM_dev
    2680                      .dwattr $C$DW$179, DW_AT_TI_begin_line(0x55d)
    2681                      .dwattr $C$DW$179, DW_AT_TI_begin_column(0x01)
    2682                      .dwattr $C$DW$179, DW_AT_TI_max_frame_size(-4)
    2683                      .dwpsn  file "C:/Users/a0221343/Git/bootROM/f28004x_bootrom/F28004x_ROM_dev_PG2.0/F28004x_ROM/driverl
    2684              
    2685                      .dwfde $C$DW$CIE, _CAN_setInterruptMux
    2686              $C$DW$180       .dwtag  DW_TAG_formal_parameter, DW_AT_name("base")
    2687                      .dwattr $C$DW$180, DW_AT_TI_symbol_name("_base")
    2688                      .dwattr $C$DW$180, DW_AT_type(*$C$DW$T$19)
    2689                      .dwattr $C$DW$180, DW_AT_location[DW_OP_reg0]
    2690              $C$DW$181       .dwtag  DW_TAG_formal_parameter, DW_AT_name("mux")
    2691                      .dwattr $C$DW$181, DW_AT_TI_symbol_name("_mux")
    2692                      .dwattr $C$DW$181, DW_AT_type(*$C$DW$T$19)
    2693                      .dwattr $C$DW$181, DW_AT_location[DW_OP_breg20 -6]
    2694              
    2695              ;***************************************************************
    2696              ;* FNAME: _CAN_setInterruptMux          FR SIZE:   2           *
    2697              ;*                                                             *
    2698              ;* FUNCTION ENVIRONMENT                                        *
    2699              ;*                                                             *
    2700              ;* FUNCTION PROPERTIES                                         *
    2701              ;*                            0 Parameter,  2 Auto,  0 SOE     *
    2702              ;***************************************************************
    2703              
    2704 00000000       _CAN_setInterruptMux:
    2705                      .dwcfi  cfa_offset, -2
    2706                      .dwcfi  save_reg_to_mem, 26, 0
    2707 00000000 FE02          ADDB      SP,#2                 ; [CPU_U] 
    2708                      .dwcfi  cfa_offset, -4
TMS320C2000 Assembler PC v6.4.4 Tue Feb 14 14:42:55 2017

Tools Copyright (c) 1996-2015 Texas Instruments Incorporated
C:\Users\a0221343\AppData\Local\Temp\0706410                         PAGE   52

    2709              $C$DW$182       .dwtag  DW_TAG_variable, DW_AT_name("base")
    2710                      .dwattr $C$DW$182, DW_AT_TI_symbol_name("_base")
    2711                      .dwattr $C$DW$182, DW_AT_type(*$C$DW$T$19)
    2712                      .dwattr $C$DW$182, DW_AT_location[DW_OP_breg20 -2]
    2713 00000001 1E42          MOVL      *-SP[2],ACC           ; [CPU_] |1374| 
    2714                      .dwpsn  file "C:/Users/a0221343/Git/bootROM/f28004x_bootrom/F28004x_ROM_dev_PG2.0/F28004x_ROM/driverl
    2715 00000002 C446          MOVL      XAR6,*-SP[6]          ; [CPU_] |1383| 
    2716 00000003 02D8          MOVB      ACC,#216              ; [CPU_] |1383| 
    2717 00000004 0742          ADDL      ACC,*-SP[2]           ; [CPU_] |1383| 
    2718 00000005 8AA9          MOVL      XAR4,ACC              ; [CPU_] |1383| 
    2719 00000006 C2C4          MOVL      *+XAR4[0],XAR6        ; [CPU_] |1383| 
    2720                      .dwpsn  file "C:/Users/a0221343/Git/bootROM/f28004x_bootrom/F28004x_ROM_dev_PG2.0/F28004x_ROM/driverl
    2721 00000007 FE82          SUBB      SP,#2                 ; [CPU_U] 
    2722                      .dwcfi  cfa_offset, -2
    2723              $C$DW$183       .dwtag  DW_TAG_TI_branch
    2724                      .dwattr $C$DW$183, DW_AT_low_pc(0x00)
    2725                      .dwattr $C$DW$183, DW_AT_TI_return
    2726 00000008 0006          LRETR     ; [CPU_] 
    2727                      ; return occurs ; [] 
    2728                      .dwattr $C$DW$179, DW_AT_TI_end_file("C:/Users/a0221343/Git/bootROM/f28004x_bootrom/F28004x_ROM_dev_P
    2729                      .dwattr $C$DW$179, DW_AT_TI_end_line(0x568)
    2730                      .dwattr $C$DW$179, DW_AT_TI_end_column(0x01)
    2731                      .dwendentry
    2732                      .dwendtag $C$DW$179
    2733              
    2734 00000000               .sect   ".text:_CAN_setRetry"
    2735                      .clink
    2736                      .global _CAN_setRetry
    2737              
    2738              $C$DW$184       .dwtag  DW_TAG_subprogram, DW_AT_name("CAN_setRetry")
    2739                      .dwattr $C$DW$184, DW_AT_low_pc(_CAN_setRetry)
    2740                      .dwattr $C$DW$184, DW_AT_high_pc(0x00)
    2741                      .dwattr $C$DW$184, DW_AT_TI_symbol_name("_CAN_setRetry")
    2742                      .dwattr $C$DW$184, DW_AT_external
    2743                      .dwattr $C$DW$184, DW_AT_TI_begin_file("C:/Users/a0221343/Git/bootROM/f28004x_bootrom/F28004x_ROM_dev
    2744                      .dwattr $C$DW$184, DW_AT_TI_begin_line(0x578)
    2745                      .dwattr $C$DW$184, DW_AT_TI_begin_column(0x01)
    2746                      .dwattr $C$DW$184, DW_AT_TI_max_frame_size(-8)
    2747                      .dwpsn  file "C:/Users/a0221343/Git/bootROM/f28004x_bootrom/F28004x_ROM_dev_PG2.0/F28004x_ROM/driverl
    2748              
    2749                      .dwfde $C$DW$CIE, _CAN_setRetry
    2750              $C$DW$185       .dwtag  DW_TAG_formal_parameter, DW_AT_name("base")
    2751                      .dwattr $C$DW$185, DW_AT_TI_symbol_name("_base")
    2752                      .dwattr $C$DW$185, DW_AT_type(*$C$DW$T$19)
    2753                      .dwattr $C$DW$185, DW_AT_location[DW_OP_reg0]
    2754              $C$DW$186       .dwtag  DW_TAG_formal_parameter, DW_AT_name("autoRetry")
    2755                      .dwattr $C$DW$186, DW_AT_TI_symbol_name("_autoRetry")
    2756                      .dwattr $C$DW$186, DW_AT_type(*$C$DW$T$44)
    2757                      .dwattr $C$DW$186, DW_AT_location[DW_OP_reg12]
    2758              
    2759              ;***************************************************************
    2760              ;* FNAME: _CAN_setRetry                 FR SIZE:   6           *
    2761              ;*                                                             *
    2762              ;* FUNCTION ENVIRONMENT                                        *
    2763              ;*                                                             *
TMS320C2000 Assembler PC v6.4.4 Tue Feb 14 14:42:55 2017

Tools Copyright (c) 1996-2015 Texas Instruments Incorporated
C:\Users\a0221343\AppData\Local\Temp\0706410                         PAGE   53

    2764              ;* FUNCTION PROPERTIES                                         *
    2765              ;*                            0 Parameter,  6 Auto,  0 SOE     *
    2766              ;***************************************************************
    2767              
    2768 00000000       _CAN_setRetry:
    2769                      .dwcfi  cfa_offset, -2
    2770                      .dwcfi  save_reg_to_mem, 26, 0
    2771 00000000 FE06          ADDB      SP,#6                 ; [CPU_U] 
    2772                      .dwcfi  cfa_offset, -8
    2773              $C$DW$187       .dwtag  DW_TAG_variable, DW_AT_name("base")
    2774                      .dwattr $C$DW$187, DW_AT_TI_symbol_name("_base")
    2775                      .dwattr $C$DW$187, DW_AT_type(*$C$DW$T$19)
    2776                      .dwattr $C$DW$187, DW_AT_location[DW_OP_breg20 -2]
    2777              $C$DW$188       .dwtag  DW_TAG_variable, DW_AT_name("autoRetry")
    2778                      .dwattr $C$DW$188, DW_AT_TI_symbol_name("_autoRetry")
    2779                      .dwattr $C$DW$188, DW_AT_type(*$C$DW$T$44)
    2780                      .dwattr $C$DW$188, DW_AT_location[DW_OP_breg20 -3]
    2781              $C$DW$189       .dwtag  DW_TAG_variable, DW_AT_name("ctlReg")
    2782                      .dwattr $C$DW$189, DW_AT_TI_symbol_name("_ctlReg")
    2783                      .dwattr $C$DW$189, DW_AT_type(*$C$DW$T$19)
    2784                      .dwattr $C$DW$189, DW_AT_location[DW_OP_breg20 -6]
    2785 00000001 7C43          MOV       *-SP[3],AR4           ; [CPU_] |1401| 
    2786 00000002 1E42          MOVL      *-SP[2],ACC           ; [CPU_] |1401| 
    2787                      .dwpsn  file "C:/Users/a0221343/Git/bootROM/f28004x_bootrom/F28004x_ROM_dev_PG2.0/F28004x_ROM/driverl
    2788 00000003 8A42          MOVL      XAR4,*-SP[2]          ; [CPU_] |1409| 
    2789 00000004 06C4          MOVL      ACC,*+XAR4[0]         ; [CPU_] |1409| 
    2790 00000005 1E46          MOVL      *-SP[6],ACC           ; [CPU_] |1409| 
    2791                      .dwpsn  file "C:/Users/a0221343/Git/bootROM/f28004x_bootrom/F28004x_ROM_dev_PG2.0/F28004x_ROM/driverl
    2792 00000006 9243          MOV       AL,*-SP[3]            ; [CPU_] |1414| 
    2793 00000007 EC09          BF        $C$L41,EQ             ; [CPU_] |1414| 
    2794                      ; branchcc occurs ; [] |1414| 
    2795                      .dwpsn  file "C:/Users/a0221343/Git/bootROM/f28004x_bootrom/F28004x_ROM_dev_PG2.0/F28004x_ROM/driverl
    2796 00000008 8F00          MOVL      XAR4,#65503           ; [CPU_U] |1421| 
         00000009 FFDF 
    2797 0000000a A8AB          MOVL      P,XAR4                ; [CPU_] |1421| 
    2798 0000000b 93AB          MOV       AH,PL                 ; [CPU_] |1421| 
    2799 0000000c 92AA          MOV       AL,PH                 ; [CPU_] |1421| 
    2800 0000000d C146          AND       *-SP[6],AH            ; [CPU_] |1421| 
    2801 0000000e C045          AND       *-SP[5],AL            ; [CPU_] |1421| 
    2802                      .dwpsn  file "C:/Users/a0221343/Git/bootROM/f28004x_bootrom/F28004x_ROM_dev_PG2.0/F28004x_ROM/driverl
    2803 0000000f 6F03          B         $C$L42,UNC            ; [CPU_] |1422| 
    2804                      ; branch occurs ; [] |1422| 
    2805 00000010       $C$L41:    
    2806                      .dwpsn  file "C:/Users/a0221343/Git/bootROM/f28004x_bootrom/F28004x_ROM_dev_PG2.0/F28004x_ROM/driverl
    2807 00000010 1A46          OR        *-SP[6],#32           ; [CPU_] |1429| 
         00000011 0020 
    2808 00000012       $C$L42:    
    2809                      .dwpsn  file "C:/Users/a0221343/Git/bootROM/f28004x_bootrom/F28004x_ROM_dev_PG2.0/F28004x_ROM/driverl
    2810 00000012 8A42          MOVL      XAR4,*-SP[2]          ; [CPU_] |1432| 
    2811 00000013 0646          MOVL      ACC,*-SP[6]           ; [CPU_] |1432| 
    2812 00000014 1EC4          MOVL      *+XAR4[0],ACC         ; [CPU_] |1432| 
    2813                      .dwpsn  file "C:/Users/a0221343/Git/bootROM/f28004x_bootrom/F28004x_ROM_dev_PG2.0/F28004x_ROM/driverl
    2814 00000015 FE86          SUBB      SP,#6                 ; [CPU_U] 
    2815                      .dwcfi  cfa_offset, -2
    2816              $C$DW$190       .dwtag  DW_TAG_TI_branch
TMS320C2000 Assembler PC v6.4.4 Tue Feb 14 14:42:55 2017

Tools Copyright (c) 1996-2015 Texas Instruments Incorporated
C:\Users\a0221343\AppData\Local\Temp\0706410                         PAGE   54

    2817                      .dwattr $C$DW$190, DW_AT_low_pc(0x00)
    2818                      .dwattr $C$DW$190, DW_AT_TI_return
    2819 00000016 0006          LRETR     ; [CPU_] 
    2820                      ; return occurs ; [] 
    2821                      .dwattr $C$DW$184, DW_AT_TI_end_file("C:/Users/a0221343/Git/bootROM/f28004x_bootrom/F28004x_ROM_dev_P
    2822                      .dwattr $C$DW$184, DW_AT_TI_end_line(0x599)
    2823                      .dwattr $C$DW$184, DW_AT_TI_end_column(0x01)
    2824                      .dwendentry
    2825                      .dwendtag $C$DW$184
    2826              
    2827 00000000               .sect   ".text:_CAN_getRetry"
    2828                      .clink
    2829                      .global _CAN_getRetry
    2830              
    2831              $C$DW$191       .dwtag  DW_TAG_subprogram, DW_AT_name("CAN_getRetry")
    2832                      .dwattr $C$DW$191, DW_AT_low_pc(_CAN_getRetry)
    2833                      .dwattr $C$DW$191, DW_AT_high_pc(0x00)
    2834                      .dwattr $C$DW$191, DW_AT_TI_symbol_name("_CAN_getRetry")
    2835                      .dwattr $C$DW$191, DW_AT_external
    2836                      .dwattr $C$DW$191, DW_AT_type(*$C$DW$T$44)
    2837                      .dwattr $C$DW$191, DW_AT_TI_begin_file("C:/Users/a0221343/Git/bootROM/f28004x_bootrom/F28004x_ROM_dev
    2838                      .dwattr $C$DW$191, DW_AT_TI_begin_line(0x5a8)
    2839                      .dwattr $C$DW$191, DW_AT_TI_begin_column(0x01)
    2840                      .dwattr $C$DW$191, DW_AT_TI_max_frame_size(-6)
    2841                      .dwpsn  file "C:/Users/a0221343/Git/bootROM/f28004x_bootrom/F28004x_ROM_dev_PG2.0/F28004x_ROM/driverl
    2842              
    2843                      .dwfde $C$DW$CIE, _CAN_getRetry
    2844              $C$DW$192       .dwtag  DW_TAG_formal_parameter, DW_AT_name("base")
    2845                      .dwattr $C$DW$192, DW_AT_TI_symbol_name("_base")
    2846                      .dwattr $C$DW$192, DW_AT_type(*$C$DW$T$19)
    2847                      .dwattr $C$DW$192, DW_AT_location[DW_OP_reg0]
    2848              
    2849              ;***************************************************************
    2850              ;* FNAME: _CAN_getRetry                 FR SIZE:   4           *
    2851              ;*                                                             *
    2852              ;* FUNCTION ENVIRONMENT                                        *
    2853              ;*                                                             *
    2854              ;* FUNCTION PROPERTIES                                         *
    2855              ;*                            0 Parameter,  3 Auto,  0 SOE     *
    2856              ;***************************************************************
    2857              
    2858 00000000       _CAN_getRetry:
    2859                      .dwcfi  cfa_offset, -2
    2860                      .dwcfi  save_reg_to_mem, 26, 0
    2861 00000000 FE04          ADDB      SP,#4                 ; [CPU_U] 
    2862                      .dwcfi  cfa_offset, -6
    2863              $C$DW$193       .dwtag  DW_TAG_variable, DW_AT_name("base")
    2864                      .dwattr $C$DW$193, DW_AT_TI_symbol_name("_base")
    2865                      .dwattr $C$DW$193, DW_AT_type(*$C$DW$T$19)
    2866                      .dwattr $C$DW$193, DW_AT_location[DW_OP_breg20 -2]
    2867              $C$DW$194       .dwtag  DW_TAG_variable, DW_AT_name("status")
    2868                      .dwattr $C$DW$194, DW_AT_TI_symbol_name("_status")
    2869                      .dwattr $C$DW$194, DW_AT_type(*$C$DW$T$44)
    2870                      .dwattr $C$DW$194, DW_AT_location[DW_OP_breg20 -3]
    2871 00000001 1E42          MOVL      *-SP[2],ACC           ; [CPU_] |1449| 
TMS320C2000 Assembler PC v6.4.4 Tue Feb 14 14:42:55 2017

Tools Copyright (c) 1996-2015 Texas Instruments Incorporated
C:\Users\a0221343\AppData\Local\Temp\0706410                         PAGE   55

    2872                      .dwpsn  file "C:/Users/a0221343/Git/bootROM/f28004x_bootrom/F28004x_ROM_dev_PG2.0/F28004x_ROM/driverl
    2873 00000002 56BF          MOVB      *-SP[3],#1,UNC        ; [CPU_] |1450| 
         00000003 0143 
    2874                      .dwpsn  file "C:/Users/a0221343/Git/bootROM/f28004x_bootrom/F28004x_ROM_dev_PG2.0/F28004x_ROM/driverl
    2875 00000004 8A42          MOVL      XAR4,*-SP[2]          ; [CPU_] |1459| 
    2876 00000005 BE20          MOVB      XAR6,#32              ; [CPU_] |1459| 
    2877 00000006 06C4          MOVL      ACC,*+XAR4[0]         ; [CPU_] |1459| 
    2878 00000007 9B00          MOVB      AH,#0                 ; [CPU_] |1459| 
    2879 00000008 9020          ANDB      AL,#0x20              ; [CPU_] |1459| 
    2880 00000009 0FA6          CMPL      ACC,XAR6              ; [CPU_] |1459| 
    2881 0000000a ED02          BF        $C$L43,NEQ            ; [CPU_] |1459| 
    2882                      ; branchcc occurs ; [] |1459| 
    2883                      .dwpsn  file "C:/Users/a0221343/Git/bootROM/f28004x_bootrom/F28004x_ROM_dev_PG2.0/F28004x_ROM/driverl
    2884 0000000b 2B43          MOV       *-SP[3],#0            ; [CPU_] |1464| 
    2885 0000000c       $C$L43:    
    2886                      .dwpsn  file "C:/Users/a0221343/Git/bootROM/f28004x_bootrom/F28004x_ROM_dev_PG2.0/F28004x_ROM/driverl
    2887 0000000c 9243          MOV       AL,*-SP[3]            ; [CPU_] |1470| 
    2888                      .dwpsn  file "C:/Users/a0221343/Git/bootROM/f28004x_bootrom/F28004x_ROM_dev_PG2.0/F28004x_ROM/driverl
    2889 0000000d FE84          SUBB      SP,#4                 ; [CPU_U] 
    2890                      .dwcfi  cfa_offset, -2
    2891              $C$DW$195       .dwtag  DW_TAG_TI_branch
    2892                      .dwattr $C$DW$195, DW_AT_low_pc(0x00)
    2893                      .dwattr $C$DW$195, DW_AT_TI_return
    2894 0000000e 0006          LRETR     ; [CPU_] 
    2895                      ; return occurs ; [] 
    2896                      .dwattr $C$DW$191, DW_AT_TI_end_file("C:/Users/a0221343/Git/bootROM/f28004x_bootrom/F28004x_ROM_dev_P
    2897                      .dwattr $C$DW$191, DW_AT_TI_end_line(0x5bf)
    2898                      .dwattr $C$DW$191, DW_AT_TI_end_column(0x01)
    2899                      .dwendentry
    2900                      .dwendtag $C$DW$191
    2901              
    2902 00000000               .sect   ".text:_CAN_getStatus"
    2903                      .clink
    2904                      .global _CAN_getStatus
    2905              
    2906              $C$DW$196       .dwtag  DW_TAG_subprogram, DW_AT_name("CAN_getStatus")
    2907                      .dwattr $C$DW$196, DW_AT_low_pc(_CAN_getStatus)
    2908                      .dwattr $C$DW$196, DW_AT_high_pc(0x00)
    2909                      .dwattr $C$DW$196, DW_AT_TI_symbol_name("_CAN_getStatus")
    2910                      .dwattr $C$DW$196, DW_AT_external
    2911                      .dwattr $C$DW$196, DW_AT_type(*$C$DW$T$19)
    2912                      .dwattr $C$DW$196, DW_AT_TI_begin_file("C:/Users/a0221343/Git/bootROM/f28004x_bootrom/F28004x_ROM_dev
    2913                      .dwattr $C$DW$196, DW_AT_TI_begin_line(0x5fb)
    2914                      .dwattr $C$DW$196, DW_AT_TI_begin_column(0x01)
    2915                      .dwattr $C$DW$196, DW_AT_TI_max_frame_size(-8)
    2916                      .dwpsn  file "C:/Users/a0221343/Git/bootROM/f28004x_bootrom/F28004x_ROM_dev_PG2.0/F28004x_ROM/driverl
    2917              
    2918                      .dwfde $C$DW$CIE, _CAN_getStatus
    2919              $C$DW$197       .dwtag  DW_TAG_formal_parameter, DW_AT_name("base")
    2920                      .dwattr $C$DW$197, DW_AT_TI_symbol_name("_base")
    2921                      .dwattr $C$DW$197, DW_AT_type(*$C$DW$T$19)
    2922                      .dwattr $C$DW$197, DW_AT_location[DW_OP_reg0]
    2923              $C$DW$198       .dwtag  DW_TAG_formal_parameter, DW_AT_name("statusReg")
    2924                      .dwattr $C$DW$198, DW_AT_TI_symbol_name("_statusReg")
    2925                      .dwattr $C$DW$198, DW_AT_type(*$C$DW$T$27)
TMS320C2000 Assembler PC v6.4.4 Tue Feb 14 14:42:55 2017

Tools Copyright (c) 1996-2015 Texas Instruments Incorporated
C:\Users\a0221343\AppData\Local\Temp\0706410                         PAGE   56

    2926                      .dwattr $C$DW$198, DW_AT_location[DW_OP_reg12]
    2927              
    2928              ;***************************************************************
    2929              ;* FNAME: _CAN_getStatus                FR SIZE:   6           *
    2930              ;*                                                             *
    2931              ;* FUNCTION ENVIRONMENT                                        *
    2932              ;*                                                             *
    2933              ;* FUNCTION PROPERTIES                                         *
    2934              ;*                            0 Parameter,  6 Auto,  0 SOE     *
    2935              ;***************************************************************
    2936              
    2937 00000000       _CAN_getStatus:
    2938                      .dwcfi  cfa_offset, -2
    2939                      .dwcfi  save_reg_to_mem, 26, 0
    2940 00000000 FE06          ADDB      SP,#6                 ; [CPU_U] 
    2941                      .dwcfi  cfa_offset, -8
    2942              $C$DW$199       .dwtag  DW_TAG_variable, DW_AT_name("base")
    2943                      .dwattr $C$DW$199, DW_AT_TI_symbol_name("_base")
    2944                      .dwattr $C$DW$199, DW_AT_type(*$C$DW$T$19)
    2945                      .dwattr $C$DW$199, DW_AT_location[DW_OP_breg20 -2]
    2946              $C$DW$200       .dwtag  DW_TAG_variable, DW_AT_name("statusReg")
    2947                      .dwattr $C$DW$200, DW_AT_TI_symbol_name("_statusReg")
    2948                      .dwattr $C$DW$200, DW_AT_type(*$C$DW$T$27)
    2949                      .dwattr $C$DW$200, DW_AT_location[DW_OP_breg20 -3]
    2950              $C$DW$201       .dwtag  DW_TAG_variable, DW_AT_name("status")
    2951                      .dwattr $C$DW$201, DW_AT_TI_symbol_name("_status")
    2952                      .dwattr $C$DW$201, DW_AT_type(*$C$DW$T$19)
    2953                      .dwattr $C$DW$201, DW_AT_location[DW_OP_breg20 -6]
    2954 00000001 7C43          MOV       *-SP[3],AR4           ; [CPU_] |1532| 
    2955 00000002 1E42          MOVL      *-SP[2],ACC           ; [CPU_] |1532| 
    2956                      .dwpsn  file "C:/Users/a0221343/Git/bootROM/f28004x_bootrom/F28004x_ROM_dev_PG2.0/F28004x_ROM/driverl
    2957 00000003 6F1A          B         $C$L49,UNC            ; [CPU_] |1540| 
    2958                      ; branch occurs ; [] |1540| 
    2959 00000004       $C$L44:    
    2960                      .dwpsn  file "C:/Users/a0221343/Git/bootROM/f28004x_bootrom/F28004x_ROM_dev_PG2.0/F28004x_ROM/driverl
    2961 00000004 8A42          MOVL      XAR4,*-SP[2]          ; [CPU_] |1548| 
    2962 00000005 06E4          MOVL      ACC,*+XAR4[4]         ; [CPU_] |1548| 
    2963 00000006 1E46          MOVL      *-SP[6],ACC           ; [CPU_] |1548| 
    2964                      .dwpsn  file "C:/Users/a0221343/Git/bootROM/f28004x_bootrom/F28004x_ROM_dev_PG2.0/F28004x_ROM/driverl
    2965 00000007 6F1F          B         $C$L50,UNC            ; [CPU_] |1549| 
    2966                      ; branch occurs ; [] |1549| 
    2967 00000008       $C$L45:    
    2968                      .dwpsn  file "C:/Users/a0221343/Git/bootROM/f28004x_bootrom/F28004x_ROM_dev_PG2.0/F28004x_ROM/driverl
    2969 00000008 0288          MOVB      ACC,#136              ; [CPU_] |1557| 
    2970 00000009 0742          ADDL      ACC,*-SP[2]           ; [CPU_] |1557| 
    2971 0000000a 8AA9          MOVL      XAR4,ACC              ; [CPU_] |1557| 
    2972 0000000b 06C4          MOVL      ACC,*+XAR4[0]         ; [CPU_] |1557| 
    2973 0000000c 1E46          MOVL      *-SP[6],ACC           ; [CPU_] |1557| 
    2974                      .dwpsn  file "C:/Users/a0221343/Git/bootROM/f28004x_bootrom/F28004x_ROM_dev_PG2.0/F28004x_ROM/driverl
    2975 0000000d 6F19          B         $C$L50,UNC            ; [CPU_] |1558| 
    2976                      ; branch occurs ; [] |1558| 
    2977 0000000e       $C$L46:    
    2978                      .dwpsn  file "C:/Users/a0221343/Git/bootROM/f28004x_bootrom/F28004x_ROM_dev_PG2.0/F28004x_ROM/driverl
    2979 0000000e 029C          MOVB      ACC,#156              ; [CPU_] |1566| 
    2980 0000000f 0742          ADDL      ACC,*-SP[2]           ; [CPU_] |1566| 
TMS320C2000 Assembler PC v6.4.4 Tue Feb 14 14:42:55 2017

Tools Copyright (c) 1996-2015 Texas Instruments Incorporated
C:\Users\a0221343\AppData\Local\Temp\0706410                         PAGE   57

    2981 00000010 8AA9          MOVL      XAR4,ACC              ; [CPU_] |1566| 
    2982 00000011 06C4          MOVL      ACC,*+XAR4[0]         ; [CPU_] |1566| 
    2983 00000012 1E46          MOVL      *-SP[6],ACC           ; [CPU_] |1566| 
    2984                      .dwpsn  file "C:/Users/a0221343/Git/bootROM/f28004x_bootrom/F28004x_ROM_dev_PG2.0/F28004x_ROM/driverl
    2985 00000013 6F13          B         $C$L50,UNC            ; [CPU_] |1567| 
    2986                      ; branch occurs ; [] |1567| 
    2987 00000014       $C$L47:    
    2988                      .dwpsn  file "C:/Users/a0221343/Git/bootROM/f28004x_bootrom/F28004x_ROM_dev_PG2.0/F28004x_ROM/driverl
    2989 00000014 02C4          MOVB      ACC,#196              ; [CPU_] |1575| 
    2990 00000015 0742          ADDL      ACC,*-SP[2]           ; [CPU_] |1575| 
    2991 00000016 8AA9          MOVL      XAR4,ACC              ; [CPU_] |1575| 
    2992 00000017 06C4          MOVL      ACC,*+XAR4[0]         ; [CPU_] |1575| 
    2993 00000018 1E46          MOVL      *-SP[6],ACC           ; [CPU_] |1575| 
    2994                      .dwpsn  file "C:/Users/a0221343/Git/bootROM/f28004x_bootrom/F28004x_ROM_dev_PG2.0/F28004x_ROM/driverl
    2995 00000019 6F0D          B         $C$L50,UNC            ; [CPU_] |1576| 
    2996                      ; branch occurs ; [] |1576| 
    2997 0000001a       $C$L48:    
    2998                      .dwpsn  file "C:/Users/a0221343/Git/bootROM/f28004x_bootrom/F28004x_ROM_dev_PG2.0/F28004x_ROM/driverl
    2999 0000001a 0200          MOVB      ACC,#0                ; [CPU_] |1584| 
    3000 0000001b 1E46          MOVL      *-SP[6],ACC           ; [CPU_] |1584| 
    3001                      .dwpsn  file "C:/Users/a0221343/Git/bootROM/f28004x_bootrom/F28004x_ROM_dev_PG2.0/F28004x_ROM/driverl
    3002 0000001c 6F0A          B         $C$L50,UNC            ; [CPU_] |1585| 
    3003                      ; branch occurs ; [] |1585| 
    3004 0000001d       $C$L49:    
    3005                      .dwpsn  file "C:/Users/a0221343/Git/bootROM/f28004x_bootrom/F28004x_ROM_dev_PG2.0/F28004x_ROM/driverl
    3006 0000001d 9243          MOV       AL,*-SP[3]            ; [CPU_] |1540| 
    3007 0000001e ECE6          BF        $C$L44,EQ             ; [CPU_] |1540| 
    3008                      ; branchcc occurs ; [] |1540| 
    3009 0000001f 5201          CMPB      AL,#1                 ; [CPU_] |1540| 
    3010 00000020 ECE8          BF        $C$L45,EQ             ; [CPU_] |1540| 
    3011                      ; branchcc occurs ; [] |1540| 
    3012 00000021 5202          CMPB      AL,#2                 ; [CPU_] |1540| 
    3013 00000022 ECEC          BF        $C$L46,EQ             ; [CPU_] |1540| 
    3014                      ; branchcc occurs ; [] |1540| 
    3015 00000023 5203          CMPB      AL,#3                 ; [CPU_] |1540| 
    3016 00000024 ECF0          BF        $C$L47,EQ             ; [CPU_] |1540| 
    3017                      ; branchcc occurs ; [] |1540| 
    3018 00000025 6FF5          B         $C$L48,UNC            ; [CPU_] |1540| 
    3019                      ; branch occurs ; [] |1540| 
    3020 00000026       $C$L50:    
    3021                      .dwpsn  file "C:/Users/a0221343/Git/bootROM/f28004x_bootrom/F28004x_ROM_dev_PG2.0/F28004x_ROM/driverl
    3022                      .dwpsn  file "C:/Users/a0221343/Git/bootROM/f28004x_bootrom/F28004x_ROM_dev_PG2.0/F28004x_ROM/driverl
    3023 00000026 FE86          SUBB      SP,#6                 ; [CPU_U] 
    3024                      .dwcfi  cfa_offset, -2
    3025              $C$DW$202       .dwtag  DW_TAG_TI_branch
    3026                      .dwattr $C$DW$202, DW_AT_low_pc(0x00)
    3027                      .dwattr $C$DW$202, DW_AT_TI_return
    3028 00000027 0006          LRETR     ; [CPU_] 
    3029                      ; return occurs ; [] 
    3030                      .dwattr $C$DW$196, DW_AT_TI_end_file("C:/Users/a0221343/Git/bootROM/f28004x_bootrom/F28004x_ROM_dev_P
    3031                      .dwattr $C$DW$196, DW_AT_TI_end_line(0x635)
    3032                      .dwattr $C$DW$196, DW_AT_TI_end_column(0x01)
    3033                      .dwendentry
    3034                      .dwendtag $C$DW$196
    3035              
TMS320C2000 Assembler PC v6.4.4 Tue Feb 14 14:42:55 2017

Tools Copyright (c) 1996-2015 Texas Instruments Incorporated
C:\Users\a0221343\AppData\Local\Temp\0706410                         PAGE   58

    3036 00000000               .sect   ".text:_CAN_getErrorCount"
    3037                      .clink
    3038                      .global _CAN_getErrorCount
    3039              
    3040              $C$DW$203       .dwtag  DW_TAG_subprogram, DW_AT_name("CAN_getErrorCount")
    3041                      .dwattr $C$DW$203, DW_AT_low_pc(_CAN_getErrorCount)
    3042                      .dwattr $C$DW$203, DW_AT_high_pc(0x00)
    3043                      .dwattr $C$DW$203, DW_AT_TI_symbol_name("_CAN_getErrorCount")
    3044                      .dwattr $C$DW$203, DW_AT_external
    3045                      .dwattr $C$DW$203, DW_AT_type(*$C$DW$T$44)
    3046                      .dwattr $C$DW$203, DW_AT_TI_begin_file("C:/Users/a0221343/Git/bootROM/f28004x_bootrom/F28004x_ROM_dev
    3047                      .dwattr $C$DW$203, DW_AT_TI_begin_line(0x64d)
    3048                      .dwattr $C$DW$203, DW_AT_TI_begin_column(0x01)
    3049                      .dwattr $C$DW$203, DW_AT_TI_max_frame_size(-12)
    3050                      .dwpsn  file "C:/Users/a0221343/Git/bootROM/f28004x_bootrom/F28004x_ROM_dev_PG2.0/F28004x_ROM/driverl
    3051              
    3052                      .dwfde $C$DW$CIE, _CAN_getErrorCount
    3053              $C$DW$204       .dwtag  DW_TAG_formal_parameter, DW_AT_name("base")
    3054                      .dwattr $C$DW$204, DW_AT_TI_symbol_name("_base")
    3055                      .dwattr $C$DW$204, DW_AT_type(*$C$DW$T$19)
    3056                      .dwattr $C$DW$204, DW_AT_location[DW_OP_reg0]
    3057              $C$DW$205       .dwtag  DW_TAG_formal_parameter, DW_AT_name("rxCount")
    3058                      .dwattr $C$DW$205, DW_AT_TI_symbol_name("_rxCount")
    3059                      .dwattr $C$DW$205, DW_AT_type(*$C$DW$T$40)
    3060                      .dwattr $C$DW$205, DW_AT_location[DW_OP_reg12]
    3061              $C$DW$206       .dwtag  DW_TAG_formal_parameter, DW_AT_name("txCount")
    3062                      .dwattr $C$DW$206, DW_AT_TI_symbol_name("_txCount")
    3063                      .dwattr $C$DW$206, DW_AT_type(*$C$DW$T$40)
    3064                      .dwattr $C$DW$206, DW_AT_location[DW_OP_reg14]
    3065              
    3066              ;***************************************************************
    3067              ;* FNAME: _CAN_getErrorCount            FR SIZE:  10           *
