TMS320C2000 Assembler PC v6.2.9 Tue Apr 14 13:32:06 2015

Tools Copyright (c) 1996-2014 Texas Instruments Incorporated
C:\Users\a0272466\AppData\Local\Temp\0620410                         PAGE    1

       1              ;***************************************************************
       2              ;* TMS320C2000 C/C++ Codegen                         PC v6.2.9 *
       3              ;* Date/Time created: Tue Apr 14 13:31:56 2015                 *
       4              ;***************************************************************
       5                      .compiler_opts --cla_support=cla0 --float_support=fpu32 --hll_source=on --mem_model:code=flat --mem_m
       6        0002  FP      .set    XAR2
       7              
       8              $C$DW$CU        .dwtag  DW_TAG_compile_unit
       9                      .dwattr $C$DW$CU, DW_AT_name("C:/work/grepos/c2000_bootROM/f28004x_bootrom/F28004x_ROM_dev/F28004x_RO
      10                      .dwattr $C$DW$CU, DW_AT_producer("TMS320C2000 C/C++ Codegen PC v6.2.9 Copyright (c) 1996-2014 Texas I
      11                      .dwattr $C$DW$CU, DW_AT_TI_version(0x01)
      12                      .dwattr $C$DW$CU, DW_AT_comp_dir("C:\work\grepos\c2000_bootROM\f28004x_bootrom\F28004x_ROM_dev\ccs_fi
      13              
      14              $C$DW$1 .dwtag  DW_TAG_subprogram, DW_AT_name("Interrupt_enable")
      15                      .dwattr $C$DW$1, DW_AT_TI_symbol_name("_Interrupt_enable")
      16                      .dwattr $C$DW$1, DW_AT_declaration
      17                      .dwattr $C$DW$1, DW_AT_external
      18              $C$DW$2 .dwtag  DW_TAG_formal_parameter
      19                      .dwattr $C$DW$2, DW_AT_type(*$C$DW$T$136)
      20                      .dwendtag $C$DW$1
      21              
      22              
      23              $C$DW$3 .dwtag  DW_TAG_subprogram, DW_AT_name("Interrupt_disable")
      24                      .dwattr $C$DW$3, DW_AT_TI_symbol_name("_Interrupt_disable")
      25                      .dwattr $C$DW$3, DW_AT_declaration
      26                      .dwattr $C$DW$3, DW_AT_external
      27              $C$DW$4 .dwtag  DW_TAG_formal_parameter
      28                      .dwattr $C$DW$4, DW_AT_type(*$C$DW$T$136)
      29                      .dwendtag $C$DW$3
      30              
      31              ;       c:\ti\ccsv6\tools\compiler\c2000_6.2.9\bin\ac2000.exe -@C:\\Users\\a0272466\\AppData\\Local\\Temp\\06
      32 00000000               .sect   ".text"
      33                      .clink
      34              
      35              $C$DW$5 .dwtag  DW_TAG_subprogram, DW_AT_name("Interrupt_register")
      36                      .dwattr $C$DW$5, DW_AT_low_pc(_Interrupt_register)
      37                      .dwattr $C$DW$5, DW_AT_high_pc(0x00)
      38                      .dwattr $C$DW$5, DW_AT_TI_symbol_name("_Interrupt_register")
      39                      .dwattr $C$DW$5, DW_AT_TI_begin_file("C:/work/grepos/c2000_bootROM/f28004x_bootrom/F28004x_ROM_dev/F2
      40                      .dwattr $C$DW$5, DW_AT_TI_begin_line(0xa0)
      41                      .dwattr $C$DW$5, DW_AT_TI_begin_column(0x01)
      42                      .dwattr $C$DW$5, DW_AT_TI_max_frame_size(-6)
      43                      .dwpsn  file "C:/work/grepos/c2000_bootROM/f28004x_bootrom/F28004x_ROM_dev/F28004x_ROM/driverlib/inte
      44              
      45                      .dwfde $C$DW$CIE, _Interrupt_register
      46              $C$DW$6 .dwtag  DW_TAG_formal_parameter, DW_AT_name("interruptNumber")
      47                      .dwattr $C$DW$6, DW_AT_TI_symbol_name("_interruptNumber")
      48                      .dwattr $C$DW$6, DW_AT_type(*$C$DW$T$136)
      49                      .dwattr $C$DW$6, DW_AT_location[DW_OP_reg0]
      50              $C$DW$7 .dwtag  DW_TAG_formal_parameter, DW_AT_name("handler")
      51                      .dwattr $C$DW$7, DW_AT_TI_symbol_name("_handler")
      52                      .dwattr $C$DW$7, DW_AT_type(*$C$DW$T$135)
      53                      .dwattr $C$DW$7, DW_AT_location[DW_OP_reg12]
      54              
      55              ;***************************************************************
TMS320C2000 Assembler PC v6.2.9 Tue Apr 14 13:32:06 2015

Tools Copyright (c) 1996-2014 Texas Instruments Incorporated
C:\Users\a0272466\AppData\Local\Temp\0620410                         PAGE    2

      56              ;* FNAME: _Interrupt_register           FR SIZE:   4           *
      57              ;*                                                             *
      58              ;* FUNCTION ENVIRONMENT                                        *
      59              ;*                                                             *
      60              ;* FUNCTION PROPERTIES                                         *
      61              ;*                            0 Parameter,  4 Auto,  0 SOE     *
      62              ;***************************************************************
      63              
      64 00000000       _Interrupt_register:
      65                      .dwcfi  cfa_offset, -2
      66                      .dwcfi  save_reg_to_mem, 26, 0
      67                      .dwcfi  save_reg_to_reg, 78, 26
      68 00000000 FE04          ADDB      SP,#4                 ; [CPU_U] 
      69                      .dwcfi  cfa_offset, -6
      70              $C$DW$8 .dwtag  DW_TAG_variable, DW_AT_name("interruptNumber")
      71                      .dwattr $C$DW$8, DW_AT_TI_symbol_name("_interruptNumber")
      72                      .dwattr $C$DW$8, DW_AT_type(*$C$DW$T$136)
      73                      .dwattr $C$DW$8, DW_AT_location[DW_OP_breg20 -2]
      74              $C$DW$9 .dwtag  DW_TAG_variable, DW_AT_name("handler")
      75                      .dwattr $C$DW$9, DW_AT_TI_symbol_name("_handler")
      76                      .dwattr $C$DW$9, DW_AT_type(*$C$DW$T$135)
      77                      .dwattr $C$DW$9, DW_AT_location[DW_OP_breg20 -4]
      78 00000001 A844          MOVL      *-SP[4],XAR4          ; [CPU_] |161| 
      79 00000002 1E42          MOVL      *-SP[2],ACC           ; [CPU_] |161| 
      80                      .dwpsn  file "C:/work/grepos/c2000_bootROM/f28004x_bootrom/F28004x_ROM_dev/F28004x_ROM/driverlib/inte
      81 00000003 7622   EALLOW
      82                      .dwpsn  file "C:/work/grepos/c2000_bootROM/f28004x_bootrom/F28004x_ROM_dev/F28004x_ROM/driverlib/inte
      83 00000004 0642          MOVL      ACC,*-SP[2]           ; [CPU_] |164| 
      84 00000005 C444          MOVL      XAR6,*-SP[4]          ; [CPU_] |164| 
      85 00000006 0EA8          MOVU      ACC,AH                ; [CPU_] |164| 
      86 00000007 FF30          LSL       ACC,1                 ; [CPU_] |164| 
      87 00000008 FF18          ADD       ACC,#13 << 8          ; [CPU_] |164| 
         00000009 000D 
      88 0000000a 8AA9          MOVL      XAR4,ACC              ; [CPU_] |164| 
      89 0000000b C2C4          MOVL      *+XAR4[0],XAR6        ; [CPU_] |164| 
      90                      .dwpsn  file "C:/work/grepos/c2000_bootROM/f28004x_bootrom/F28004x_ROM_dev/F28004x_ROM/driverlib/inte
      91 0000000c 761A   EDIS
      92                      .dwpsn  file "C:/work/grepos/c2000_bootROM/f28004x_bootrom/F28004x_ROM_dev/F28004x_ROM/driverlib/inte
      93 0000000d FF69          SPM       #0                    ; [CPU_] 
      94 0000000e FE84          SUBB      SP,#4                 ; [CPU_U] 
      95                      .dwcfi  cfa_offset, -2
      96              $C$DW$10        .dwtag  DW_TAG_TI_branch
      97                      .dwattr $C$DW$10, DW_AT_low_pc(0x00)
      98                      .dwattr $C$DW$10, DW_AT_TI_return
      99 0000000f 0006          LRETR     ; [CPU_] 
     100                      ; return occurs ; [] 
     101                      .dwattr $C$DW$5, DW_AT_TI_end_file("C:/work/grepos/c2000_bootROM/f28004x_bootrom/F28004x_ROM_dev/F280
     102                      .dwattr $C$DW$5, DW_AT_TI_end_line(0xa7)
     103                      .dwattr $C$DW$5, DW_AT_TI_end_column(0x01)
     104                      .dwendentry
     105                      .dwendtag $C$DW$5
     106              
     107 00000010               .sect   ".text"
     108                      .clink
     109              
TMS320C2000 Assembler PC v6.2.9 Tue Apr 14 13:32:06 2015

Tools Copyright (c) 1996-2014 Texas Instruments Incorporated
C:\Users\a0272466\AppData\Local\Temp\0620410                         PAGE    3

     110              $C$DW$11        .dwtag  DW_TAG_subprogram, DW_AT_name("Interrupt_unregister")
     111                      .dwattr $C$DW$11, DW_AT_low_pc(_Interrupt_unregister)
     112                      .dwattr $C$DW$11, DW_AT_high_pc(0x00)
     113                      .dwattr $C$DW$11, DW_AT_TI_symbol_name("_Interrupt_unregister")
     114                      .dwattr $C$DW$11, DW_AT_TI_begin_file("C:/work/grepos/c2000_bootROM/f28004x_bootrom/F28004x_ROM_dev/F
     115                      .dwattr $C$DW$11, DW_AT_TI_begin_line(0xba)
     116                      .dwattr $C$DW$11, DW_AT_TI_begin_column(0x01)
     117                      .dwattr $C$DW$11, DW_AT_TI_max_frame_size(-4)
     118                      .dwpsn  file "C:/work/grepos/c2000_bootROM/f28004x_bootrom/F28004x_ROM_dev/F28004x_ROM/driverlib/inte
     119              
     120                      .dwfde $C$DW$CIE, _Interrupt_unregister
     121              $C$DW$12        .dwtag  DW_TAG_formal_parameter, DW_AT_name("interruptNumber")
     122                      .dwattr $C$DW$12, DW_AT_TI_symbol_name("_interruptNumber")
     123                      .dwattr $C$DW$12, DW_AT_type(*$C$DW$T$136)
     124                      .dwattr $C$DW$12, DW_AT_location[DW_OP_reg0]
     125              
     126              ;***************************************************************
     127              ;* FNAME: _Interrupt_unregister         FR SIZE:   2           *
     128              ;*                                                             *
     129              ;* FUNCTION ENVIRONMENT                                        *
     130              ;*                                                             *
     131              ;* FUNCTION PROPERTIES                                         *
     132              ;*                            0 Parameter,  2 Auto,  0 SOE     *
     133              ;***************************************************************
     134              
     135 00000010       _Interrupt_unregister:
     136                      .dwcfi  cfa_offset, -2
     137                      .dwcfi  save_reg_to_mem, 26, 0
     138                      .dwcfi  save_reg_to_reg, 78, 26
     139 00000010 FE02          ADDB      SP,#2                 ; [CPU_U] 
     140                      .dwcfi  cfa_offset, -4
     141              $C$DW$13        .dwtag  DW_TAG_variable, DW_AT_name("interruptNumber")
     142                      .dwattr $C$DW$13, DW_AT_TI_symbol_name("_interruptNumber")
     143                      .dwattr $C$DW$13, DW_AT_type(*$C$DW$T$136)
     144                      .dwattr $C$DW$13, DW_AT_location[DW_OP_breg20 -2]
     145 00000011 1E42          MOVL      *-SP[2],ACC           ; [CPU_] |187| 
     146                      .dwpsn  file "C:/work/grepos/c2000_bootROM/f28004x_bootrom/F28004x_ROM_dev/F28004x_ROM/driverlib/inte
     147 00000012 7622   EALLOW
     148                      .dwpsn  file "C:/work/grepos/c2000_bootROM/f28004x_bootrom/F28004x_ROM_dev/F28004x_ROM/driverlib/inte
     149 00000013 8F40'         MOVL      XAR5,#_Interrupt_defaultHandler ; [CPU_U] |190| 
         00000014 0020 
     150 00000015 0642          MOVL      ACC,*-SP[2]           ; [CPU_] |190| 
     151 00000016 0EA8          MOVU      ACC,AH                ; [CPU_] |190| 
     152 00000017 FF30          LSL       ACC,1                 ; [CPU_] |190| 
     153 00000018 FF18          ADD       ACC,#13 << 8          ; [CPU_] |190| 
         00000019 000D 
     154 0000001a 8AA9          MOVL      XAR4,ACC              ; [CPU_] |190| 
     155 0000001b A0C4          MOVL      *+XAR4[0],XAR5        ; [CPU_] |190| 
     156                      .dwpsn  file "C:/work/grepos/c2000_bootROM/f28004x_bootrom/F28004x_ROM_dev/F28004x_ROM/driverlib/inte
     157 0000001c 761A   EDIS
     158                      .dwpsn  file "C:/work/grepos/c2000_bootROM/f28004x_bootrom/F28004x_ROM_dev/F28004x_ROM/driverlib/inte
     159 0000001d FF69          SPM       #0                    ; [CPU_] 
     160 0000001e FE82          SUBB      SP,#2                 ; [CPU_U] 
     161                      .dwcfi  cfa_offset, -2
     162              $C$DW$14        .dwtag  DW_TAG_TI_branch
TMS320C2000 Assembler PC v6.2.9 Tue Apr 14 13:32:06 2015

Tools Copyright (c) 1996-2014 Texas Instruments Incorporated
C:\Users\a0272466\AppData\Local\Temp\0620410                         PAGE    4

     163                      .dwattr $C$DW$14, DW_AT_low_pc(0x00)
     164                      .dwattr $C$DW$14, DW_AT_TI_return
     165 0000001f 0006          LRETR     ; [CPU_] 
     166                      ; return occurs ; [] 
     167                      .dwattr $C$DW$11, DW_AT_TI_end_file("C:/work/grepos/c2000_bootROM/f28004x_bootrom/F28004x_ROM_dev/F28
     168                      .dwattr $C$DW$11, DW_AT_TI_end_line(0xc1)
     169                      .dwattr $C$DW$11, DW_AT_TI_end_column(0x01)
     170                      .dwendentry
     171                      .dwendtag $C$DW$11
     172              
     173 00000020               .sect   ".text"
     174                      .clink
     175              
     176              $C$DW$15        .dwtag  DW_TAG_subprogram, DW_AT_name("Interrupt_defaultHandler")
     177                      .dwattr $C$DW$15, DW_AT_low_pc(_Interrupt_defaultHandler)
     178                      .dwattr $C$DW$15, DW_AT_high_pc(0x00)
     179                      .dwattr $C$DW$15, DW_AT_TI_symbol_name("_Interrupt_defaultHandler")
     180                      .dwattr $C$DW$15, DW_AT_TI_begin_file("C:/work/grepos/c2000_bootROM/f28004x_bootrom/F28004x_ROM_dev/F
     181                      .dwattr $C$DW$15, DW_AT_TI_begin_line(0x51)
     182                      .dwattr $C$DW$15, DW_AT_TI_begin_column(0x0d)
     183                      .dwattr $C$DW$15, DW_AT_TI_max_frame_size(-2)
     184                      .dwpsn  file "C:/work/grepos/c2000_bootROM/f28004x_bootrom/F28004x_ROM_dev/F28004x_ROM/driverlib/inte
     185              
     186                      .dwfde $C$DW$CIE, _Interrupt_defaultHandler
     187              
     188              ;***************************************************************
     189              ;* FNAME: _Interrupt_defaultHandler     FR SIZE:   0           *
     190              ;*                                                             *
     191              ;* FUNCTION ENVIRONMENT                                        *
     192              ;*                                                             *
     193              ;* FUNCTION PROPERTIES                                         *
     194              ;*                            0 Parameter,  0 Auto,  0 SOE     *
     195              ;***************************************************************
     196              
     197 00000020       _Interrupt_defaultHandler:
     198                      .dwcfi  cfa_offset, -2
     199                      .dwcfi  save_reg_to_mem, 26, 0
     200                      .dwcfi  save_reg_to_reg, 78, 26
     201                      .dwpsn  file "C:/work/grepos/c2000_bootROM/f28004x_bootrom/F28004x_ROM_dev/F28004x_ROM/driverlib/inte
     202 00000020 7625   ESTOP0
     203                      .dwpsn  file "C:/work/grepos/c2000_bootROM/f28004x_bootrom/F28004x_ROM_dev/F28004x_ROM/driverlib/inte
     204                      .dwpsn  file "C:/work/grepos/c2000_bootROM/f28004x_bootrom/F28004x_ROM_dev/F28004x_ROM/driverlib/inte
     205 00000021 FF69          SPM       #0                    ; [CPU_] 
     206              $C$DW$16        .dwtag  DW_TAG_TI_branch
     207                      .dwattr $C$DW$16, DW_AT_low_pc(0x00)
     208                      .dwattr $C$DW$16, DW_AT_TI_return
     209 00000022 0006          LRETR     ; [CPU_] 
     210                      ; return occurs ; [] 
     211                      .dwattr $C$DW$15, DW_AT_TI_end_file("C:/work/grepos/c2000_bootROM/f28004x_bootrom/F28004x_ROM_dev/F28
     212                      .dwattr $C$DW$15, DW_AT_TI_end_line(0x57)
     213                      .dwattr $C$DW$15, DW_AT_TI_end_column(0x01)
     214                      .dwendentry
     215                      .dwendtag $C$DW$15
     216              
     217 00000023               .sect   ".text"
TMS320C2000 Assembler PC v6.2.9 Tue Apr 14 13:32:06 2015

Tools Copyright (c) 1996-2014 Texas Instruments Incorporated
C:\Users\a0272466\AppData\Local\Temp\0620410                         PAGE    5

     218                      .clink
     219                      .global _EPWM_setTimeBaseCounter
     220              
     221              $C$DW$17        .dwtag  DW_TAG_subprogram, DW_AT_name("EPWM_setTimeBaseCounter")
     222                      .dwattr $C$DW$17, DW_AT_low_pc(_EPWM_setTimeBaseCounter)
     223                      .dwattr $C$DW$17, DW_AT_high_pc(0x00)
     224                      .dwattr $C$DW$17, DW_AT_TI_symbol_name("_EPWM_setTimeBaseCounter")
     225                      .dwattr $C$DW$17, DW_AT_external
     226                      .dwattr $C$DW$17, DW_AT_TI_begin_file("C:/work/grepos/c2000_bootROM/f28004x_bootrom/F28004x_ROM_dev/F
     227                      .dwattr $C$DW$17, DW_AT_TI_begin_line(0x22)
     228                      .dwattr $C$DW$17, DW_AT_TI_begin_column(0x06)
     229                      .dwattr $C$DW$17, DW_AT_TI_max_frame_size(-6)
     230                      .dwpsn  file "C:/work/grepos/c2000_bootROM/f28004x_bootrom/F28004x_ROM_dev/F28004x_ROM/driverlib/epwm
     231              
     232                      .dwfde $C$DW$CIE, _EPWM_setTimeBaseCounter
     233              $C$DW$18        .dwtag  DW_TAG_formal_parameter, DW_AT_name("base")
     234                      .dwattr $C$DW$18, DW_AT_TI_symbol_name("_base")
     235                      .dwattr $C$DW$18, DW_AT_type(*$C$DW$T$136)
     236                      .dwattr $C$DW$18, DW_AT_location[DW_OP_reg0]
     237              $C$DW$19        .dwtag  DW_TAG_formal_parameter, DW_AT_name("count")
     238                      .dwattr $C$DW$19, DW_AT_TI_symbol_name("_count")
     239                      .dwattr $C$DW$19, DW_AT_type(*$C$DW$T$141)
     240                      .dwattr $C$DW$19, DW_AT_location[DW_OP_reg12]
     241              
     242              ;***************************************************************
     243              ;* FNAME: _EPWM_setTimeBaseCounter      FR SIZE:   4           *
     244              ;*                                                             *
     245              ;* FUNCTION ENVIRONMENT                                        *
     246              ;*                                                             *
     247              ;* FUNCTION PROPERTIES                                         *
     248              ;*                            0 Parameter,  3 Auto,  0 SOE     *
     249              ;***************************************************************
     250              
     251 00000023       _EPWM_setTimeBaseCounter:
     252                      .dwcfi  cfa_offset, -2
     253                      .dwcfi  save_reg_to_mem, 26, 0
     254                      .dwcfi  save_reg_to_reg, 78, 26
     255 00000023 FE04          ADDB      SP,#4                 ; [CPU_U] 
     256                      .dwcfi  cfa_offset, -6
     257              $C$DW$20        .dwtag  DW_TAG_variable, DW_AT_name("base")
     258                      .dwattr $C$DW$20, DW_AT_TI_symbol_name("_base")
     259                      .dwattr $C$DW$20, DW_AT_type(*$C$DW$T$136)
     260                      .dwattr $C$DW$20, DW_AT_location[DW_OP_breg20 -2]
     261              $C$DW$21        .dwtag  DW_TAG_variable, DW_AT_name("count")
     262                      .dwattr $C$DW$21, DW_AT_TI_symbol_name("_count")
     263                      .dwattr $C$DW$21, DW_AT_type(*$C$DW$T$141)
     264                      .dwattr $C$DW$21, DW_AT_location[DW_OP_breg20 -3]
     265 00000024 7C43          MOV       *-SP[3],AR4           ; [CPU_] |35| 
     266 00000025 1E42          MOVL      *-SP[2],ACC           ; [CPU_] |35| 
     267                      .dwpsn  file "C:/work/grepos/c2000_bootROM/f28004x_bootrom/F28004x_ROM_dev/F28004x_ROM/driverlib/epwm
     268 00000026 8843          MOVZ      AR6,*-SP[3]           ; [CPU_] |38| 
     269 00000027 0204          MOVB      ACC,#4                ; [CPU_] |38| 
     270 00000028 0742          ADDL      ACC,*-SP[2]           ; [CPU_] |38| 
     271 00000029 8AA9          MOVL      XAR4,ACC              ; [CPU_] |38| 
     272 0000002a 7EC4          MOV       *+XAR4[0],AR6         ; [CPU_] |38| 
TMS320C2000 Assembler PC v6.2.9 Tue Apr 14 13:32:06 2015

Tools Copyright (c) 1996-2014 Texas Instruments Incorporated
C:\Users\a0272466\AppData\Local\Temp\0620410                         PAGE    6

     273                      .dwpsn  file "C:/work/grepos/c2000_bootROM/f28004x_bootrom/F28004x_ROM_dev/F28004x_ROM/driverlib/epwm
     274 0000002b FE84          SUBB      SP,#4                 ; [CPU_U] 
     275                      .dwcfi  cfa_offset, -2
     276              $C$DW$22        .dwtag  DW_TAG_TI_branch
     277                      .dwattr $C$DW$22, DW_AT_low_pc(0x00)
     278                      .dwattr $C$DW$22, DW_AT_TI_return
     279 0000002c 0006          LRETR     ; [CPU_] 
     280                      ; return occurs ; [] 
     281                      .dwattr $C$DW$17, DW_AT_TI_end_file("C:/work/grepos/c2000_bootROM/f28004x_bootrom/F28004x_ROM_dev/F28
     282                      .dwattr $C$DW$17, DW_AT_TI_end_line(0x27)
     283                      .dwattr $C$DW$17, DW_AT_TI_end_column(0x01)
     284                      .dwendentry
     285                      .dwendtag $C$DW$17
     286              
     287 0000002d               .sect   ".text"
     288                      .clink
     289                      .global _EPWM_setEmulationMode
     290              
     291              $C$DW$23        .dwtag  DW_TAG_subprogram, DW_AT_name("EPWM_setEmulationMode")
     292                      .dwattr $C$DW$23, DW_AT_low_pc(_EPWM_setEmulationMode)
     293                      .dwattr $C$DW$23, DW_AT_high_pc(0x00)
     294                      .dwattr $C$DW$23, DW_AT_TI_symbol_name("_EPWM_setEmulationMode")
     295                      .dwattr $C$DW$23, DW_AT_external
     296                      .dwattr $C$DW$23, DW_AT_TI_begin_file("C:/work/grepos/c2000_bootROM/f28004x_bootrom/F28004x_ROM_dev/F
     297                      .dwattr $C$DW$23, DW_AT_TI_begin_line(0x3a)
     298                      .dwattr $C$DW$23, DW_AT_TI_begin_column(0x06)
     299                      .dwattr $C$DW$23, DW_AT_TI_max_frame_size(-6)
     300                      .dwpsn  file "C:/work/grepos/c2000_bootROM/f28004x_bootrom/F28004x_ROM_dev/F28004x_ROM/driverlib/epwm
     301              
     302                      .dwfde $C$DW$CIE, _EPWM_setEmulationMode
     303              $C$DW$24        .dwtag  DW_TAG_formal_parameter, DW_AT_name("base")
     304                      .dwattr $C$DW$24, DW_AT_TI_symbol_name("_base")
     305                      .dwattr $C$DW$24, DW_AT_type(*$C$DW$T$136)
     306                      .dwattr $C$DW$24, DW_AT_location[DW_OP_reg0]
     307              $C$DW$25        .dwtag  DW_TAG_formal_parameter, DW_AT_name("emulationMode")
     308                      .dwattr $C$DW$25, DW_AT_TI_symbol_name("_emulationMode")
     309                      .dwattr $C$DW$25, DW_AT_type(*$C$DW$T$20)
     310                      .dwattr $C$DW$25, DW_AT_location[DW_OP_reg12]
     311              
     312              ;***************************************************************
     313              ;* FNAME: _EPWM_setEmulationMode        FR SIZE:   4           *
     314              ;*                                                             *
     315              ;* FUNCTION ENVIRONMENT                                        *
     316              ;*                                                             *
     317              ;* FUNCTION PROPERTIES                                         *
     318              ;*                            0 Parameter,  3 Auto,  0 SOE     *
     319              ;***************************************************************
     320              
     321 0000002d       _EPWM_setEmulationMode:
     322                      .dwcfi  cfa_offset, -2
     323                      .dwcfi  save_reg_to_mem, 26, 0
     324                      .dwcfi  save_reg_to_reg, 78, 26
     325 0000002d FE04          ADDB      SP,#4                 ; [CPU_U] 
     326                      .dwcfi  cfa_offset, -6
     327              $C$DW$26        .dwtag  DW_TAG_variable, DW_AT_name("base")
TMS320C2000 Assembler PC v6.2.9 Tue Apr 14 13:32:06 2015

Tools Copyright (c) 1996-2014 Texas Instruments Incorporated
C:\Users\a0272466\AppData\Local\Temp\0620410                         PAGE    7

     328                      .dwattr $C$DW$26, DW_AT_TI_symbol_name("_base")
     329                      .dwattr $C$DW$26, DW_AT_type(*$C$DW$T$136)
     330                      .dwattr $C$DW$26, DW_AT_location[DW_OP_breg20 -2]
     331              $C$DW$27        .dwtag  DW_TAG_variable, DW_AT_name("emulationMode")
     332                      .dwattr $C$DW$27, DW_AT_TI_symbol_name("_emulationMode")
     333                      .dwattr $C$DW$27, DW_AT_type(*$C$DW$T$20)
     334                      .dwattr $C$DW$27, DW_AT_location[DW_OP_breg20 -3]
     335 0000002e 7C43          MOV       *-SP[3],AR4           ; [CPU_] |59| 
     336 0000002f 1E42          MOVL      *-SP[2],ACC           ; [CPU_] |59| 
     337                      .dwpsn  file "C:/work/grepos/c2000_bootROM/f28004x_bootrom/F28004x_ROM_dev/F28004x_ROM/driverlib/epwm
     338 00000030 8A42          MOVL      XAR4,*-SP[2]          ; [CPU_] |62| 
     339 00000031 CCC4          AND       AL,*+XAR4[0],#0x3fff  ; [CPU_] |62| 
         00000032 3FFF 
     340 00000033 8A42          MOVL      XAR4,*-SP[2]          ; [CPU_] |62| 
     341 00000034 88A9          MOVZ      AR6,AL                ; [CPU_] |62| 
     342 00000035 5603          MOV       ACC,*-SP[3] << #14    ; [CPU_] |62| 
         00000036 0E43 
     343 00000037 CAA6          OR        AL,AR6                ; [CPU_] |62| 
     344 00000038 96C4          MOV       *+XAR4[0],AL          ; [CPU_] |62| 
     345                      .dwpsn  file "C:/work/grepos/c2000_bootROM/f28004x_bootrom/F28004x_ROM_dev/F28004x_ROM/driverlib/epwm
     346 00000039 FE84          SUBB      SP,#4                 ; [CPU_U] 
     347                      .dwcfi  cfa_offset, -2
     348              $C$DW$28        .dwtag  DW_TAG_TI_branch
     349                      .dwattr $C$DW$28, DW_AT_low_pc(0x00)
     350                      .dwattr $C$DW$28, DW_AT_TI_return
     351 0000003a 0006          LRETR     ; [CPU_] 
     352                      ; return occurs ; [] 
     353                      .dwattr $C$DW$23, DW_AT_TI_end_file("C:/work/grepos/c2000_bootROM/f28004x_bootrom/F28004x_ROM_dev/F28
     354                      .dwattr $C$DW$23, DW_AT_TI_end_line(0x40)
     355                      .dwattr $C$DW$23, DW_AT_TI_end_column(0x01)
     356                      .dwendentry
     357                      .dwendtag $C$DW$23
     358              
     359 0000003b               .sect   ".text"
     360                      .clink
     361                      .global _EPWM_setCountModeAfterSync
     362              
     363              $C$DW$29        .dwtag  DW_TAG_subprogram, DW_AT_name("EPWM_setCountModeAfterSync")
     364                      .dwattr $C$DW$29, DW_AT_low_pc(_EPWM_setCountModeAfterSync)
     365                      .dwattr $C$DW$29, DW_AT_high_pc(0x00)
     366                      .dwattr $C$DW$29, DW_AT_TI_symbol_name("_EPWM_setCountModeAfterSync")
     367                      .dwattr $C$DW$29, DW_AT_external
     368                      .dwattr $C$DW$29, DW_AT_TI_begin_file("C:/work/grepos/c2000_bootROM/f28004x_bootrom/F28004x_ROM_dev/F
     369                      .dwattr $C$DW$29, DW_AT_TI_begin_line(0x51)
     370                      .dwattr $C$DW$29, DW_AT_TI_begin_column(0x06)
     371                      .dwattr $C$DW$29, DW_AT_TI_max_frame_size(-6)
     372                      .dwpsn  file "C:/work/grepos/c2000_bootROM/f28004x_bootrom/F28004x_ROM_dev/F28004x_ROM/driverlib/epwm
     373              
     374                      .dwfde $C$DW$CIE, _EPWM_setCountModeAfterSync
     375              $C$DW$30        .dwtag  DW_TAG_formal_parameter, DW_AT_name("base")
     376                      .dwattr $C$DW$30, DW_AT_TI_symbol_name("_base")
     377                      .dwattr $C$DW$30, DW_AT_type(*$C$DW$T$136)
     378                      .dwattr $C$DW$30, DW_AT_location[DW_OP_reg0]
     379              $C$DW$31        .dwtag  DW_TAG_formal_parameter, DW_AT_name("mode")
     380                      .dwattr $C$DW$31, DW_AT_TI_symbol_name("_mode")
TMS320C2000 Assembler PC v6.2.9 Tue Apr 14 13:32:06 2015

Tools Copyright (c) 1996-2014 Texas Instruments Incorporated
C:\Users\a0272466\AppData\Local\Temp\0620410                         PAGE    8

     381                      .dwattr $C$DW$31, DW_AT_type(*$C$DW$T$22)
     382                      .dwattr $C$DW$31, DW_AT_location[DW_OP_reg12]
     383              
     384              ;***************************************************************
     385              ;* FNAME: _EPWM_setCountModeAfterSync   FR SIZE:   4           *
     386              ;*                                                             *
     387              ;* FUNCTION ENVIRONMENT                                        *
     388              ;*                                                             *
     389              ;* FUNCTION PROPERTIES                                         *
     390              ;*                            0 Parameter,  3 Auto,  0 SOE     *
     391              ;***************************************************************
     392              
     393 0000003b       _EPWM_setCountModeAfterSync:
     394                      .dwcfi  cfa_offset, -2
     395                      .dwcfi  save_reg_to_mem, 26, 0
     396                      .dwcfi  save_reg_to_reg, 78, 26
     397 0000003b FE04          ADDB      SP,#4                 ; [CPU_U] 
     398                      .dwcfi  cfa_offset, -6
     399              $C$DW$32        .dwtag  DW_TAG_variable, DW_AT_name("base")
     400                      .dwattr $C$DW$32, DW_AT_TI_symbol_name("_base")
     401                      .dwattr $C$DW$32, DW_AT_type(*$C$DW$T$136)
     402                      .dwattr $C$DW$32, DW_AT_location[DW_OP_breg20 -2]
     403              $C$DW$33        .dwtag  DW_TAG_variable, DW_AT_name("mode")
     404                      .dwattr $C$DW$33, DW_AT_TI_symbol_name("_mode")
     405                      .dwattr $C$DW$33, DW_AT_type(*$C$DW$T$22)
     406                      .dwattr $C$DW$33, DW_AT_location[DW_OP_breg20 -3]
     407 0000003c 7C43          MOV       *-SP[3],AR4           ; [CPU_] |82| 
     408 0000003d 1E42          MOVL      *-SP[2],ACC           ; [CPU_] |82| 
     409                      .dwpsn  file "C:/work/grepos/c2000_bootROM/f28004x_bootrom/F28004x_ROM_dev/F28004x_ROM/driverlib/epwm
     410 0000003e 9243          MOV       AL,*-SP[3]            ; [CPU_] |85| 
     411 0000003f 5201          CMPB      AL,#1                 ; [CPU_] |85| 
     412 00000040 ED05          BF        $C$L1,NEQ             ; [CPU_] |85| 
     413                      ; branchcc occurs ; [] |85| 
     414                      .dwpsn  file "C:/work/grepos/c2000_bootROM/f28004x_bootrom/F28004x_ROM_dev/F28004x_ROM/driverlib/epwm
     415 00000041 8A42          MOVL      XAR4,*-SP[2]          ; [CPU_] |88| 
     416 00000042 1AC4          OR        *+XAR4[0],#0x2000     ; [CPU_] |88| 
         00000043 2000 
     417                      .dwpsn  file "C:/work/grepos/c2000_bootROM/f28004x_bootrom/F28004x_ROM_dev/F28004x_ROM/driverlib/epwm
     418 00000044 6F06          B         $C$L2,UNC             ; [CPU_] |89| 
     419                      ; branch occurs ; [] |89| 
     420 00000045       $C$L1:    
     421                      .dwpsn  file "C:/work/grepos/c2000_bootROM/f28004x_bootrom/F28004x_ROM_dev/F28004x_ROM/driverlib/epwm
     422 00000045 5200          CMPB      AL,#0                 ; [CPU_] |90| 
     423 00000046 ED04          BF        $C$L2,NEQ             ; [CPU_] |90| 
     424                      ; branchcc occurs ; [] |90| 
     425                      .dwpsn  file "C:/work/grepos/c2000_bootROM/f28004x_bootrom/F28004x_ROM_dev/F28004x_ROM/driverlib/epwm
     426 00000047 8A42          MOVL      XAR4,*-SP[2]          ; [CPU_] |93| 
     427 00000048 18C4          AND       *+XAR4[0],#0xdfff     ; [CPU_] |93| 
         00000049 DFFF 
     428                      .dwpsn  file "C:/work/grepos/c2000_bootROM/f28004x_bootrom/F28004x_ROM_dev/F28004x_ROM/driverlib/epwm
     429 0000004a       $C$L2:    
     430 0000004a FE84          SUBB      SP,#4                 ; [CPU_U] 
     431                      .dwcfi  cfa_offset, -2
     432              $C$DW$34        .dwtag  DW_TAG_TI_branch
     433                      .dwattr $C$DW$34, DW_AT_low_pc(0x00)
TMS320C2000 Assembler PC v6.2.9 Tue Apr 14 13:32:06 2015

Tools Copyright (c) 1996-2014 Texas Instruments Incorporated
C:\Users\a0272466\AppData\Local\Temp\0620410                         PAGE    9

     434                      .dwattr $C$DW$34, DW_AT_TI_return
     435 0000004b 0006          LRETR     ; [CPU_] 
     436                      ; return occurs ; [] 
     437                      .dwattr $C$DW$29, DW_AT_TI_end_file("C:/work/grepos/c2000_bootROM/f28004x_bootrom/F28004x_ROM_dev/F28
     438                      .dwattr $C$DW$29, DW_AT_TI_end_line(0x5f)
     439                      .dwattr $C$DW$29, DW_AT_TI_end_column(0x01)
     440                      .dwendentry
     441                      .dwendtag $C$DW$29
     442              
     443 0000004c               .sect   ".text"
     444                      .clink
     445                      .global _EPWM_setClockPrescaler
     446              
     447              $C$DW$35        .dwtag  DW_TAG_subprogram, DW_AT_name("EPWM_setClockPrescaler")
     448                      .dwattr $C$DW$35, DW_AT_low_pc(_EPWM_setClockPrescaler)
     449                      .dwattr $C$DW$35, DW_AT_high_pc(0x00)
     450                      .dwattr $C$DW$35, DW_AT_TI_symbol_name("_EPWM_setClockPrescaler")
     451                      .dwattr $C$DW$35, DW_AT_external
     452                      .dwattr $C$DW$35, DW_AT_TI_begin_file("C:/work/grepos/c2000_bootROM/f28004x_bootrom/F28004x_ROM_dev/F
     453                      .dwattr $C$DW$35, DW_AT_TI_begin_line(0x71)
     454                      .dwattr $C$DW$35, DW_AT_TI_begin_column(0x06)
     455                      .dwattr $C$DW$35, DW_AT_TI_max_frame_size(-6)
     456                      .dwpsn  file "C:/work/grepos/c2000_bootROM/f28004x_bootrom/F28004x_ROM_dev/F28004x_ROM/driverlib/epwm
     457              
     458                      .dwfde $C$DW$CIE, _EPWM_setClockPrescaler
     459              $C$DW$36        .dwtag  DW_TAG_formal_parameter, DW_AT_name("base")
     460                      .dwattr $C$DW$36, DW_AT_TI_symbol_name("_base")
     461                      .dwattr $C$DW$36, DW_AT_type(*$C$DW$T$136)
     462                      .dwattr $C$DW$36, DW_AT_location[DW_OP_reg0]
     463              $C$DW$37        .dwtag  DW_TAG_formal_parameter, DW_AT_name("prescaler")
     464                      .dwattr $C$DW$37, DW_AT_TI_symbol_name("_prescaler")
     465                      .dwattr $C$DW$37, DW_AT_type(*$C$DW$T$24)
     466                      .dwattr $C$DW$37, DW_AT_location[DW_OP_reg12]
     467              
     468              ;***************************************************************
     469              ;* FNAME: _EPWM_setClockPrescaler       FR SIZE:   4           *
     470              ;*                                                             *
     471              ;* FUNCTION ENVIRONMENT                                        *
     472              ;*                                                             *
     473              ;* FUNCTION PROPERTIES                                         *
     474              ;*                            0 Parameter,  3 Auto,  0 SOE     *
     475              ;***************************************************************
     476              
     477 0000004c       _EPWM_setClockPrescaler:
     478                      .dwcfi  cfa_offset, -2
     479                      .dwcfi  save_reg_to_mem, 26, 0
     480                      .dwcfi  save_reg_to_reg, 78, 26
     481 0000004c FE04          ADDB      SP,#4                 ; [CPU_U] 
     482                      .dwcfi  cfa_offset, -6
     483              $C$DW$38        .dwtag  DW_TAG_variable, DW_AT_name("base")
     484                      .dwattr $C$DW$38, DW_AT_TI_symbol_name("_base")
     485                      .dwattr $C$DW$38, DW_AT_type(*$C$DW$T$136)
     486                      .dwattr $C$DW$38, DW_AT_location[DW_OP_breg20 -2]
     487              $C$DW$39        .dwtag  DW_TAG_variable, DW_AT_name("prescaler")
     488                      .dwattr $C$DW$39, DW_AT_TI_symbol_name("_prescaler")
TMS320C2000 Assembler PC v6.2.9 Tue Apr 14 13:32:06 2015

Tools Copyright (c) 1996-2014 Texas Instruments Incorporated
C:\Users\a0272466\AppData\Local\Temp\0620410                         PAGE   10

     489                      .dwattr $C$DW$39, DW_AT_type(*$C$DW$T$24)
     490                      .dwattr $C$DW$39, DW_AT_location[DW_OP_breg20 -3]
     491 0000004d 7C43          MOV       *-SP[3],AR4           ; [CPU_] |114| 
     492 0000004e 1E42          MOVL      *-SP[2],ACC           ; [CPU_] |114| 
     493                      .dwpsn  file "C:/work/grepos/c2000_bootROM/f28004x_bootrom/F28004x_ROM_dev/F28004x_ROM/driverlib/epwm
     494 0000004f 8A42          MOVL      XAR4,*-SP[2]          ; [CPU_] |118| 
     495 00000050 CCC4          AND       AL,*+XAR4[0],#0xe3ff  ; [CPU_] |118| 
         00000051 E3FF 
     496 00000052 8A42          MOVL      XAR4,*-SP[2]          ; [CPU_] |118| 
     497 00000053 88A9          MOVZ      AR6,AL                ; [CPU_] |118| 
     498 00000054 5603          MOV       ACC,*-SP[3] << #10    ; [CPU_] |118| 
         00000055 0A43 
     499 00000056 CAA6          OR        AL,AR6                ; [CPU_] |118| 
     500 00000057 96C4          MOV       *+XAR4[0],AL          ; [CPU_] |118| 
     501                      .dwpsn  file "C:/work/grepos/c2000_bootROM/f28004x_bootrom/F28004x_ROM_dev/F28004x_ROM/driverlib/epwm
     502 00000058 FE84          SUBB      SP,#4                 ; [CPU_U] 
     503                      .dwcfi  cfa_offset, -2
     504              $C$DW$40        .dwtag  DW_TAG_TI_branch
     505                      .dwattr $C$DW$40, DW_AT_low_pc(0x00)
     506                      .dwattr $C$DW$40, DW_AT_TI_return
     507 00000059 0006          LRETR     ; [CPU_] 
     508                      ; return occurs ; [] 
     509                      .dwattr $C$DW$35, DW_AT_TI_end_file("C:/work/grepos/c2000_bootROM/f28004x_bootrom/F28004x_ROM_dev/F28
     510                      .dwattr $C$DW$35, DW_AT_TI_end_line(0x78)
     511                      .dwattr $C$DW$35, DW_AT_TI_end_column(0x01)
     512                      .dwendentry
     513                      .dwendtag $C$DW$35
     514              
     515 0000005a               .sect   ".text"
     516                      .clink
     517                      .global _EPWM_setHighSpeedClockPrescaler
     518              
     519              $C$DW$41        .dwtag  DW_TAG_subprogram, DW_AT_name("EPWM_setHighSpeedClockPrescaler")
     520                      .dwattr $C$DW$41, DW_AT_low_pc(_EPWM_setHighSpeedClockPrescaler)
     521                      .dwattr $C$DW$41, DW_AT_high_pc(0x00)
     522                      .dwattr $C$DW$41, DW_AT_TI_symbol_name("_EPWM_setHighSpeedClockPrescaler")
     523                      .dwattr $C$DW$41, DW_AT_external
     524                      .dwattr $C$DW$41, DW_AT_TI_begin_file("C:/work/grepos/c2000_bootROM/f28004x_bootrom/F28004x_ROM_dev/F
     525                      .dwattr $C$DW$41, DW_AT_TI_begin_line(0x8a)
     526                      .dwattr $C$DW$41, DW_AT_TI_begin_column(0x06)
     527                      .dwattr $C$DW$41, DW_AT_TI_max_frame_size(-6)
     528                      .dwpsn  file "C:/work/grepos/c2000_bootROM/f28004x_bootrom/F28004x_ROM_dev/F28004x_ROM/driverlib/epwm
     529              
     530                      .dwfde $C$DW$CIE, _EPWM_setHighSpeedClockPrescaler
     531              $C$DW$42        .dwtag  DW_TAG_formal_parameter, DW_AT_name("base")
     532                      .dwattr $C$DW$42, DW_AT_TI_symbol_name("_base")
     533                      .dwattr $C$DW$42, DW_AT_type(*$C$DW$T$136)
     534                      .dwattr $C$DW$42, DW_AT_location[DW_OP_reg0]
     535              $C$DW$43        .dwtag  DW_TAG_formal_parameter, DW_AT_name("highSpeedPrescaler")
     536                      .dwattr $C$DW$43, DW_AT_TI_symbol_name("_highSpeedPrescaler")
     537                      .dwattr $C$DW$43, DW_AT_type(*$C$DW$T$24)
     538                      .dwattr $C$DW$43, DW_AT_location[DW_OP_reg12]
     539              
     540              ;***************************************************************
     541              ;* FNAME: _EPWM_setHighSpeedClockPrescaler FR SIZE:   4           *
TMS320C2000 Assembler PC v6.2.9 Tue Apr 14 13:32:06 2015

Tools Copyright (c) 1996-2014 Texas Instruments Incorporated
C:\Users\a0272466\AppData\Local\Temp\0620410                         PAGE   11

     542              ;*                                                             *
     543              ;* FUNCTION ENVIRONMENT                                        *
     544              ;*                                                             *
     545              ;* FUNCTION PROPERTIES                                         *
     546              ;*                            0 Parameter,  3 Auto,  0 SOE     *
     547              ;***************************************************************
     548              
     549 0000005a       _EPWM_setHighSpeedClockPrescaler:
     550                      .dwcfi  cfa_offset, -2
     551                      .dwcfi  save_reg_to_mem, 26, 0
     552                      .dwcfi  save_reg_to_reg, 78, 26
     553 0000005a FE04          ADDB      SP,#4                 ; [CPU_U] 
     554                      .dwcfi  cfa_offset, -6
     555              $C$DW$44        .dwtag  DW_TAG_variable, DW_AT_name("base")
     556                      .dwattr $C$DW$44, DW_AT_TI_symbol_name("_base")
     557                      .dwattr $C$DW$44, DW_AT_type(*$C$DW$T$136)
     558                      .dwattr $C$DW$44, DW_AT_location[DW_OP_breg20 -2]
     559              $C$DW$45        .dwtag  DW_TAG_variable, DW_AT_name("highSpeedPrescaler")
     560                      .dwattr $C$DW$45, DW_AT_TI_symbol_name("_highSpeedPrescaler")
     561                      .dwattr $C$DW$45, DW_AT_type(*$C$DW$T$24)
     562                      .dwattr $C$DW$45, DW_AT_location[DW_OP_breg20 -3]
     563 0000005b 7C43          MOV       *-SP[3],AR4           ; [CPU_] |139| 
     564 0000005c 1E42          MOVL      *-SP[2],ACC           ; [CPU_] |139| 
     565                      .dwpsn  file "C:/work/grepos/c2000_bootROM/f28004x_bootrom/F28004x_ROM_dev/F28004x_ROM/driverlib/epwm
     566 0000005d 8A42          MOVL      XAR4,*-SP[2]          ; [CPU_] |143| 
     567 0000005e CCC4          AND       AL,*+XAR4[0],#0xfc7f  ; [CPU_] |143| 
         0000005f FC7F 
     568 00000060 8A42          MOVL      XAR4,*-SP[2]          ; [CPU_] |143| 
     569 00000061 88A9          MOVZ      AR6,AL                ; [CPU_] |143| 
     570 00000062 5603          MOV       ACC,*-SP[3] << #7     ; [CPU_] |143| 
         00000063 0743 
     571 00000064 CAA6          OR        AL,AR6                ; [CPU_] |143| 
     572 00000065 96C4          MOV       *+XAR4[0],AL          ; [CPU_] |143| 
     573                      .dwpsn  file "C:/work/grepos/c2000_bootROM/f28004x_bootrom/F28004x_ROM_dev/F28004x_ROM/driverlib/epwm
     574 00000066 FE84          SUBB      SP,#4                 ; [CPU_U] 
     575                      .dwcfi  cfa_offset, -2
     576              $C$DW$46        .dwtag  DW_TAG_TI_branch
     577                      .dwattr $C$DW$46, DW_AT_low_pc(0x00)
     578                      .dwattr $C$DW$46, DW_AT_TI_return
     579 00000067 0006          LRETR     ; [CPU_] 
     580                      ; return occurs ; [] 
     581                      .dwattr $C$DW$41, DW_AT_TI_end_file("C:/work/grepos/c2000_bootROM/f28004x_bootrom/F28004x_ROM_dev/F28
     582                      .dwattr $C$DW$41, DW_AT_TI_end_line(0x91)
     583                      .dwattr $C$DW$41, DW_AT_TI_end_column(0x01)
     584                      .dwendentry
     585                      .dwendtag $C$DW$41
     586              
     587 00000068               .sect   ".text"
     588                      .clink
     589                      .global _EPWM_swForceSyncPulse
     590              
     591              $C$DW$47        .dwtag  DW_TAG_subprogram, DW_AT_name("EPWM_swForceSyncPulse")
     592                      .dwattr $C$DW$47, DW_AT_low_pc(_EPWM_swForceSyncPulse)
     593                      .dwattr $C$DW$47, DW_AT_high_pc(0x00)
     594                      .dwattr $C$DW$47, DW_AT_TI_symbol_name("_EPWM_swForceSyncPulse")
TMS320C2000 Assembler PC v6.2.9 Tue Apr 14 13:32:06 2015

Tools Copyright (c) 1996-2014 Texas Instruments Incorporated
C:\Users\a0272466\AppData\Local\Temp\0620410                         PAGE   12

     595                      .dwattr $C$DW$47, DW_AT_external
     596                      .dwattr $C$DW$47, DW_AT_TI_begin_file("C:/work/grepos/c2000_bootROM/f28004x_bootrom/F28004x_ROM_dev/F
     597                      .dwattr $C$DW$47, DW_AT_TI_begin_line(0x9f)
     598                      .dwattr $C$DW$47, DW_AT_TI_begin_column(0x06)
     599                      .dwattr $C$DW$47, DW_AT_TI_max_frame_size(-4)
     600                      .dwpsn  file "C:/work/grepos/c2000_bootROM/f28004x_bootrom/F28004x_ROM_dev/F28004x_ROM/driverlib/epwm
     601              
     602                      .dwfde $C$DW$CIE, _EPWM_swForceSyncPulse
     603              $C$DW$48        .dwtag  DW_TAG_formal_parameter, DW_AT_name("base")
     604                      .dwattr $C$DW$48, DW_AT_TI_symbol_name("_base")
     605                      .dwattr $C$DW$48, DW_AT_type(*$C$DW$T$136)
     606                      .dwattr $C$DW$48, DW_AT_location[DW_OP_reg0]
     607              
     608              ;***************************************************************
     609              ;* FNAME: _EPWM_swForceSyncPulse        FR SIZE:   2           *
     610              ;*                                                             *
     611              ;* FUNCTION ENVIRONMENT                                        *
     612              ;*                                                             *
     613              ;* FUNCTION PROPERTIES                                         *
     614              ;*                            0 Parameter,  2 Auto,  0 SOE     *
     615              ;***************************************************************
     616              
     617 00000068       _EPWM_swForceSyncPulse:
     618                      .dwcfi  cfa_offset, -2
     619                      .dwcfi  save_reg_to_mem, 26, 0
     620                      .dwcfi  save_reg_to_reg, 78, 26
     621 00000068 FE02          ADDB      SP,#2                 ; [CPU_U] 
     622                      .dwcfi  cfa_offset, -4
     623              $C$DW$49        .dwtag  DW_TAG_variable, DW_AT_name("base")
     624                      .dwattr $C$DW$49, DW_AT_TI_symbol_name("_base")
     625                      .dwattr $C$DW$49, DW_AT_type(*$C$DW$T$136)
     626                      .dwattr $C$DW$49, DW_AT_location[DW_OP_breg20 -2]
     627 00000069 1E42          MOVL      *-SP[2],ACC           ; [CPU_] |160| 
     628                      .dwpsn  file "C:/work/grepos/c2000_bootROM/f28004x_bootrom/F28004x_ROM_dev/F28004x_ROM/driverlib/epwm
     629 0000006a 8A42          MOVL      XAR4,*-SP[2]          ; [CPU_] |164| 
     630 0000006b 1AC4          OR        *+XAR4[0],#0x0040     ; [CPU_] |164| 
         0000006c 0040 
     631                      .dwpsn  file "C:/work/grepos/c2000_bootROM/f28004x_bootrom/F28004x_ROM_dev/F28004x_ROM/driverlib/epwm
     632 0000006d FE82          SUBB      SP,#2                 ; [CPU_U] 
     633                      .dwcfi  cfa_offset, -2
     634              $C$DW$50        .dwtag  DW_TAG_TI_branch
     635                      .dwattr $C$DW$50, DW_AT_low_pc(0x00)
     636                      .dwattr $C$DW$50, DW_AT_TI_return
     637 0000006e 0006          LRETR     ; [CPU_] 
     638                      ; return occurs ; [] 
     639                      .dwattr $C$DW$47, DW_AT_TI_end_file("C:/work/grepos/c2000_bootROM/f28004x_bootrom/F28004x_ROM_dev/F28
     640                      .dwattr $C$DW$47, DW_AT_TI_end_line(0xa5)
     641                      .dwattr $C$DW$47, DW_AT_TI_end_column(0x01)
     642                      .dwendentry
     643                      .dwendtag $C$DW$47
     644              
     645 0000006f               .sect   ".text"
     646                      .clink
     647                      .global _EPWM_setSyncOutPulseMode
     648              
TMS320C2000 Assembler PC v6.2.9 Tue Apr 14 13:32:06 2015

Tools Copyright (c) 1996-2014 Texas Instruments Incorporated
C:\Users\a0272466\AppData\Local\Temp\0620410                         PAGE   13

     649              $C$DW$51        .dwtag  DW_TAG_subprogram, DW_AT_name("EPWM_setSyncOutPulseMode")
     650                      .dwattr $C$DW$51, DW_AT_low_pc(_EPWM_setSyncOutPulseMode)
     651                      .dwattr $C$DW$51, DW_AT_high_pc(0x00)
     652                      .dwattr $C$DW$51, DW_AT_TI_symbol_name("_EPWM_setSyncOutPulseMode")
     653                      .dwattr $C$DW$51, DW_AT_external
     654                      .dwattr $C$DW$51, DW_AT_TI_begin_file("C:/work/grepos/c2000_bootROM/f28004x_bootrom/F28004x_ROM_dev/F
     655                      .dwattr $C$DW$51, DW_AT_TI_begin_line(0xbb)
     656                      .dwattr $C$DW$51, DW_AT_TI_begin_column(0x06)
     657                      .dwattr $C$DW$51, DW_AT_TI_max_frame_size(-6)
     658                      .dwpsn  file "C:/work/grepos/c2000_bootROM/f28004x_bootrom/F28004x_ROM_dev/F28004x_ROM/driverlib/epwm
     659              
     660                      .dwfde $C$DW$CIE, _EPWM_setSyncOutPulseMode
     661              $C$DW$52        .dwtag  DW_TAG_formal_parameter, DW_AT_name("base")
     662                      .dwattr $C$DW$52, DW_AT_TI_symbol_name("_base")
     663                      .dwattr $C$DW$52, DW_AT_type(*$C$DW$T$136)
     664                      .dwattr $C$DW$52, DW_AT_location[DW_OP_reg0]
     665              $C$DW$53        .dwtag  DW_TAG_formal_parameter, DW_AT_name("mode")
     666                      .dwattr $C$DW$53, DW_AT_TI_symbol_name("_mode")
     667                      .dwattr $C$DW$53, DW_AT_type(*$C$DW$T$26)
     668                      .dwattr $C$DW$53, DW_AT_location[DW_OP_reg12]
     669              
     670              ;***************************************************************
     671              ;* FNAME: _EPWM_setSyncOutPulseMode     FR SIZE:   4           *
     672              ;*                                                             *
     673              ;* FUNCTION ENVIRONMENT                                        *
     674              ;*                                                             *
     675              ;* FUNCTION PROPERTIES                                         *
     676              ;*                            0 Parameter,  3 Auto,  0 SOE     *
     677              ;***************************************************************
     678              
     679 0000006f       _EPWM_setSyncOutPulseMode:
     680                      .dwcfi  cfa_offset, -2
     681                      .dwcfi  save_reg_to_mem, 26, 0
     682                      .dwcfi  save_reg_to_reg, 78, 26
     683 0000006f FE04          ADDB      SP,#4                 ; [CPU_U] 
     684                      .dwcfi  cfa_offset, -6
     685              $C$DW$54        .dwtag  DW_TAG_variable, DW_AT_name("base")
     686                      .dwattr $C$DW$54, DW_AT_TI_symbol_name("_base")
     687                      .dwattr $C$DW$54, DW_AT_type(*$C$DW$T$136)
     688                      .dwattr $C$DW$54, DW_AT_location[DW_OP_breg20 -2]
     689              $C$DW$55        .dwtag  DW_TAG_variable, DW_AT_name("mode")
     690                      .dwattr $C$DW$55, DW_AT_TI_symbol_name("_mode")
     691                      .dwattr $C$DW$55, DW_AT_type(*$C$DW$T$26)
     692                      .dwattr $C$DW$55, DW_AT_location[DW_OP_breg20 -3]
     693 00000070 7C43          MOV       *-SP[3],AR4           ; [CPU_] |188| 
     694 00000071 1E42          MOVL      *-SP[2],ACC           ; [CPU_] |188| 
     695                      .dwpsn  file "C:/work/grepos/c2000_bootROM/f28004x_bootrom/F28004x_ROM_dev/F28004x_ROM/driverlib/epwm
     696 00000072 8A42          MOVL      XAR4,*-SP[2]          ; [CPU_] |192| 
     697 00000073 CCC4          AND       AL,*+XAR4[0],#0xffcf  ; [CPU_] |192| 
         00000074 FFCF 
     698 00000075 8A42          MOVL      XAR4,*-SP[2]          ; [CPU_] |192| 
     699 00000076 88A9          MOVZ      AR6,AL                ; [CPU_] |192| 
     700 00000077 5603          MOV       ACC,*-SP[3] << #4     ; [CPU_] |192| 
         00000078 0443 
     701 00000079 CAA6          OR        AL,AR6                ; [CPU_] |192| 
TMS320C2000 Assembler PC v6.2.9 Tue Apr 14 13:32:06 2015

Tools Copyright (c) 1996-2014 Texas Instruments Incorporated
C:\Users\a0272466\AppData\Local\Temp\0620410                         PAGE   14

     702 0000007a 96C4          MOV       *+XAR4[0],AL          ; [CPU_] |192| 
     703                      .dwpsn  file "C:/work/grepos/c2000_bootROM/f28004x_bootrom/F28004x_ROM_dev/F28004x_ROM/driverlib/epwm
     704 0000007b FE84          SUBB      SP,#4                 ; [CPU_U] 
     705                      .dwcfi  cfa_offset, -2
     706              $C$DW$56        .dwtag  DW_TAG_TI_branch
     707                      .dwattr $C$DW$56, DW_AT_low_pc(0x00)
     708                      .dwattr $C$DW$56, DW_AT_TI_return
     709 0000007c 0006          LRETR     ; [CPU_] 
     710                      ; return occurs ; [] 
     711                      .dwattr $C$DW$51, DW_AT_TI_end_file("C:/work/grepos/c2000_bootROM/f28004x_bootrom/F28004x_ROM_dev/F28
     712                      .dwattr $C$DW$51, DW_AT_TI_end_line(0xc2)
     713                      .dwattr $C$DW$51, DW_AT_TI_end_column(0x01)
     714                      .dwendentry
     715                      .dwendtag $C$DW$51
     716              
     717 0000007d               .sect   ".text"
     718                      .clink
     719                      .global _EPWM_setExtendedSyncPutPulseMode
     720              
     721              $C$DW$57        .dwtag  DW_TAG_subprogram, DW_AT_name("EPWM_setExtendedSyncPutPulseMode")
     722                      .dwattr $C$DW$57, DW_AT_low_pc(_EPWM_setExtendedSyncPutPulseMode)
     723                      .dwattr $C$DW$57, DW_AT_high_pc(0x00)
     724                      .dwattr $C$DW$57, DW_AT_TI_symbol_name("_EPWM_setExtendedSyncPutPulseMode")
     725                      .dwattr $C$DW$57, DW_AT_external
     726                      .dwattr $C$DW$57, DW_AT_TI_begin_file("C:/work/grepos/c2000_bootROM/f28004x_bootrom/F28004x_ROM_dev/F
     727                      .dwattr $C$DW$57, DW_AT_TI_begin_line(0xd6)
     728                      .dwattr $C$DW$57, DW_AT_TI_begin_column(0x06)
     729                      .dwattr $C$DW$57, DW_AT_TI_max_frame_size(-6)
     730                      .dwpsn  file "C:/work/grepos/c2000_bootROM/f28004x_bootrom/F28004x_ROM_dev/F28004x_ROM/driverlib/epwm
     731              
     732                      .dwfde $C$DW$CIE, _EPWM_setExtendedSyncPutPulseMode
     733              $C$DW$58        .dwtag  DW_TAG_formal_parameter, DW_AT_name("base")
     734                      .dwattr $C$DW$58, DW_AT_TI_symbol_name("_base")
     735                      .dwattr $C$DW$58, DW_AT_type(*$C$DW$T$136)
     736                      .dwattr $C$DW$58, DW_AT_location[DW_OP_reg0]
     737              $C$DW$59        .dwtag  DW_TAG_formal_parameter, DW_AT_name("mode")
     738                      .dwattr $C$DW$59, DW_AT_TI_symbol_name("_mode")
     739                      .dwattr $C$DW$59, DW_AT_type(*$C$DW$T$28)
     740                      .dwattr $C$DW$59, DW_AT_location[DW_OP_reg12]
     741              
     742              ;***************************************************************
     743              ;* FNAME: _EPWM_setExtendedSyncPutPulseMode FR SIZE:   4           *
     744              ;*                                                             *
     745              ;* FUNCTION ENVIRONMENT                                        *
     746              ;*                                                             *
     747              ;* FUNCTION PROPERTIES                                         *
     748              ;*                            0 Parameter,  3 Auto,  0 SOE     *
     749              ;***************************************************************
     750              
     751 0000007d       _EPWM_setExtendedSyncPutPulseMode:
     752                      .dwcfi  cfa_offset, -2
     753                      .dwcfi  save_reg_to_mem, 26, 0
     754                      .dwcfi  save_reg_to_reg, 78, 26
     755 0000007d FE04          ADDB      SP,#4                 ; [CPU_U] 
     756                      .dwcfi  cfa_offset, -6
TMS320C2000 Assembler PC v6.2.9 Tue Apr 14 13:32:06 2015

Tools Copyright (c) 1996-2014 Texas Instruments Incorporated
C:\Users\a0272466\AppData\Local\Temp\0620410                         PAGE   15

     757              $C$DW$60        .dwtag  DW_TAG_variable, DW_AT_name("base")
     758                      .dwattr $C$DW$60, DW_AT_TI_symbol_name("_base")
     759                      .dwattr $C$DW$60, DW_AT_type(*$C$DW$T$136)
     760                      .dwattr $C$DW$60, DW_AT_location[DW_OP_breg20 -2]
     761              $C$DW$61        .dwtag  DW_TAG_variable, DW_AT_name("mode")
     762                      .dwattr $C$DW$61, DW_AT_TI_symbol_name("_mode")
     763                      .dwattr $C$DW$61, DW_AT_type(*$C$DW$T$28)
     764                      .dwattr $C$DW$61, DW_AT_location[DW_OP_breg20 -3]
     765 0000007e 7C43          MOV       *-SP[3],AR4           ; [CPU_] |215| 
     766 0000007f 1E42          MOVL      *-SP[2],ACC           ; [CPU_] |215| 
     767                      .dwpsn  file "C:/work/grepos/c2000_bootROM/f28004x_bootrom/F28004x_ROM_dev/F28004x_ROM/driverlib/epwm
     768 00000080 0201          MOVB      ACC,#1                ; [CPU_] |219| 
     769 00000081 0742          ADDL      ACC,*-SP[2]           ; [CPU_] |219| 
     770 00000082 8AA9          MOVL      XAR4,ACC              ; [CPU_] |219| 
     771 00000083 CCC4          AND       AL,*+XAR4[0],#0xcfff  ; [CPU_] |219| 
         00000084 CFFF 
     772 00000085 80A9          MOVZ      AR7,AL                ; [CPU_] |219| 
     773 00000086 5603          MOV       ACC,*-SP[3] << #12    ; [CPU_] |219| 
         00000087 0C43 
     774 00000088 CAA7          OR        AL,AR7                ; [CPU_] |219| 
     775 00000089 88A9          MOVZ      AR6,AL                ; [CPU_] |219| 
     776 0000008a 0201          MOVB      ACC,#1                ; [CPU_] |219| 
     777 0000008b 0742          ADDL      ACC,*-SP[2]           ; [CPU_] |219| 
     778 0000008c 8AA9          MOVL      XAR4,ACC              ; [CPU_] |219| 
     779 0000008d 7EC4          MOV       *+XAR4[0],AR6         ; [CPU_] |219| 
     780                      .dwpsn  file "C:/work/grepos/c2000_bootROM/f28004x_bootrom/F28004x_ROM_dev/F28004x_ROM/driverlib/epwm
     781 0000008e FE84          SUBB      SP,#4                 ; [CPU_U] 
     782                      .dwcfi  cfa_offset, -2
     783              $C$DW$62        .dwtag  DW_TAG_TI_branch
     784                      .dwattr $C$DW$62, DW_AT_low_pc(0x00)
     785                      .dwattr $C$DW$62, DW_AT_TI_return
     786 0000008f 0006          LRETR     ; [CPU_] 
     787                      ; return occurs ; [] 
     788                      .dwattr $C$DW$57, DW_AT_TI_end_file("C:/work/grepos/c2000_bootROM/f28004x_bootrom/F28004x_ROM_dev/F28
     789                      .dwattr $C$DW$57, DW_AT_TI_end_line(0xdd)
     790                      .dwattr $C$DW$57, DW_AT_TI_end_column(0x01)
     791                      .dwendentry
     792                      .dwendtag $C$DW$57
     793              
     794 00000090               .sect   ".text"
     795                      .clink
     796                      .global _EPWM_setPeriodLoadMode
     797              
     798              $C$DW$63        .dwtag  DW_TAG_subprogram, DW_AT_name("EPWM_setPeriodLoadMode")
     799                      .dwattr $C$DW$63, DW_AT_low_pc(_EPWM_setPeriodLoadMode)
     800                      .dwattr $C$DW$63, DW_AT_high_pc(0x00)
     801                      .dwattr $C$DW$63, DW_AT_TI_symbol_name("_EPWM_setPeriodLoadMode")
     802                      .dwattr $C$DW$63, DW_AT_external
     803                      .dwattr $C$DW$63, DW_AT_TI_begin_file("C:/work/grepos/c2000_bootROM/f28004x_bootrom/F28004x_ROM_dev/F
     804                      .dwattr $C$DW$63, DW_AT_TI_begin_line(0xee)
     805                      .dwattr $C$DW$63, DW_AT_TI_begin_column(0x06)
     806                      .dwattr $C$DW$63, DW_AT_TI_max_frame_size(-6)
     807                      .dwpsn  file "C:/work/grepos/c2000_bootROM/f28004x_bootrom/F28004x_ROM_dev/F28004x_ROM/driverlib/epwm
     808              
     809                      .dwfde $C$DW$CIE, _EPWM_setPeriodLoadMode
TMS320C2000 Assembler PC v6.2.9 Tue Apr 14 13:32:06 2015

Tools Copyright (c) 1996-2014 Texas Instruments Incorporated
C:\Users\a0272466\AppData\Local\Temp\0620410                         PAGE   16

     810              $C$DW$64        .dwtag  DW_TAG_formal_parameter, DW_AT_name("base")
     811                      .dwattr $C$DW$64, DW_AT_TI_symbol_name("_base")
     812                      .dwattr $C$DW$64, DW_AT_type(*$C$DW$T$136)
     813                      .dwattr $C$DW$64, DW_AT_location[DW_OP_reg0]
     814              $C$DW$65        .dwtag  DW_TAG_formal_parameter, DW_AT_name("loadMode")
     815                      .dwattr $C$DW$65, DW_AT_TI_symbol_name("_loadMode")
     816                      .dwattr $C$DW$65, DW_AT_type(*$C$DW$T$30)
     817                      .dwattr $C$DW$65, DW_AT_location[DW_OP_reg12]
     818              
     819              ;***************************************************************
     820              ;* FNAME: _EPWM_setPeriodLoadMode       FR SIZE:   4           *
     821              ;*                                                             *
     822              ;* FUNCTION ENVIRONMENT                                        *
     823              ;*                                                             *
     824              ;* FUNCTION PROPERTIES                                         *
     825              ;*                            0 Parameter,  3 Auto,  0 SOE     *
     826              ;***************************************************************
     827              
     828 00000090       _EPWM_setPeriodLoadMode:
     829                      .dwcfi  cfa_offset, -2
     830                      .dwcfi  save_reg_to_mem, 26, 0
     831                      .dwcfi  save_reg_to_reg, 78, 26
     832 00000090 FE04          ADDB      SP,#4                 ; [CPU_U] 
     833                      .dwcfi  cfa_offset, -6
     834              $C$DW$66        .dwtag  DW_TAG_variable, DW_AT_name("base")
     835                      .dwattr $C$DW$66, DW_AT_TI_symbol_name("_base")
     836                      .dwattr $C$DW$66, DW_AT_type(*$C$DW$T$136)
     837                      .dwattr $C$DW$66, DW_AT_location[DW_OP_breg20 -2]
     838              $C$DW$67        .dwtag  DW_TAG_variable, DW_AT_name("loadMode")
     839                      .dwattr $C$DW$67, DW_AT_TI_symbol_name("_loadMode")
     840                      .dwattr $C$DW$67, DW_AT_type(*$C$DW$T$30)
     841                      .dwattr $C$DW$67, DW_AT_location[DW_OP_breg20 -3]
     842 00000091 7C43          MOV       *-SP[3],AR4           ; [CPU_] |239| 
     843 00000092 1E42          MOVL      *-SP[2],ACC           ; [CPU_] |239| 
     844                      .dwpsn  file "C:/work/grepos/c2000_bootROM/f28004x_bootrom/F28004x_ROM_dev/F28004x_ROM/driverlib/epwm
     845 00000093 9243          MOV       AL,*-SP[3]            ; [CPU_] |242| 
     846 00000094 ED05          BF        $C$L3,NEQ             ; [CPU_] |242| 
     847                      ; branchcc occurs ; [] |242| 
     848                      .dwpsn  file "C:/work/grepos/c2000_bootROM/f28004x_bootrom/F28004x_ROM_dev/F28004x_ROM/driverlib/epwm
     849 00000095 8A42          MOVL      XAR4,*-SP[2]          ; [CPU_] |245| 
     850 00000096 18C4          AND       *+XAR4[0],#0xfff7     ; [CPU_] |245| 
         00000097 FFF7 
     851                      .dwpsn  file "C:/work/grepos/c2000_bootROM/f28004x_bootrom/F28004x_ROM_dev/F28004x_ROM/driverlib/epwm
     852 00000098 6F04          B         $C$L4,UNC             ; [CPU_] |246| 
     853                      ; branch occurs ; [] |246| 
     854 00000099       $C$L3:    
     855                      .dwpsn  file "C:/work/grepos/c2000_bootROM/f28004x_bootrom/F28004x_ROM_dev/F28004x_ROM/driverlib/epwm
     856 00000099 8A42          MOVL      XAR4,*-SP[2]          ; [CPU_] |250| 
     857 0000009a 1AC4          OR        *+XAR4[0],#0x0008     ; [CPU_] |250| 
         0000009b 0008 
     858                      .dwpsn  file "C:/work/grepos/c2000_bootROM/f28004x_bootrom/F28004x_ROM_dev/F28004x_ROM/driverlib/epwm
     859 0000009c       $C$L4:    
     860 0000009c FE84          SUBB      SP,#4                 ; [CPU_U] 
     861                      .dwcfi  cfa_offset, -2
     862              $C$DW$68        .dwtag  DW_TAG_TI_branch
TMS320C2000 Assembler PC v6.2.9 Tue Apr 14 13:32:06 2015

Tools Copyright (c) 1996-2014 Texas Instruments Incorporated
C:\Users\a0272466\AppData\Local\Temp\0620410                         PAGE   17

     863                      .dwattr $C$DW$68, DW_AT_low_pc(0x00)
     864                      .dwattr $C$DW$68, DW_AT_TI_return
     865 0000009d 0006          LRETR     ; [CPU_] 
     866                      ; return occurs ; [] 
     867                      .dwattr $C$DW$63, DW_AT_TI_end_file("C:/work/grepos/c2000_bootROM/f28004x_bootrom/F28004x_ROM_dev/F28
     868                      .dwattr $C$DW$63, DW_AT_TI_end_line(0xfc)
     869                      .dwattr $C$DW$63, DW_AT_TI_end_column(0x01)
     870                      .dwendentry
     871                      .dwendtag $C$DW$63
     872              
     873 0000009e               .sect   ".text"
     874                      .clink
     875                      .global _EPWM_enablePhaseShiftLoad
     876              
     877              $C$DW$69        .dwtag  DW_TAG_subprogram, DW_AT_name("EPWM_enablePhaseShiftLoad")
     878                      .dwattr $C$DW$69, DW_AT_low_pc(_EPWM_enablePhaseShiftLoad)
     879                      .dwattr $C$DW$69, DW_AT_high_pc(0x00)
     880                      .dwattr $C$DW$69, DW_AT_TI_symbol_name("_EPWM_enablePhaseShiftLoad")
     881                      .dwattr $C$DW$69, DW_AT_external
     882                      .dwattr $C$DW$69, DW_AT_TI_begin_file("C:/work/grepos/c2000_bootROM/f28004x_bootrom/F28004x_ROM_dev/F
     883                      .dwattr $C$DW$69, DW_AT_TI_begin_line(0x109)
     884                      .dwattr $C$DW$69, DW_AT_TI_begin_column(0x06)
     885                      .dwattr $C$DW$69, DW_AT_TI_max_frame_size(-4)
     886                      .dwpsn  file "C:/work/grepos/c2000_bootROM/f28004x_bootrom/F28004x_ROM_dev/F28004x_ROM/driverlib/epwm
     887              
     888                      .dwfde $C$DW$CIE, _EPWM_enablePhaseShiftLoad
     889              $C$DW$70        .dwtag  DW_TAG_formal_parameter, DW_AT_name("base")
     890                      .dwattr $C$DW$70, DW_AT_TI_symbol_name("_base")
     891                      .dwattr $C$DW$70, DW_AT_type(*$C$DW$T$136)
     892                      .dwattr $C$DW$70, DW_AT_location[DW_OP_reg0]
     893              
     894              ;***************************************************************
     895              ;* FNAME: _EPWM_enablePhaseShiftLoad    FR SIZE:   2           *
     896              ;*                                                             *
     897              ;* FUNCTION ENVIRONMENT                                        *
     898              ;*                                                             *
     899              ;* FUNCTION PROPERTIES                                         *
     900              ;*                            0 Parameter,  2 Auto,  0 SOE     *
     901              ;***************************************************************
     902              
     903 0000009e       _EPWM_enablePhaseShiftLoad:
     904                      .dwcfi  cfa_offset, -2
     905                      .dwcfi  save_reg_to_mem, 26, 0
     906                      .dwcfi  save_reg_to_reg, 78, 26
     907 0000009e FE02          ADDB      SP,#2                 ; [CPU_U] 
     908                      .dwcfi  cfa_offset, -4
     909              $C$DW$71        .dwtag  DW_TAG_variable, DW_AT_name("base")
     910                      .dwattr $C$DW$71, DW_AT_TI_symbol_name("_base")
     911                      .dwattr $C$DW$71, DW_AT_type(*$C$DW$T$136)
     912                      .dwattr $C$DW$71, DW_AT_location[DW_OP_breg20 -2]
     913 0000009f 1E42          MOVL      *-SP[2],ACC           ; [CPU_] |266| 
     914                      .dwpsn  file "C:/work/grepos/c2000_bootROM/f28004x_bootrom/F28004x_ROM_dev/F28004x_ROM/driverlib/epwm
     915 000000a0 8A42          MOVL      XAR4,*-SP[2]          ; [CPU_] |269| 
     916 000000a1 1AC4          OR        *+XAR4[0],#0x0004     ; [CPU_] |269| 
         000000a2 0004 
TMS320C2000 Assembler PC v6.2.9 Tue Apr 14 13:32:06 2015

Tools Copyright (c) 1996-2014 Texas Instruments Incorporated
C:\Users\a0272466\AppData\Local\Temp\0620410                         PAGE   18

     917                      .dwpsn  file "C:/work/grepos/c2000_bootROM/f28004x_bootrom/F28004x_ROM_dev/F28004x_ROM/driverlib/epwm
     918 000000a3 FE82          SUBB      SP,#2                 ; [CPU_U] 
     919                      .dwcfi  cfa_offset, -2
     920              $C$DW$72        .dwtag  DW_TAG_TI_branch
     921                      .dwattr $C$DW$72, DW_AT_low_pc(0x00)
     922                      .dwattr $C$DW$72, DW_AT_TI_return
     923 000000a4 0006          LRETR     ; [CPU_] 
     924                      ; return occurs ; [] 
     925                      .dwattr $C$DW$69, DW_AT_TI_end_file("C:/work/grepos/c2000_bootROM/f28004x_bootrom/F28004x_ROM_dev/F28
     926                      .dwattr $C$DW$69, DW_AT_TI_end_line(0x10e)
     927                      .dwattr $C$DW$69, DW_AT_TI_end_column(0x01)
     928                      .dwendentry
     929                      .dwendtag $C$DW$69
     930              
     931 000000a5               .sect   ".text"
     932                      .clink
     933                      .global _EPWM_disablePhaseShiftLoad
     934              
     935              $C$DW$73        .dwtag  DW_TAG_subprogram, DW_AT_name("EPWM_disablePhaseShiftLoad")
     936                      .dwattr $C$DW$73, DW_AT_low_pc(_EPWM_disablePhaseShiftLoad)
     937                      .dwattr $C$DW$73, DW_AT_high_pc(0x00)
     938                      .dwattr $C$DW$73, DW_AT_TI_symbol_name("_EPWM_disablePhaseShiftLoad")
     939                      .dwattr $C$DW$73, DW_AT_external
     940                      .dwattr $C$DW$73, DW_AT_TI_begin_file("C:/work/grepos/c2000_bootROM/f28004x_bootrom/F28004x_ROM_dev/F
     941                      .dwattr $C$DW$73, DW_AT_TI_begin_line(0x11b)
     942                      .dwattr $C$DW$73, DW_AT_TI_begin_column(0x06)
     943                      .dwattr $C$DW$73, DW_AT_TI_max_frame_size(-4)
     944                      .dwpsn  file "C:/work/grepos/c2000_bootROM/f28004x_bootrom/F28004x_ROM_dev/F28004x_ROM/driverlib/epwm
     945              
     946                      .dwfde $C$DW$CIE, _EPWM_disablePhaseShiftLoad
     947              $C$DW$74        .dwtag  DW_TAG_formal_parameter, DW_AT_name("base")
     948                      .dwattr $C$DW$74, DW_AT_TI_symbol_name("_base")
     949                      .dwattr $C$DW$74, DW_AT_type(*$C$DW$T$136)
     950                      .dwattr $C$DW$74, DW_AT_location[DW_OP_reg0]
     951              
     952              ;***************************************************************
     953              ;* FNAME: _EPWM_disablePhaseShiftLoad   FR SIZE:   2           *
     954              ;*                                                             *
     955              ;* FUNCTION ENVIRONMENT                                        *
     956              ;*                                                             *
     957              ;* FUNCTION PROPERTIES                                         *
     958              ;*                            0 Parameter,  2 Auto,  0 SOE     *
     959              ;***************************************************************
     960              
     961 000000a5       _EPWM_disablePhaseShiftLoad:
     962                      .dwcfi  cfa_offset, -2
     963                      .dwcfi  save_reg_to_mem, 26, 0
     964                      .dwcfi  save_reg_to_reg, 78, 26
     965 000000a5 FE02          ADDB      SP,#2                 ; [CPU_U] 
     966                      .dwcfi  cfa_offset, -4
     967              $C$DW$75        .dwtag  DW_TAG_variable, DW_AT_name("base")
     968                      .dwattr $C$DW$75, DW_AT_TI_symbol_name("_base")
     969                      .dwattr $C$DW$75, DW_AT_type(*$C$DW$T$136)
     970                      .dwattr $C$DW$75, DW_AT_location[DW_OP_breg20 -2]
     971 000000a6 1E42          MOVL      *-SP[2],ACC           ; [CPU_] |284| 
TMS320C2000 Assembler PC v6.2.9 Tue Apr 14 13:32:06 2015

Tools Copyright (c) 1996-2014 Texas Instruments Incorporated
C:\Users\a0272466\AppData\Local\Temp\0620410                         PAGE   19

     972                      .dwpsn  file "C:/work/grepos/c2000_bootROM/f28004x_bootrom/F28004x_ROM_dev/F28004x_ROM/driverlib/epwm
     973 000000a7 8A42          MOVL      XAR4,*-SP[2]          ; [CPU_] |287| 
     974 000000a8 18C4          AND       *+XAR4[0],#0xfffb     ; [CPU_] |287| 
         000000a9 FFFB 
     975                      .dwpsn  file "C:/work/grepos/c2000_bootROM/f28004x_bootrom/F28004x_ROM_dev/F28004x_ROM/driverlib/epwm
     976 000000aa FE82          SUBB      SP,#2                 ; [CPU_U] 
     977                      .dwcfi  cfa_offset, -2
     978              $C$DW$76        .dwtag  DW_TAG_TI_branch
     979                      .dwattr $C$DW$76, DW_AT_low_pc(0x00)
     980                      .dwattr $C$DW$76, DW_AT_TI_return
     981 000000ab 0006          LRETR     ; [CPU_] 
     982                      ; return occurs ; [] 
     983                      .dwattr $C$DW$73, DW_AT_TI_end_file("C:/work/grepos/c2000_bootROM/f28004x_bootrom/F28004x_ROM_dev/F28
     984                      .dwattr $C$DW$73, DW_AT_TI_end_line(0x120)
     985                      .dwattr $C$DW$73, DW_AT_TI_end_column(0x01)
     986                      .dwendentry
     987                      .dwendtag $C$DW$73
     988              
     989 000000ac               .sect   ".text"
     990                      .clink
     991                      .global _EPWM_setTimeBaseCounterMode
     992              
     993              $C$DW$77        .dwtag  DW_TAG_subprogram, DW_AT_name("EPWM_setTimeBaseCounterMode")
     994                      .dwattr $C$DW$77, DW_AT_low_pc(_EPWM_setTimeBaseCounterMode)
     995                      .dwattr $C$DW$77, DW_AT_high_pc(0x00)
     996                      .dwattr $C$DW$77, DW_AT_TI_symbol_name("_EPWM_setTimeBaseCounterMode")
     997                      .dwattr $C$DW$77, DW_AT_external
     998                      .dwattr $C$DW$77, DW_AT_TI_begin_file("C:/work/grepos/c2000_bootROM/f28004x_bootrom/F28004x_ROM_dev/F
     999                      .dwattr $C$DW$77, DW_AT_TI_begin_line(0x132)
    1000                      .dwattr $C$DW$77, DW_AT_TI_begin_column(0x06)
    1001                      .dwattr $C$DW$77, DW_AT_TI_max_frame_size(-6)
    1002                      .dwpsn  file "C:/work/grepos/c2000_bootROM/f28004x_bootrom/F28004x_ROM_dev/F28004x_ROM/driverlib/epwm
    1003              
    1004                      .dwfde $C$DW$CIE, _EPWM_setTimeBaseCounterMode
    1005              $C$DW$78        .dwtag  DW_TAG_formal_parameter, DW_AT_name("base")
    1006                      .dwattr $C$DW$78, DW_AT_TI_symbol_name("_base")
    1007                      .dwattr $C$DW$78, DW_AT_type(*$C$DW$T$136)
    1008                      .dwattr $C$DW$78, DW_AT_location[DW_OP_reg0]
    1009              $C$DW$79        .dwtag  DW_TAG_formal_parameter, DW_AT_name("counterMode")
    1010                      .dwattr $C$DW$79, DW_AT_TI_symbol_name("_counterMode")
    1011                      .dwattr $C$DW$79, DW_AT_type(*$C$DW$T$32)
    1012                      .dwattr $C$DW$79, DW_AT_location[DW_OP_reg12]
    1013              
    1014              ;***************************************************************
    1015              ;* FNAME: _EPWM_setTimeBaseCounterMode  FR SIZE:   4           *
    1016              ;*                                                             *
    1017              ;* FUNCTION ENVIRONMENT                                        *
    1018              ;*                                                             *
    1019              ;* FUNCTION PROPERTIES                                         *
    1020              ;*                            0 Parameter,  3 Auto,  0 SOE     *
    1021              ;***************************************************************
    1022              
    1023 000000ac       _EPWM_setTimeBaseCounterMode:
    1024                      .dwcfi  cfa_offset, -2
    1025                      .dwcfi  save_reg_to_mem, 26, 0
TMS320C2000 Assembler PC v6.2.9 Tue Apr 14 13:32:06 2015

Tools Copyright (c) 1996-2014 Texas Instruments Incorporated
C:\Users\a0272466\AppData\Local\Temp\0620410                         PAGE   20

    1026                      .dwcfi  save_reg_to_reg, 78, 26
    1027 000000ac FE04          ADDB      SP,#4                 ; [CPU_U] 
    1028                      .dwcfi  cfa_offset, -6
    1029              $C$DW$80        .dwtag  DW_TAG_variable, DW_AT_name("base")
    1030                      .dwattr $C$DW$80, DW_AT_TI_symbol_name("_base")
    1031                      .dwattr $C$DW$80, DW_AT_type(*$C$DW$T$136)
    1032                      .dwattr $C$DW$80, DW_AT_location[DW_OP_breg20 -2]
    1033              $C$DW$81        .dwtag  DW_TAG_variable, DW_AT_name("counterMode")
    1034                      .dwattr $C$DW$81, DW_AT_TI_symbol_name("_counterMode")
    1035                      .dwattr $C$DW$81, DW_AT_type(*$C$DW$T$32)
    1036                      .dwattr $C$DW$81, DW_AT_location[DW_OP_breg20 -3]
    1037 000000ad 7C43          MOV       *-SP[3],AR4           ; [CPU_] |307| 
    1038 000000ae 1E42          MOVL      *-SP[2],ACC           ; [CPU_] |307| 
    1039                      .dwpsn  file "C:/work/grepos/c2000_bootROM/f28004x_bootrom/F28004x_ROM_dev/F28004x_ROM/driverlib/epwm
    1040 000000af 8A42          MOVL      XAR4,*-SP[2]          ; [CPU_] |311| 
    1041 000000b0 CCC4          AND       AL,*+XAR4[0],#0xfffc  ; [CPU_] |311| 
         000000b1 FFFC 
    1042 000000b2 8A42          MOVL      XAR4,*-SP[2]          ; [CPU_] |311| 
    1043 000000b3 CA43          OR        AL,*-SP[3]            ; [CPU_] |311| 
    1044 000000b4 96C4          MOV       *+XAR4[0],AL          ; [CPU_] |311| 
    1045                      .dwpsn  file "C:/work/grepos/c2000_bootROM/f28004x_bootrom/F28004x_ROM_dev/F28004x_ROM/driverlib/epwm
    1046 000000b5 FE84          SUBB      SP,#4                 ; [CPU_U] 
    1047                      .dwcfi  cfa_offset, -2
    1048              $C$DW$82        .dwtag  DW_TAG_TI_branch
    1049                      .dwattr $C$DW$82, DW_AT_low_pc(0x00)
    1050                      .dwattr $C$DW$82, DW_AT_TI_return
    1051 000000b6 0006          LRETR     ; [CPU_] 
    1052                      ; return occurs ; [] 
    1053                      .dwattr $C$DW$77, DW_AT_TI_end_file("C:/work/grepos/c2000_bootROM/f28004x_bootrom/F28004x_ROM_dev/F28
    1054                      .dwattr $C$DW$77, DW_AT_TI_end_line(0x139)
    1055                      .dwattr $C$DW$77, DW_AT_TI_end_column(0x01)
    1056                      .dwendentry
    1057                      .dwendtag $C$DW$77
    1058              
    1059 000000b7               .sect   ".text"
    1060                      .clink
    1061                      .global _EPWM_setPeriodShadowLoadMode
    1062              
    1063              $C$DW$83        .dwtag  DW_TAG_subprogram, DW_AT_name("EPWM_setPeriodShadowLoadMode")
    1064                      .dwattr $C$DW$83, DW_AT_low_pc(_EPWM_setPeriodShadowLoadMode)
    1065                      .dwattr $C$DW$83, DW_AT_high_pc(0x00)
    1066                      .dwattr $C$DW$83, DW_AT_TI_symbol_name("_EPWM_setPeriodShadowLoadMode")
    1067                      .dwattr $C$DW$83, DW_AT_external
    1068                      .dwattr $C$DW$83, DW_AT_TI_begin_file("C:/work/grepos/c2000_bootROM/f28004x_bootrom/F28004x_ROM_dev/F
    1069                      .dwattr $C$DW$83, DW_AT_TI_begin_line(0x14d)
    1070                      .dwattr $C$DW$83, DW_AT_TI_begin_column(0x06)
    1071                      .dwattr $C$DW$83, DW_AT_TI_max_frame_size(-6)
    1072                      .dwpsn  file "C:/work/grepos/c2000_bootROM/f28004x_bootrom/F28004x_ROM_dev/F28004x_ROM/driverlib/epwm
    1073              
    1074                      .dwfde $C$DW$CIE, _EPWM_setPeriodShadowLoadMode
    1075              $C$DW$84        .dwtag  DW_TAG_formal_parameter, DW_AT_name("base")
    1076                      .dwattr $C$DW$84, DW_AT_TI_symbol_name("_base")
    1077                      .dwattr $C$DW$84, DW_AT_type(*$C$DW$T$136)
    1078                      .dwattr $C$DW$84, DW_AT_location[DW_OP_reg0]
    1079              $C$DW$85        .dwtag  DW_TAG_formal_parameter, DW_AT_name("shadowLoadMode")
TMS320C2000 Assembler PC v6.2.9 Tue Apr 14 13:32:06 2015

Tools Copyright (c) 1996-2014 Texas Instruments Incorporated
C:\Users\a0272466\AppData\Local\Temp\0620410                         PAGE   21

    1080                      .dwattr $C$DW$85, DW_AT_TI_symbol_name("_shadowLoadMode")
    1081                      .dwattr $C$DW$85, DW_AT_type(*$C$DW$T$34)
    1082                      .dwattr $C$DW$85, DW_AT_location[DW_OP_reg12]
    1083              
    1084              ;***************************************************************
    1085              ;* FNAME: _EPWM_setPeriodShadowLoadMode FR SIZE:   4           *
    1086              ;*                                                             *
    1087              ;* FUNCTION ENVIRONMENT                                        *
    1088              ;*                                                             *
    1089              ;* FUNCTION PROPERTIES                                         *
    1090              ;*                            0 Parameter,  3 Auto,  0 SOE     *
    1091              ;***************************************************************
    1092              
    1093 000000b7       _EPWM_setPeriodShadowLoadMode:
    1094                      .dwcfi  cfa_offset, -2
    1095                      .dwcfi  save_reg_to_mem, 26, 0
    1096                      .dwcfi  save_reg_to_reg, 78, 26
    1097 000000b7 FE04          ADDB      SP,#4                 ; [CPU_U] 
    1098                      .dwcfi  cfa_offset, -6
    1099              $C$DW$86        .dwtag  DW_TAG_variable, DW_AT_name("base")
    1100                      .dwattr $C$DW$86, DW_AT_TI_symbol_name("_base")
    1101                      .dwattr $C$DW$86, DW_AT_type(*$C$DW$T$136)
    1102                      .dwattr $C$DW$86, DW_AT_location[DW_OP_breg20 -2]
    1103              $C$DW$87        .dwtag  DW_TAG_variable, DW_AT_name("shadowLoadMode")
    1104                      .dwattr $C$DW$87, DW_AT_TI_symbol_name("_shadowLoadMode")
    1105                      .dwattr $C$DW$87, DW_AT_type(*$C$DW$T$34)
    1106                      .dwattr $C$DW$87, DW_AT_location[DW_OP_breg20 -3]
    1107 000000b8 7C43          MOV       *-SP[3],AR4           ; [CPU_] |334| 
    1108 000000b9 1E42          MOVL      *-SP[2],ACC           ; [CPU_] |334| 
    1109                      .dwpsn  file "C:/work/grepos/c2000_bootROM/f28004x_bootrom/F28004x_ROM_dev/F28004x_ROM/driverlib/epwm
    1110 000000ba 0201          MOVB      ACC,#1                ; [CPU_] |338| 
    1111 000000bb 0742          ADDL      ACC,*-SP[2]           ; [CPU_] |338| 
    1112 000000bc 8AA9          MOVL      XAR4,ACC              ; [CPU_] |338| 
    1113 000000bd CCC4          AND       AL,*+XAR4[0],#0x3fff  ; [CPU_] |338| 
         000000be 3FFF 
    1114 000000bf 80A9          MOVZ      AR7,AL                ; [CPU_] |338| 
    1115 000000c0 5603          MOV       ACC,*-SP[3] << #14    ; [CPU_] |338| 
         000000c1 0E43 
    1116 000000c2 CAA7          OR        AL,AR7                ; [CPU_] |338| 
    1117 000000c3 88A9          MOVZ      AR6,AL                ; [CPU_] |338| 
    1118 000000c4 0201          MOVB      ACC,#1                ; [CPU_] |338| 
    1119 000000c5 0742          ADDL      ACC,*-SP[2]           ; [CPU_] |338| 
    1120 000000c6 8AA9          MOVL      XAR4,ACC              ; [CPU_] |338| 
    1121 000000c7 7EC4          MOV       *+XAR4[0],AR6         ; [CPU_] |338| 
    1122                      .dwpsn  file "C:/work/grepos/c2000_bootROM/f28004x_bootrom/F28004x_ROM_dev/F28004x_ROM/driverlib/epwm
    1123 000000c8 FE84          SUBB      SP,#4                 ; [CPU_U] 
    1124                      .dwcfi  cfa_offset, -2
    1125              $C$DW$88        .dwtag  DW_TAG_TI_branch
    1126                      .dwattr $C$DW$88, DW_AT_low_pc(0x00)
    1127                      .dwattr $C$DW$88, DW_AT_TI_return
    1128 000000c9 0006          LRETR     ; [CPU_] 
    1129                      ; return occurs ; [] 
    1130                      .dwattr $C$DW$83, DW_AT_TI_end_file("C:/work/grepos/c2000_bootROM/f28004x_bootrom/F28004x_ROM_dev/F28
    1131                      .dwattr $C$DW$83, DW_AT_TI_end_line(0x154)
    1132                      .dwattr $C$DW$83, DW_AT_TI_end_column(0x01)
TMS320C2000 Assembler PC v6.2.9 Tue Apr 14 13:32:06 2015

Tools Copyright (c) 1996-2014 Texas Instruments Incorporated
C:\Users\a0272466\AppData\Local\Temp\0620410                         PAGE   22

    1133                      .dwendentry
    1134                      .dwendtag $C$DW$83
    1135              
    1136 000000ca               .sect   ".text"
    1137                      .clink
    1138                      .global _EPWM_enableOneShotSync
    1139              
    1140              $C$DW$89        .dwtag  DW_TAG_subprogram, DW_AT_name("EPWM_enableOneShotSync")
    1141                      .dwattr $C$DW$89, DW_AT_low_pc(_EPWM_enableOneShotSync)
    1142                      .dwattr $C$DW$89, DW_AT_high_pc(0x00)
    1143                      .dwattr $C$DW$89, DW_AT_TI_symbol_name("_EPWM_enableOneShotSync")
    1144                      .dwattr $C$DW$89, DW_AT_external
    1145                      .dwattr $C$DW$89, DW_AT_TI_begin_file("C:/work/grepos/c2000_bootROM/f28004x_bootrom/F28004x_ROM_dev/F
    1146                      .dwattr $C$DW$89, DW_AT_TI_begin_line(0x160)
    1147                      .dwattr $C$DW$89, DW_AT_TI_begin_column(0x06)
    1148                      .dwattr $C$DW$89, DW_AT_TI_max_frame_size(-4)
    1149                      .dwpsn  file "C:/work/grepos/c2000_bootROM/f28004x_bootrom/F28004x_ROM_dev/F28004x_ROM/driverlib/epwm
    1150              
    1151                      .dwfde $C$DW$CIE, _EPWM_enableOneShotSync
    1152              $C$DW$90        .dwtag  DW_TAG_formal_parameter, DW_AT_name("base")
    1153                      .dwattr $C$DW$90, DW_AT_TI_symbol_name("_base")
    1154                      .dwattr $C$DW$90, DW_AT_type(*$C$DW$T$136)
    1155                      .dwattr $C$DW$90, DW_AT_location[DW_OP_reg0]
    1156              
    1157              ;***************************************************************
    1158              ;* FNAME: _EPWM_enableOneShotSync       FR SIZE:   2           *
    1159              ;*                                                             *
    1160              ;* FUNCTION ENVIRONMENT                                        *
    1161              ;*                                                             *
    1162              ;* FUNCTION PROPERTIES                                         *
    1163              ;*                            0 Parameter,  2 Auto,  0 SOE     *
    1164              ;***************************************************************
    1165              
    1166 000000ca       _EPWM_enableOneShotSync:
    1167                      .dwcfi  cfa_offset, -2
    1168                      .dwcfi  save_reg_to_mem, 26, 0
    1169                      .dwcfi  save_reg_to_reg, 78, 26
    1170 000000ca FE02          ADDB      SP,#2                 ; [CPU_U] 
    1171                      .dwcfi  cfa_offset, -4
    1172              $C$DW$91        .dwtag  DW_TAG_variable, DW_AT_name("base")
    1173                      .dwattr $C$DW$91, DW_AT_TI_symbol_name("_base")
    1174                      .dwattr $C$DW$91, DW_AT_type(*$C$DW$T$136)
    1175                      .dwattr $C$DW$91, DW_AT_location[DW_OP_breg20 -2]
    1176 000000cb 1E42          MOVL      *-SP[2],ACC           ; [CPU_] |353| 
    1177                      .dwpsn  file "C:/work/grepos/c2000_bootROM/f28004x_bootrom/F28004x_ROM_dev/F28004x_ROM/driverlib/epwm
    1178 000000cc 0201          MOVB      ACC,#1                ; [CPU_] |356| 
    1179 000000cd 0742          ADDL      ACC,*-SP[2]           ; [CPU_] |356| 
    1180 000000ce 8AA9          MOVL      XAR4,ACC              ; [CPU_] |356| 
    1181 000000cf 1AC4          OR        *+XAR4[0],#0x0040     ; [CPU_] |356| 
         000000d0 0040 
    1182                      .dwpsn  file "C:/work/grepos/c2000_bootROM/f28004x_bootrom/F28004x_ROM_dev/F28004x_ROM/driverlib/epwm
    1183 000000d1 FE82          SUBB      SP,#2                 ; [CPU_U] 
    1184                      .dwcfi  cfa_offset, -2
    1185              $C$DW$92        .dwtag  DW_TAG_TI_branch
    1186                      .dwattr $C$DW$92, DW_AT_low_pc(0x00)
TMS320C2000 Assembler PC v6.2.9 Tue Apr 14 13:32:06 2015

Tools Copyright (c) 1996-2014 Texas Instruments Incorporated
C:\Users\a0272466\AppData\Local\Temp\0620410                         PAGE   23

    1187                      .dwattr $C$DW$92, DW_AT_TI_return
    1188 000000d2 0006          LRETR     ; [CPU_] 
    1189                      ; return occurs ; [] 
    1190                      .dwattr $C$DW$89, DW_AT_TI_end_file("C:/work/grepos/c2000_bootROM/f28004x_bootrom/F28004x_ROM_dev/F28
    1191                      .dwattr $C$DW$89, DW_AT_TI_end_line(0x165)
    1192                      .dwattr $C$DW$89, DW_AT_TI_end_column(0x01)
    1193                      .dwendentry
    1194                      .dwendtag $C$DW$89
    1195              
    1196 000000d3               .sect   ".text"
    1197                      .clink
    1198                      .global _EPWM_disableOneShotSync
    1199              
    1200              $C$DW$93        .dwtag  DW_TAG_subprogram, DW_AT_name("EPWM_disableOneShotSync")
    1201                      .dwattr $C$DW$93, DW_AT_low_pc(_EPWM_disableOneShotSync)
    1202                      .dwattr $C$DW$93, DW_AT_high_pc(0x00)
    1203                      .dwattr $C$DW$93, DW_AT_TI_symbol_name("_EPWM_disableOneShotSync")
    1204                      .dwattr $C$DW$93, DW_AT_external
    1205                      .dwattr $C$DW$93, DW_AT_TI_begin_file("C:/work/grepos/c2000_bootROM/f28004x_bootrom/F28004x_ROM_dev/F
    1206                      .dwattr $C$DW$93, DW_AT_TI_begin_line(0x171)
    1207                      .dwattr $C$DW$93, DW_AT_TI_begin_column(0x06)
    1208                      .dwattr $C$DW$93, DW_AT_TI_max_frame_size(-4)
    1209                      .dwpsn  file "C:/work/grepos/c2000_bootROM/f28004x_bootrom/F28004x_ROM_dev/F28004x_ROM/driverlib/epwm
    1210              
    1211                      .dwfde $C$DW$CIE, _EPWM_disableOneShotSync
    1212              $C$DW$94        .dwtag  DW_TAG_formal_parameter, DW_AT_name("base")
    1213                      .dwattr $C$DW$94, DW_AT_TI_symbol_name("_base")
    1214                      .dwattr $C$DW$94, DW_AT_type(*$C$DW$T$136)
    1215                      .dwattr $C$DW$94, DW_AT_location[DW_OP_reg0]
    1216              
    1217              ;***************************************************************
    1218              ;* FNAME: _EPWM_disableOneShotSync      FR SIZE:   2           *
    1219              ;*                                                             *
    1220              ;* FUNCTION ENVIRONMENT                                        *
    1221              ;*                                                             *
    1222              ;* FUNCTION PROPERTIES                                         *
    1223              ;*                            0 Parameter,  2 Auto,  0 SOE     *
    1224              ;***************************************************************
    1225              
    1226 000000d3       _EPWM_disableOneShotSync:
    1227                      .dwcfi  cfa_offset, -2
    1228                      .dwcfi  save_reg_to_mem, 26, 0
    1229                      .dwcfi  save_reg_to_reg, 78, 26
    1230 000000d3 FE02          ADDB      SP,#2                 ; [CPU_U] 
    1231                      .dwcfi  cfa_offset, -4
    1232              $C$DW$95        .dwtag  DW_TAG_variable, DW_AT_name("base")
    1233                      .dwattr $C$DW$95, DW_AT_TI_symbol_name("_base")
    1234                      .dwattr $C$DW$95, DW_AT_type(*$C$DW$T$136)
    1235                      .dwattr $C$DW$95, DW_AT_location[DW_OP_breg20 -2]
    1236 000000d4 1E42          MOVL      *-SP[2],ACC           ; [CPU_] |370| 
    1237                      .dwpsn  file "C:/work/grepos/c2000_bootROM/f28004x_bootrom/F28004x_ROM_dev/F28004x_ROM/driverlib/epwm
    1238 000000d5 0201          MOVB      ACC,#1                ; [CPU_] |373| 
    1239 000000d6 0742          ADDL      ACC,*-SP[2]           ; [CPU_] |373| 
    1240 000000d7 8AA9          MOVL      XAR4,ACC              ; [CPU_] |373| 
    1241 000000d8 18C4          AND       *+XAR4[0],#0xffbf     ; [CPU_] |373| 
TMS320C2000 Assembler PC v6.2.9 Tue Apr 14 13:32:06 2015

Tools Copyright (c) 1996-2014 Texas Instruments Incorporated
C:\Users\a0272466\AppData\Local\Temp\0620410                         PAGE   24

         000000d9 FFBF 
    1242                      .dwpsn  file "C:/work/grepos/c2000_bootROM/f28004x_bootrom/F28004x_ROM_dev/F28004x_ROM/driverlib/epwm
    1243 000000da FE82          SUBB      SP,#2                 ; [CPU_U] 
    1244                      .dwcfi  cfa_offset, -2
    1245              $C$DW$96        .dwtag  DW_TAG_TI_branch
    1246                      .dwattr $C$DW$96, DW_AT_low_pc(0x00)
    1247                      .dwattr $C$DW$96, DW_AT_TI_return
    1248 000000db 0006          LRETR     ; [CPU_] 
    1249                      ; return occurs ; [] 
    1250                      .dwattr $C$DW$93, DW_AT_TI_end_file("C:/work/grepos/c2000_bootROM/f28004x_bootrom/F28004x_ROM_dev/F28
    1251                      .dwattr $C$DW$93, DW_AT_TI_end_line(0x176)
    1252                      .dwattr $C$DW$93, DW_AT_TI_end_column(0x01)
    1253                      .dwendentry
    1254                      .dwendtag $C$DW$93
    1255              
    1256 000000dc               .sect   ".text"
    1257                      .clink
    1258                      .global _EPWM_startOneShotSync
    1259              
    1260              $C$DW$97        .dwtag  DW_TAG_subprogram, DW_AT_name("EPWM_startOneShotSync")
    1261                      .dwattr $C$DW$97, DW_AT_low_pc(_EPWM_startOneShotSync)
    1262                      .dwattr $C$DW$97, DW_AT_high_pc(0x00)
    1263                      .dwattr $C$DW$97, DW_AT_TI_symbol_name("_EPWM_startOneShotSync")
    1264                      .dwattr $C$DW$97, DW_AT_external
    1265                      .dwattr $C$DW$97, DW_AT_TI_begin_file("C:/work/grepos/c2000_bootROM/f28004x_bootrom/F28004x_ROM_dev/F
    1266                      .dwattr $C$DW$97, DW_AT_TI_begin_line(0x182)
    1267                      .dwattr $C$DW$97, DW_AT_TI_begin_column(0x06)
    1268                      .dwattr $C$DW$97, DW_AT_TI_max_frame_size(-4)
    1269                      .dwpsn  file "C:/work/grepos/c2000_bootROM/f28004x_bootrom/F28004x_ROM_dev/F28004x_ROM/driverlib/epwm
    1270              
    1271                      .dwfde $C$DW$CIE, _EPWM_startOneShotSync
    1272              $C$DW$98        .dwtag  DW_TAG_formal_parameter, DW_AT_name("base")
    1273                      .dwattr $C$DW$98, DW_AT_TI_symbol_name("_base")
    1274                      .dwattr $C$DW$98, DW_AT_type(*$C$DW$T$136)
    1275                      .dwattr $C$DW$98, DW_AT_location[DW_OP_reg0]
    1276              
    1277              ;***************************************************************
    1278              ;* FNAME: _EPWM_startOneShotSync        FR SIZE:   2           *
    1279              ;*                                                             *
    1280              ;* FUNCTION ENVIRONMENT                                        *
    1281              ;*                                                             *
    1282              ;* FUNCTION PROPERTIES                                         *
    1283              ;*                            0 Parameter,  2 Auto,  0 SOE     *
    1284              ;***************************************************************
    1285              
    1286 000000dc       _EPWM_startOneShotSync:
    1287                      .dwcfi  cfa_offset, -2
    1288                      .dwcfi  save_reg_to_mem, 26, 0
    1289                      .dwcfi  save_reg_to_reg, 78, 26
    1290 000000dc FE02          ADDB      SP,#2                 ; [CPU_U] 
    1291                      .dwcfi  cfa_offset, -4
    1292              $C$DW$99        .dwtag  DW_TAG_variable, DW_AT_name("base")
    1293                      .dwattr $C$DW$99, DW_AT_TI_symbol_name("_base")
    1294                      .dwattr $C$DW$99, DW_AT_type(*$C$DW$T$136)
    1295                      .dwattr $C$DW$99, DW_AT_location[DW_OP_breg20 -2]
TMS320C2000 Assembler PC v6.2.9 Tue Apr 14 13:32:06 2015

Tools Copyright (c) 1996-2014 Texas Instruments Incorporated
C:\Users\a0272466\AppData\Local\Temp\0620410                         PAGE   25

    1296 000000dd 1E42          MOVL      *-SP[2],ACC           ; [CPU_] |387| 
    1297                      .dwpsn  file "C:/work/grepos/c2000_bootROM/f28004x_bootrom/F28004x_ROM_dev/F28004x_ROM/driverlib/epwm
    1298 000000de 0201          MOVB      ACC,#1                ; [CPU_] |390| 
    1299 000000df 0742          ADDL      ACC,*-SP[2]           ; [CPU_] |390| 
    1300 000000e0 8AA9          MOVL      XAR4,ACC              ; [CPU_] |390| 
    1301 000000e1 1AC4          OR        *+XAR4[0],#0x0080     ; [CPU_] |390| 
         000000e2 0080 
    1302                      .dwpsn  file "C:/work/grepos/c2000_bootROM/f28004x_bootrom/F28004x_ROM_dev/F28004x_ROM/driverlib/epwm
    1303 000000e3 FE82          SUBB      SP,#2                 ; [CPU_U] 
    1304                      .dwcfi  cfa_offset, -2
    1305              $C$DW$100       .dwtag  DW_TAG_TI_branch
    1306                      .dwattr $C$DW$100, DW_AT_low_pc(0x00)
    1307                      .dwattr $C$DW$100, DW_AT_TI_return
    1308 000000e4 0006          LRETR     ; [CPU_] 
    1309                      ; return occurs ; [] 
    1310                      .dwattr $C$DW$97, DW_AT_TI_end_file("C:/work/grepos/c2000_bootROM/f28004x_bootrom/F28004x_ROM_dev/F28
    1311                      .dwattr $C$DW$97, DW_AT_TI_end_line(0x187)
    1312                      .dwattr $C$DW$97, DW_AT_TI_end_column(0x01)
    1313                      .dwendentry
    1314                      .dwendtag $C$DW$97
    1315              
    1316 000000e5               .sect   ".text"
    1317                      .clink
    1318                      .global _EPWM_enableSyncLoopBack
    1319              
    1320              $C$DW$101       .dwtag  DW_TAG_subprogram, DW_AT_name("EPWM_enableSyncLoopBack")
    1321                      .dwattr $C$DW$101, DW_AT_low_pc(_EPWM_enableSyncLoopBack)
    1322                      .dwattr $C$DW$101, DW_AT_high_pc(0x00)
    1323                      .dwattr $C$DW$101, DW_AT_TI_symbol_name("_EPWM_enableSyncLoopBack")
    1324                      .dwattr $C$DW$101, DW_AT_external
    1325                      .dwattr $C$DW$101, DW_AT_TI_begin_file("C:/work/grepos/c2000_bootROM/f28004x_bootrom/F28004x_ROM_dev/
    1326                      .dwattr $C$DW$101, DW_AT_TI_begin_line(0x193)
    1327                      .dwattr $C$DW$101, DW_AT_TI_begin_column(0x06)
    1328                      .dwattr $C$DW$101, DW_AT_TI_max_frame_size(-4)
    1329                      .dwpsn  file "C:/work/grepos/c2000_bootROM/f28004x_bootrom/F28004x_ROM_dev/F28004x_ROM/driverlib/epwm
    1330              
    1331                      .dwfde $C$DW$CIE, _EPWM_enableSyncLoopBack
    1332              $C$DW$102       .dwtag  DW_TAG_formal_parameter, DW_AT_name("base")
    1333                      .dwattr $C$DW$102, DW_AT_TI_symbol_name("_base")
    1334                      .dwattr $C$DW$102, DW_AT_type(*$C$DW$T$136)
    1335                      .dwattr $C$DW$102, DW_AT_location[DW_OP_reg0]
    1336              
    1337              ;***************************************************************
    1338              ;* FNAME: _EPWM_enableSyncLoopBack      FR SIZE:   2           *
    1339              ;*                                                             *
    1340              ;* FUNCTION ENVIRONMENT                                        *
    1341              ;*                                                             *
    1342              ;* FUNCTION PROPERTIES                                         *
    1343              ;*                            0 Parameter,  2 Auto,  0 SOE     *
    1344              ;***************************************************************
    1345              
    1346 000000e5       _EPWM_enableSyncLoopBack:
    1347                      .dwcfi  cfa_offset, -2
    1348                      .dwcfi  save_reg_to_mem, 26, 0
    1349                      .dwcfi  save_reg_to_reg, 78, 26
TMS320C2000 Assembler PC v6.2.9 Tue Apr 14 13:32:06 2015

Tools Copyright (c) 1996-2014 Texas Instruments Incorporated
C:\Users\a0272466\AppData\Local\Temp\0620410                         PAGE   26

    1350 000000e5 FE02          ADDB      SP,#2                 ; [CPU_U] 
    1351                      .dwcfi  cfa_offset, -4
    1352              $C$DW$103       .dwtag  DW_TAG_variable, DW_AT_name("base")
    1353                      .dwattr $C$DW$103, DW_AT_TI_symbol_name("_base")
    1354                      .dwattr $C$DW$103, DW_AT_type(*$C$DW$T$136)
    1355                      .dwattr $C$DW$103, DW_AT_location[DW_OP_breg20 -2]
    1356 000000e6 1E42          MOVL      *-SP[2],ACC           ; [CPU_] |404| 
    1357                      .dwpsn  file "C:/work/grepos/c2000_bootROM/f28004x_bootrom/F28004x_ROM_dev/F28004x_ROM/driverlib/epwm
    1358 000000e7 0201          MOVB      ACC,#1                ; [CPU_] |407| 
    1359 000000e8 0742          ADDL      ACC,*-SP[2]           ; [CPU_] |407| 
    1360 000000e9 8AA9          MOVL      XAR4,ACC              ; [CPU_] |407| 
    1361 000000ea 1AC4          OR        *+XAR4[0],#0x0020     ; [CPU_] |407| 
         000000eb 0020 
    1362                      .dwpsn  file "C:/work/grepos/c2000_bootROM/f28004x_bootrom/F28004x_ROM_dev/F28004x_ROM/driverlib/epwm
    1363 000000ec FE82          SUBB      SP,#2                 ; [CPU_U] 
    1364                      .dwcfi  cfa_offset, -2
    1365              $C$DW$104       .dwtag  DW_TAG_TI_branch
    1366                      .dwattr $C$DW$104, DW_AT_low_pc(0x00)
    1367                      .dwattr $C$DW$104, DW_AT_TI_return
    1368 000000ed 0006          LRETR     ; [CPU_] 
    1369                      ; return occurs ; [] 
    1370                      .dwattr $C$DW$101, DW_AT_TI_end_file("C:/work/grepos/c2000_bootROM/f28004x_bootrom/F28004x_ROM_dev/F2
    1371                      .dwattr $C$DW$101, DW_AT_TI_end_line(0x198)
    1372                      .dwattr $C$DW$101, DW_AT_TI_end_column(0x01)
    1373                      .dwendentry
    1374                      .dwendtag $C$DW$101
    1375              
    1376 000000ee               .sect   ".text"
    1377                      .clink
    1378                      .global _EPWM_disableSyncLoopBack
    1379              
    1380              $C$DW$105       .dwtag  DW_TAG_subprogram, DW_AT_name("EPWM_disableSyncLoopBack")
    1381                      .dwattr $C$DW$105, DW_AT_low_pc(_EPWM_disableSyncLoopBack)
    1382                      .dwattr $C$DW$105, DW_AT_high_pc(0x00)
    1383                      .dwattr $C$DW$105, DW_AT_TI_symbol_name("_EPWM_disableSyncLoopBack")
    1384                      .dwattr $C$DW$105, DW_AT_external
    1385                      .dwattr $C$DW$105, DW_AT_TI_begin_file("C:/work/grepos/c2000_bootROM/f28004x_bootrom/F28004x_ROM_dev/
    1386                      .dwattr $C$DW$105, DW_AT_TI_begin_line(0x1a4)
    1387                      .dwattr $C$DW$105, DW_AT_TI_begin_column(0x06)
    1388                      .dwattr $C$DW$105, DW_AT_TI_max_frame_size(-4)
    1389                      .dwpsn  file "C:/work/grepos/c2000_bootROM/f28004x_bootrom/F28004x_ROM_dev/F28004x_ROM/driverlib/epwm
    1390              
    1391                      .dwfde $C$DW$CIE, _EPWM_disableSyncLoopBack
    1392              $C$DW$106       .dwtag  DW_TAG_formal_parameter, DW_AT_name("base")
    1393                      .dwattr $C$DW$106, DW_AT_TI_symbol_name("_base")
    1394                      .dwattr $C$DW$106, DW_AT_type(*$C$DW$T$136)
    1395                      .dwattr $C$DW$106, DW_AT_location[DW_OP_reg0]
    1396              
    1397              ;***************************************************************
    1398              ;* FNAME: _EPWM_disableSyncLoopBack     FR SIZE:   2           *
    1399              ;*                                                             *
    1400              ;* FUNCTION ENVIRONMENT                                        *
    1401              ;*                                                             *
    1402              ;* FUNCTION PROPERTIES                                         *
    1403              ;*                            0 Parameter,  2 Auto,  0 SOE     *
TMS320C2000 Assembler PC v6.2.9 Tue Apr 14 13:32:06 2015

Tools Copyright (c) 1996-2014 Texas Instruments Incorporated
C:\Users\a0272466\AppData\Local\Temp\0620410                         PAGE   27

    1404              ;***************************************************************
    1405              
    1406 000000ee       _EPWM_disableSyncLoopBack:
    1407                      .dwcfi  cfa_offset, -2
    1408                      .dwcfi  save_reg_to_mem, 26, 0
    1409                      .dwcfi  save_reg_to_reg, 78, 26
    1410 000000ee FE02          ADDB      SP,#2                 ; [CPU_U] 
    1411                      .dwcfi  cfa_offset, -4
    1412              $C$DW$107       .dwtag  DW_TAG_variable, DW_AT_name("base")
    1413                      .dwattr $C$DW$107, DW_AT_TI_symbol_name("_base")
    1414                      .dwattr $C$DW$107, DW_AT_type(*$C$DW$T$136)
    1415                      .dwattr $C$DW$107, DW_AT_location[DW_OP_breg20 -2]
    1416 000000ef 1E42          MOVL      *-SP[2],ACC           ; [CPU_] |421| 
    1417                      .dwpsn  file "C:/work/grepos/c2000_bootROM/f28004x_bootrom/F28004x_ROM_dev/F28004x_ROM/driverlib/epwm
    1418 000000f0 0201          MOVB      ACC,#1                ; [CPU_] |424| 
    1419 000000f1 0742          ADDL      ACC,*-SP[2]           ; [CPU_] |424| 
    1420 000000f2 8AA9          MOVL      XAR4,ACC              ; [CPU_] |424| 
    1421 000000f3 18C4          AND       *+XAR4[0],#0xffdf     ; [CPU_] |424| 
         000000f4 FFDF 
    1422                      .dwpsn  file "C:/work/grepos/c2000_bootROM/f28004x_bootrom/F28004x_ROM_dev/F28004x_ROM/driverlib/epwm
    1423 000000f5 FE82          SUBB      SP,#2                 ; [CPU_U] 
    1424                      .dwcfi  cfa_offset, -2
    1425              $C$DW$108       .dwtag  DW_TAG_TI_branch
    1426                      .dwattr $C$DW$108, DW_AT_low_pc(0x00)
    1427                      .dwattr $C$DW$108, DW_AT_TI_return
    1428 000000f6 0006          LRETR     ; [CPU_] 
    1429                      ; return occurs ; [] 
    1430                      .dwattr $C$DW$105, DW_AT_TI_end_file("C:/work/grepos/c2000_bootROM/f28004x_bootrom/F28004x_ROM_dev/F2
    1431                      .dwattr $C$DW$105, DW_AT_TI_end_line(0x1a9)
    1432                      .dwattr $C$DW$105, DW_AT_TI_end_column(0x01)
    1433                      .dwendentry
    1434                      .dwendtag $C$DW$105
    1435              
    1436 000000f7               .sect   ".text"
    1437                      .clink
    1438                      .global _EPWM_getTimeBaseCounterStatus
    1439              
    1440              $C$DW$109       .dwtag  DW_TAG_subprogram, DW_AT_name("EPWM_getTimeBaseCounterStatus")
    1441                      .dwattr $C$DW$109, DW_AT_low_pc(_EPWM_getTimeBaseCounterStatus)
    1442                      .dwattr $C$DW$109, DW_AT_high_pc(0x00)
    1443                      .dwattr $C$DW$109, DW_AT_TI_symbol_name("_EPWM_getTimeBaseCounterStatus")
    1444                      .dwattr $C$DW$109, DW_AT_external
    1445                      .dwattr $C$DW$109, DW_AT_type(*$C$DW$T$141)
    1446                      .dwattr $C$DW$109, DW_AT_TI_begin_file("C:/work/grepos/c2000_bootROM/f28004x_bootrom/F28004x_ROM_dev/
    1447                      .dwattr $C$DW$109, DW_AT_TI_begin_line(0x1b7)
    1448                      .dwattr $C$DW$109, DW_AT_TI_begin_column(0x0a)
    1449                      .dwattr $C$DW$109, DW_AT_TI_max_frame_size(-4)
    1450                      .dwpsn  file "C:/work/grepos/c2000_bootROM/f28004x_bootrom/F28004x_ROM_dev/F28004x_ROM/driverlib/epwm
    1451              
    1452                      .dwfde $C$DW$CIE, _EPWM_getTimeBaseCounterStatus
    1453              $C$DW$110       .dwtag  DW_TAG_formal_parameter, DW_AT_name("base")
    1454                      .dwattr $C$DW$110, DW_AT_TI_symbol_name("_base")
    1455                      .dwattr $C$DW$110, DW_AT_type(*$C$DW$T$136)
    1456                      .dwattr $C$DW$110, DW_AT_location[DW_OP_reg0]
    1457              
TMS320C2000 Assembler PC v6.2.9 Tue Apr 14 13:32:06 2015

Tools Copyright (c) 1996-2014 Texas Instruments Incorporated
C:\Users\a0272466\AppData\Local\Temp\0620410                         PAGE   28

    1458              ;***************************************************************
    1459              ;* FNAME: _EPWM_getTimeBaseCounterStatus FR SIZE:   2           *
    1460              ;*                                                             *
    1461              ;* FUNCTION ENVIRONMENT                                        *
    1462              ;*                                                             *
    1463              ;* FUNCTION PROPERTIES                                         *
    1464              ;*                            0 Parameter,  2 Auto,  0 SOE     *
    1465              ;***************************************************************
    1466              
    1467 000000f7       _EPWM_getTimeBaseCounterStatus:
    1468                      .dwcfi  cfa_offset, -2
    1469                      .dwcfi  save_reg_to_mem, 26, 0
    1470                      .dwcfi  save_reg_to_reg, 78, 26
    1471 000000f7 FE02          ADDB      SP,#2                 ; [CPU_U] 
    1472                      .dwcfi  cfa_offset, -4
    1473              $C$DW$111       .dwtag  DW_TAG_variable, DW_AT_name("base")
    1474                      .dwattr $C$DW$111, DW_AT_TI_symbol_name("_base")
    1475                      .dwattr $C$DW$111, DW_AT_type(*$C$DW$T$136)
    1476                      .dwattr $C$DW$111, DW_AT_location[DW_OP_breg20 -2]
    1477 000000f8 1E42          MOVL      *-SP[2],ACC           ; [CPU_] |440| 
    1478                      .dwpsn  file "C:/work/grepos/c2000_bootROM/f28004x_bootrom/F28004x_ROM_dev/F28004x_ROM/driverlib/epwm
    1479 000000f9 0205          MOVB      ACC,#5                ; [CPU_] |443| 
    1480 000000fa 0742          ADDL      ACC,*-SP[2]           ; [CPU_] |443| 
    1481 000000fb 8AA9          MOVL      XAR4,ACC              ; [CPU_] |443| 
    1482 000000fc CCC4          AND       AL,*+XAR4[0],#0x0004  ; [CPU_] |443| 
         000000fd 0004 
    1483                      .dwpsn  file "C:/work/grepos/c2000_bootROM/f28004x_bootrom/F28004x_ROM_dev/F28004x_ROM/driverlib/epwm
    1484 000000fe FE82          SUBB      SP,#2                 ; [CPU_U] 
    1485                      .dwcfi  cfa_offset, -2
    1486              $C$DW$112       .dwtag  DW_TAG_TI_branch
    1487                      .dwattr $C$DW$112, DW_AT_low_pc(0x00)
    1488                      .dwattr $C$DW$112, DW_AT_TI_return
    1489 000000ff 0006          LRETR     ; [CPU_] 
    1490                      ; return occurs ; [] 
    1491                      .dwattr $C$DW$109, DW_AT_TI_end_file("C:/work/grepos/c2000_bootROM/f28004x_bootrom/F28004x_ROM_dev/F2
    1492                      .dwattr $C$DW$109, DW_AT_TI_end_line(0x1bc)
    1493                      .dwattr $C$DW$109, DW_AT_TI_end_column(0x01)
    1494                      .dwendentry
    1495                      .dwendtag $C$DW$109
    1496              
    1497 00000100               .sect   ".text"
    1498                      .clink
    1499                      .global _EPWM_clearTimeBaseCountMaxEvent
    1500              
    1501              $C$DW$113       .dwtag  DW_TAG_subprogram, DW_AT_name("EPWM_clearTimeBaseCountMaxEvent")
    1502                      .dwattr $C$DW$113, DW_AT_low_pc(_EPWM_clearTimeBaseCountMaxEvent)
    1503                      .dwattr $C$DW$113, DW_AT_high_pc(0x00)
    1504                      .dwattr $C$DW$113, DW_AT_TI_symbol_name("_EPWM_clearTimeBaseCountMaxEvent")
    1505                      .dwattr $C$DW$113, DW_AT_external
    1506                      .dwattr $C$DW$113, DW_AT_TI_begin_file("C:/work/grepos/c2000_bootROM/f28004x_bootrom/F28004x_ROM_dev/
    1507                      .dwattr $C$DW$113, DW_AT_TI_begin_line(0x1c9)
    1508                      .dwattr $C$DW$113, DW_AT_TI_begin_column(0x06)
    1509                      .dwattr $C$DW$113, DW_AT_TI_max_frame_size(-4)
    1510                      .dwpsn  file "C:/work/grepos/c2000_bootROM/f28004x_bootrom/F28004x_ROM_dev/F28004x_ROM/driverlib/epwm
    1511              
TMS320C2000 Assembler PC v6.2.9 Tue Apr 14 13:32:06 2015

Tools Copyright (c) 1996-2014 Texas Instruments Incorporated
C:\Users\a0272466\AppData\Local\Temp\0620410                         PAGE   29

    1512                      .dwfde $C$DW$CIE, _EPWM_clearTimeBaseCountMaxEvent
    1513              $C$DW$114       .dwtag  DW_TAG_formal_parameter, DW_AT_name("base")
    1514                      .dwattr $C$DW$114, DW_AT_TI_symbol_name("_base")
    1515                      .dwattr $C$DW$114, DW_AT_type(*$C$DW$T$136)
    1516                      .dwattr $C$DW$114, DW_AT_location[DW_OP_reg0]
    1517              
    1518              ;***************************************************************
    1519              ;* FNAME: _EPWM_clearTimeBaseCountMaxEvent FR SIZE:   2           *
    1520              ;*                                                             *
    1521              ;* FUNCTION ENVIRONMENT                                        *
    1522              ;*                                                             *
    1523              ;* FUNCTION PROPERTIES                                         *
    1524              ;*                            0 Parameter,  2 Auto,  0 SOE     *
    1525              ;***************************************************************
    1526              
    1527 00000100       _EPWM_clearTimeBaseCountMaxEvent:
    1528                      .dwcfi  cfa_offset, -2
    1529                      .dwcfi  save_reg_to_mem, 26, 0
    1530                      .dwcfi  save_reg_to_reg, 78, 26
    1531 00000100 FE02          ADDB      SP,#2                 ; [CPU_U] 
    1532                      .dwcfi  cfa_offset, -4
    1533              $C$DW$115       .dwtag  DW_TAG_variable, DW_AT_name("base")
    1534                      .dwattr $C$DW$115, DW_AT_TI_symbol_name("_base")
    1535                      .dwattr $C$DW$115, DW_AT_type(*$C$DW$T$136)
    1536                      .dwattr $C$DW$115, DW_AT_location[DW_OP_breg20 -2]
    1537 00000101 1E42          MOVL      *-SP[2],ACC           ; [CPU_] |458| 
    1538                      .dwpsn  file "C:/work/grepos/c2000_bootROM/f28004x_bootrom/F28004x_ROM_dev/F28004x_ROM/driverlib/epwm
    1539 00000102 0205          MOVB      ACC,#5                ; [CPU_] |461| 
    1540 00000103 0742          ADDL      ACC,*-SP[2]           ; [CPU_] |461| 
    1541 00000104 8AA9          MOVL      XAR4,ACC              ; [CPU_] |461| 
    1542 00000105 1AC4          OR        *+XAR4[0],#0x0004     ; [CPU_] |461| 
         00000106 0004 
    1543                      .dwpsn  file "C:/work/grepos/c2000_bootROM/f28004x_bootrom/F28004x_ROM_dev/F28004x_ROM/driverlib/epwm
    1544 00000107 FE82          SUBB      SP,#2                 ; [CPU_U] 
    1545                      .dwcfi  cfa_offset, -2
    1546              $C$DW$116       .dwtag  DW_TAG_TI_branch
    1547                      .dwattr $C$DW$116, DW_AT_low_pc(0x00)
    1548                      .dwattr $C$DW$116, DW_AT_TI_return
    1549 00000108 0006          LRETR     ; [CPU_] 
    1550                      ; return occurs ; [] 
    1551                      .dwattr $C$DW$113, DW_AT_TI_end_file("C:/work/grepos/c2000_bootROM/f28004x_bootrom/F28004x_ROM_dev/F2
    1552                      .dwattr $C$DW$113, DW_AT_TI_end_line(0x1ce)
    1553                      .dwattr $C$DW$113, DW_AT_TI_end_column(0x01)
    1554                      .dwendentry
    1555                      .dwendtag $C$DW$113
    1556              
    1557 00000109               .sect   ".text"
    1558                      .clink
    1559                      .global _EPWM_getExtSyncStatus
    1560              
    1561              $C$DW$117       .dwtag  DW_TAG_subprogram, DW_AT_name("EPWM_getExtSyncStatus")
    1562                      .dwattr $C$DW$117, DW_AT_low_pc(_EPWM_getExtSyncStatus)
    1563                      .dwattr $C$DW$117, DW_AT_high_pc(0x00)
    1564                      .dwattr $C$DW$117, DW_AT_TI_symbol_name("_EPWM_getExtSyncStatus")
    1565                      .dwattr $C$DW$117, DW_AT_external
TMS320C2000 Assembler PC v6.2.9 Tue Apr 14 13:32:06 2015

Tools Copyright (c) 1996-2014 Texas Instruments Incorporated
C:\Users\a0272466\AppData\Local\Temp\0620410                         PAGE   30

    1566                      .dwattr $C$DW$117, DW_AT_type(*$C$DW$T$141)
    1567                      .dwattr $C$DW$117, DW_AT_TI_begin_file("C:/work/grepos/c2000_bootROM/f28004x_bootrom/F28004x_ROM_dev/
    1568                      .dwattr $C$DW$117, DW_AT_TI_begin_line(0x1db)
    1569                      .dwattr $C$DW$117, DW_AT_TI_begin_column(0x0a)
    1570                      .dwattr $C$DW$117, DW_AT_TI_max_frame_size(-4)
    1571                      .dwpsn  file "C:/work/grepos/c2000_bootROM/f28004x_bootrom/F28004x_ROM_dev/F28004x_ROM/driverlib/epwm
    1572              
    1573                      .dwfde $C$DW$CIE, _EPWM_getExtSyncStatus
    1574              $C$DW$118       .dwtag  DW_TAG_formal_parameter, DW_AT_name("base")
    1575                      .dwattr $C$DW$118, DW_AT_TI_symbol_name("_base")
    1576                      .dwattr $C$DW$118, DW_AT_type(*$C$DW$T$136)
    1577                      .dwattr $C$DW$118, DW_AT_location[DW_OP_reg0]
    1578              
    1579              ;***************************************************************
    1580              ;* FNAME: _EPWM_getExtSyncStatus        FR SIZE:   2           *
    1581              ;*                                                             *
    1582              ;* FUNCTION ENVIRONMENT                                        *
    1583              ;*                                                             *
    1584              ;* FUNCTION PROPERTIES                                         *
    1585              ;*                            0 Parameter,  2 Auto,  0 SOE     *
    1586              ;***************************************************************
    1587              
    1588 00000109       _EPWM_getExtSyncStatus:
    1589                      .dwcfi  cfa_offset, -2
    1590                      .dwcfi  save_reg_to_mem, 26, 0
    1591                      .dwcfi  save_reg_to_reg, 78, 26
    1592 00000109 FE02          ADDB      SP,#2                 ; [CPU_U] 
    1593                      .dwcfi  cfa_offset, -4
    1594              $C$DW$119       .dwtag  DW_TAG_variable, DW_AT_name("base")
    1595                      .dwattr $C$DW$119, DW_AT_TI_symbol_name("_base")
    1596                      .dwattr $C$DW$119, DW_AT_type(*$C$DW$T$136)
    1597                      .dwattr $C$DW$119, DW_AT_location[DW_OP_breg20 -2]
    1598 0000010a 1E42          MOVL      *-SP[2],ACC           ; [CPU_] |476| 
    1599                      .dwpsn  file "C:/work/grepos/c2000_bootROM/f28004x_bootrom/F28004x_ROM_dev/F28004x_ROM/driverlib/epwm
    1600 0000010b 0205          MOVB      ACC,#5                ; [CPU_] |479| 
    1601 0000010c 0742          ADDL      ACC,*-SP[2]           ; [CPU_] |479| 
    1602 0000010d 8AA9          MOVL      XAR4,ACC              ; [CPU_] |479| 
    1603 0000010e CCC4          AND       AL,*+XAR4[0],#0x0002  ; [CPU_] |479| 
         0000010f 0002 
    1604                      .dwpsn  file "C:/work/grepos/c2000_bootROM/f28004x_bootrom/F28004x_ROM_dev/F28004x_ROM/driverlib/epwm
    1605 00000110 FE82          SUBB      SP,#2                 ; [CPU_U] 
    1606                      .dwcfi  cfa_offset, -2
    1607              $C$DW$120       .dwtag  DW_TAG_TI_branch
    1608                      .dwattr $C$DW$120, DW_AT_low_pc(0x00)
    1609                      .dwattr $C$DW$120, DW_AT_TI_return
    1610 00000111 0006          LRETR     ; [CPU_] 
    1611                      ; return occurs ; [] 
    1612                      .dwattr $C$DW$117, DW_AT_TI_end_file("C:/work/grepos/c2000_bootROM/f28004x_bootrom/F28004x_ROM_dev/F2
    1613                      .dwattr $C$DW$117, DW_AT_TI_end_line(0x1e0)
    1614                      .dwattr $C$DW$117, DW_AT_TI_end_column(0x01)
    1615                      .dwendentry
    1616                      .dwendtag $C$DW$117
    1617              
    1618 00000112               .sect   ".text"
    1619                      .clink
TMS320C2000 Assembler PC v6.2.9 Tue Apr 14 13:32:06 2015

Tools Copyright (c) 1996-2014 Texas Instruments Incorporated
C:\Users\a0272466\AppData\Local\Temp\0620410                         PAGE   31

    1620                      .global _EPWM_clearExtSyncEvent
    1621              
    1622              $C$DW$121       .dwtag  DW_TAG_subprogram, DW_AT_name("EPWM_clearExtSyncEvent")
    1623                      .dwattr $C$DW$121, DW_AT_low_pc(_EPWM_clearExtSyncEvent)
    1624                      .dwattr $C$DW$121, DW_AT_high_pc(0x00)
    1625                      .dwattr $C$DW$121, DW_AT_TI_symbol_name("_EPWM_clearExtSyncEvent")
    1626                      .dwattr $C$DW$121, DW_AT_external
    1627                      .dwattr $C$DW$121, DW_AT_TI_begin_file("C:/work/grepos/c2000_bootROM/f28004x_bootrom/F28004x_ROM_dev/
    1628                      .dwattr $C$DW$121, DW_AT_TI_begin_line(0x1ec)
    1629                      .dwattr $C$DW$121, DW_AT_TI_begin_column(0x06)
    1630                      .dwattr $C$DW$121, DW_AT_TI_max_frame_size(-4)
    1631                      .dwpsn  file "C:/work/grepos/c2000_bootROM/f28004x_bootrom/F28004x_ROM_dev/F28004x_ROM/driverlib/epwm
    1632              
    1633                      .dwfde $C$DW$CIE, _EPWM_clearExtSyncEvent
    1634              $C$DW$122       .dwtag  DW_TAG_formal_parameter, DW_AT_name("base")
    1635                      .dwattr $C$DW$122, DW_AT_TI_symbol_name("_base")
    1636                      .dwattr $C$DW$122, DW_AT_type(*$C$DW$T$136)
    1637                      .dwattr $C$DW$122, DW_AT_location[DW_OP_reg0]
    1638              
    1639              ;***************************************************************
    1640              ;* FNAME: _EPWM_clearExtSyncEvent       FR SIZE:   2           *
    1641              ;*                                                             *
    1642              ;* FUNCTION ENVIRONMENT                                        *
    1643              ;*                                                             *
    1644              ;* FUNCTION PROPERTIES                                         *
    1645              ;*                            0 Parameter,  2 Auto,  0 SOE     *
    1646              ;***************************************************************
    1647              
    1648 00000112       _EPWM_clearExtSyncEvent:
    1649                      .dwcfi  cfa_offset, -2
    1650                      .dwcfi  save_reg_to_mem, 26, 0
    1651                      .dwcfi  save_reg_to_reg, 78, 26
    1652 00000112 FE02          ADDB      SP,#2                 ; [CPU_U] 
    1653                      .dwcfi  cfa_offset, -4
    1654              $C$DW$123       .dwtag  DW_TAG_variable, DW_AT_name("base")
    1655                      .dwattr $C$DW$123, DW_AT_TI_symbol_name("_base")
    1656                      .dwattr $C$DW$123, DW_AT_type(*$C$DW$T$136)
    1657                      .dwattr $C$DW$123, DW_AT_location[DW_OP_breg20 -2]
    1658 00000113 1E42          MOVL      *-SP[2],ACC           ; [CPU_] |493| 
    1659                      .dwpsn  file "C:/work/grepos/c2000_bootROM/f28004x_bootrom/F28004x_ROM_dev/F28004x_ROM/driverlib/epwm
    1660 00000114 0205          MOVB      ACC,#5                ; [CPU_] |496| 
    1661 00000115 0742          ADDL      ACC,*-SP[2]           ; [CPU_] |496| 
    1662 00000116 8AA9          MOVL      XAR4,ACC              ; [CPU_] |496| 
    1663 00000117 1AC4          OR        *+XAR4[0],#0x0002     ; [CPU_] |496| 
         00000118 0002 
    1664                      .dwpsn  file "C:/work/grepos/c2000_bootROM/f28004x_bootrom/F28004x_ROM_dev/F28004x_ROM/driverlib/epwm
    1665 00000119 FE82          SUBB      SP,#2                 ; [CPU_U] 
    1666                      .dwcfi  cfa_offset, -2
    1667              $C$DW$124       .dwtag  DW_TAG_TI_branch
    1668                      .dwattr $C$DW$124, DW_AT_low_pc(0x00)
    1669                      .dwattr $C$DW$124, DW_AT_TI_return
    1670 0000011a 0006          LRETR     ; [CPU_] 
    1671                      ; return occurs ; [] 
    1672                      .dwattr $C$DW$121, DW_AT_TI_end_file("C:/work/grepos/c2000_bootROM/f28004x_bootrom/F28004x_ROM_dev/F2
    1673                      .dwattr $C$DW$121, DW_AT_TI_end_line(0x1f1)
TMS320C2000 Assembler PC v6.2.9 Tue Apr 14 13:32:06 2015

Tools Copyright (c) 1996-2014 Texas Instruments Incorporated
C:\Users\a0272466\AppData\Local\Temp\0620410                         PAGE   32

    1674                      .dwattr $C$DW$121, DW_AT_TI_end_column(0x01)
    1675                      .dwendentry
    1676                      .dwendtag $C$DW$121
    1677              
    1678 0000011b               .sect   ".text"
    1679                      .clink
    1680                      .global _EPWM_getTimeBaseCounterDirection
    1681              
    1682              $C$DW$125       .dwtag  DW_TAG_subprogram, DW_AT_name("EPWM_getTimeBaseCounterDirection")
    1683                      .dwattr $C$DW$125, DW_AT_low_pc(_EPWM_getTimeBaseCounterDirection)
    1684                      .dwattr $C$DW$125, DW_AT_high_pc(0x00)
    1685                      .dwattr $C$DW$125, DW_AT_TI_symbol_name("_EPWM_getTimeBaseCounterDirection")
    1686                      .dwattr $C$DW$125, DW_AT_external
    1687                      .dwattr $C$DW$125, DW_AT_type(*$C$DW$T$141)
    1688                      .dwattr $C$DW$125, DW_AT_TI_begin_file("C:/work/grepos/c2000_bootROM/f28004x_bootrom/F28004x_ROM_dev/
    1689                      .dwattr $C$DW$125, DW_AT_TI_begin_line(0x1fe)
    1690                      .dwattr $C$DW$125, DW_AT_TI_begin_column(0x0a)
    1691                      .dwattr $C$DW$125, DW_AT_TI_max_frame_size(-4)
    1692                      .dwpsn  file "C:/work/grepos/c2000_bootROM/f28004x_bootrom/F28004x_ROM_dev/F28004x_ROM/driverlib/epwm
    1693              
    1694                      .dwfde $C$DW$CIE, _EPWM_getTimeBaseCounterDirection
    1695              $C$DW$126       .dwtag  DW_TAG_formal_parameter, DW_AT_name("base")
    1696                      .dwattr $C$DW$126, DW_AT_TI_symbol_name("_base")
    1697                      .dwattr $C$DW$126, DW_AT_type(*$C$DW$T$136)
    1698                      .dwattr $C$DW$126, DW_AT_location[DW_OP_reg0]
    1699              
    1700              ;***************************************************************
    1701              ;* FNAME: _EPWM_getTimeBaseCounterDirection FR SIZE:   2           *
    1702              ;*                                                             *
    1703              ;* FUNCTION ENVIRONMENT                                        *
    1704              ;*                                                             *
    1705              ;* FUNCTION PROPERTIES                                         *
    1706              ;*                            0 Parameter,  2 Auto,  0 SOE     *
    1707              ;***************************************************************
    1708              
    1709 0000011b       _EPWM_getTimeBaseCounterDirection:
    1710                      .dwcfi  cfa_offset, -2
    1711                      .dwcfi  save_reg_to_mem, 26, 0
    1712                      .dwcfi  save_reg_to_reg, 78, 26
    1713 0000011b FE02          ADDB      SP,#2                 ; [CPU_U] 
    1714                      .dwcfi  cfa_offset, -4
    1715              $C$DW$127       .dwtag  DW_TAG_variable, DW_AT_name("base")
    1716                      .dwattr $C$DW$127, DW_AT_TI_symbol_name("_base")
    1717                      .dwattr $C$DW$127, DW_AT_type(*$C$DW$T$136)
    1718                      .dwattr $C$DW$127, DW_AT_location[DW_OP_breg20 -2]
    1719 0000011c 1E42          MOVL      *-SP[2],ACC           ; [CPU_] |511| 
    1720                      .dwpsn  file "C:/work/grepos/c2000_bootROM/f28004x_bootrom/F28004x_ROM_dev/F28004x_ROM/driverlib/epwm
    1721 0000011d 0205          MOVB      ACC,#5                ; [CPU_] |514| 
    1722 0000011e 0742          ADDL      ACC,*-SP[2]           ; [CPU_] |514| 
    1723 0000011f 8AA9          MOVL      XAR4,ACC              ; [CPU_] |514| 
    1724 00000120 CCC4          AND       AL,*+XAR4[0],#0x0001  ; [CPU_] |514| 
         00000121 0001 
    1725                      .dwpsn  file "C:/work/grepos/c2000_bootROM/f28004x_bootrom/F28004x_ROM_dev/F28004x_ROM/driverlib/epwm
    1726 00000122 FE82          SUBB      SP,#2                 ; [CPU_U] 
    1727                      .dwcfi  cfa_offset, -2
TMS320C2000 Assembler PC v6.2.9 Tue Apr 14 13:32:06 2015

Tools Copyright (c) 1996-2014 Texas Instruments Incorporated
C:\Users\a0272466\AppData\Local\Temp\0620410                         PAGE   33

    1728              $C$DW$128       .dwtag  DW_TAG_TI_branch
    1729                      .dwattr $C$DW$128, DW_AT_low_pc(0x00)
    1730                      .dwattr $C$DW$128, DW_AT_TI_return
    1731 00000123 0006          LRETR     ; [CPU_] 
    1732                      ; return occurs ; [] 
    1733                      .dwattr $C$DW$125, DW_AT_TI_end_file("C:/work/grepos/c2000_bootROM/f28004x_bootrom/F28004x_ROM_dev/F2
    1734                      .dwattr $C$DW$125, DW_AT_TI_end_line(0x203)
    1735                      .dwattr $C$DW$125, DW_AT_TI_end_column(0x01)
    1736                      .dwendentry
    1737                      .dwendtag $C$DW$125
    1738              
    1739 00000124               .sect   ".text"
    1740                      .clink
    1741                      .global _EPWM_setPhaseShift
    1742              
    1743              $C$DW$129       .dwtag  DW_TAG_subprogram, DW_AT_name("EPWM_setPhaseShift")
    1744                      .dwattr $C$DW$129, DW_AT_low_pc(_EPWM_setPhaseShift)
    1745                      .dwattr $C$DW$129, DW_AT_high_pc(0x00)
    1746                      .dwattr $C$DW$129, DW_AT_TI_symbol_name("_EPWM_setPhaseShift")
    1747                      .dwattr $C$DW$129, DW_AT_external
    1748                      .dwattr $C$DW$129, DW_AT_TI_begin_file("C:/work/grepos/c2000_bootROM/f28004x_bootrom/F28004x_ROM_dev/
    1749                      .dwattr $C$DW$129, DW_AT_TI_begin_line(0x213)
    1750                      .dwattr $C$DW$129, DW_AT_TI_begin_column(0x06)
    1751                      .dwattr $C$DW$129, DW_AT_TI_max_frame_size(-8)
    1752                      .dwpsn  file "C:/work/grepos/c2000_bootROM/f28004x_bootrom/F28004x_ROM_dev/F28004x_ROM/driverlib/epwm
    1753              
    1754                      .dwfde $C$DW$CIE, _EPWM_setPhaseShift
    1755              $C$DW$130       .dwtag  DW_TAG_formal_parameter, DW_AT_name("base")
    1756                      .dwattr $C$DW$130, DW_AT_TI_symbol_name("_base")
    1757                      .dwattr $C$DW$130, DW_AT_type(*$C$DW$T$136)
    1758                      .dwattr $C$DW$130, DW_AT_location[DW_OP_reg0]
    1759              $C$DW$131       .dwtag  DW_TAG_formal_parameter, DW_AT_name("phaseCount")
    1760                      .dwattr $C$DW$131, DW_AT_TI_symbol_name("_phaseCount")
    1761                      .dwattr $C$DW$131, DW_AT_type(*$C$DW$T$141)
    1762                      .dwattr $C$DW$131, DW_AT_location[DW_OP_reg12]
    1763              
    1764              ;***************************************************************
    1765              ;* FNAME: _EPWM_setPhaseShift           FR SIZE:   6           *
    1766              ;*                                                             *
    1767              ;* FUNCTION ENVIRONMENT                                        *
    1768              ;*                                                             *
    1769              ;* FUNCTION PROPERTIES                                         *
    1770              ;*                            0 Parameter,  6 Auto,  0 SOE     *
    1771              ;***************************************************************
    1772              
    1773 00000124       _EPWM_setPhaseShift:
    1774                      .dwcfi  cfa_offset, -2
    1775                      .dwcfi  save_reg_to_mem, 26, 0
    1776                      .dwcfi  save_reg_to_reg, 78, 26
    1777 00000124 FE06          ADDB      SP,#6                 ; [CPU_U] 
    1778                      .dwcfi  cfa_offset, -8
    1779              $C$DW$132       .dwtag  DW_TAG_variable, DW_AT_name("base")
    1780                      .dwattr $C$DW$132, DW_AT_TI_symbol_name("_base")
    1781                      .dwattr $C$DW$132, DW_AT_type(*$C$DW$T$136)
    1782                      .dwattr $C$DW$132, DW_AT_location[DW_OP_breg20 -2]
TMS320C2000 Assembler PC v6.2.9 Tue Apr 14 13:32:06 2015

Tools Copyright (c) 1996-2014 Texas Instruments Incorporated
C:\Users\a0272466\AppData\Local\Temp\0620410                         PAGE   34

    1783              $C$DW$133       .dwtag  DW_TAG_variable, DW_AT_name("phaseCount")
    1784                      .dwattr $C$DW$133, DW_AT_TI_symbol_name("_phaseCount")
    1785                      .dwattr $C$DW$133, DW_AT_type(*$C$DW$T$141)
    1786                      .dwattr $C$DW$133, DW_AT_location[DW_OP_breg20 -3]
    1787 00000125 7C43          MOV       *-SP[3],AR4           ; [CPU_] |532| 
    1788 00000126 1E42          MOVL      *-SP[2],ACC           ; [CPU_] |532| 
    1789                      .dwpsn  file "C:/work/grepos/c2000_bootROM/f28004x_bootrom/F28004x_ROM_dev/F28004x_ROM/driverlib/epwm
    1790 00000127 0260          MOVB      ACC,#96               ; [CPU_] |535| 
    1791 00000128 2901          CLRC      SXM                   ; [CPU_] 
    1792 00000129 0742          ADDL      ACC,*-SP[2]           ; [CPU_] |535| 
    1793 0000012a 8AA9          MOVL      XAR4,ACC              ; [CPU_] |535| 
    1794 0000012b A3C4          MOVL      P,*+XAR4[0]           ; [CPU_] |535| 
    1795 0000012c 2543          MOV       ACC,*-SP[3] << 16     ; [CPU_] |535| 
    1796 0000012d 18AA          AND       PH,#0                 ; [CPU_] |535| 
         0000012e 0000 
    1797 0000012f 1E46          MOVL      *-SP[6],ACC           ; [CPU_] |535| 
    1798 00000130 9246          MOV       AL,*-SP[6]            ; [CPU_] |535| 
    1799 00000131 CAAB          OR        AL,PL                 ; [CPU_] |535| 
    1800 00000132 9646          MOV       *-SP[6],AL            ; [CPU_] |535| 
    1801 00000133 9245          MOV       AL,*-SP[5]            ; [CPU_] |535| 
    1802 00000134 CAAA          OR        AL,PH                 ; [CPU_] |535| 
    1803 00000135 9645          MOV       *-SP[5],AL            ; [CPU_] |535| 
    1804 00000136 0260          MOVB      ACC,#96               ; [CPU_] |535| 
    1805 00000137 0742          ADDL      ACC,*-SP[2]           ; [CPU_] |535| 
    1806 00000138 8AA9          MOVL      XAR4,ACC              ; [CPU_] |535| 
    1807 00000139 0646          MOVL      ACC,*-SP[6]           ; [CPU_] |535| 
    1808 0000013a 1EC4          MOVL      *+XAR4[0],ACC         ; [CPU_] |535| 
    1809                      .dwpsn  file "C:/work/grepos/c2000_bootROM/f28004x_bootrom/F28004x_ROM_dev/F28004x_ROM/driverlib/epwm
    1810 0000013b FE86          SUBB      SP,#6                 ; [CPU_U] 
    1811                      .dwcfi  cfa_offset, -2
    1812              $C$DW$134       .dwtag  DW_TAG_TI_branch
    1813                      .dwattr $C$DW$134, DW_AT_low_pc(0x00)
    1814                      .dwattr $C$DW$134, DW_AT_TI_return
    1815 0000013c 0006          LRETR     ; [CPU_] 
    1816                      ; return occurs ; [] 
    1817                      .dwattr $C$DW$129, DW_AT_TI_end_file("C:/work/grepos/c2000_bootROM/f28004x_bootrom/F28004x_ROM_dev/F2
    1818                      .dwattr $C$DW$129, DW_AT_TI_end_line(0x219)
    1819                      .dwattr $C$DW$129, DW_AT_TI_end_column(0x01)
    1820                      .dwendentry
    1821                      .dwendtag $C$DW$129
    1822              
    1823 0000013d               .sect   ".text"
    1824                      .clink
    1825                      .global _EPWM_setPeriodCount
    1826              
    1827              $C$DW$135       .dwtag  DW_TAG_subprogram, DW_AT_name("EPWM_setPeriodCount")
    1828                      .dwattr $C$DW$135, DW_AT_low_pc(_EPWM_setPeriodCount)
    1829                      .dwattr $C$DW$135, DW_AT_high_pc(0x00)
    1830                      .dwattr $C$DW$135, DW_AT_TI_symbol_name("_EPWM_setPeriodCount")
    1831                      .dwattr $C$DW$135, DW_AT_external
    1832                      .dwattr $C$DW$135, DW_AT_TI_begin_file("C:/work/grepos/c2000_bootROM/f28004x_bootrom/F28004x_ROM_dev/
    1833                      .dwattr $C$DW$135, DW_AT_TI_begin_line(0x22b)
    1834                      .dwattr $C$DW$135, DW_AT_TI_begin_column(0x06)
    1835                      .dwattr $C$DW$135, DW_AT_TI_max_frame_size(-6)
    1836                      .dwpsn  file "C:/work/grepos/c2000_bootROM/f28004x_bootrom/F28004x_ROM_dev/F28004x_ROM/driverlib/epwm
TMS320C2000 Assembler PC v6.2.9 Tue Apr 14 13:32:06 2015

Tools Copyright (c) 1996-2014 Texas Instruments Incorporated
C:\Users\a0272466\AppData\Local\Temp\0620410                         PAGE   35

    1837              
    1838                      .dwfde $C$DW$CIE, _EPWM_setPeriodCount
    1839              $C$DW$136       .dwtag  DW_TAG_formal_parameter, DW_AT_name("base")
    1840                      .dwattr $C$DW$136, DW_AT_TI_symbol_name("_base")
    1841                      .dwattr $C$DW$136, DW_AT_type(*$C$DW$T$136)
    1842                      .dwattr $C$DW$136, DW_AT_location[DW_OP_reg0]
    1843              $C$DW$137       .dwtag  DW_TAG_formal_parameter, DW_AT_name("periodCount")
    1844                      .dwattr $C$DW$137, DW_AT_TI_symbol_name("_periodCount")
    1845                      .dwattr $C$DW$137, DW_AT_type(*$C$DW$T$141)
    1846                      .dwattr $C$DW$137, DW_AT_location[DW_OP_reg12]
    1847              
    1848              ;***************************************************************
    1849              ;* FNAME: _EPWM_setPeriodCount          FR SIZE:   4           *
    1850              ;*                                                             *
    1851              ;* FUNCTION ENVIRONMENT                                        *
    1852              ;*                                                             *
    1853              ;* FUNCTION PROPERTIES                                         *
    1854              ;*                            0 Parameter,  3 Auto,  0 SOE     *
    1855              ;***************************************************************
    1856              
    1857 0000013d       _EPWM_setPeriodCount:
    1858                      .dwcfi  cfa_offset, -2
    1859                      .dwcfi  save_reg_to_mem, 26, 0
    1860                      .dwcfi  save_reg_to_reg, 78, 26
    1861 0000013d FE04          ADDB      SP,#4                 ; [CPU_U] 
    1862                      .dwcfi  cfa_offset, -6
    1863              $C$DW$138       .dwtag  DW_TAG_variable, DW_AT_name("base")
    1864                      .dwattr $C$DW$138, DW_AT_TI_symbol_name("_base")
    1865                      .dwattr $C$DW$138, DW_AT_type(*$C$DW$T$136)
    1866                      .dwattr $C$DW$138, DW_AT_location[DW_OP_breg20 -2]
    1867              $C$DW$139       .dwtag  DW_TAG_variable, DW_AT_name("periodCount")
    1868                      .dwattr $C$DW$139, DW_AT_TI_symbol_name("_periodCount")
    1869                      .dwattr $C$DW$139, DW_AT_type(*$C$DW$T$141)
    1870                      .dwattr $C$DW$139, DW_AT_location[DW_OP_breg20 -3]
    1871 0000013e 7C43          MOV       *-SP[3],AR4           ; [CPU_] |556| 
    1872 0000013f 1E42          MOVL      *-SP[2],ACC           ; [CPU_] |556| 
    1873                      .dwpsn  file "C:/work/grepos/c2000_bootROM/f28004x_bootrom/F28004x_ROM_dev/F28004x_ROM/driverlib/epwm
    1874 00000140 8843          MOVZ      AR6,*-SP[3]           ; [CPU_] |559| 
    1875 00000141 0263          MOVB      ACC,#99               ; [CPU_] |559| 
    1876 00000142 0742          ADDL      ACC,*-SP[2]           ; [CPU_] |559| 
    1877 00000143 8AA9          MOVL      XAR4,ACC              ; [CPU_] |559| 
    1878 00000144 7EC4          MOV       *+XAR4[0],AR6         ; [CPU_] |559| 
    1879                      .dwpsn  file "C:/work/grepos/c2000_bootROM/f28004x_bootrom/F28004x_ROM_dev/F28004x_ROM/driverlib/epwm
    1880 00000145 FE84          SUBB      SP,#4                 ; [CPU_U] 
    1881                      .dwcfi  cfa_offset, -2
    1882              $C$DW$140       .dwtag  DW_TAG_TI_branch
    1883                      .dwattr $C$DW$140, DW_AT_low_pc(0x00)
    1884                      .dwattr $C$DW$140, DW_AT_TI_return
    1885 00000146 0006          LRETR     ; [CPU_] 
    1886                      ; return occurs ; [] 
    1887                      .dwattr $C$DW$135, DW_AT_TI_end_file("C:/work/grepos/c2000_bootROM/f28004x_bootrom/F28004x_ROM_dev/F2
    1888                      .dwattr $C$DW$135, DW_AT_TI_end_line(0x230)
    1889                      .dwattr $C$DW$135, DW_AT_TI_end_column(0x01)
    1890                      .dwendentry
    1891                      .dwendtag $C$DW$135
TMS320C2000 Assembler PC v6.2.9 Tue Apr 14 13:32:06 2015

Tools Copyright (c) 1996-2014 Texas Instruments Incorporated
C:\Users\a0272466\AppData\Local\Temp\0620410                         PAGE   36

    1892              
    1893 00000147               .sect   ".text"
    1894                      .clink
    1895                      .global _EPWM_setupEPWMLinks
    1896              
    1897              $C$DW$141       .dwtag  DW_TAG_subprogram, DW_AT_name("EPWM_setupEPWMLinks")
    1898                      .dwattr $C$DW$141, DW_AT_low_pc(_EPWM_setupEPWMLinks)
    1899                      .dwattr $C$DW$141, DW_AT_high_pc(0x00)
    1900                      .dwattr $C$DW$141, DW_AT_TI_symbol_name("_EPWM_setupEPWMLinks")
    1901                      .dwattr $C$DW$141, DW_AT_external
    1902                      .dwattr $C$DW$141, DW_AT_TI_begin_file("C:/work/grepos/c2000_bootROM/f28004x_bootrom/F28004x_ROM_dev/
    1903                      .dwattr $C$DW$141, DW_AT_TI_begin_line(0x25a)
    1904                      .dwattr $C$DW$141, DW_AT_TI_begin_column(0x06)
    1905                      .dwattr $C$DW$141, DW_AT_TI_max_frame_size(-6)
    1906                      .dwpsn  file "C:/work/grepos/c2000_bootROM/f28004x_bootrom/F28004x_ROM_dev/F28004x_ROM/driverlib/epwm
    1907              
    1908                      .dwfde $C$DW$CIE, _EPWM_setupEPWMLinks
    1909              $C$DW$142       .dwtag  DW_TAG_formal_parameter, DW_AT_name("base")
    1910                      .dwattr $C$DW$142, DW_AT_TI_symbol_name("_base")
    1911                      .dwattr $C$DW$142, DW_AT_type(*$C$DW$T$136)
    1912                      .dwattr $C$DW$142, DW_AT_location[DW_OP_reg0]
    1913              $C$DW$143       .dwtag  DW_TAG_formal_parameter, DW_AT_name("epwmLink")
    1914                      .dwattr $C$DW$143, DW_AT_TI_symbol_name("_epwmLink")
    1915                      .dwattr $C$DW$143, DW_AT_type(*$C$DW$T$36)
    1916                      .dwattr $C$DW$143, DW_AT_location[DW_OP_reg12]
    1917              $C$DW$144       .dwtag  DW_TAG_formal_parameter, DW_AT_name("linkComp")
    1918                      .dwattr $C$DW$144, DW_AT_TI_symbol_name("_linkComp")
    1919                      .dwattr $C$DW$144, DW_AT_type(*$C$DW$T$38)
    1920                      .dwattr $C$DW$144, DW_AT_location[DW_OP_reg14]
    1921              
    1922              ;***************************************************************
    1923              ;* FNAME: _EPWM_setupEPWMLinks          FR SIZE:   4           *
    1924              ;*                                                             *
    1925              ;* FUNCTION ENVIRONMENT                                        *
    1926              ;*                                                             *
    1927              ;* FUNCTION PROPERTIES                                         *
    1928              ;*                            0 Parameter,  4 Auto,  0 SOE     *
    1929              ;***************************************************************
    1930              
    1931 00000147       _EPWM_setupEPWMLinks:
    1932                      .dwcfi  cfa_offset, -2
    1933                      .dwcfi  save_reg_to_mem, 26, 0
    1934                      .dwcfi  save_reg_to_reg, 78, 26
    1935 00000147 FE04          ADDB      SP,#4                 ; [CPU_U] 
    1936                      .dwcfi  cfa_offset, -6
    1937              $C$DW$145       .dwtag  DW_TAG_variable, DW_AT_name("base")
    1938                      .dwattr $C$DW$145, DW_AT_TI_symbol_name("_base")
    1939                      .dwattr $C$DW$145, DW_AT_type(*$C$DW$T$136)
    1940                      .dwattr $C$DW$145, DW_AT_location[DW_OP_breg20 -2]
    1941              $C$DW$146       .dwtag  DW_TAG_variable, DW_AT_name("epwmLink")
    1942                      .dwattr $C$DW$146, DW_AT_TI_symbol_name("_epwmLink")
    1943                      .dwattr $C$DW$146, DW_AT_type(*$C$DW$T$36)
    1944                      .dwattr $C$DW$146, DW_AT_location[DW_OP_breg20 -3]
    1945              $C$DW$147       .dwtag  DW_TAG_variable, DW_AT_name("linkComp")
    1946                      .dwattr $C$DW$147, DW_AT_TI_symbol_name("_linkComp")
TMS320C2000 Assembler PC v6.2.9 Tue Apr 14 13:32:06 2015

Tools Copyright (c) 1996-2014 Texas Instruments Incorporated
C:\Users\a0272466\AppData\Local\Temp\0620410                         PAGE   37

    1947                      .dwattr $C$DW$147, DW_AT_type(*$C$DW$T$38)
    1948                      .dwattr $C$DW$147, DW_AT_location[DW_OP_breg20 -4]
    1949 00000148 7D44          MOV       *-SP[4],AR5           ; [CPU_] |603| 
    1950 00000149 7C43          MOV       *-SP[3],AR4           ; [CPU_] |603| 
    1951 0000014a 1E42          MOVL      *-SP[2],ACC           ; [CPU_] |603| 
    1952                      .dwpsn  file "C:/work/grepos/c2000_bootROM/f28004x_bootrom/F28004x_ROM_dev/F28004x_ROM/driverlib/epwm
    1953 0000014b 020F          MOVB      ACC,#15               ; [CPU_] |607| 
    1954 0000014c 2D44          MOV       T,*-SP[4]             ; [CPU_] |607| 
    1955 0000014d 563B          LSLL      ACC,T                 ; [CPU_] |607| 
    1956 0000014e FF55          NOT       ACC                   ; [CPU_] |607| 
    1957 0000014f FF5A          MOVL      P,ACC                 ; [CPU_] |607| 
    1958 00000150 0238          MOVB      ACC,#56               ; [CPU_] |607| 
    1959 00000151 0742          ADDL      ACC,*-SP[2]           ; [CPU_] |607| 
    1960 00000152 8AA9          MOVL      XAR4,ACC              ; [CPU_] |607| 
    1961 00000153 92AB          MOV       AL,PL                 ; [CPU_] |607| 
    1962 00000154 93AA          MOV       AH,PH                 ; [CPU_] |607| 
    1963 00000155 CEC4          AND       AL,*+XAR4[0]          ; [CPU_] |607| 
    1964 00000156 27A9          MOV       PL,AL                 ; [CPU_] |607| 
    1965 00000157 CFCC          AND       AH,*+XAR4[1]          ; [CPU_] |607| 
    1966 00000158 2FA8          MOV       PH,AH                 ; [CPU_] |607| 
    1967 00000159 0E43          MOVU      ACC,*-SP[3]           ; [CPU_] |607| 
    1968 0000015a 563B          LSLL      ACC,T                 ; [CPU_] |607| 
    1969 0000015b 88A9          MOVZ      AR6,AL                ; [CPU_] |607| 
    1970 0000015c 92AB          MOV       AL,PL                 ; [CPU_] |607| 
    1971 0000015d CAA6          OR        AL,AR6                ; [CPU_] |607| 
    1972 0000015e 27A9          MOV       PL,AL                 ; [CPU_] |607| 
    1973 0000015f 92A8          MOV       AL,AH                 ; [CPU_] |607| 
    1974 00000160 93AA          MOV       AH,PH                 ; [CPU_] |607| 
    1975 00000161 CBA9          OR        AH,AL                 ; [CPU_] |607| 
    1976 00000162 2FA8          MOV       PH,AH                 ; [CPU_] |607| 
    1977 00000163 0238          MOVB      ACC,#56               ; [CPU_] |607| 
    1978 00000164 0742          ADDL      ACC,*-SP[2]           ; [CPU_] |607| 
    1979 00000165 8AA9          MOVL      XAR4,ACC              ; [CPU_] |607| 
    1980 00000166 A9C4          MOVL      *+XAR4[0],P           ; [CPU_] |607| 
    1981                      .dwpsn  file "C:/work/grepos/c2000_bootROM/f28004x_bootrom/F28004x_ROM_dev/F28004x_ROM/driverlib/epwm
    1982 00000167 FE84          SUBB      SP,#4                 ; [CPU_U] 
    1983                      .dwcfi  cfa_offset, -2
    1984              $C$DW$148       .dwtag  DW_TAG_TI_branch
    1985                      .dwattr $C$DW$148, DW_AT_low_pc(0x00)
    1986                      .dwattr $C$DW$148, DW_AT_TI_return
    1987 00000168 0006          LRETR     ; [CPU_] 
    1988                      ; return occurs ; [] 
    1989                      .dwattr $C$DW$141, DW_AT_TI_end_file("C:/work/grepos/c2000_bootROM/f28004x_bootrom/F28004x_ROM_dev/F2
    1990                      .dwattr $C$DW$141, DW_AT_TI_end_line(0x261)
    1991                      .dwattr $C$DW$141, DW_AT_TI_end_column(0x01)
    1992                      .dwendentry
    1993                      .dwendtag $C$DW$141
    1994              
    1995 00000169               .sect   ".text"
    1996                      .clink
    1997                      .global _EPWM_disableCounterCompareLoad
    1998              
    1999              $C$DW$149       .dwtag  DW_TAG_subprogram, DW_AT_name("EPWM_disableCounterCompareLoad")
    2000                      .dwattr $C$DW$149, DW_AT_low_pc(_EPWM_disableCounterCompareLoad)
    2001                      .dwattr $C$DW$149, DW_AT_high_pc(0x00)
TMS320C2000 Assembler PC v6.2.9 Tue Apr 14 13:32:06 2015

Tools Copyright (c) 1996-2014 Texas Instruments Incorporated
C:\Users\a0272466\AppData\Local\Temp\0620410                         PAGE   38

    2002                      .dwattr $C$DW$149, DW_AT_TI_symbol_name("_EPWM_disableCounterCompareLoad")
    2003                      .dwattr $C$DW$149, DW_AT_external
    2004                      .dwattr $C$DW$149, DW_AT_TI_begin_file("C:/work/grepos/c2000_bootROM/f28004x_bootrom/F28004x_ROM_dev/
    2005                      .dwattr $C$DW$149, DW_AT_TI_begin_line(0x274)
    2006                      .dwattr $C$DW$149, DW_AT_TI_begin_column(0x06)
    2007                      .dwattr $C$DW$149, DW_AT_TI_max_frame_size(-10)
    2008                      .dwpsn  file "C:/work/grepos/c2000_bootROM/f28004x_bootrom/F28004x_ROM_dev/F28004x_ROM/driverlib/epwm
    2009              
    2010                      .dwfde $C$DW$CIE, _EPWM_disableCounterCompareLoad
    2011              $C$DW$150       .dwtag  DW_TAG_formal_parameter, DW_AT_name("base")
    2012                      .dwattr $C$DW$150, DW_AT_TI_symbol_name("_base")
    2013                      .dwattr $C$DW$150, DW_AT_type(*$C$DW$T$136)
    2014                      .dwattr $C$DW$150, DW_AT_location[DW_OP_reg0]
    2015              $C$DW$151       .dwtag  DW_TAG_formal_parameter, DW_AT_name("compModule")
    2016                      .dwattr $C$DW$151, DW_AT_TI_symbol_name("_compModule")
    2017                      .dwattr $C$DW$151, DW_AT_type(*$C$DW$T$40)
    2018                      .dwattr $C$DW$151, DW_AT_location[DW_OP_reg12]
    2019              
    2020              ;***************************************************************
    2021              ;* FNAME: _EPWM_disableCounterCompareLoad FR SIZE:   8           *
    2022              ;*                                                             *
    2023              ;* FUNCTION ENVIRONMENT                                        *
    2024              ;*                                                             *
    2025              ;* FUNCTION PROPERTIES                                         *
    2026              ;*                            0 Parameter,  8 Auto,  0 SOE     *
    2027              ;***************************************************************
    2028              
    2029 00000169       _EPWM_disableCounterCompareLoad:
    2030                      .dwcfi  cfa_offset, -2
    2031                      .dwcfi  save_reg_to_mem, 26, 0
    2032                      .dwcfi  save_reg_to_reg, 78, 26
    2033 00000169 FE08          ADDB      SP,#8                 ; [CPU_U] 
    2034                      .dwcfi  cfa_offset, -10
    2035              $C$DW$152       .dwtag  DW_TAG_variable, DW_AT_name("base")
    2036                      .dwattr $C$DW$152, DW_AT_TI_symbol_name("_base")
    2037                      .dwattr $C$DW$152, DW_AT_type(*$C$DW$T$136)
    2038                      .dwattr $C$DW$152, DW_AT_location[DW_OP_breg20 -2]
    2039              $C$DW$153       .dwtag  DW_TAG_variable, DW_AT_name("compModule")
    2040                      .dwattr $C$DW$153, DW_AT_TI_symbol_name("_compModule")
    2041                      .dwattr $C$DW$153, DW_AT_type(*$C$DW$T$40)
    2042                      .dwattr $C$DW$153, DW_AT_location[DW_OP_breg20 -3]
    2043              $C$DW$154       .dwtag  DW_TAG_variable, DW_AT_name("status")
    2044                      .dwattr $C$DW$154, DW_AT_TI_symbol_name("_status")
    2045                      .dwattr $C$DW$154, DW_AT_type(*$C$DW$T$141)
    2046                      .dwattr $C$DW$154, DW_AT_location[DW_OP_breg20 -4]
    2047              $C$DW$155       .dwtag  DW_TAG_variable, DW_AT_name("loadModeOffset")
    2048                      .dwattr $C$DW$155, DW_AT_TI_symbol_name("_loadModeOffset")
    2049                      .dwattr $C$DW$155, DW_AT_type(*$C$DW$T$141)
    2050                      .dwattr $C$DW$155, DW_AT_location[DW_OP_breg20 -5]
    2051              $C$DW$156       .dwtag  DW_TAG_variable, DW_AT_name("registerOffset")
    2052                      .dwattr $C$DW$156, DW_AT_TI_symbol_name("_registerOffset")
    2053                      .dwattr $C$DW$156, DW_AT_type(*$C$DW$T$136)
    2054                      .dwattr $C$DW$156, DW_AT_location[DW_OP_breg20 -8]
    2055 0000016a 7C43          MOV       *-SP[3],AR4           ; [CPU_] |629| 
    2056 0000016b 1E42          MOVL      *-SP[2],ACC           ; [CPU_] |629| 
TMS320C2000 Assembler PC v6.2.9 Tue Apr 14 13:32:06 2015

Tools Copyright (c) 1996-2014 Texas Instruments Incorporated
C:\Users\a0272466\AppData\Local\Temp\0620410                         PAGE   39

    2057                      .dwpsn  file "C:/work/grepos/c2000_bootROM/f28004x_bootrom/F28004x_ROM_dev/F28004x_ROM/driverlib/epwm
    2058 0000016c 56BF          MOVB      *-SP[4],#1,UNC        ; [CPU_] |636| 
         0000016d 0144 
    2059                      .dwpsn  file "C:/work/grepos/c2000_bootROM/f28004x_bootrom/F28004x_ROM_dev/F28004x_ROM/driverlib/epwm
    2060 0000016e 6F15          B         $C$L10,UNC            ; [CPU_] |637| 
    2061                      ; branch occurs ; [] |637| 
    2062 0000016f       $C$L5:    
    2063                      .dwpsn  file "C:/work/grepos/c2000_bootROM/f28004x_bootrom/F28004x_ROM_dev/F28004x_ROM/driverlib/epwm
    2064 0000016f 2B45          MOV       *-SP[5],#0            ; [CPU_] |640| 
    2065                      .dwpsn  file "C:/work/grepos/c2000_bootROM/f28004x_bootrom/F28004x_ROM_dev/F28004x_ROM/driverlib/epwm
    2066 00000170 0208          MOVB      ACC,#8                ; [CPU_] |641| 
    2067 00000171 1E48          MOVL      *-SP[8],ACC           ; [CPU_] |641| 
    2068                      .dwpsn  file "C:/work/grepos/c2000_bootROM/f28004x_bootrom/F28004x_ROM_dev/F28004x_ROM/driverlib/epwm
    2069 00000172 6F1A          B         $C$L11,UNC            ; [CPU_] |642| 
    2070                      ; branch occurs ; [] |642| 
    2071 00000173       $C$L6:    
    2072                      .dwpsn  file "C:/work/grepos/c2000_bootROM/f28004x_bootrom/F28004x_ROM_dev/F28004x_ROM/driverlib/epwm
    2073 00000173 56BF          MOVB      *-SP[5],#2,UNC        ; [CPU_] |644| 
         00000174 0245 
    2074                      .dwpsn  file "C:/work/grepos/c2000_bootROM/f28004x_bootrom/F28004x_ROM_dev/F28004x_ROM/driverlib/epwm
    2075 00000175 0208          MOVB      ACC,#8                ; [CPU_] |645| 
    2076 00000176 1E48          MOVL      *-SP[8],ACC           ; [CPU_] |645| 
    2077                      .dwpsn  file "C:/work/grepos/c2000_bootROM/f28004x_bootrom/F28004x_ROM_dev/F28004x_ROM/driverlib/epwm
    2078 00000177 6F15          B         $C$L11,UNC            ; [CPU_] |646| 
    2079                      ; branch occurs ; [] |646| 
    2080 00000178       $C$L7:    
    2081                      .dwpsn  file "C:/work/grepos/c2000_bootROM/f28004x_bootrom/F28004x_ROM_dev/F28004x_ROM/driverlib/epwm
    2082 00000178 2B45          MOV       *-SP[5],#0            ; [CPU_] |648| 
    2083                      .dwpsn  file "C:/work/grepos/c2000_bootROM/f28004x_bootrom/F28004x_ROM_dev/F28004x_ROM/driverlib/epwm
    2084 00000179 0209          MOVB      ACC,#9                ; [CPU_] |649| 
    2085 0000017a 1E48          MOVL      *-SP[8],ACC           ; [CPU_] |649| 
    2086                      .dwpsn  file "C:/work/grepos/c2000_bootROM/f28004x_bootrom/F28004x_ROM_dev/F28004x_ROM/driverlib/epwm
    2087 0000017b 6F11          B         $C$L11,UNC            ; [CPU_] |650| 
    2088                      ; branch occurs ; [] |650| 
    2089 0000017c       $C$L8:    
    2090                      .dwpsn  file "C:/work/grepos/c2000_bootROM/f28004x_bootrom/F28004x_ROM_dev/F28004x_ROM/driverlib/epwm
    2091 0000017c 56BF          MOVB      *-SP[5],#2,UNC        ; [CPU_] |652| 
         0000017d 0245 
    2092                      .dwpsn  file "C:/work/grepos/c2000_bootROM/f28004x_bootrom/F28004x_ROM_dev/F28004x_ROM/driverlib/epwm
    2093 0000017e 0209          MOVB      ACC,#9                ; [CPU_] |653| 
    2094 0000017f 1E48          MOVL      *-SP[8],ACC           ; [CPU_] |653| 
    2095                      .dwpsn  file "C:/work/grepos/c2000_bootROM/f28004x_bootrom/F28004x_ROM_dev/F28004x_ROM/driverlib/epwm
    2096 00000180 6F0C          B         $C$L11,UNC            ; [CPU_] |654| 
    2097                      ; branch occurs ; [] |654| 
    2098 00000181       $C$L9:    
    2099                      .dwpsn  file "C:/work/grepos/c2000_bootROM/f28004x_bootrom/F28004x_ROM_dev/F28004x_ROM/driverlib/epwm
    2100 00000181 2B44          MOV       *-SP[4],#0            ; [CPU_] |656| 
    2101                      .dwpsn  file "C:/work/grepos/c2000_bootROM/f28004x_bootrom/F28004x_ROM_dev/F28004x_ROM/driverlib/epwm
    2102 00000182 6F0A          B         $C$L11,UNC            ; [CPU_] |657| 
    2103                      ; branch occurs ; [] |657| 
    2104 00000183       $C$L10:    
    2105                      .dwpsn  file "C:/work/grepos/c2000_bootROM/f28004x_bootrom/F28004x_ROM_dev/F28004x_ROM/driverlib/epwm
    2106 00000183 9243          MOV       AL,*-SP[3]            ; [CPU_] |637| 
    2107 00000184 ECEB          BF        $C$L5,EQ              ; [CPU_] |637| 
    2108                      ; branchcc occurs ; [] |637| 
TMS320C2000 Assembler PC v6.2.9 Tue Apr 14 13:32:06 2015

Tools Copyright (c) 1996-2014 Texas Instruments Incorporated
C:\Users\a0272466\AppData\Local\Temp\0620410                         PAGE   40

    2109 00000185 5202          CMPB      AL,#2                 ; [CPU_] |637| 
    2110 00000186 ECED          BF        $C$L6,EQ              ; [CPU_] |637| 
    2111                      ; branchcc occurs ; [] |637| 
    2112 00000187 5205          CMPB      AL,#5                 ; [CPU_] |637| 
    2113 00000188 ECF0          BF        $C$L7,EQ              ; [CPU_] |637| 
    2114                      ; branchcc occurs ; [] |637| 
    2115 00000189 5207          CMPB      AL,#7                 ; [CPU_] |637| 
    2116 0000018a ECF2          BF        $C$L8,EQ              ; [CPU_] |637| 
    2117                      ; branchcc occurs ; [] |637| 
    2118 0000018b 6FF6          B         $C$L9,UNC             ; [CPU_] |637| 
    2119                      ; branch occurs ; [] |637| 
    2120 0000018c       $C$L11:    
    2121                      .dwpsn  file "C:/work/grepos/c2000_bootROM/f28004x_bootrom/F28004x_ROM_dev/F28004x_ROM/driverlib/epwm
    2122 0000018c 9244          MOV       AL,*-SP[4]            ; [CPU_] |659| 
    2123 0000018d EC08          BF        $C$L12,EQ             ; [CPU_] |659| 
    2124                      ; branchcc occurs ; [] |659| 
    2125                      .dwpsn  file "C:/work/grepos/c2000_bootROM/f28004x_bootrom/F28004x_ROM_dev/F28004x_ROM/driverlib/epwm
    2126 0000018e 0648          MOVL      ACC,*-SP[8]           ; [CPU_] |661| 
    2127 0000018f 2D45          MOV       T,*-SP[5]             ; [CPU_] |661| 
    2128 00000190 0742          ADDL      ACC,*-SP[2]           ; [CPU_] |661| 
    2129 00000191 8AA9          MOVL      XAR4,ACC              ; [CPU_] |661| 
    2130 00000192 9A03          MOVB      AL,#3                 ; [CPU_] |661| 
    2131 00000193 FF66          LSL       AL,T                  ; [CPU_] |661| 
    2132 00000194 98C4          OR        *+XAR4[0],AL          ; [CPU_] |661| 
    2133                      .dwpsn  file "C:/work/grepos/c2000_bootROM/f28004x_bootrom/F28004x_ROM_dev/F28004x_ROM/driverlib/epwm
    2134 00000195       $C$L12:    
    2135 00000195 FE88          SUBB      SP,#8                 ; [CPU_U] 
    2136                      .dwcfi  cfa_offset, -2
    2137              $C$DW$157       .dwtag  DW_TAG_TI_branch
    2138                      .dwattr $C$DW$157, DW_AT_low_pc(0x00)
    2139                      .dwattr $C$DW$157, DW_AT_TI_return
    2140 00000196 0006          LRETR     ; [CPU_] 
    2141                      ; return occurs ; [] 
    2142                      .dwattr $C$DW$149, DW_AT_TI_end_file("C:/work/grepos/c2000_bootROM/f28004x_bootrom/F28004x_ROM_dev/F2
    2143                      .dwattr $C$DW$149, DW_AT_TI_end_line(0x297)
    2144                      .dwattr $C$DW$149, DW_AT_TI_end_column(0x01)
    2145                      .dwendentry
    2146                      .dwendtag $C$DW$149
    2147              
    2148 00000197               .sect   ".text"
    2149                      .clink
    2150                      .global _EPWM_setupCounterCompareShadowLoadMode
    2151              
    2152              $C$DW$158       .dwtag  DW_TAG_subprogram, DW_AT_name("EPWM_setupCounterCompareShadowLoadMode")
    2153                      .dwattr $C$DW$158, DW_AT_low_pc(_EPWM_setupCounterCompareShadowLoadMode)
    2154                      .dwattr $C$DW$158, DW_AT_high_pc(0x00)
    2155                      .dwattr $C$DW$158, DW_AT_TI_symbol_name("_EPWM_setupCounterCompareShadowLoadMode")
    2156                      .dwattr $C$DW$158, DW_AT_external
    2157                      .dwattr $C$DW$158, DW_AT_TI_begin_file("C:/work/grepos/c2000_bootROM/f28004x_bootrom/F28004x_ROM_dev/
    2158                      .dwattr $C$DW$158, DW_AT_TI_begin_line(0x2ae)
    2159                      .dwattr $C$DW$158, DW_AT_TI_begin_column(0x06)
    2160                      .dwattr $C$DW$158, DW_AT_TI_max_frame_size(-10)
    2161                      .dwpsn  file "C:/work/grepos/c2000_bootROM/f28004x_bootrom/F28004x_ROM_dev/F28004x_ROM/driverlib/epwm
    2162              
    2163                      .dwfde $C$DW$CIE, _EPWM_setupCounterCompareShadowLoadMode
TMS320C2000 Assembler PC v6.2.9 Tue Apr 14 13:32:06 2015

Tools Copyright (c) 1996-2014 Texas Instruments Incorporated
C:\Users\a0272466\AppData\Local\Temp\0620410                         PAGE   41

    2164              $C$DW$159       .dwtag  DW_TAG_formal_parameter, DW_AT_name("base")
    2165                      .dwattr $C$DW$159, DW_AT_TI_symbol_name("_base")
    2166                      .dwattr $C$DW$159, DW_AT_type(*$C$DW$T$136)
    2167                      .dwattr $C$DW$159, DW_AT_location[DW_OP_reg0]
    2168              $C$DW$160       .dwtag  DW_TAG_formal_parameter, DW_AT_name("compModule")
    2169                      .dwattr $C$DW$160, DW_AT_TI_symbol_name("_compModule")
    2170                      .dwattr $C$DW$160, DW_AT_type(*$C$DW$T$40)
    2171                      .dwattr $C$DW$160, DW_AT_location[DW_OP_reg12]
    2172              $C$DW$161       .dwtag  DW_TAG_formal_parameter, DW_AT_name("shadowLoadFlag")
    2173                      .dwattr $C$DW$161, DW_AT_TI_symbol_name("_shadowLoadFlag")
    2174                      .dwattr $C$DW$161, DW_AT_type(*$C$DW$T$153)
    2175                      .dwattr $C$DW$161, DW_AT_location[DW_OP_reg14]
    2176              
    2177              ;***************************************************************
    2178              ;* FNAME: _EPWM_setupCounterCompareShadowLoadMode FR SIZE:   8           *
    2179              ;*                                                             *
    2180              ;* FUNCTION ENVIRONMENT                                        *
    2181              ;*                                                             *
    2182              ;* FUNCTION PROPERTIES                                         *
    2183              ;*                            0 Parameter,  8 Auto,  0 SOE     *
    2184              ;***************************************************************
    2185              
    2186 00000197       _EPWM_setupCounterCompareShadowLoadMode:
    2187                      .dwcfi  cfa_offset, -2
    2188                      .dwcfi  save_reg_to_mem, 26, 0
    2189                      .dwcfi  save_reg_to_reg, 78, 26
    2190 00000197 FE08          ADDB      SP,#8                 ; [CPU_U] 
    2191                      .dwcfi  cfa_offset, -10
    2192              $C$DW$162       .dwtag  DW_TAG_variable, DW_AT_name("base")
    2193                      .dwattr $C$DW$162, DW_AT_TI_symbol_name("_base")
    2194                      .dwattr $C$DW$162, DW_AT_type(*$C$DW$T$136)
    2195                      .dwattr $C$DW$162, DW_AT_location[DW_OP_breg20 -2]
    2196              $C$DW$163       .dwtag  DW_TAG_variable, DW_AT_name("compModule")
    2197                      .dwattr $C$DW$163, DW_AT_TI_symbol_name("_compModule")
    2198                      .dwattr $C$DW$163, DW_AT_type(*$C$DW$T$40)
    2199                      .dwattr $C$DW$163, DW_AT_location[DW_OP_breg20 -3]
    2200              $C$DW$164       .dwtag  DW_TAG_variable, DW_AT_name("shadowLoadFlag")
    2201                      .dwattr $C$DW$164, DW_AT_TI_symbol_name("_shadowLoadFlag")
    2202                      .dwattr $C$DW$164, DW_AT_type(*$C$DW$T$153)
    2203                      .dwattr $C$DW$164, DW_AT_location[DW_OP_breg20 -4]
    2204              $C$DW$165       .dwtag  DW_TAG_variable, DW_AT_name("shadowModeOffset")
    2205                      .dwattr $C$DW$165, DW_AT_TI_symbol_name("_shadowModeOffset")
    2206                      .dwattr $C$DW$165, DW_AT_type(*$C$DW$T$141)
    2207                      .dwattr $C$DW$165, DW_AT_location[DW_OP_breg20 -5]
    2208              $C$DW$166       .dwtag  DW_TAG_variable, DW_AT_name("registerOffset")
    2209                      .dwattr $C$DW$166, DW_AT_TI_symbol_name("_registerOffset")
    2210                      .dwattr $C$DW$166, DW_AT_type(*$C$DW$T$136)
    2211                      .dwattr $C$DW$166, DW_AT_location[DW_OP_breg20 -8]
    2212 00000198 7D44          MOV       *-SP[4],AR5           ; [CPU_] |687| 
    2213 00000199 7C43          MOV       *-SP[3],AR4           ; [CPU_] |687| 
    2214 0000019a 1E42          MOVL      *-SP[2],ACC           ; [CPU_] |687| 
    2215                      .dwpsn  file "C:/work/grepos/c2000_bootROM/f28004x_bootrom/F28004x_ROM_dev/F28004x_ROM/driverlib/epwm
    2216 0000019b 9243          MOV       AL,*-SP[3]            ; [CPU_] |693| 
    2217 0000019c EC03          BF        $C$L13,EQ             ; [CPU_] |693| 
    2218                      ; branchcc occurs ; [] |693| 
TMS320C2000 Assembler PC v6.2.9 Tue Apr 14 13:32:06 2015

Tools Copyright (c) 1996-2014 Texas Instruments Incorporated
C:\Users\a0272466\AppData\Local\Temp\0620410                         PAGE   42

    2219 0000019d 5205          CMPB      AL,#5                 ; [CPU_] |693| 
    2220 0000019e ED04          BF        $C$L14,NEQ            ; [CPU_] |693| 
    2221                      ; branchcc occurs ; [] |693| 
    2222 0000019f       $C$L13:    
    2223                      .dwpsn  file "C:/work/grepos/c2000_bootROM/f28004x_bootrom/F28004x_ROM_dev/F28004x_ROM/driverlib/epwm
    2224 0000019f 56BF          MOVB      *-SP[5],#4,UNC        ; [CPU_] |695| 
         000001a0 0445 
    2225                      .dwpsn  file "C:/work/grepos/c2000_bootROM/f28004x_bootrom/F28004x_ROM_dev/F28004x_ROM/driverlib/epwm
    2226 000001a1 6F07          B         $C$L16,UNC            ; [CPU_] |696| 
    2227                      ; branch occurs ; [] |696| 
    2228 000001a2       $C$L14:    
    2229                      .dwpsn  file "C:/work/grepos/c2000_bootROM/f28004x_bootrom/F28004x_ROM_dev/F28004x_ROM/driverlib/epwm
    2230 000001a2 5202          CMPB      AL,#2                 ; [CPU_] |697| 
    2231 000001a3 EC03          BF        $C$L15,EQ             ; [CPU_] |697| 
    2232                      ; branchcc occurs ; [] |697| 
    2233 000001a4 5207          CMPB      AL,#7                 ; [CPU_] |697| 
    2234 000001a5 ED03          BF        $C$L16,NEQ            ; [CPU_] |697| 
    2235                      ; branchcc occurs ; [] |697| 
    2236 000001a6       $C$L15:    
    2237                      .dwpsn  file "C:/work/grepos/c2000_bootROM/f28004x_bootrom/F28004x_ROM_dev/F28004x_ROM/driverlib/epwm
    2238 000001a6 56BF          MOVB      *-SP[5],#6,UNC        ; [CPU_] |699| 
         000001a7 0645 
    2239 000001a8       $C$L16:    
    2240                      .dwpsn  file "C:/work/grepos/c2000_bootROM/f28004x_bootrom/F28004x_ROM_dev/F28004x_ROM/driverlib/epwm
    2241 000001a8 9001          ANDB      AL,#0x01              ; [CPU_] |702| 
    2242 000001a9 9C08          ADDB      AL,#8                 ; [CPU_] |702| 
    2243 000001aa 0EA9          MOVU      ACC,AL                ; [CPU_] |702| 
    2244 000001ab 1E48          MOVL      *-SP[8],ACC           ; [CPU_] |702| 
    2245                      .dwpsn  file "C:/work/grepos/c2000_bootROM/f28004x_bootrom/F28004x_ROM_dev/F28004x_ROM/driverlib/epwm
    2246 000001ac 9244          MOV       AL,*-SP[4]            ; [CPU_] |704| 
    2247 000001ad EC0A          BF        $C$L17,EQ             ; [CPU_] |704| 
    2248                      ; branchcc occurs ; [] |704| 
    2249                      .dwpsn  file "C:/work/grepos/c2000_bootROM/f28004x_bootrom/F28004x_ROM_dev/F28004x_ROM/driverlib/epwm
    2250 000001ae 0648          MOVL      ACC,*-SP[8]           ; [CPU_] |707| 
    2251 000001af 2D45          MOV       T,*-SP[5]             ; [CPU_] |707| 
    2252 000001b0 0742          ADDL      ACC,*-SP[2]           ; [CPU_] |707| 
    2253 000001b1 8AA9          MOVL      XAR4,ACC              ; [CPU_] |707| 
    2254 000001b2 9A01          MOVB      AL,#1                 ; [CPU_] |707| 
    2255 000001b3 FF66          LSL       AL,T                  ; [CPU_] |707| 
    2256 000001b4 FF5E          NOT       AL                    ; [CPU_] |707| 
    2257 000001b5 C0C4          AND       *+XAR4[0],AL          ; [CPU_] |707| 
    2258                      .dwpsn  file "C:/work/grepos/c2000_bootROM/f28004x_bootrom/F28004x_ROM_dev/F28004x_ROM/driverlib/epwm
    2259 000001b6 6F08          B         $C$L18,UNC            ; [CPU_] |708| 
    2260                      ; branch occurs ; [] |708| 
    2261 000001b7       $C$L17:    
    2262                      .dwpsn  file "C:/work/grepos/c2000_bootROM/f28004x_bootrom/F28004x_ROM_dev/F28004x_ROM/driverlib/epwm
    2263 000001b7 0648          MOVL      ACC,*-SP[8]           ; [CPU_] |712| 
    2264 000001b8 2D45          MOV       T,*-SP[5]             ; [CPU_] |712| 
    2265 000001b9 0742          ADDL      ACC,*-SP[2]           ; [CPU_] |712| 
    2266 000001ba 8AA9          MOVL      XAR4,ACC              ; [CPU_] |712| 
    2267 000001bb 9A01          MOVB      AL,#1                 ; [CPU_] |712| 
    2268 000001bc FF66          LSL       AL,T                  ; [CPU_] |712| 
    2269 000001bd 98C4          OR        *+XAR4[0],AL          ; [CPU_] |712| 
    2270                      .dwpsn  file "C:/work/grepos/c2000_bootROM/f28004x_bootrom/F28004x_ROM_dev/F28004x_ROM/driverlib/epwm
    2271 000001be       $C$L18:    
TMS320C2000 Assembler PC v6.2.9 Tue Apr 14 13:32:06 2015

Tools Copyright (c) 1996-2014 Texas Instruments Incorporated
C:\Users\a0272466\AppData\Local\Temp\0620410                         PAGE   43

    2272 000001be FE88          SUBB      SP,#8                 ; [CPU_U] 
    2273                      .dwcfi  cfa_offset, -2
    2274              $C$DW$167       .dwtag  DW_TAG_TI_branch
    2275                      .dwattr $C$DW$167, DW_AT_low_pc(0x00)
    2276                      .dwattr $C$DW$167, DW_AT_TI_return
    2277 000001bf 0006          LRETR     ; [CPU_] 
    2278                      ; return occurs ; [] 
    2279                      .dwattr $C$DW$158, DW_AT_TI_end_file("C:/work/grepos/c2000_bootROM/f28004x_bootrom/F28004x_ROM_dev/F2
    2280                      .dwattr $C$DW$158, DW_AT_TI_end_line(0x2ca)
    2281                      .dwattr $C$DW$158, DW_AT_TI_end_column(0x01)
    2282                      .dwendentry
    2283                      .dwendtag $C$DW$158
    2284              
    2285 000001c0               .sect   ".text"
    2286                      .clink
    2287                      .global _EPWM_setCounterCompareShadowLoadSyncMode
    2288              
    2289              $C$DW$168       .dwtag  DW_TAG_subprogram, DW_AT_name("EPWM_setCounterCompareShadowLoadSyncMode")
    2290                      .dwattr $C$DW$168, DW_AT_low_pc(_EPWM_setCounterCompareShadowLoadSyncMode)
    2291                      .dwattr $C$DW$168, DW_AT_high_pc(0x00)
    2292                      .dwattr $C$DW$168, DW_AT_TI_symbol_name("_EPWM_setCounterCompareShadowLoadSyncMode")
    2293                      .dwattr $C$DW$168, DW_AT_external
    2294                      .dwattr $C$DW$168, DW_AT_TI_begin_file("C:/work/grepos/c2000_bootROM/f28004x_bootrom/F28004x_ROM_dev/
    2295                      .dwattr $C$DW$168, DW_AT_TI_begin_line(0x2e5)
    2296                      .dwattr $C$DW$168, DW_AT_TI_begin_column(0x06)
    2297                      .dwattr $C$DW$168, DW_AT_TI_max_frame_size(-10)
    2298                      .dwpsn  file "C:/work/grepos/c2000_bootROM/f28004x_bootrom/F28004x_ROM_dev/F28004x_ROM/driverlib/epwm
    2299              
    2300                      .dwfde $C$DW$CIE, _EPWM_setCounterCompareShadowLoadSyncMode
    2301              $C$DW$169       .dwtag  DW_TAG_formal_parameter, DW_AT_name("base")
    2302                      .dwattr $C$DW$169, DW_AT_TI_symbol_name("_base")
    2303                      .dwattr $C$DW$169, DW_AT_type(*$C$DW$T$136)
    2304                      .dwattr $C$DW$169, DW_AT_location[DW_OP_reg0]
    2305              $C$DW$170       .dwtag  DW_TAG_formal_parameter, DW_AT_name("compModule")
    2306                      .dwattr $C$DW$170, DW_AT_TI_symbol_name("_compModule")
    2307                      .dwattr $C$DW$170, DW_AT_type(*$C$DW$T$40)
    2308                      .dwattr $C$DW$170, DW_AT_location[DW_OP_reg12]
    2309              $C$DW$171       .dwtag  DW_TAG_formal_parameter, DW_AT_name("syncMode")
    2310                      .dwattr $C$DW$171, DW_AT_TI_symbol_name("_syncMode")
    2311                      .dwattr $C$DW$171, DW_AT_type(*$C$DW$T$42)
    2312                      .dwattr $C$DW$171, DW_AT_location[DW_OP_reg14]
    2313              
    2314              ;***************************************************************
    2315              ;* FNAME: _EPWM_setCounterCompareShadowLoadSyncMode FR SIZE:   8           *
    2316              ;*                                                             *
    2317              ;* FUNCTION ENVIRONMENT                                        *
    2318              ;*                                                             *
    2319              ;* FUNCTION PROPERTIES                                         *
    2320              ;*                            0 Parameter,  8 Auto,  0 SOE     *
    2321              ;***************************************************************
    2322              
    2323 000001c0       _EPWM_setCounterCompareShadowLoadSyncMode:
    2324                      .dwcfi  cfa_offset, -2
    2325                      .dwcfi  save_reg_to_mem, 26, 0
    2326                      .dwcfi  save_reg_to_reg, 78, 26
TMS320C2000 Assembler PC v6.2.9 Tue Apr 14 13:32:06 2015

Tools Copyright (c) 1996-2014 Texas Instruments Incorporated
C:\Users\a0272466\AppData\Local\Temp\0620410                         PAGE   44

    2327 000001c0 FE08          ADDB      SP,#8                 ; [CPU_U] 
    2328                      .dwcfi  cfa_offset, -10
    2329              $C$DW$172       .dwtag  DW_TAG_variable, DW_AT_name("base")
    2330                      .dwattr $C$DW$172, DW_AT_TI_symbol_name("_base")
    2331                      .dwattr $C$DW$172, DW_AT_type(*$C$DW$T$136)
    2332                      .dwattr $C$DW$172, DW_AT_location[DW_OP_breg20 -2]
    2333              $C$DW$173       .dwtag  DW_TAG_variable, DW_AT_name("compModule")
    2334                      .dwattr $C$DW$173, DW_AT_TI_symbol_name("_compModule")
    2335                      .dwattr $C$DW$173, DW_AT_type(*$C$DW$T$40)
    2336                      .dwattr $C$DW$173, DW_AT_location[DW_OP_breg20 -3]
    2337              $C$DW$174       .dwtag  DW_TAG_variable, DW_AT_name("syncMode")
    2338                      .dwattr $C$DW$174, DW_AT_TI_symbol_name("_syncMode")
    2339                      .dwattr $C$DW$174, DW_AT_type(*$C$DW$T$42)
    2340                      .dwattr $C$DW$174, DW_AT_location[DW_OP_breg20 -4]
    2341              $C$DW$175       .dwtag  DW_TAG_variable, DW_AT_name("syncModeOffset")
    2342                      .dwattr $C$DW$175, DW_AT_TI_symbol_name("_syncModeOffset")
    2343                      .dwattr $C$DW$175, DW_AT_type(*$C$DW$T$141)
    2344                      .dwattr $C$DW$175, DW_AT_location[DW_OP_breg20 -5]
    2345              $C$DW$176       .dwtag  DW_TAG_variable, DW_AT_name("registerOffset")
    2346                      .dwattr $C$DW$176, DW_AT_TI_symbol_name("_registerOffset")
    2347                      .dwattr $C$DW$176, DW_AT_type(*$C$DW$T$136)
    2348                      .dwattr $C$DW$176, DW_AT_location[DW_OP_breg20 -8]
    2349 000001c1 7D44          MOV       *-SP[4],AR5           ; [CPU_] |742| 
    2350 000001c2 7C43          MOV       *-SP[3],AR4           ; [CPU_] |742| 
    2351 000001c3 1E42          MOVL      *-SP[2],ACC           ; [CPU_] |742| 
    2352                      .dwpsn  file "C:/work/grepos/c2000_bootROM/f28004x_bootrom/F28004x_ROM_dev/F28004x_ROM/driverlib/epwm
    2353 000001c4 9243          MOV       AL,*-SP[3]            ; [CPU_] |748| 
    2354 000001c5 EC03          BF        $C$L19,EQ             ; [CPU_] |748| 
    2355                      ; branchcc occurs ; [] |748| 
    2356 000001c6 5205          CMPB      AL,#5                 ; [CPU_] |748| 
    2357 000001c7 ED04          BF        $C$L20,NEQ            ; [CPU_] |748| 
    2358                      ; branchcc occurs ; [] |748| 
    2359 000001c8       $C$L19:    
    2360                      .dwpsn  file "C:/work/grepos/c2000_bootROM/f28004x_bootrom/F28004x_ROM_dev/F28004x_ROM/driverlib/epwm
    2361 000001c8 56BF          MOVB      *-SP[5],#10,UNC       ; [CPU_] |750| 
         000001c9 0A45 
    2362                      .dwpsn  file "C:/work/grepos/c2000_bootROM/f28004x_bootrom/F28004x_ROM_dev/F28004x_ROM/driverlib/epwm
    2363 000001ca 6F07          B         $C$L22,UNC            ; [CPU_] |751| 
    2364                      ; branch occurs ; [] |751| 
    2365 000001cb       $C$L20:    
    2366                      .dwpsn  file "C:/work/grepos/c2000_bootROM/f28004x_bootrom/F28004x_ROM_dev/F28004x_ROM/driverlib/epwm
    2367 000001cb 5202          CMPB      AL,#2                 ; [CPU_] |752| 
    2368 000001cc EC03          BF        $C$L21,EQ             ; [CPU_] |752| 
    2369                      ; branchcc occurs ; [] |752| 
    2370 000001cd 5207          CMPB      AL,#7                 ; [CPU_] |752| 
    2371 000001ce ED03          BF        $C$L22,NEQ            ; [CPU_] |752| 
    2372                      ; branchcc occurs ; [] |752| 
    2373 000001cf       $C$L21:    
    2374                      .dwpsn  file "C:/work/grepos/c2000_bootROM/f28004x_bootrom/F28004x_ROM_dev/F28004x_ROM/driverlib/epwm
    2375 000001cf 56BF          MOVB      *-SP[5],#12,UNC       ; [CPU_] |754| 
         000001d0 0C45 
    2376 000001d1       $C$L22:    
    2377                      .dwpsn  file "C:/work/grepos/c2000_bootROM/f28004x_bootrom/F28004x_ROM_dev/F28004x_ROM/driverlib/epwm
    2378 000001d1 9001          ANDB      AL,#0x01              ; [CPU_] |758| 
    2379 000001d2 9C08          ADDB      AL,#8                 ; [CPU_] |758| 
TMS320C2000 Assembler PC v6.2.9 Tue Apr 14 13:32:06 2015

Tools Copyright (c) 1996-2014 Texas Instruments Incorporated
C:\Users\a0272466\AppData\Local\Temp\0620410                         PAGE   45

    2380 000001d3 0EA9          MOVU      ACC,AL                ; [CPU_] |758| 
    2381 000001d4 1E48          MOVL      *-SP[8],ACC           ; [CPU_] |758| 
    2382                      .dwpsn  file "C:/work/grepos/c2000_bootROM/f28004x_bootrom/F28004x_ROM_dev/F28004x_ROM/driverlib/epwm
    2383 000001d5 2D45          MOV       T,*-SP[5]             ; [CPU_] |760| 
    2384 000001d6 0742          ADDL      ACC,*-SP[2]           ; [CPU_] |760| 
    2385 000001d7 8AA9          MOVL      XAR4,ACC              ; [CPU_] |760| 
    2386 000001d8 9244          MOV       AL,*-SP[4]            ; [CPU_] |760| 
    2387 000001d9 9B03          MOVB      AH,#3                 ; [CPU_] |760| 
    2388 000001da FF66          LSL       AL,T                  ; [CPU_] |760| 
    2389 000001db FF67          LSL       AH,T                  ; [CPU_] |760| 
    2390 000001dc 88A9          MOVZ      AR6,AL                ; [CPU_] |760| 
    2391 000001dd FF5F          NOT       AH                    ; [CPU_] |760| 
    2392 000001de CFC4          AND       AH,*+XAR4[0]          ; [CPU_] |760| 
    2393 000001df 99A6          OR        AR6,AH                ; [CPU_] |760| 
    2394 000001e0 0648          MOVL      ACC,*-SP[8]           ; [CPU_] |760| 
    2395 000001e1 0742          ADDL      ACC,*-SP[2]           ; [CPU_] |760| 
    2396 000001e2 8AA9          MOVL      XAR4,ACC              ; [CPU_] |760| 
    2397 000001e3 7EC4          MOV       *+XAR4[0],AR6         ; [CPU_] |760| 
    2398                      .dwpsn  file "C:/work/grepos/c2000_bootROM/f28004x_bootrom/F28004x_ROM_dev/F28004x_ROM/driverlib/epwm
    2399 000001e4 FE88          SUBB      SP,#8                 ; [CPU_U] 
    2400                      .dwcfi  cfa_offset, -2
    2401              $C$DW$177       .dwtag  DW_TAG_TI_branch
    2402                      .dwattr $C$DW$177, DW_AT_low_pc(0x00)
    2403                      .dwattr $C$DW$177, DW_AT_TI_return
    2404 000001e5 0006          LRETR     ; [CPU_] 
    2405                      ; return occurs ; [] 
    2406                      .dwattr $C$DW$168, DW_AT_TI_end_file("C:/work/grepos/c2000_bootROM/f28004x_bootrom/F28004x_ROM_dev/F2
    2407                      .dwattr $C$DW$168, DW_AT_TI_end_line(0x2fa)
    2408                      .dwattr $C$DW$168, DW_AT_TI_end_column(0x01)
    2409                      .dwendentry
    2410                      .dwendtag $C$DW$168
    2411              
    2412 000001e6               .sect   ".text"
    2413                      .clink
    2414                      .global _EPWM_setCounterCompareShadowLoadEvent
    2415              
    2416              $C$DW$178       .dwtag  DW_TAG_subprogram, DW_AT_name("EPWM_setCounterCompareShadowLoadEvent")
    2417                      .dwattr $C$DW$178, DW_AT_low_pc(_EPWM_setCounterCompareShadowLoadEvent)
    2418                      .dwattr $C$DW$178, DW_AT_high_pc(0x00)
    2419                      .dwattr $C$DW$178, DW_AT_TI_symbol_name("_EPWM_setCounterCompareShadowLoadEvent")
    2420                      .dwattr $C$DW$178, DW_AT_external
    2421                      .dwattr $C$DW$178, DW_AT_TI_begin_file("C:/work/grepos/c2000_bootROM/f28004x_bootrom/F28004x_ROM_dev/
    2422                      .dwattr $C$DW$178, DW_AT_TI_begin_line(0x314)
    2423                      .dwattr $C$DW$178, DW_AT_TI_begin_column(0x06)
    2424                      .dwattr $C$DW$178, DW_AT_TI_max_frame_size(-10)
    2425                      .dwpsn  file "C:/work/grepos/c2000_bootROM/f28004x_bootrom/F28004x_ROM_dev/F28004x_ROM/driverlib/epwm
    2426              
    2427                      .dwfde $C$DW$CIE, _EPWM_setCounterCompareShadowLoadEvent
    2428              $C$DW$179       .dwtag  DW_TAG_formal_parameter, DW_AT_name("base")
    2429                      .dwattr $C$DW$179, DW_AT_TI_symbol_name("_base")
    2430                      .dwattr $C$DW$179, DW_AT_type(*$C$DW$T$136)
    2431                      .dwattr $C$DW$179, DW_AT_location[DW_OP_reg0]
    2432              $C$DW$180       .dwtag  DW_TAG_formal_parameter, DW_AT_name("compModule")
    2433                      .dwattr $C$DW$180, DW_AT_TI_symbol_name("_compModule")
    2434                      .dwattr $C$DW$180, DW_AT_type(*$C$DW$T$40)
TMS320C2000 Assembler PC v6.2.9 Tue Apr 14 13:32:06 2015

Tools Copyright (c) 1996-2014 Texas Instruments Incorporated
C:\Users\a0272466\AppData\Local\Temp\0620410                         PAGE   46

    2435                      .dwattr $C$DW$180, DW_AT_location[DW_OP_reg12]
    2436              $C$DW$181       .dwtag  DW_TAG_formal_parameter, DW_AT_name("loadEvent")
    2437                      .dwattr $C$DW$181, DW_AT_TI_symbol_name("_loadEvent")
    2438                      .dwattr $C$DW$181, DW_AT_type(*$C$DW$T$44)
    2439                      .dwattr $C$DW$181, DW_AT_location[DW_OP_reg14]
    2440              
    2441              ;***************************************************************
    2442              ;* FNAME: _EPWM_setCounterCompareShadowLoadEvent FR SIZE:   8           *
    2443              ;*                                                             *
    2444              ;* FUNCTION ENVIRONMENT                                        *
    2445              ;*                                                             *
    2446              ;* FUNCTION PROPERTIES                                         *
    2447              ;*                            0 Parameter,  8 Auto,  0 SOE     *
    2448              ;***************************************************************
    2449              
    2450 000001e6       _EPWM_setCounterCompareShadowLoadEvent:
    2451                      .dwcfi  cfa_offset, -2
    2452                      .dwcfi  save_reg_to_mem, 26, 0
    2453                      .dwcfi  save_reg_to_reg, 78, 26
    2454 000001e6 FE08          ADDB      SP,#8                 ; [CPU_U] 
    2455                      .dwcfi  cfa_offset, -10
    2456              $C$DW$182       .dwtag  DW_TAG_variable, DW_AT_name("base")
    2457                      .dwattr $C$DW$182, DW_AT_TI_symbol_name("_base")
    2458                      .dwattr $C$DW$182, DW_AT_type(*$C$DW$T$136)
    2459                      .dwattr $C$DW$182, DW_AT_location[DW_OP_breg20 -2]
    2460              $C$DW$183       .dwtag  DW_TAG_variable, DW_AT_name("compModule")
    2461                      .dwattr $C$DW$183, DW_AT_TI_symbol_name("_compModule")
    2462                      .dwattr $C$DW$183, DW_AT_type(*$C$DW$T$40)
    2463                      .dwattr $C$DW$183, DW_AT_location[DW_OP_breg20 -3]
    2464              $C$DW$184       .dwtag  DW_TAG_variable, DW_AT_name("loadEvent")
    2465                      .dwattr $C$DW$184, DW_AT_TI_symbol_name("_loadEvent")
    2466                      .dwattr $C$DW$184, DW_AT_type(*$C$DW$T$44)
    2467                      .dwattr $C$DW$184, DW_AT_location[DW_OP_breg20 -4]
    2468              $C$DW$185       .dwtag  DW_TAG_variable, DW_AT_name("loadModeOffset")
    2469                      .dwattr $C$DW$185, DW_AT_TI_symbol_name("_loadModeOffset")
    2470                      .dwattr $C$DW$185, DW_AT_type(*$C$DW$T$141)
    2471                      .dwattr $C$DW$185, DW_AT_location[DW_OP_breg20 -5]
    2472              $C$DW$186       .dwtag  DW_TAG_variable, DW_AT_name("registerOffset")
    2473                      .dwattr $C$DW$186, DW_AT_TI_symbol_name("_registerOffset")
    2474                      .dwattr $C$DW$186, DW_AT_type(*$C$DW$T$136)
    2475                      .dwattr $C$DW$186, DW_AT_location[DW_OP_breg20 -8]
    2476 000001e7 7D44          MOV       *-SP[4],AR5           ; [CPU_] |789| 
    2477 000001e8 7C43          MOV       *-SP[3],AR4           ; [CPU_] |789| 
    2478 000001e9 1E42          MOVL      *-SP[2],ACC           ; [CPU_] |789| 
    2479                      .dwpsn  file "C:/work/grepos/c2000_bootROM/f28004x_bootrom/F28004x_ROM_dev/F28004x_ROM/driverlib/epwm
    2480 000001ea 9243          MOV       AL,*-SP[3]            ; [CPU_] |795| 
    2481 000001eb EC03          BF        $C$L23,EQ             ; [CPU_] |795| 
    2482                      ; branchcc occurs ; [] |795| 
    2483 000001ec 5205          CMPB      AL,#5                 ; [CPU_] |795| 
    2484 000001ed ED03          BF        $C$L24,NEQ            ; [CPU_] |795| 
    2485                      ; branchcc occurs ; [] |795| 
    2486 000001ee       $C$L23:    
    2487                      .dwpsn  file "C:/work/grepos/c2000_bootROM/f28004x_bootrom/F28004x_ROM_dev/F28004x_ROM/driverlib/epwm
    2488 000001ee 2B45          MOV       *-SP[5],#0            ; [CPU_] |797| 
    2489                      .dwpsn  file "C:/work/grepos/c2000_bootROM/f28004x_bootrom/F28004x_ROM_dev/F28004x_ROM/driverlib/epwm
TMS320C2000 Assembler PC v6.2.9 Tue Apr 14 13:32:06 2015

Tools Copyright (c) 1996-2014 Texas Instruments Incorporated
C:\Users\a0272466\AppData\Local\Temp\0620410                         PAGE   47

    2490 000001ef 6F07          B         $C$L26,UNC            ; [CPU_] |798| 
    2491                      ; branch occurs ; [] |798| 
    2492 000001f0       $C$L24:    
    2493                      .dwpsn  file "C:/work/grepos/c2000_bootROM/f28004x_bootrom/F28004x_ROM_dev/F28004x_ROM/driverlib/epwm
    2494 000001f0 5202          CMPB      AL,#2                 ; [CPU_] |799| 
    2495 000001f1 EC03          BF        $C$L25,EQ             ; [CPU_] |799| 
    2496                      ; branchcc occurs ; [] |799| 
    2497 000001f2 5207          CMPB      AL,#7                 ; [CPU_] |799| 
    2498 000001f3 ED03          BF        $C$L26,NEQ            ; [CPU_] |799| 
    2499                      ; branchcc occurs ; [] |799| 
    2500 000001f4       $C$L25:    
    2501                      .dwpsn  file "C:/work/grepos/c2000_bootROM/f28004x_bootrom/F28004x_ROM_dev/F28004x_ROM/driverlib/epwm
    2502 000001f4 56BF          MOVB      *-SP[5],#2,UNC        ; [CPU_] |801| 
         000001f5 0245 
    2503 000001f6       $C$L26:    
    2504                      .dwpsn  file "C:/work/grepos/c2000_bootROM/f28004x_bootrom/F28004x_ROM_dev/F28004x_ROM/driverlib/epwm
    2505 000001f6 9001          ANDB      AL,#0x01              ; [CPU_] |805| 
    2506 000001f7 9C08          ADDB      AL,#8                 ; [CPU_] |805| 
    2507 000001f8 0EA9          MOVU      ACC,AL                ; [CPU_] |805| 
    2508 000001f9 1E48          MOVL      *-SP[8],ACC           ; [CPU_] |805| 
    2509                      .dwpsn  file "C:/work/grepos/c2000_bootROM/f28004x_bootrom/F28004x_ROM_dev/F28004x_ROM/driverlib/epwm
    2510 000001fa 2D45          MOV       T,*-SP[5]             ; [CPU_] |807| 
    2511 000001fb 0742          ADDL      ACC,*-SP[2]           ; [CPU_] |807| 
    2512 000001fc 8AA9          MOVL      XAR4,ACC              ; [CPU_] |807| 
    2513 000001fd 9244          MOV       AL,*-SP[4]            ; [CPU_] |807| 
    2514 000001fe 9B03          MOVB      AH,#3                 ; [CPU_] |807| 
    2515 000001ff FF66          LSL       AL,T                  ; [CPU_] |807| 
    2516 00000200 FF67          LSL       AH,T                  ; [CPU_] |807| 
    2517 00000201 88A9          MOVZ      AR6,AL                ; [CPU_] |807| 
    2518 00000202 FF5F          NOT       AH                    ; [CPU_] |807| 
    2519 00000203 CFC4          AND       AH,*+XAR4[0]          ; [CPU_] |807| 
    2520 00000204 99A6          OR        AR6,AH                ; [CPU_] |807| 
    2521 00000205 0648          MOVL      ACC,*-SP[8]           ; [CPU_] |807| 
    2522 00000206 0742          ADDL      ACC,*-SP[2]           ; [CPU_] |807| 
    2523 00000207 8AA9          MOVL      XAR4,ACC              ; [CPU_] |807| 
    2524 00000208 7EC4          MOV       *+XAR4[0],AR6         ; [CPU_] |807| 
    2525                      .dwpsn  file "C:/work/grepos/c2000_bootROM/f28004x_bootrom/F28004x_ROM_dev/F28004x_ROM/driverlib/epwm
    2526 00000209 FE88          SUBB      SP,#8                 ; [CPU_U] 
    2527                      .dwcfi  cfa_offset, -2
    2528              $C$DW$187       .dwtag  DW_TAG_TI_branch
    2529                      .dwattr $C$DW$187, DW_AT_low_pc(0x00)
    2530                      .dwattr $C$DW$187, DW_AT_TI_return
    2531 0000020a 0006          LRETR     ; [CPU_] 
    2532                      ; return occurs ; [] 
    2533                      .dwattr $C$DW$178, DW_AT_TI_end_file("C:/work/grepos/c2000_bootROM/f28004x_bootrom/F28004x_ROM_dev/F2
    2534                      .dwattr $C$DW$178, DW_AT_TI_end_line(0x329)
    2535                      .dwattr $C$DW$178, DW_AT_TI_end_column(0x01)
    2536                      .dwendentry
    2537                      .dwendtag $C$DW$178
    2538              
    2539 0000020b               .sect   ".text"
    2540                      .clink
    2541                      .global _EPWM_setCounterCompareValue
    2542              
    2543              $C$DW$188       .dwtag  DW_TAG_subprogram, DW_AT_name("EPWM_setCounterCompareValue")
TMS320C2000 Assembler PC v6.2.9 Tue Apr 14 13:32:06 2015

Tools Copyright (c) 1996-2014 Texas Instruments Incorporated
C:\Users\a0272466\AppData\Local\Temp\0620410                         PAGE   48

    2544                      .dwattr $C$DW$188, DW_AT_low_pc(_EPWM_setCounterCompareValue)
    2545                      .dwattr $C$DW$188, DW_AT_high_pc(0x00)
    2546                      .dwattr $C$DW$188, DW_AT_TI_symbol_name("_EPWM_setCounterCompareValue")
    2547                      .dwattr $C$DW$188, DW_AT_external
    2548                      .dwattr $C$DW$188, DW_AT_TI_begin_file("C:/work/grepos/c2000_bootROM/f28004x_bootrom/F28004x_ROM_dev/
    2549                      .dwattr $C$DW$188, DW_AT_TI_begin_line(0x33d)
    2550                      .dwattr $C$DW$188, DW_AT_TI_begin_column(0x06)
    2551                      .dwattr $C$DW$188, DW_AT_TI_max_frame_size(-10)
    2552                      .dwpsn  file "C:/work/grepos/c2000_bootROM/f28004x_bootrom/F28004x_ROM_dev/F28004x_ROM/driverlib/epwm
    2553              
    2554                      .dwfde $C$DW$CIE, _EPWM_setCounterCompareValue
    2555              $C$DW$189       .dwtag  DW_TAG_formal_parameter, DW_AT_name("base")
    2556                      .dwattr $C$DW$189, DW_AT_TI_symbol_name("_base")
    2557                      .dwattr $C$DW$189, DW_AT_type(*$C$DW$T$136)
    2558                      .dwattr $C$DW$189, DW_AT_location[DW_OP_reg0]
    2559              $C$DW$190       .dwtag  DW_TAG_formal_parameter, DW_AT_name("compModule")
    2560                      .dwattr $C$DW$190, DW_AT_TI_symbol_name("_compModule")
    2561                      .dwattr $C$DW$190, DW_AT_type(*$C$DW$T$40)
    2562                      .dwattr $C$DW$190, DW_AT_location[DW_OP_reg12]
    2563              $C$DW$191       .dwtag  DW_TAG_formal_parameter, DW_AT_name("compCount")
    2564                      .dwattr $C$DW$191, DW_AT_TI_symbol_name("_compCount")
    2565                      .dwattr $C$DW$191, DW_AT_type(*$C$DW$T$141)
    2566                      .dwattr $C$DW$191, DW_AT_location[DW_OP_reg14]
    2567              
    2568              ;***************************************************************
    2569              ;* FNAME: _EPWM_setCounterCompareValue  FR SIZE:   8           *
    2570              ;*                                                             *
    2571              ;* FUNCTION ENVIRONMENT                                        *
    2572              ;*                                                             *
    2573              ;* FUNCTION PROPERTIES                                         *
    2574              ;*                            0 Parameter,  8 Auto,  0 SOE     *
    2575              ;***************************************************************
    2576              
    2577 0000020b       _EPWM_setCounterCompareValue:
    2578                      .dwcfi  cfa_offset, -2
    2579                      .dwcfi  save_reg_to_mem, 26, 0
    2580                      .dwcfi  save_reg_to_reg, 78, 26
    2581 0000020b FE08          ADDB      SP,#8                 ; [CPU_U] 
    2582                      .dwcfi  cfa_offset, -10
    2583              $C$DW$192       .dwtag  DW_TAG_variable, DW_AT_name("base")
    2584                      .dwattr $C$DW$192, DW_AT_TI_symbol_name("_base")
    2585                      .dwattr $C$DW$192, DW_AT_type(*$C$DW$T$136)
    2586                      .dwattr $C$DW$192, DW_AT_location[DW_OP_breg20 -2]
    2587              $C$DW$193       .dwtag  DW_TAG_variable, DW_AT_name("compModule")
    2588                      .dwattr $C$DW$193, DW_AT_TI_symbol_name("_compModule")
    2589                      .dwattr $C$DW$193, DW_AT_type(*$C$DW$T$40)
    2590                      .dwattr $C$DW$193, DW_AT_location[DW_OP_breg20 -3]
    2591              $C$DW$194       .dwtag  DW_TAG_variable, DW_AT_name("compCount")
    2592                      .dwattr $C$DW$194, DW_AT_TI_symbol_name("_compCount")
    2593                      .dwattr $C$DW$194, DW_AT_type(*$C$DW$T$141)
    2594                      .dwattr $C$DW$194, DW_AT_location[DW_OP_breg20 -4]
    2595              $C$DW$195       .dwtag  DW_TAG_variable, DW_AT_name("registerOffset")
    2596                      .dwattr $C$DW$195, DW_AT_TI_symbol_name("_registerOffset")
    2597                      .dwattr $C$DW$195, DW_AT_type(*$C$DW$T$136)
    2598                      .dwattr $C$DW$195, DW_AT_location[DW_OP_breg20 -6]
TMS320C2000 Assembler PC v6.2.9 Tue Apr 14 13:32:06 2015

Tools Copyright (c) 1996-2014 Texas Instruments Incorporated
C:\Users\a0272466\AppData\Local\Temp\0620410                         PAGE   49

    2599 0000020c 7D44          MOV       *-SP[4],AR5           ; [CPU_] |830| 
    2600 0000020d 7C43          MOV       *-SP[3],AR4           ; [CPU_] |830| 
    2601 0000020e 1E42          MOVL      *-SP[2],ACC           ; [CPU_] |830| 
    2602                      .dwpsn  file "C:/work/grepos/c2000_bootROM/f28004x_bootrom/F28004x_ROM_dev/F28004x_ROM/driverlib/epwm
    2603 0000020f 9243          MOV       AL,*-SP[3]            ; [CPU_] |836| 
    2604 00000210 9C6A          ADDB      AL,#106               ; [CPU_] |836| 
    2605 00000211 0EA9          MOVU      ACC,AL                ; [CPU_] |836| 
    2606 00000212 1E46          MOVL      *-SP[6],ACC           ; [CPU_] |836| 
    2607                      .dwpsn  file "C:/work/grepos/c2000_bootROM/f28004x_bootrom/F28004x_ROM_dev/F28004x_ROM/driverlib/epwm
    2608 00000213 9243          MOV       AL,*-SP[3]            ; [CPU_] |838| 
    2609 00000214 EC03          BF        $C$L27,EQ             ; [CPU_] |838| 
    2610                      ; branchcc occurs ; [] |838| 
    2611 00000215 5202          CMPB      AL,#2                 ; [CPU_] |838| 
    2612 00000216 ED16          BF        $C$L28,NEQ            ; [CPU_] |838| 
    2613                      ; branchcc occurs ; [] |838| 
    2614 00000217       $C$L27:    
    2615                      .dwpsn  file "C:/work/grepos/c2000_bootROM/f28004x_bootrom/F28004x_ROM_dev/F28004x_ROM/driverlib/epwm
    2616 00000217 0646          MOVL      ACC,*-SP[6]           ; [CPU_] |841| 
    2617 00000218 2901          CLRC      SXM                   ; [CPU_] 
    2618 00000219 0742          ADDL      ACC,*-SP[2]           ; [CPU_] |841| 
    2619 0000021a 8AA9          MOVL      XAR4,ACC              ; [CPU_] |841| 
    2620 0000021b A3C4          MOVL      P,*+XAR4[0]           ; [CPU_] |841| 
    2621 0000021c 2544          MOV       ACC,*-SP[4] << 16     ; [CPU_] |841| 
    2622 0000021d 18AA          AND       PH,#0                 ; [CPU_] |841| 
         0000021e 0000 
    2623 0000021f 1E48          MOVL      *-SP[8],ACC           ; [CPU_] |841| 
    2624 00000220 9248          MOV       AL,*-SP[8]            ; [CPU_] |841| 
    2625 00000221 CAAB          OR        AL,PL                 ; [CPU_] |841| 
    2626 00000222 9648          MOV       *-SP[8],AL            ; [CPU_] |841| 
    2627 00000223 9247          MOV       AL,*-SP[7]            ; [CPU_] |841| 
    2628 00000224 CAAA          OR        AL,PH                 ; [CPU_] |841| 
    2629 00000225 9647          MOV       *-SP[7],AL            ; [CPU_] |841| 
    2630 00000226 0646          MOVL      ACC,*-SP[6]           ; [CPU_] |841| 
    2631 00000227 0742          ADDL      ACC,*-SP[2]           ; [CPU_] |841| 
    2632 00000228 8AA9          MOVL      XAR4,ACC              ; [CPU_] |841| 
    2633 00000229 0648          MOVL      ACC,*-SP[8]           ; [CPU_] |841| 
    2634 0000022a 1EC4          MOVL      *+XAR4[0],ACC         ; [CPU_] |841| 
    2635                      .dwpsn  file "C:/work/grepos/c2000_bootROM/f28004x_bootrom/F28004x_ROM_dev/F28004x_ROM/driverlib/epwm
    2636 0000022b 6F0A          B         $C$L30,UNC            ; [CPU_] |842| 
    2637                      ; branch occurs ; [] |842| 
    2638 0000022c       $C$L28:    
    2639                      .dwpsn  file "C:/work/grepos/c2000_bootROM/f28004x_bootrom/F28004x_ROM_dev/F28004x_ROM/driverlib/epwm
    2640 0000022c 5205          CMPB      AL,#5                 ; [CPU_] |843| 
    2641 0000022d EC03          BF        $C$L29,EQ             ; [CPU_] |843| 
    2642                      ; branchcc occurs ; [] |843| 
    2643 0000022e 5207          CMPB      AL,#7                 ; [CPU_] |843| 
    2644 0000022f ED06          BF        $C$L30,NEQ            ; [CPU_] |843| 
    2645                      ; branchcc occurs ; [] |843| 
    2646 00000230       $C$L29:    
    2647                      .dwpsn  file "C:/work/grepos/c2000_bootROM/f28004x_bootrom/F28004x_ROM_dev/F28004x_ROM/driverlib/epwm
    2648 00000230 8844          MOVZ      AR6,*-SP[4]           ; [CPU_] |846| 
    2649 00000231 0646          MOVL      ACC,*-SP[6]           ; [CPU_] |846| 
    2650 00000232 0742          ADDL      ACC,*-SP[2]           ; [CPU_] |846| 
    2651 00000233 8AA9          MOVL      XAR4,ACC              ; [CPU_] |846| 
    2652 00000234 7EC4          MOV       *+XAR4[0],AR6         ; [CPU_] |846| 
TMS320C2000 Assembler PC v6.2.9 Tue Apr 14 13:32:06 2015

Tools Copyright (c) 1996-2014 Texas Instruments Incorporated
C:\Users\a0272466\AppData\Local\Temp\0620410                         PAGE   50

    2653                      .dwpsn  file "C:/work/grepos/c2000_bootROM/f28004x_bootrom/F28004x_ROM_dev/F28004x_ROM/driverlib/epwm
    2654 00000235       $C$L30:    
    2655 00000235 FE88          SUBB      SP,#8                 ; [CPU_U] 
    2656                      .dwcfi  cfa_offset, -2
    2657              $C$DW$196       .dwtag  DW_TAG_TI_branch
    2658                      .dwattr $C$DW$196, DW_AT_low_pc(0x00)
    2659                      .dwattr $C$DW$196, DW_AT_TI_return
    2660 00000236 0006          LRETR     ; [CPU_] 
    2661                      ; return occurs ; [] 
    2662                      .dwattr $C$DW$188, DW_AT_TI_end_file("C:/work/grepos/c2000_bootROM/f28004x_bootrom/F28004x_ROM_dev/F2
    2663                      .dwattr $C$DW$188, DW_AT_TI_end_line(0x350)
    2664                      .dwattr $C$DW$188, DW_AT_TI_end_column(0x01)
    2665                      .dwendentry
    2666                      .dwendtag $C$DW$188
    2667              
    2668 00000237               .sect   ".text"
    2669                      .clink
    2670                      .global _EPWM_getCounterCompareShadowStatus
    2671              
    2672              $C$DW$197       .dwtag  DW_TAG_subprogram, DW_AT_name("EPWM_getCounterCompareShadowStatus")
    2673                      .dwattr $C$DW$197, DW_AT_low_pc(_EPWM_getCounterCompareShadowStatus)
    2674                      .dwattr $C$DW$197, DW_AT_high_pc(0x00)
    2675                      .dwattr $C$DW$197, DW_AT_TI_symbol_name("_EPWM_getCounterCompareShadowStatus")
    2676                      .dwattr $C$DW$197, DW_AT_external
    2677                      .dwattr $C$DW$197, DW_AT_type(*$C$DW$T$141)
    2678                      .dwattr $C$DW$197, DW_AT_TI_begin_file("C:/work/grepos/c2000_bootROM/f28004x_bootrom/F28004x_ROM_dev/
    2679                      .dwattr $C$DW$197, DW_AT_TI_begin_line(0x360)
    2680                      .dwattr $C$DW$197, DW_AT_TI_begin_column(0x0a)
    2681                      .dwattr $C$DW$197, DW_AT_TI_max_frame_size(-6)
    2682                      .dwpsn  file "C:/work/grepos/c2000_bootROM/f28004x_bootrom/F28004x_ROM_dev/F28004x_ROM/driverlib/epwm
    2683              
    2684                      .dwfde $C$DW$CIE, _EPWM_getCounterCompareShadowStatus
    2685              $C$DW$198       .dwtag  DW_TAG_formal_parameter, DW_AT_name("base")
    2686                      .dwattr $C$DW$198, DW_AT_TI_symbol_name("_base")
    2687                      .dwattr $C$DW$198, DW_AT_type(*$C$DW$T$136)
    2688                      .dwattr $C$DW$198, DW_AT_location[DW_OP_reg0]
    2689              $C$DW$199       .dwtag  DW_TAG_formal_parameter, DW_AT_name("compModule")
    2690                      .dwattr $C$DW$199, DW_AT_TI_symbol_name("_compModule")
    2691                      .dwattr $C$DW$199, DW_AT_type(*$C$DW$T$40)
    2692                      .dwattr $C$DW$199, DW_AT_location[DW_OP_reg12]
    2693              
    2694              ;***************************************************************
    2695              ;* FNAME: _EPWM_getCounterCompareShadowStatus FR SIZE:   4           *
    2696              ;*                                                             *
    2697              ;* FUNCTION ENVIRONMENT                                        *
    2698              ;*                                                             *
    2699              ;* FUNCTION PROPERTIES                                         *
    2700              ;*                            0 Parameter,  3 Auto,  0 SOE     *
    2701              ;***************************************************************
    2702              
    2703 00000237       _EPWM_getCounterCompareShadowStatus:
    2704                      .dwcfi  cfa_offset, -2
    2705                      .dwcfi  save_reg_to_mem, 26, 0
    2706                      .dwcfi  save_reg_to_reg, 78, 26
    2707 00000237 FE04          ADDB      SP,#4                 ; [CPU_U] 
TMS320C2000 Assembler PC v6.2.9 Tue Apr 14 13:32:06 2015

Tools Copyright (c) 1996-2014 Texas Instruments Incorporated
C:\Users\a0272466\AppData\Local\Temp\0620410                         PAGE   51

    2708                      .dwcfi  cfa_offset, -6
    2709              $C$DW$200       .dwtag  DW_TAG_variable, DW_AT_name("base")
    2710                      .dwattr $C$DW$200, DW_AT_TI_symbol_name("_base")
    2711                      .dwattr $C$DW$200, DW_AT_type(*$C$DW$T$136)
    2712                      .dwattr $C$DW$200, DW_AT_location[DW_OP_breg20 -2]
    2713              $C$DW$201       .dwtag  DW_TAG_variable, DW_AT_name("compModule")
    2714                      .dwattr $C$DW$201, DW_AT_TI_symbol_name("_compModule")
    2715                      .dwattr $C$DW$201, DW_AT_type(*$C$DW$T$40)
    2716                      .dwattr $C$DW$201, DW_AT_location[DW_OP_breg20 -3]
    2717 00000238 7C43          MOV       *-SP[3],AR4           ; [CPU_] |865| 
    2718 00000239 1E42          MOVL      *-SP[2],ACC           ; [CPU_] |865| 
    2719                      .dwpsn  file "C:/work/grepos/c2000_bootROM/f28004x_bootrom/F28004x_ROM_dev/F28004x_ROM/driverlib/epwm
    2720 0000023a 9243          MOV       AL,*-SP[3]            ; [CPU_] |868| 
    2721 0000023b ED0B          BF        $C$L31,NEQ            ; [CPU_] |868| 
    2722                      ; branchcc occurs ; [] |868| 
    2723                      .dwpsn  file "C:/work/grepos/c2000_bootROM/f28004x_bootrom/F28004x_ROM_dev/F28004x_ROM/driverlib/epwm
    2724 0000023c 0208          MOVB      ACC,#8                ; [CPU_] |871| 
    2725 0000023d 2901          CLRC      SXM                   ; [CPU_] 
    2726 0000023e 0742          ADDL      ACC,*-SP[2]           ; [CPU_] |871| 
    2727 0000023f 8AA9          MOVL      XAR4,ACC              ; [CPU_] |871| 
    2728 00000240 06C4          MOVL      ACC,*+XAR4[0]         ; [CPU_] |871| 
    2729 00000241 9B00          MOVB      AH,#0                 ; [CPU_] |871| 
    2730 00000242 18A9          AND       AL,#0x0100            ; [CPU_] |871| 
         00000243 0100 
    2731 00000244 FF47          SFR       ACC,8                 ; [CPU_] |871| 
    2732 00000245 6F0A          B         $C$L32,UNC            ; [CPU_] |871| 
    2733                      ; branch occurs ; [] |871| 
    2734 00000246       $C$L31:    
    2735                      .dwpsn  file "C:/work/grepos/c2000_bootROM/f28004x_bootrom/F28004x_ROM_dev/F28004x_ROM/driverlib/epwm
    2736 00000246 0208          MOVB      ACC,#8                ; [CPU_] |876| 
    2737 00000247 2901          CLRC      SXM                   ; [CPU_] 
    2738 00000248 0742          ADDL      ACC,*-SP[2]           ; [CPU_] |876| 
    2739 00000249 8AA9          MOVL      XAR4,ACC              ; [CPU_] |876| 
    2740 0000024a 06C4          MOVL      ACC,*+XAR4[0]         ; [CPU_] |876| 
    2741 0000024b 9B00          MOVB      AH,#0                 ; [CPU_] |876| 
    2742 0000024c 18A9          AND       AL,#0x0200            ; [CPU_] |876| 
         0000024d 0200 
    2743 0000024e FF48          SFR       ACC,9                 ; [CPU_] |876| 
    2744 0000024f       $C$L32:    
    2745                      .dwpsn  file "C:/work/grepos/c2000_bootROM/f28004x_bootrom/F28004x_ROM_dev/F28004x_ROM/driverlib/epwm
    2746 0000024f FE84          SUBB      SP,#4                 ; [CPU_U] 
    2747                      .dwcfi  cfa_offset, -2
    2748              $C$DW$202       .dwtag  DW_TAG_TI_branch
    2749                      .dwattr $C$DW$202, DW_AT_low_pc(0x00)
    2750                      .dwattr $C$DW$202, DW_AT_TI_return
    2751 00000250 0006          LRETR     ; [CPU_] 
    2752                      ; return occurs ; [] 
    2753                      .dwattr $C$DW$197, DW_AT_TI_end_file("C:/work/grepos/c2000_bootROM/f28004x_bootrom/F28004x_ROM_dev/F2
    2754                      .dwattr $C$DW$197, DW_AT_TI_end_line(0x36e)
    2755                      .dwattr $C$DW$197, DW_AT_TI_end_column(0x01)
    2756                      .dwendentry
    2757                      .dwendtag $C$DW$197
    2758              
    2759 00000251               .sect   ".text"
    2760                      .clink
TMS320C2000 Assembler PC v6.2.9 Tue Apr 14 13:32:06 2015

Tools Copyright (c) 1996-2014 Texas Instruments Incorporated
C:\Users\a0272466\AppData\Local\Temp\0620410                         PAGE   52

    2761                      .global _EPWM_disableActionQualifierLoad
    2762              
    2763              $C$DW$203       .dwtag  DW_TAG_subprogram, DW_AT_name("EPWM_disableActionQualifierLoad")
    2764                      .dwattr $C$DW$203, DW_AT_low_pc(_EPWM_disableActionQualifierLoad)
    2765                      .dwattr $C$DW$203, DW_AT_high_pc(0x00)
    2766                      .dwattr $C$DW$203, DW_AT_TI_symbol_name("_EPWM_disableActionQualifierLoad")
    2767                      .dwattr $C$DW$203, DW_AT_external
    2768                      .dwattr $C$DW$203, DW_AT_TI_begin_file("C:/work/grepos/c2000_bootROM/f28004x_bootrom/F28004x_ROM_dev/
    2769                      .dwattr $C$DW$203, DW_AT_TI_begin_line(0x380)
    2770                      .dwattr $C$DW$203, DW_AT_TI_begin_column(0x06)
    2771                      .dwattr $C$DW$203, DW_AT_TI_max_frame_size(-6)
    2772                      .dwpsn  file "C:/work/grepos/c2000_bootROM/f28004x_bootrom/F28004x_ROM_dev/F28004x_ROM/driverlib/epwm
    2773              
    2774                      .dwfde $C$DW$CIE, _EPWM_disableActionQualifierLoad
    2775              $C$DW$204       .dwtag  DW_TAG_formal_parameter, DW_AT_name("base")
    2776                      .dwattr $C$DW$204, DW_AT_TI_symbol_name("_base")
    2777                      .dwattr $C$DW$204, DW_AT_type(*$C$DW$T$136)
    2778                      .dwattr $C$DW$204, DW_AT_location[DW_OP_reg0]
    2779              $C$DW$205       .dwtag  DW_TAG_formal_parameter, DW_AT_name("aqModule")
    2780                      .dwattr $C$DW$205, DW_AT_TI_symbol_name("_aqModule")
    2781                      .dwattr $C$DW$205, DW_AT_type(*$C$DW$T$46)
    2782                      .dwattr $C$DW$205, DW_AT_location[DW_OP_reg12]
    2783              
    2784              ;***************************************************************
    2785              ;* FNAME: _EPWM_disableActionQualifierLoad FR SIZE:   4           *
    2786              ;*                                                             *
    2787              ;* FUNCTION ENVIRONMENT                                        *
    2788              ;*                                                             *
    2789              ;* FUNCTION PROPERTIES                                         *
    2790              ;*                            0 Parameter,  3 Auto,  0 SOE     *
    2791              ;***************************************************************
    2792              
    2793 00000251       _EPWM_disableActionQualifierLoad:
    2794                      .dwcfi  cfa_offset, -2
    2795                      .dwcfi  save_reg_to_mem, 26, 0
    2796                      .dwcfi  save_reg_to_reg, 78, 26
    2797 00000251 FE04          ADDB      SP,#4                 ; [CPU_U] 
    2798                      .dwcfi  cfa_offset, -6
    2799              $C$DW$206       .dwtag  DW_TAG_variable, DW_AT_name("base")
    2800                      .dwattr $C$DW$206, DW_AT_TI_symbol_name("_base")
    2801                      .dwattr $C$DW$206, DW_AT_type(*$C$DW$T$136)
    2802                      .dwattr $C$DW$206, DW_AT_location[DW_OP_breg20 -2]
    2803              $C$DW$207       .dwtag  DW_TAG_variable, DW_AT_name("aqModule")
    2804                      .dwattr $C$DW$207, DW_AT_TI_symbol_name("_aqModule")
    2805                      .dwattr $C$DW$207, DW_AT_type(*$C$DW$T$46)
    2806                      .dwattr $C$DW$207, DW_AT_location[DW_OP_breg20 -3]
    2807 00000252 7C43          MOV       *-SP[3],AR4           ; [CPU_] |897| 
    2808 00000253 1E42          MOVL      *-SP[2],ACC           ; [CPU_] |897| 
    2809                      .dwpsn  file "C:/work/grepos/c2000_bootROM/f28004x_bootrom/F28004x_ROM_dev/F28004x_ROM/driverlib/epwm
    2810 00000254 0210          MOVB      ACC,#16               ; [CPU_] |901| 
    2811 00000255 2D43          MOV       T,*-SP[3]             ; [CPU_] |901| 
    2812 00000256 0742          ADDL      ACC,*-SP[2]           ; [CPU_] |901| 
    2813 00000257 8AA9          MOVL      XAR4,ACC              ; [CPU_] |901| 
    2814 00000258 9A03          MOVB      AL,#3                 ; [CPU_] |901| 
    2815 00000259 FF66          LSL       AL,T                  ; [CPU_] |901| 
TMS320C2000 Assembler PC v6.2.9 Tue Apr 14 13:32:06 2015

Tools Copyright (c) 1996-2014 Texas Instruments Incorporated
C:\Users\a0272466\AppData\Local\Temp\0620410                         PAGE   53

    2816 0000025a 98C4          OR        *+XAR4[0],AL          ; [CPU_] |901| 
    2817                      .dwpsn  file "C:/work/grepos/c2000_bootROM/f28004x_bootrom/F28004x_ROM_dev/F28004x_ROM/driverlib/epwm
    2818 0000025b FE84          SUBB      SP,#4                 ; [CPU_U] 
    2819                      .dwcfi  cfa_offset, -2
    2820              $C$DW$208       .dwtag  DW_TAG_TI_branch
    2821                      .dwattr $C$DW$208, DW_AT_low_pc(0x00)
    2822                      .dwattr $C$DW$208, DW_AT_TI_return
    2823 0000025c 0006          LRETR     ; [CPU_] 
    2824                      ; return occurs ; [] 
    2825                      .dwattr $C$DW$203, DW_AT_TI_end_file("C:/work/grepos/c2000_bootROM/f28004x_bootrom/F28004x_ROM_dev/F2
    2826                      .dwattr $C$DW$203, DW_AT_TI_end_line(0x386)
    2827                      .dwattr $C$DW$203, DW_AT_TI_end_column(0x01)
    2828                      .dwendentry
    2829                      .dwendtag $C$DW$203
    2830              
    2831 0000025d               .sect   ".text"
    2832                      .clink
    2833                      .global _EPWM_setupActionQualifierShadowLoadMode
    2834              
    2835              $C$DW$209       .dwtag  DW_TAG_subprogram, DW_AT_name("EPWM_setupActionQualifierShadowLoadMode")
    2836                      .dwattr $C$DW$209, DW_AT_low_pc(_EPWM_setupActionQualifierShadowLoadMode)
    2837                      .dwattr $C$DW$209, DW_AT_high_pc(0x00)
    2838                      .dwattr $C$DW$209, DW_AT_TI_symbol_name("_EPWM_setupActionQualifierShadowLoadMode")
    2839                      .dwattr $C$DW$209, DW_AT_external
    2840                      .dwattr $C$DW$209, DW_AT_TI_begin_file("C:/work/grepos/c2000_bootROM/f28004x_bootrom/F28004x_ROM_dev/
    2841                      .dwattr $C$DW$209, DW_AT_TI_begin_line(0x39b)
    2842                      .dwattr $C$DW$209, DW_AT_TI_begin_column(0x06)
    2843                      .dwattr $C$DW$209, DW_AT_TI_max_frame_size(-8)
    2844                      .dwpsn  file "C:/work/grepos/c2000_bootROM/f28004x_bootrom/F28004x_ROM_dev/F28004x_ROM/driverlib/epwm
    2845              
    2846                      .dwfde $C$DW$CIE, _EPWM_setupActionQualifierShadowLoadMode
    2847              $C$DW$210       .dwtag  DW_TAG_formal_parameter, DW_AT_name("base")
    2848                      .dwattr $C$DW$210, DW_AT_TI_symbol_name("_base")
    2849                      .dwattr $C$DW$210, DW_AT_type(*$C$DW$T$136)
    2850                      .dwattr $C$DW$210, DW_AT_location[DW_OP_reg0]
    2851              $C$DW$211       .dwtag  DW_TAG_formal_parameter, DW_AT_name("aqModule")
    2852                      .dwattr $C$DW$211, DW_AT_TI_symbol_name("_aqModule")
    2853                      .dwattr $C$DW$211, DW_AT_type(*$C$DW$T$46)
    2854                      .dwattr $C$DW$211, DW_AT_location[DW_OP_reg12]
    2855              $C$DW$212       .dwtag  DW_TAG_formal_parameter, DW_AT_name("shadowLoadFlag")
    2856                      .dwattr $C$DW$212, DW_AT_TI_symbol_name("_shadowLoadFlag")
    2857                      .dwattr $C$DW$212, DW_AT_type(*$C$DW$T$153)
    2858                      .dwattr $C$DW$212, DW_AT_location[DW_OP_reg14]
    2859              
    2860              ;***************************************************************
    2861              ;* FNAME: _EPWM_setupActionQualifierShadowLoadMode FR SIZE:   6           *
    2862              ;*                                                             *
    2863              ;* FUNCTION ENVIRONMENT                                        *
    2864              ;*                                                             *
    2865              ;* FUNCTION PROPERTIES                                         *
    2866              ;*                            0 Parameter,  5 Auto,  0 SOE     *
    2867              ;***************************************************************
    2868              
    2869 0000025d       _EPWM_setupActionQualifierShadowLoadMode:
    2870                      .dwcfi  cfa_offset, -2
TMS320C2000 Assembler PC v6.2.9 Tue Apr 14 13:32:06 2015

Tools Copyright (c) 1996-2014 Texas Instruments Incorporated
C:\Users\a0272466\AppData\Local\Temp\0620410                         PAGE   54

    2871                      .dwcfi  save_reg_to_mem, 26, 0
    2872                      .dwcfi  save_reg_to_reg, 78, 26
    2873 0000025d FE06          ADDB      SP,#6                 ; [CPU_U] 
    2874                      .dwcfi  cfa_offset, -8
    2875              $C$DW$213       .dwtag  DW_TAG_variable, DW_AT_name("base")
    2876                      .dwattr $C$DW$213, DW_AT_TI_symbol_name("_base")
    2877                      .dwattr $C$DW$213, DW_AT_type(*$C$DW$T$136)
    2878                      .dwattr $C$DW$213, DW_AT_location[DW_OP_breg20 -2]
    2879              $C$DW$214       .dwtag  DW_TAG_variable, DW_AT_name("aqModule")
    2880                      .dwattr $C$DW$214, DW_AT_TI_symbol_name("_aqModule")
    2881                      .dwattr $C$DW$214, DW_AT_type(*$C$DW$T$46)
    2882                      .dwattr $C$DW$214, DW_AT_location[DW_OP_breg20 -3]
    2883              $C$DW$215       .dwtag  DW_TAG_variable, DW_AT_name("shadowLoadFlag")
    2884                      .dwattr $C$DW$215, DW_AT_TI_symbol_name("_shadowLoadFlag")
    2885                      .dwattr $C$DW$215, DW_AT_type(*$C$DW$T$153)
    2886                      .dwattr $C$DW$215, DW_AT_location[DW_OP_breg20 -4]
    2887              $C$DW$216       .dwtag  DW_TAG_variable, DW_AT_name("shadowModeOffset")
    2888                      .dwattr $C$DW$216, DW_AT_TI_symbol_name("_shadowModeOffset")
    2889                      .dwattr $C$DW$216, DW_AT_type(*$C$DW$T$141)
    2890                      .dwattr $C$DW$216, DW_AT_location[DW_OP_breg20 -5]
    2891 0000025e 7D44          MOV       *-SP[4],AR5           ; [CPU_] |924| 
    2892 0000025f 7C43          MOV       *-SP[3],AR4           ; [CPU_] |924| 
    2893 00000260 1E42          MOVL      *-SP[2],ACC           ; [CPU_] |924| 
    2894                      .dwpsn  file "C:/work/grepos/c2000_bootROM/f28004x_bootrom/F28004x_ROM_dev/F28004x_ROM/driverlib/epwm
    2895 00000261 9243          MOV       AL,*-SP[3]            ; [CPU_] |929| 
    2896 00000262 9C04          ADDB      AL,#4                 ; [CPU_] |929| 
    2897 00000263 9645          MOV       *-SP[5],AL            ; [CPU_] |929| 
    2898                      .dwpsn  file "C:/work/grepos/c2000_bootROM/f28004x_bootrom/F28004x_ROM_dev/F28004x_ROM/driverlib/epwm
    2899 00000264 9244          MOV       AL,*-SP[4]            ; [CPU_] |931| 
    2900 00000265 EC09          BF        $C$L33,EQ             ; [CPU_] |931| 
    2901                      ; branchcc occurs ; [] |931| 
    2902                      .dwpsn  file "C:/work/grepos/c2000_bootROM/f28004x_bootrom/F28004x_ROM_dev/F28004x_ROM/driverlib/epwm
    2903 00000266 0210          MOVB      ACC,#16               ; [CPU_] |934| 
    2904 00000267 2D45          MOV       T,*-SP[5]             ; [CPU_] |934| 
    2905 00000268 0742          ADDL      ACC,*-SP[2]           ; [CPU_] |934| 
    2906 00000269 8AA9          MOVL      XAR4,ACC              ; [CPU_] |934| 
    2907 0000026a 9A01          MOVB      AL,#1                 ; [CPU_] |934| 
    2908 0000026b FF66          LSL       AL,T                  ; [CPU_] |934| 
    2909 0000026c 98C4          OR        *+XAR4[0],AL          ; [CPU_] |934| 
    2910                      .dwpsn  file "C:/work/grepos/c2000_bootROM/f28004x_bootrom/F28004x_ROM_dev/F28004x_ROM/driverlib/epwm
    2911 0000026d 6F09          B         $C$L34,UNC            ; [CPU_] |935| 
    2912                      ; branch occurs ; [] |935| 
    2913 0000026e       $C$L33:    
    2914                      .dwpsn  file "C:/work/grepos/c2000_bootROM/f28004x_bootrom/F28004x_ROM_dev/F28004x_ROM/driverlib/epwm
    2915 0000026e 0210          MOVB      ACC,#16               ; [CPU_] |939| 
    2916 0000026f 2D45          MOV       T,*-SP[5]             ; [CPU_] |939| 
    2917 00000270 0742          ADDL      ACC,*-SP[2]           ; [CPU_] |939| 
    2918 00000271 8AA9          MOVL      XAR4,ACC              ; [CPU_] |939| 
    2919 00000272 9A01          MOVB      AL,#1                 ; [CPU_] |939| 
    2920 00000273 FF66          LSL       AL,T                  ; [CPU_] |939| 
    2921 00000274 FF5E          NOT       AL                    ; [CPU_] |939| 
    2922 00000275 C0C4          AND       *+XAR4[0],AL          ; [CPU_] |939| 
    2923                      .dwpsn  file "C:/work/grepos/c2000_bootROM/f28004x_bootrom/F28004x_ROM_dev/F28004x_ROM/driverlib/epwm
    2924 00000276       $C$L34:    
    2925 00000276 FE86          SUBB      SP,#6                 ; [CPU_U] 
TMS320C2000 Assembler PC v6.2.9 Tue Apr 14 13:32:06 2015

Tools Copyright (c) 1996-2014 Texas Instruments Incorporated
C:\Users\a0272466\AppData\Local\Temp\0620410                         PAGE   55

    2926                      .dwcfi  cfa_offset, -2
    2927              $C$DW$217       .dwtag  DW_TAG_TI_branch
    2928                      .dwattr $C$DW$217, DW_AT_low_pc(0x00)
    2929                      .dwattr $C$DW$217, DW_AT_TI_return
    2930 00000277 0006          LRETR     ; [CPU_] 
    2931                      ; return occurs ; [] 
    2932                      .dwattr $C$DW$209, DW_AT_TI_end_file("C:/work/grepos/c2000_bootROM/f28004x_bootrom/F28004x_ROM_dev/F2
    2933                      .dwattr $C$DW$209, DW_AT_TI_end_line(0x3ad)
    2934                      .dwattr $C$DW$209, DW_AT_TI_end_column(0x01)
    2935                      .dwendentry
    2936                      .dwendtag $C$DW$209
    2937              
    2938 00000278               .sect   ".text"
    2939                      .clink
    2940                      .global _EPWM_setActionQualifierShadowLoadSyncMode
    2941              
    2942              $C$DW$218       .dwtag  DW_TAG_subprogram, DW_AT_name("EPWM_setActionQualifierShadowLoadSyncMode")
    2943                      .dwattr $C$DW$218, DW_AT_low_pc(_EPWM_setActionQualifierShadowLoadSyncMode)
    2944                      .dwattr $C$DW$218, DW_AT_high_pc(0x00)
    2945                      .dwattr $C$DW$218, DW_AT_TI_symbol_name("_EPWM_setActionQualifierShadowLoadSyncMode")
    2946                      .dwattr $C$DW$218, DW_AT_external
    2947                      .dwattr $C$DW$218, DW_AT_TI_begin_file("C:/work/grepos/c2000_bootROM/f28004x_bootrom/F28004x_ROM_dev/
    2948                      .dwattr $C$DW$218, DW_AT_TI_begin_line(0x3c6)
    2949                      .dwattr $C$DW$218, DW_AT_TI_begin_column(0x06)
    2950                      .dwattr $C$DW$218, DW_AT_TI_max_frame_size(-8)
    2951                      .dwpsn  file "C:/work/grepos/c2000_bootROM/f28004x_bootrom/F28004x_ROM_dev/F28004x_ROM/driverlib/epwm
    2952              
    2953                      .dwfde $C$DW$CIE, _EPWM_setActionQualifierShadowLoadSyncMode
    2954              $C$DW$219       .dwtag  DW_TAG_formal_parameter, DW_AT_name("base")
    2955                      .dwattr $C$DW$219, DW_AT_TI_symbol_name("_base")
    2956                      .dwattr $C$DW$219, DW_AT_type(*$C$DW$T$136)
    2957                      .dwattr $C$DW$219, DW_AT_location[DW_OP_reg0]
    2958              $C$DW$220       .dwtag  DW_TAG_formal_parameter, DW_AT_name("aqModule")
    2959                      .dwattr $C$DW$220, DW_AT_TI_symbol_name("_aqModule")
    2960                      .dwattr $C$DW$220, DW_AT_type(*$C$DW$T$46)
    2961                      .dwattr $C$DW$220, DW_AT_location[DW_OP_reg12]
    2962              $C$DW$221       .dwtag  DW_TAG_formal_parameter, DW_AT_name("syncMode")
    2963                      .dwattr $C$DW$221, DW_AT_TI_symbol_name("_syncMode")
    2964                      .dwattr $C$DW$221, DW_AT_type(*$C$DW$T$48)
    2965                      .dwattr $C$DW$221, DW_AT_location[DW_OP_reg14]
    2966              
    2967              ;***************************************************************
    2968              ;* FNAME: _EPWM_setActionQualifierShadowLoadSyncMode FR SIZE:   6           *
    2969              ;*                                                             *
    2970              ;* FUNCTION ENVIRONMENT                                        *
    2971              ;*                                                             *
    2972              ;* FUNCTION PROPERTIES                                         *
    2973              ;*                            0 Parameter,  5 Auto,  0 SOE     *
    2974              ;***************************************************************
    2975              
    2976 00000278       _EPWM_setActionQualifierShadowLoadSyncMode:
    2977                      .dwcfi  cfa_offset, -2
    2978                      .dwcfi  save_reg_to_mem, 26, 0
    2979                      .dwcfi  save_reg_to_reg, 78, 26
    2980 00000278 FE06          ADDB      SP,#6                 ; [CPU_U] 
TMS320C2000 Assembler PC v6.2.9 Tue Apr 14 13:32:06 2015

Tools Copyright (c) 1996-2014 Texas Instruments Incorporated
C:\Users\a0272466\AppData\Local\Temp\0620410                         PAGE   56

    2981                      .dwcfi  cfa_offset, -8
    2982              $C$DW$222       .dwtag  DW_TAG_variable, DW_AT_name("base")
    2983                      .dwattr $C$DW$222, DW_AT_TI_symbol_name("_base")
    2984                      .dwattr $C$DW$222, DW_AT_type(*$C$DW$T$136)
    2985                      .dwattr $C$DW$222, DW_AT_location[DW_OP_breg20 -2]
    2986              $C$DW$223       .dwtag  DW_TAG_variable, DW_AT_name("aqModule")
    2987                      .dwattr $C$DW$223, DW_AT_TI_symbol_name("_aqModule")
    2988                      .dwattr $C$DW$223, DW_AT_type(*$C$DW$T$46)
    2989                      .dwattr $C$DW$223, DW_AT_location[DW_OP_breg20 -3]
    2990              $C$DW$224       .dwtag  DW_TAG_variable, DW_AT_name("syncMode")
    2991                      .dwattr $C$DW$224, DW_AT_TI_symbol_name("_syncMode")
    2992                      .dwattr $C$DW$224, DW_AT_type(*$C$DW$T$48)
    2993                      .dwattr $C$DW$224, DW_AT_location[DW_OP_breg20 -4]
    2994              $C$DW$225       .dwtag  DW_TAG_variable, DW_AT_name("syncModeOffset")
    2995                      .dwattr $C$DW$225, DW_AT_TI_symbol_name("_syncModeOffset")
    2996                      .dwattr $C$DW$225, DW_AT_type(*$C$DW$T$141)
    2997                      .dwattr $C$DW$225, DW_AT_location[DW_OP_breg20 -5]
    2998 00000279 7D44          MOV       *-SP[4],AR5           ; [CPU_] |967| 
    2999 0000027a 7C43          MOV       *-SP[3],AR4           ; [CPU_] |967| 
    3000 0000027b 1E42          MOVL      *-SP[2],ACC           ; [CPU_] |967| 
    3001                      .dwpsn  file "C:/work/grepos/c2000_bootROM/f28004x_bootrom/F28004x_ROM_dev/F28004x_ROM/driverlib/epwm
    3002 0000027c 9243          MOV       AL,*-SP[3]            ; [CPU_] |973| 
    3003 0000027d 9C08          ADDB      AL,#8                 ; [CPU_] |973| 
    3004 0000027e 9645          MOV       *-SP[5],AL            ; [CPU_] |973| 
    3005                      .dwpsn  file "C:/work/grepos/c2000_bootROM/f28004x_bootrom/F28004x_ROM_dev/F28004x_ROM/driverlib/epwm
    3006 0000027f 0210          MOVB      ACC,#16               ; [CPU_] |976| 
    3007 00000280 2D45          MOV       T,*-SP[5]             ; [CPU_] |976| 
    3008 00000281 0742          ADDL      ACC,*-SP[2]           ; [CPU_] |976| 
    3009 00000282 8AA9          MOVL      XAR4,ACC              ; [CPU_] |976| 
    3010 00000283 9B03          MOVB      AH,#3                 ; [CPU_] |976| 
    3011 00000284 9244          MOV       AL,*-SP[4]            ; [CPU_] |976| 
    3012 00000285 FF67          LSL       AH,T                  ; [CPU_] |976| 
    3013 00000286 FF66          LSL       AL,T                  ; [CPU_] |976| 
    3014 00000287 FF5F          NOT       AH                    ; [CPU_] |976| 
    3015 00000288 88A9          MOVZ      AR6,AL                ; [CPU_] |976| 
    3016 00000289 CFC4          AND       AH,*+XAR4[0]          ; [CPU_] |976| 
    3017 0000028a 99A6          OR        AR6,AH                ; [CPU_] |976| 
    3018 0000028b 0210          MOVB      ACC,#16               ; [CPU_] |976| 
    3019 0000028c 0742          ADDL      ACC,*-SP[2]           ; [CPU_] |976| 
    3020 0000028d 8AA9          MOVL      XAR4,ACC              ; [CPU_] |976| 
    3021 0000028e 7EC4          MOV       *+XAR4[0],AR6         ; [CPU_] |976| 
    3022                      .dwpsn  file "C:/work/grepos/c2000_bootROM/f28004x_bootrom/F28004x_ROM_dev/F28004x_ROM/driverlib/epwm
    3023 0000028f FE86          SUBB      SP,#6                 ; [CPU_U] 
    3024                      .dwcfi  cfa_offset, -2
    3025              $C$DW$226       .dwtag  DW_TAG_TI_branch
    3026                      .dwattr $C$DW$226, DW_AT_low_pc(0x00)
    3027                      .dwattr $C$DW$226, DW_AT_TI_return
    3028 00000290 0006          LRETR     ; [CPU_] 
    3029                      ; return occurs ; [] 
    3030                      .dwattr $C$DW$218, DW_AT_TI_end_file("C:/work/grepos/c2000_bootROM/f28004x_bootrom/F28004x_ROM_dev/F2
    3031                      .dwattr $C$DW$218, DW_AT_TI_end_line(0x3d2)
    3032                      .dwattr $C$DW$218, DW_AT_TI_end_column(0x01)
    3033                      .dwendentry
    3034                      .dwendtag $C$DW$218
    3035              
TMS320C2000 Assembler PC v6.2.9 Tue Apr 14 13:32:06 2015

Tools Copyright (c) 1996-2014 Texas Instruments Incorporated
C:\Users\a0272466\AppData\Local\Temp\0620410                         PAGE   57

    3036 00000291               .sect   ".text"
    3037                      .clink
    3038                      .global _EPWM_setActionQualifierShadowLoadEvent
    3039              
    3040              $C$DW$227       .dwtag  DW_TAG_subprogram, DW_AT_name("EPWM_setActionQualifierShadowLoadEvent")
    3041                      .dwattr $C$DW$227, DW_AT_low_pc(_EPWM_setActionQualifierShadowLoadEvent)
    3042                      .dwattr $C$DW$227, DW_AT_high_pc(0x00)
    3043                      .dwattr $C$DW$227, DW_AT_TI_symbol_name("_EPWM_setActionQualifierShadowLoadEvent")
    3044                      .dwattr $C$DW$227, DW_AT_external
    3045                      .dwattr $C$DW$227, DW_AT_TI_begin_file("C:/work/grepos/c2000_bootROM/f28004x_bootrom/F28004x_ROM_dev/
    3046                      .dwattr $C$DW$227, DW_AT_TI_begin_line(0x3e9)
    3047                      .dwattr $C$DW$227, DW_AT_TI_begin_column(0x06)
    3048                      .dwattr $C$DW$227, DW_AT_TI_max_frame_size(-8)
    3049                      .dwpsn  file "C:/work/grepos/c2000_bootROM/f28004x_bootrom/F28004x_ROM_dev/F28004x_ROM/driverlib/epwm
    3050              
    3051                      .dwfde $C$DW$CIE, _EPWM_setActionQualifierShadowLoadEvent
    3052              $C$DW$228       .dwtag  DW_TAG_formal_parameter, DW_AT_name("base")
    3053                      .dwattr $C$DW$228, DW_AT_TI_symbol_name("_base")
    3054                      .dwattr $C$DW$228, DW_AT_type(*$C$DW$T$136)
    3055                      .dwattr $C$DW$228, DW_AT_location[DW_OP_reg0]
    3056              $C$DW$229       .dwtag  DW_TAG_formal_parameter, DW_AT_name("aqModule")
    3057                      .dwattr $C$DW$229, DW_AT_TI_symbol_name("_aqModule")
    3058                      .dwattr $C$DW$229, DW_AT_type(*$C$DW$T$46)
    3059                      .dwattr $C$DW$229, DW_AT_location[DW_OP_reg12]
    3060              $C$DW$230       .dwtag  DW_TAG_formal_parameter, DW_AT_name("loadEvent")
    3061                      .dwattr $C$DW$230, DW_AT_TI_symbol_name("_loadEvent")
    3062                      .dwattr $C$DW$230, DW_AT_type(*$C$DW$T$50)
    3063                      .dwattr $C$DW$230, DW_AT_location[DW_OP_reg14]
    3064              
    3065              ;***************************************************************
    3066              ;* FNAME: _EPWM_setActionQualifierShadowLoadEvent FR SIZE:   6           *
    3067              ;*                                                             *
    3068              ;* FUNCTION ENVIRONMENT                                        *
    3069              ;*                                                             *
    3070              ;* FUNCTION PROPERTIES                                         *
    3071              ;*                            0 Parameter,  5 Auto,  0 SOE     *
    3072              ;***************************************************************
    3073              
    3074 00000291       _EPWM_setActionQualifierShadowLoadEvent:
    3075                      .dwcfi  cfa_offset, -2
    3076                      .dwcfi  save_reg_to_mem, 26, 0
    3077                      .dwcfi  save_reg_to_reg, 78, 26
    3078 00000291 FE06          ADDB      SP,#6                 ; [CPU_U] 
    3079                      .dwcfi  cfa_offset, -8
    3080              $C$DW$231       .dwtag  DW_TAG_variable, DW_AT_name("base")
    3081                      .dwattr $C$DW$231, DW_AT_TI_symbol_name("_base")
    3082                      .dwattr $C$DW$231, DW_AT_type(*$C$DW$T$136)
    3083                      .dwattr $C$DW$231, DW_AT_location[DW_OP_breg20 -2]
    3084              $C$DW$232       .dwtag  DW_TAG_variable, DW_AT_name("aqModule")
    3085                      .dwattr $C$DW$232, DW_AT_TI_symbol_name("_aqModule")
    3086                      .dwattr $C$DW$232, DW_AT_type(*$C$DW$T$46)
    3087                      .dwattr $C$DW$232, DW_AT_location[DW_OP_breg20 -3]
    3088              $C$DW$233       .dwtag  DW_TAG_variable, DW_AT_name("loadEvent")
    3089                      .dwattr $C$DW$233, DW_AT_TI_symbol_name("_loadEvent")
    3090                      .dwattr $C$DW$233, DW_AT_type(*$C$DW$T$50)
TMS320C2000 Assembler PC v6.2.9 Tue Apr 14 13:32:06 2015

Tools Copyright (c) 1996-2014 Texas Instruments Incorporated
C:\Users\a0272466\AppData\Local\Temp\0620410                         PAGE   58

    3091                      .dwattr $C$DW$233, DW_AT_location[DW_OP_breg20 -4]
    3092              $C$DW$234       .dwtag  DW_TAG_variable, DW_AT_name("loadModeOffset")
    3093                      .dwattr $C$DW$234, DW_AT_TI_symbol_name("_loadModeOffset")
    3094                      .dwattr $C$DW$234, DW_AT_type(*$C$DW$T$141)
    3095                      .dwattr $C$DW$234, DW_AT_location[DW_OP_breg20 -5]
    3096 00000292 7D44          MOV       *-SP[4],AR5           ; [CPU_] |1002| 
    3097 00000293 7C43          MOV       *-SP[3],AR4           ; [CPU_] |1002| 
    3098 00000294 1E42          MOVL      *-SP[2],ACC           ; [CPU_] |1002| 
    3099                      .dwpsn  file "C:/work/grepos/c2000_bootROM/f28004x_bootrom/F28004x_ROM_dev/F28004x_ROM/driverlib/epwm
    3100 00000295 9243          MOV       AL,*-SP[3]            ; [CPU_] |1007| 
    3101 00000296 9645          MOV       *-SP[5],AL            ; [CPU_] |1007| 
    3102                      .dwpsn  file "C:/work/grepos/c2000_bootROM/f28004x_bootrom/F28004x_ROM_dev/F28004x_ROM/driverlib/epwm
    3103 00000297 0210          MOVB      ACC,#16               ; [CPU_] |1010| 
    3104 00000298 2D45          MOV       T,*-SP[5]             ; [CPU_] |1010| 
    3105 00000299 0742          ADDL      ACC,*-SP[2]           ; [CPU_] |1010| 
    3106 0000029a 8AA9          MOVL      XAR4,ACC              ; [CPU_] |1010| 
    3107 0000029b 9B03          MOVB      AH,#3                 ; [CPU_] |1010| 
    3108 0000029c 9244          MOV       AL,*-SP[4]            ; [CPU_] |1010| 
    3109 0000029d FF67          LSL       AH,T                  ; [CPU_] |1010| 
    3110 0000029e FF66          LSL       AL,T                  ; [CPU_] |1010| 
    3111 0000029f FF5F          NOT       AH                    ; [CPU_] |1010| 
    3112 000002a0 88A9          MOVZ      AR6,AL                ; [CPU_] |1010| 
    3113 000002a1 CFC4          AND       AH,*+XAR4[0]          ; [CPU_] |1010| 
    3114 000002a2 99A6          OR        AR6,AH                ; [CPU_] |1010| 
    3115 000002a3 0210          MOVB      ACC,#16               ; [CPU_] |1010| 
    3116 000002a4 0742          ADDL      ACC,*-SP[2]           ; [CPU_] |1010| 
    3117 000002a5 8AA9          MOVL      XAR4,ACC              ; [CPU_] |1010| 
    3118 000002a6 7EC4          MOV       *+XAR4[0],AR6         ; [CPU_] |1010| 
    3119                      .dwpsn  file "C:/work/grepos/c2000_bootROM/f28004x_bootrom/F28004x_ROM_dev/F28004x_ROM/driverlib/epwm
    3120 000002a7 FE86          SUBB      SP,#6                 ; [CPU_U] 
    3121                      .dwcfi  cfa_offset, -2
    3122              $C$DW$235       .dwtag  DW_TAG_TI_branch
    3123                      .dwattr $C$DW$235, DW_AT_low_pc(0x00)
    3124                      .dwattr $C$DW$235, DW_AT_TI_return
    3125 000002a8 0006          LRETR     ; [CPU_] 
    3126                      ; return occurs ; [] 
    3127                      .dwattr $C$DW$227, DW_AT_TI_end_file("C:/work/grepos/c2000_bootROM/f28004x_bootrom/F28004x_ROM_dev/F2
    3128                      .dwattr $C$DW$227, DW_AT_TI_end_line(0x3f4)
    3129                      .dwattr $C$DW$227, DW_AT_TI_end_column(0x01)
    3130                      .dwendentry
    3131                      .dwendtag $C$DW$227
    3132              
    3133 000002a9               .sect   ".text"
    3134                      .clink
    3135                      .global _EPWM_setActionQualifierT1TriggerSource
    3136              
    3137              $C$DW$236       .dwtag  DW_TAG_subprogram, DW_AT_name("EPWM_setActionQualifierT1TriggerSource")
