TMS320C2000 Assembler PC v6.2.9 Tue Apr 14 13:32:51 2015

Tools Copyright (c) 1996-2014 Texas Instruments Incorporated
C:\Users\a0272466\AppData\Local\Temp\0802410                         PAGE    1

       1              ;***************************************************************
       2              ;* TMS320C2000 C/C++ Codegen                         PC v6.2.9 *
       3              ;* Date/Time created: Tue Apr 14 13:32:48 2015                 *
       4              ;***************************************************************
       5                      .compiler_opts --cla_support=cla0 --float_support=fpu32 --hll_source=on --mem_model:code=flat --mem_m
       6        0002  FP      .set    XAR2
       7              
       8              $C$DW$CU        .dwtag  DW_TAG_compile_unit
       9                      .dwattr $C$DW$CU, DW_AT_name("C:/work/grepos/c2000_bootROM/f28004x_bootrom/F28004x_ROM_dev/F28004x_RO
      10                      .dwattr $C$DW$CU, DW_AT_producer("TMS320C2000 C/C++ Codegen PC v6.2.9 Copyright (c) 1996-2014 Texas I
      11                      .dwattr $C$DW$CU, DW_AT_TI_version(0x01)
      12                      .dwattr $C$DW$CU, DW_AT_comp_dir("C:\work\grepos\c2000_bootROM\f28004x_bootrom\F28004x_ROM_dev\ccs_fi
      13              
      14              $C$DW$1 .dwtag  DW_TAG_subprogram, DW_AT_name("__byte")
      15                      .dwattr $C$DW$1, DW_AT_TI_symbol_name("___byte")
      16                      .dwattr $C$DW$1, DW_AT_type(*$C$DW$T$53)
      17                      .dwattr $C$DW$1, DW_AT_declaration
      18                      .dwattr $C$DW$1, DW_AT_external
      19              $C$DW$2 .dwtag  DW_TAG_formal_parameter
      20                      .dwattr $C$DW$2, DW_AT_type(*$C$DW$T$53)
      21              $C$DW$3 .dwtag  DW_TAG_formal_parameter
      22                      .dwattr $C$DW$3, DW_AT_type(*$C$DW$T$11)
      23                      .dwendtag $C$DW$1
      24              
      25              ;       c:\ti\ccsv6\tools\compiler\c2000_6.2.9\bin\ac2000.exe -@C:\\Users\\a0272466\\AppData\\Local\\Temp\\08
      26 00000000               .sect   ".text"
      27                      .clink
      28                      .global _LIN_enableModule
      29              
      30              $C$DW$4 .dwtag  DW_TAG_subprogram, DW_AT_name("LIN_enableModule")
      31                      .dwattr $C$DW$4, DW_AT_low_pc(_LIN_enableModule)
      32                      .dwattr $C$DW$4, DW_AT_high_pc(0x00)
      33                      .dwattr $C$DW$4, DW_AT_TI_symbol_name("_LIN_enableModule")
      34                      .dwattr $C$DW$4, DW_AT_external
      35                      .dwattr $C$DW$4, DW_AT_TI_begin_file("C:/work/grepos/c2000_bootROM/f28004x_bootrom/F28004x_ROM_dev/F2
      36                      .dwattr $C$DW$4, DW_AT_TI_begin_line(0x2b)
      37                      .dwattr $C$DW$4, DW_AT_TI_begin_column(0x01)
      38                      .dwattr $C$DW$4, DW_AT_TI_max_frame_size(-4)
      39                      .dwpsn  file "C:/work/grepos/c2000_bootROM/f28004x_bootrom/F28004x_ROM_dev/F28004x_ROM/driverlib/lin_
      40              
      41                      .dwfde $C$DW$CIE, _LIN_enableModule
      42              $C$DW$5 .dwtag  DW_TAG_formal_parameter, DW_AT_name("base")
      43                      .dwattr $C$DW$5, DW_AT_TI_symbol_name("_base")
      44                      .dwattr $C$DW$5, DW_AT_type(*$C$DW$T$19)
      45                      .dwattr $C$DW$5, DW_AT_location[DW_OP_reg0]
      46              
      47              ;***************************************************************
      48              ;* FNAME: _LIN_enableModule             FR SIZE:   2           *
      49              ;*                                                             *
      50              ;* FUNCTION ENVIRONMENT                                        *
      51              ;*                                                             *
      52              ;* FUNCTION PROPERTIES                                         *
      53              ;*                            0 Parameter,  2 Auto,  0 SOE     *
      54              ;***************************************************************
      55              
TMS320C2000 Assembler PC v6.2.9 Tue Apr 14 13:32:51 2015

Tools Copyright (c) 1996-2014 Texas Instruments Incorporated
C:\Users\a0272466\AppData\Local\Temp\0802410                         PAGE    2

      56 00000000       _LIN_enableModule:
      57                      .dwcfi  cfa_offset, -2
      58                      .dwcfi  save_reg_to_mem, 26, 0
      59                      .dwcfi  save_reg_to_reg, 78, 26
      60 00000000 FE02          ADDB      SP,#2                 ; [CPU_U] 
      61                      .dwcfi  cfa_offset, -4
      62              $C$DW$6 .dwtag  DW_TAG_variable, DW_AT_name("base")
      63                      .dwattr $C$DW$6, DW_AT_TI_symbol_name("_base")
      64                      .dwattr $C$DW$6, DW_AT_type(*$C$DW$T$19)
      65                      .dwattr $C$DW$6, DW_AT_location[DW_OP_breg20 -2]
      66 00000001 1E42          MOVL      *-SP[2],ACC           ; [CPU_] |44| 
      67                      .dwpsn  file "C:/work/grepos/c2000_bootROM/f28004x_bootrom/F28004x_ROM_dev/F28004x_ROM/driverlib/lin_
      68 00000002 7622   EALLOW
      69                      .dwpsn  file "C:/work/grepos/c2000_bootROM/f28004x_bootrom/F28004x_ROM_dev/F28004x_ROM/driverlib/lin_
      70 00000003 8A42          MOVL      XAR4,*-SP[2]          ; [CPU_] |55| 
      71 00000004 1AC4          OR        *+XAR4[0],#0x0001     ; [CPU_] |55| 
         00000005 0001 
      72                      .dwpsn  file "C:/work/grepos/c2000_bootROM/f28004x_bootrom/F28004x_ROM_dev/F28004x_ROM/driverlib/lin_
      73 00000006 761A   EDIS
      74                      .dwpsn  file "C:/work/grepos/c2000_bootROM/f28004x_bootrom/F28004x_ROM_dev/F28004x_ROM/driverlib/lin_
      75 00000007 FF69          SPM       #0                    ; [CPU_] 
      76 00000008 FE82          SUBB      SP,#2                 ; [CPU_U] 
      77                      .dwcfi  cfa_offset, -2
      78              $C$DW$7 .dwtag  DW_TAG_TI_branch
      79                      .dwattr $C$DW$7, DW_AT_low_pc(0x00)
      80                      .dwattr $C$DW$7, DW_AT_TI_return
      81 00000009 0006          LRETR     ; [CPU_] 
      82                      ; return occurs ; [] 
      83                      .dwattr $C$DW$4, DW_AT_TI_end_file("C:/work/grepos/c2000_bootROM/f28004x_bootrom/F28004x_ROM_dev/F280
      84                      .dwattr $C$DW$4, DW_AT_TI_end_line(0x3a)
      85                      .dwattr $C$DW$4, DW_AT_TI_end_column(0x01)
      86                      .dwendentry
      87                      .dwendtag $C$DW$4
      88              
      89 0000000a               .sect   ".text"
      90                      .clink
      91                      .global _LIN_disableModule
      92              
      93              $C$DW$8 .dwtag  DW_TAG_subprogram, DW_AT_name("LIN_disableModule")
      94                      .dwattr $C$DW$8, DW_AT_low_pc(_LIN_disableModule)
      95                      .dwattr $C$DW$8, DW_AT_high_pc(0x00)
      96                      .dwattr $C$DW$8, DW_AT_TI_symbol_name("_LIN_disableModule")
      97                      .dwattr $C$DW$8, DW_AT_external
      98                      .dwattr $C$DW$8, DW_AT_TI_begin_file("C:/work/grepos/c2000_bootROM/f28004x_bootrom/F28004x_ROM_dev/F2
      99                      .dwattr $C$DW$8, DW_AT_TI_begin_line(0x49)
     100                      .dwattr $C$DW$8, DW_AT_TI_begin_column(0x01)
     101                      .dwattr $C$DW$8, DW_AT_TI_max_frame_size(-4)
     102                      .dwpsn  file "C:/work/grepos/c2000_bootROM/f28004x_bootrom/F28004x_ROM_dev/F28004x_ROM/driverlib/lin_
     103              
     104                      .dwfde $C$DW$CIE, _LIN_disableModule
     105              $C$DW$9 .dwtag  DW_TAG_formal_parameter, DW_AT_name("base")
     106                      .dwattr $C$DW$9, DW_AT_TI_symbol_name("_base")
     107                      .dwattr $C$DW$9, DW_AT_type(*$C$DW$T$19)
     108                      .dwattr $C$DW$9, DW_AT_location[DW_OP_reg0]
     109              
TMS320C2000 Assembler PC v6.2.9 Tue Apr 14 13:32:51 2015

Tools Copyright (c) 1996-2014 Texas Instruments Incorporated
C:\Users\a0272466\AppData\Local\Temp\0802410                         PAGE    3

     110              ;***************************************************************
     111              ;* FNAME: _LIN_disableModule            FR SIZE:   2           *
     112              ;*                                                             *
     113              ;* FUNCTION ENVIRONMENT                                        *
     114              ;*                                                             *
     115              ;* FUNCTION PROPERTIES                                         *
     116              ;*                            0 Parameter,  2 Auto,  0 SOE     *
     117              ;***************************************************************
     118              
     119 0000000a       _LIN_disableModule:
     120                      .dwcfi  cfa_offset, -2
     121                      .dwcfi  save_reg_to_mem, 26, 0
     122                      .dwcfi  save_reg_to_reg, 78, 26
     123 0000000a FE02          ADDB      SP,#2                 ; [CPU_U] 
     124                      .dwcfi  cfa_offset, -4
     125              $C$DW$10        .dwtag  DW_TAG_variable, DW_AT_name("base")
     126                      .dwattr $C$DW$10, DW_AT_TI_symbol_name("_base")
     127                      .dwattr $C$DW$10, DW_AT_type(*$C$DW$T$19)
     128                      .dwattr $C$DW$10, DW_AT_location[DW_OP_breg20 -2]
     129 0000000b 1E42          MOVL      *-SP[2],ACC           ; [CPU_] |74| 
     130                      .dwpsn  file "C:/work/grepos/c2000_bootROM/f28004x_bootrom/F28004x_ROM_dev/F28004x_ROM/driverlib/lin_
     131 0000000c 7622   EALLOW
     132                      .dwpsn  file "C:/work/grepos/c2000_bootROM/f28004x_bootrom/F28004x_ROM_dev/F28004x_ROM/driverlib/lin_
     133 0000000d 8A42          MOVL      XAR4,*-SP[2]          ; [CPU_] |85| 
     134 0000000e 18C4          AND       *+XAR4[0],#0xfffe     ; [CPU_] |85| 
         0000000f FFFE 
     135                      .dwpsn  file "C:/work/grepos/c2000_bootROM/f28004x_bootrom/F28004x_ROM_dev/F28004x_ROM/driverlib/lin_
     136 00000010 761A   EDIS
     137                      .dwpsn  file "C:/work/grepos/c2000_bootROM/f28004x_bootrom/F28004x_ROM_dev/F28004x_ROM/driverlib/lin_
     138 00000011 FF69          SPM       #0                    ; [CPU_] 
     139 00000012 FE82          SUBB      SP,#2                 ; [CPU_U] 
     140                      .dwcfi  cfa_offset, -2
     141              $C$DW$11        .dwtag  DW_TAG_TI_branch
     142                      .dwattr $C$DW$11, DW_AT_low_pc(0x00)
     143                      .dwattr $C$DW$11, DW_AT_TI_return
     144 00000013 0006          LRETR     ; [CPU_] 
     145                      ; return occurs ; [] 
     146                      .dwattr $C$DW$8, DW_AT_TI_end_file("C:/work/grepos/c2000_bootROM/f28004x_bootrom/F28004x_ROM_dev/F280
     147                      .dwattr $C$DW$8, DW_AT_TI_end_line(0x58)
     148                      .dwattr $C$DW$8, DW_AT_TI_end_column(0x01)
     149                      .dwendentry
     150                      .dwendtag $C$DW$8
     151              
     152 00000014               .sect   ".text"
     153                      .clink
     154                      .global _LIN_setLinMode
     155              
     156              $C$DW$12        .dwtag  DW_TAG_subprogram, DW_AT_name("LIN_setLinMode")
     157                      .dwattr $C$DW$12, DW_AT_low_pc(_LIN_setLinMode)
     158                      .dwattr $C$DW$12, DW_AT_high_pc(0x00)
     159                      .dwattr $C$DW$12, DW_AT_TI_symbol_name("_LIN_setLinMode")
     160                      .dwattr $C$DW$12, DW_AT_external
     161                      .dwattr $C$DW$12, DW_AT_TI_begin_file("C:/work/grepos/c2000_bootROM/f28004x_bootrom/F28004x_ROM_dev/F
     162                      .dwattr $C$DW$12, DW_AT_TI_begin_line(0x6a)
     163                      .dwattr $C$DW$12, DW_AT_TI_begin_column(0x01)
TMS320C2000 Assembler PC v6.2.9 Tue Apr 14 13:32:51 2015

Tools Copyright (c) 1996-2014 Texas Instruments Incorporated
C:\Users\a0272466\AppData\Local\Temp\0802410                         PAGE    4

     164                      .dwattr $C$DW$12, DW_AT_TI_max_frame_size(-6)
     165                      .dwpsn  file "C:/work/grepos/c2000_bootROM/f28004x_bootrom/F28004x_ROM_dev/F28004x_ROM/driverlib/lin_
     166              
     167                      .dwfde $C$DW$CIE, _LIN_setLinMode
     168              $C$DW$13        .dwtag  DW_TAG_formal_parameter, DW_AT_name("base")
     169                      .dwattr $C$DW$13, DW_AT_TI_symbol_name("_base")
     170                      .dwattr $C$DW$13, DW_AT_type(*$C$DW$T$19)
     171                      .dwattr $C$DW$13, DW_AT_location[DW_OP_reg0]
     172              $C$DW$14        .dwtag  DW_TAG_formal_parameter, DW_AT_name("mode")
     173                      .dwattr $C$DW$14, DW_AT_TI_symbol_name("_mode")
     174                      .dwattr $C$DW$14, DW_AT_type(*$C$DW$T$22)
     175                      .dwattr $C$DW$14, DW_AT_location[DW_OP_reg12]
     176              
     177              ;***************************************************************
     178              ;* FNAME: _LIN_setLinMode               FR SIZE:   4           *
     179              ;*                                                             *
     180              ;* FUNCTION ENVIRONMENT                                        *
     181              ;*                                                             *
     182              ;* FUNCTION PROPERTIES                                         *
     183              ;*                            0 Parameter,  3 Auto,  0 SOE     *
     184              ;***************************************************************
     185              
     186 00000014       _LIN_setLinMode:
     187                      .dwcfi  cfa_offset, -2
     188                      .dwcfi  save_reg_to_mem, 26, 0
     189                      .dwcfi  save_reg_to_reg, 78, 26
     190 00000014 FE04          ADDB      SP,#4                 ; [CPU_U] 
     191                      .dwcfi  cfa_offset, -6
     192              $C$DW$15        .dwtag  DW_TAG_variable, DW_AT_name("base")
     193                      .dwattr $C$DW$15, DW_AT_TI_symbol_name("_base")
     194                      .dwattr $C$DW$15, DW_AT_type(*$C$DW$T$19)
     195                      .dwattr $C$DW$15, DW_AT_location[DW_OP_breg20 -2]
     196              $C$DW$16        .dwtag  DW_TAG_variable, DW_AT_name("mode")
     197                      .dwattr $C$DW$16, DW_AT_TI_symbol_name("_mode")
     198                      .dwattr $C$DW$16, DW_AT_type(*$C$DW$T$22)
     199                      .dwattr $C$DW$16, DW_AT_location[DW_OP_breg20 -3]
     200 00000015 7C43          MOV       *-SP[3],AR4           ; [CPU_] |107| 
     201 00000016 1E42          MOVL      *-SP[2],ACC           ; [CPU_] |107| 
     202                      .dwpsn  file "C:/work/grepos/c2000_bootROM/f28004x_bootrom/F28004x_ROM_dev/F28004x_ROM/driverlib/lin_
     203 00000017 7622   EALLOW
     204                      .dwpsn  file "C:/work/grepos/c2000_bootROM/f28004x_bootrom/F28004x_ROM_dev/F28004x_ROM/driverlib/lin_
     205 00000018 0204          MOVB      ACC,#4                ; [CPU_] |118| 
     206 00000019 0742          ADDL      ACC,*-SP[2]           ; [CPU_] |118| 
     207 0000001a 8AA9          MOVL      XAR4,ACC              ; [CPU_] |118| 
     208 0000001b CCC4          AND       AL,*+XAR4[0],#0xffdf  ; [CPU_] |118| 
         0000001c FFDF 
     209 0000001d CA43          OR        AL,*-SP[3]            ; [CPU_] |118| 
     210 0000001e 88A9          MOVZ      AR6,AL                ; [CPU_] |118| 
     211 0000001f 0204          MOVB      ACC,#4                ; [CPU_] |118| 
     212 00000020 0742          ADDL      ACC,*-SP[2]           ; [CPU_] |118| 
     213 00000021 8AA9          MOVL      XAR4,ACC              ; [CPU_] |118| 
     214 00000022 7EC4          MOV       *+XAR4[0],AR6         ; [CPU_] |118| 
     215                      .dwpsn  file "C:/work/grepos/c2000_bootROM/f28004x_bootrom/F28004x_ROM_dev/F28004x_ROM/driverlib/lin_
     216 00000023 761A   EDIS
     217                      .dwpsn  file "C:/work/grepos/c2000_bootROM/f28004x_bootrom/F28004x_ROM_dev/F28004x_ROM/driverlib/lin_
TMS320C2000 Assembler PC v6.2.9 Tue Apr 14 13:32:51 2015

Tools Copyright (c) 1996-2014 Texas Instruments Incorporated
C:\Users\a0272466\AppData\Local\Temp\0802410                         PAGE    5

     218 00000024 FF69          SPM       #0                    ; [CPU_] 
     219 00000025 FE84          SUBB      SP,#4                 ; [CPU_U] 
     220                      .dwcfi  cfa_offset, -2
     221              $C$DW$17        .dwtag  DW_TAG_TI_branch
     222                      .dwattr $C$DW$17, DW_AT_low_pc(0x00)
     223                      .dwattr $C$DW$17, DW_AT_TI_return
     224 00000026 0006          LRETR     ; [CPU_] 
     225                      ; return occurs ; [] 
     226                      .dwattr $C$DW$12, DW_AT_TI_end_file("C:/work/grepos/c2000_bootROM/f28004x_bootrom/F28004x_ROM_dev/F28
     227                      .dwattr $C$DW$12, DW_AT_TI_end_line(0x7a)
     228                      .dwattr $C$DW$12, DW_AT_TI_end_column(0x01)
     229                      .dwendentry
     230                      .dwendtag $C$DW$12
     231              
     232 00000027               .sect   ".text"
     233                      .clink
     234                      .global _LIN_setBaudRate
     235              
     236              $C$DW$18        .dwtag  DW_TAG_subprogram, DW_AT_name("LIN_setBaudRate")
     237                      .dwattr $C$DW$18, DW_AT_low_pc(_LIN_setBaudRate)
     238                      .dwattr $C$DW$18, DW_AT_high_pc(0x00)
     239                      .dwattr $C$DW$18, DW_AT_TI_symbol_name("_LIN_setBaudRate")
     240                      .dwattr $C$DW$18, DW_AT_external
     241                      .dwattr $C$DW$18, DW_AT_TI_begin_file("C:/work/grepos/c2000_bootROM/f28004x_bootrom/F28004x_ROM_dev/F
     242                      .dwattr $C$DW$18, DW_AT_TI_begin_line(0x89)
     243                      .dwattr $C$DW$18, DW_AT_TI_begin_column(0x01)
     244                      .dwattr $C$DW$18, DW_AT_TI_max_frame_size(-4)
     245                      .dwpsn  file "C:/work/grepos/c2000_bootROM/f28004x_bootrom/F28004x_ROM_dev/F28004x_ROM/driverlib/lin_
     246              
     247                      .dwfde $C$DW$CIE, _LIN_setBaudRate
     248              $C$DW$19        .dwtag  DW_TAG_formal_parameter, DW_AT_name("base")
     249                      .dwattr $C$DW$19, DW_AT_TI_symbol_name("_base")
     250                      .dwattr $C$DW$19, DW_AT_type(*$C$DW$T$19)
     251                      .dwattr $C$DW$19, DW_AT_location[DW_OP_reg0]
     252              $C$DW$20        .dwtag  DW_TAG_formal_parameter, DW_AT_name("baudRate")
     253                      .dwattr $C$DW$20, DW_AT_TI_symbol_name("_baudRate")
     254                      .dwattr $C$DW$20, DW_AT_type(*$C$DW$T$19)
     255                      .dwattr $C$DW$20, DW_AT_location[DW_OP_breg20 -6]
     256              
     257              ;***************************************************************
     258              ;* FNAME: _LIN_setBaudRate              FR SIZE:   2           *
     259              ;*                                                             *
     260              ;* FUNCTION ENVIRONMENT                                        *
     261              ;*                                                             *
     262              ;* FUNCTION PROPERTIES                                         *
     263              ;*                            0 Parameter,  2 Auto,  0 SOE     *
     264              ;***************************************************************
     265              
     266 00000027       _LIN_setBaudRate:
     267                      .dwcfi  cfa_offset, -2
     268                      .dwcfi  save_reg_to_mem, 26, 0
     269                      .dwcfi  save_reg_to_reg, 78, 26
     270 00000027 FE02          ADDB      SP,#2                 ; [CPU_U] 
     271                      .dwcfi  cfa_offset, -4
     272              $C$DW$21        .dwtag  DW_TAG_variable, DW_AT_name("base")
TMS320C2000 Assembler PC v6.2.9 Tue Apr 14 13:32:51 2015

Tools Copyright (c) 1996-2014 Texas Instruments Incorporated
C:\Users\a0272466\AppData\Local\Temp\0802410                         PAGE    6

     273                      .dwattr $C$DW$21, DW_AT_TI_symbol_name("_base")
     274                      .dwattr $C$DW$21, DW_AT_type(*$C$DW$T$19)
     275                      .dwattr $C$DW$21, DW_AT_location[DW_OP_breg20 -2]
     276 00000028 1E42          MOVL      *-SP[2],ACC           ; [CPU_] |138| 
     277                      .dwpsn  file "C:/work/grepos/c2000_bootROM/f28004x_bootrom/F28004x_ROM_dev/F28004x_ROM/driverlib/lin_
     278 00000029 C446          MOVL      XAR6,*-SP[6]          ; [CPU_] |147| 
     279 0000002a 022C          MOVB      ACC,#44               ; [CPU_] |147| 
     280 0000002b 0742          ADDL      ACC,*-SP[2]           ; [CPU_] |147| 
     281 0000002c 8AA9          MOVL      XAR4,ACC              ; [CPU_] |147| 
     282 0000002d C2C4          MOVL      *+XAR4[0],XAR6        ; [CPU_] |147| 
     283                      .dwpsn  file "C:/work/grepos/c2000_bootROM/f28004x_bootrom/F28004x_ROM_dev/F28004x_ROM/driverlib/lin_
     284 0000002e FE82          SUBB      SP,#2                 ; [CPU_U] 
     285                      .dwcfi  cfa_offset, -2
     286              $C$DW$22        .dwtag  DW_TAG_TI_branch
     287                      .dwattr $C$DW$22, DW_AT_low_pc(0x00)
     288                      .dwattr $C$DW$22, DW_AT_TI_return
     289 0000002f 0006          LRETR     ; [CPU_] 
     290                      ; return occurs ; [] 
     291                      .dwattr $C$DW$18, DW_AT_TI_end_file("C:/work/grepos/c2000_bootROM/f28004x_bootrom/F28004x_ROM_dev/F28
     292                      .dwattr $C$DW$18, DW_AT_TI_end_line(0x94)
     293                      .dwattr $C$DW$18, DW_AT_TI_end_column(0x01)
     294                      .dwendentry
     295                      .dwendtag $C$DW$18
     296              
     297 00000030               .sect   ".text"
     298                      .clink
     299                      .global _LIN_setMaximumBaudRate
     300              
     301              $C$DW$23        .dwtag  DW_TAG_subprogram, DW_AT_name("LIN_setMaximumBaudRate")
     302                      .dwattr $C$DW$23, DW_AT_low_pc(_LIN_setMaximumBaudRate)
     303                      .dwattr $C$DW$23, DW_AT_high_pc(0x00)
     304                      .dwattr $C$DW$23, DW_AT_TI_symbol_name("_LIN_setMaximumBaudRate")
     305                      .dwattr $C$DW$23, DW_AT_external
     306                      .dwattr $C$DW$23, DW_AT_TI_begin_file("C:/work/grepos/c2000_bootROM/f28004x_bootrom/F28004x_ROM_dev/F
     307                      .dwattr $C$DW$23, DW_AT_TI_begin_line(0xa3)
     308                      .dwattr $C$DW$23, DW_AT_TI_begin_column(0x01)
     309                      .dwattr $C$DW$23, DW_AT_TI_max_frame_size(-6)
     310                      .dwpsn  file "C:/work/grepos/c2000_bootROM/f28004x_bootrom/F28004x_ROM_dev/F28004x_ROM/driverlib/lin_
     311              
     312                      .dwfde $C$DW$CIE, _LIN_setMaximumBaudRate
     313              $C$DW$24        .dwtag  DW_TAG_formal_parameter, DW_AT_name("base")
     314                      .dwattr $C$DW$24, DW_AT_TI_symbol_name("_base")
     315                      .dwattr $C$DW$24, DW_AT_type(*$C$DW$T$19)
     316                      .dwattr $C$DW$24, DW_AT_location[DW_OP_reg0]
     317              $C$DW$25        .dwtag  DW_TAG_formal_parameter, DW_AT_name("prescaler")
     318                      .dwattr $C$DW$25, DW_AT_TI_symbol_name("_prescaler")
     319                      .dwattr $C$DW$25, DW_AT_type(*$C$DW$T$36)
     320                      .dwattr $C$DW$25, DW_AT_location[DW_OP_reg12]
     321              
     322              ;***************************************************************
     323              ;* FNAME: _LIN_setMaximumBaudRate       FR SIZE:   4           *
     324              ;*                                                             *
     325              ;* FUNCTION ENVIRONMENT                                        *
     326              ;*                                                             *
     327              ;* FUNCTION PROPERTIES                                         *
TMS320C2000 Assembler PC v6.2.9 Tue Apr 14 13:32:51 2015

Tools Copyright (c) 1996-2014 Texas Instruments Incorporated
C:\Users\a0272466\AppData\Local\Temp\0802410                         PAGE    7

     328              ;*                            0 Parameter,  3 Auto,  0 SOE     *
     329              ;***************************************************************
     330              
     331 00000030       _LIN_setMaximumBaudRate:
     332                      .dwcfi  cfa_offset, -2
     333                      .dwcfi  save_reg_to_mem, 26, 0
     334                      .dwcfi  save_reg_to_reg, 78, 26
     335 00000030 FE04          ADDB      SP,#4                 ; [CPU_U] 
     336                      .dwcfi  cfa_offset, -6
     337              $C$DW$26        .dwtag  DW_TAG_variable, DW_AT_name("base")
     338                      .dwattr $C$DW$26, DW_AT_TI_symbol_name("_base")
     339                      .dwattr $C$DW$26, DW_AT_type(*$C$DW$T$19)
     340                      .dwattr $C$DW$26, DW_AT_location[DW_OP_breg20 -2]
     341              $C$DW$27        .dwtag  DW_TAG_variable, DW_AT_name("prescaler")
     342                      .dwattr $C$DW$27, DW_AT_TI_symbol_name("_prescaler")
     343                      .dwattr $C$DW$27, DW_AT_type(*$C$DW$T$36)
     344                      .dwattr $C$DW$27, DW_AT_location[DW_OP_breg20 -3]
     345 00000031 7C43          MOV       *-SP[3],AR4           ; [CPU_] |164| 
     346 00000032 1E42          MOVL      *-SP[2],ACC           ; [CPU_] |164| 
     347                      .dwpsn  file "C:/work/grepos/c2000_bootROM/f28004x_bootrom/F28004x_ROM_dev/F28004x_ROM/driverlib/lin_
     348 00000033 027C          MOVB      ACC,#124              ; [CPU_] |173| 
     349 00000034 0742          ADDL      ACC,*-SP[2]           ; [CPU_] |173| 
     350 00000035 8AA9          MOVL      XAR4,ACC              ; [CPU_] |173| 
     351 00000036 CC43          AND       AL,*-SP[3],#0x1fff    ; [CPU_] |173| 
         00000037 1FFF 
     352 00000038 88A9          MOVZ      AR6,AL                ; [CPU_] |173| 
     353 00000039 CDC4          AND       AH,*+XAR4[0],#0xe000  ; [CPU_] |173| 
         0000003a E000 
     354 0000003b 99A6          OR        AR6,AH                ; [CPU_] |173| 
     355 0000003c 027C          MOVB      ACC,#124              ; [CPU_] |173| 
     356 0000003d 0742          ADDL      ACC,*-SP[2]           ; [CPU_] |173| 
     357 0000003e 8AA9          MOVL      XAR4,ACC              ; [CPU_] |173| 
     358 0000003f 7EC4          MOV       *+XAR4[0],AR6         ; [CPU_] |173| 
     359                      .dwpsn  file "C:/work/grepos/c2000_bootROM/f28004x_bootrom/F28004x_ROM_dev/F28004x_ROM/driverlib/lin_
     360 00000040 FE84          SUBB      SP,#4                 ; [CPU_U] 
     361                      .dwcfi  cfa_offset, -2
     362              $C$DW$28        .dwtag  DW_TAG_TI_branch
     363                      .dwattr $C$DW$28, DW_AT_low_pc(0x00)
     364                      .dwattr $C$DW$28, DW_AT_TI_return
     365 00000041 0006          LRETR     ; [CPU_] 
     366                      ; return occurs ; [] 
     367                      .dwattr $C$DW$23, DW_AT_TI_end_file("C:/work/grepos/c2000_bootROM/f28004x_bootrom/F28004x_ROM_dev/F28
     368                      .dwattr $C$DW$23, DW_AT_TI_end_line(0xb0)
     369                      .dwattr $C$DW$23, DW_AT_TI_end_column(0x01)
     370                      .dwendentry
     371                      .dwendtag $C$DW$23
     372              
     373 00000042               .sect   ".text"
     374                      .clink
     375                      .global _LIN_enableMaskFiltering
     376              
     377              $C$DW$29        .dwtag  DW_TAG_subprogram, DW_AT_name("LIN_enableMaskFiltering")
     378                      .dwattr $C$DW$29, DW_AT_low_pc(_LIN_enableMaskFiltering)
     379                      .dwattr $C$DW$29, DW_AT_high_pc(0x00)
     380                      .dwattr $C$DW$29, DW_AT_TI_symbol_name("_LIN_enableMaskFiltering")
TMS320C2000 Assembler PC v6.2.9 Tue Apr 14 13:32:51 2015

Tools Copyright (c) 1996-2014 Texas Instruments Incorporated
C:\Users\a0272466\AppData\Local\Temp\0802410                         PAGE    8

     381                      .dwattr $C$DW$29, DW_AT_external
     382                      .dwattr $C$DW$29, DW_AT_TI_begin_file("C:/work/grepos/c2000_bootROM/f28004x_bootrom/F28004x_ROM_dev/F
     383                      .dwattr $C$DW$29, DW_AT_TI_begin_line(0xbe)
     384                      .dwattr $C$DW$29, DW_AT_TI_begin_column(0x01)
     385                      .dwattr $C$DW$29, DW_AT_TI_max_frame_size(-4)
     386                      .dwpsn  file "C:/work/grepos/c2000_bootROM/f28004x_bootrom/F28004x_ROM_dev/F28004x_ROM/driverlib/lin_
     387              
     388                      .dwfde $C$DW$CIE, _LIN_enableMaskFiltering
     389              $C$DW$30        .dwtag  DW_TAG_formal_parameter, DW_AT_name("base")
     390                      .dwattr $C$DW$30, DW_AT_TI_symbol_name("_base")
     391                      .dwattr $C$DW$30, DW_AT_type(*$C$DW$T$19)
     392                      .dwattr $C$DW$30, DW_AT_location[DW_OP_reg0]
     393              
     394              ;***************************************************************
     395              ;* FNAME: _LIN_enableMaskFiltering      FR SIZE:   2           *
     396              ;*                                                             *
     397              ;* FUNCTION ENVIRONMENT                                        *
     398              ;*                                                             *
     399              ;* FUNCTION PROPERTIES                                         *
     400              ;*                            0 Parameter,  2 Auto,  0 SOE     *
     401              ;***************************************************************
     402              
     403 00000042       _LIN_enableMaskFiltering:
     404                      .dwcfi  cfa_offset, -2
     405                      .dwcfi  save_reg_to_mem, 26, 0
     406                      .dwcfi  save_reg_to_reg, 78, 26
     407 00000042 FE02          ADDB      SP,#2                 ; [CPU_U] 
     408                      .dwcfi  cfa_offset, -4
     409              $C$DW$31        .dwtag  DW_TAG_variable, DW_AT_name("base")
     410                      .dwattr $C$DW$31, DW_AT_TI_symbol_name("_base")
     411                      .dwattr $C$DW$31, DW_AT_type(*$C$DW$T$19)
     412                      .dwattr $C$DW$31, DW_AT_location[DW_OP_breg20 -2]
     413 00000043 1E42          MOVL      *-SP[2],ACC           ; [CPU_] |191| 
     414                      .dwpsn  file "C:/work/grepos/c2000_bootROM/f28004x_bootrom/F28004x_ROM_dev/F28004x_ROM/driverlib/lin_
     415 00000044 0204          MOVB      ACC,#4                ; [CPU_] |200| 
     416 00000045 0742          ADDL      ACC,*-SP[2]           ; [CPU_] |200| 
     417 00000046 8AA9          MOVL      XAR4,ACC              ; [CPU_] |200| 
     418 00000047 18C4          AND       *+XAR4[0],#0xefff     ; [CPU_] |200| 
         00000048 EFFF 
     419                      .dwpsn  file "C:/work/grepos/c2000_bootROM/f28004x_bootrom/F28004x_ROM_dev/F28004x_ROM/driverlib/lin_
     420 00000049 FE82          SUBB      SP,#2                 ; [CPU_U] 
     421                      .dwcfi  cfa_offset, -2
     422              $C$DW$32        .dwtag  DW_TAG_TI_branch
     423                      .dwattr $C$DW$32, DW_AT_low_pc(0x00)
     424                      .dwattr $C$DW$32, DW_AT_TI_return
     425 0000004a 0006          LRETR     ; [CPU_] 
     426                      ; return occurs ; [] 
     427                      .dwattr $C$DW$29, DW_AT_TI_end_file("C:/work/grepos/c2000_bootROM/f28004x_bootrom/F28004x_ROM_dev/F28
     428                      .dwattr $C$DW$29, DW_AT_TI_end_line(0xc9)
     429                      .dwattr $C$DW$29, DW_AT_TI_end_column(0x01)
     430                      .dwendentry
     431                      .dwendtag $C$DW$29
     432              
     433 0000004b               .sect   ".text"
     434                      .clink
TMS320C2000 Assembler PC v6.2.9 Tue Apr 14 13:32:51 2015

Tools Copyright (c) 1996-2014 Texas Instruments Incorporated
C:\Users\a0272466\AppData\Local\Temp\0802410                         PAGE    9

     435                      .global _LIN_enableSCIMode
     436              
     437              $C$DW$33        .dwtag  DW_TAG_subprogram, DW_AT_name("LIN_enableSCIMode")
     438                      .dwattr $C$DW$33, DW_AT_low_pc(_LIN_enableSCIMode)
     439                      .dwattr $C$DW$33, DW_AT_high_pc(0x00)
     440                      .dwattr $C$DW$33, DW_AT_TI_symbol_name("_LIN_enableSCIMode")
     441                      .dwattr $C$DW$33, DW_AT_external
     442                      .dwattr $C$DW$33, DW_AT_TI_begin_file("C:/work/grepos/c2000_bootROM/f28004x_bootrom/F28004x_ROM_dev/F
     443                      .dwattr $C$DW$33, DW_AT_TI_begin_line(0xd7)
     444                      .dwattr $C$DW$33, DW_AT_TI_begin_column(0x01)
     445                      .dwattr $C$DW$33, DW_AT_TI_max_frame_size(-4)
     446                      .dwpsn  file "C:/work/grepos/c2000_bootROM/f28004x_bootrom/F28004x_ROM_dev/F28004x_ROM/driverlib/lin_
     447              
     448                      .dwfde $C$DW$CIE, _LIN_enableSCIMode
     449              $C$DW$34        .dwtag  DW_TAG_formal_parameter, DW_AT_name("base")
     450                      .dwattr $C$DW$34, DW_AT_TI_symbol_name("_base")
     451                      .dwattr $C$DW$34, DW_AT_type(*$C$DW$T$19)
     452                      .dwattr $C$DW$34, DW_AT_location[DW_OP_reg0]
     453              
     454              ;***************************************************************
     455              ;* FNAME: _LIN_enableSCIMode            FR SIZE:   2           *
     456              ;*                                                             *
     457              ;* FUNCTION ENVIRONMENT                                        *
     458              ;*                                                             *
     459              ;* FUNCTION PROPERTIES                                         *
     460              ;*                            0 Parameter,  2 Auto,  0 SOE     *
     461              ;***************************************************************
     462              
     463 0000004b       _LIN_enableSCIMode:
     464                      .dwcfi  cfa_offset, -2
     465                      .dwcfi  save_reg_to_mem, 26, 0
     466                      .dwcfi  save_reg_to_reg, 78, 26
     467 0000004b FE02          ADDB      SP,#2                 ; [CPU_U] 
     468                      .dwcfi  cfa_offset, -4
     469              $C$DW$35        .dwtag  DW_TAG_variable, DW_AT_name("base")
     470                      .dwattr $C$DW$35, DW_AT_TI_symbol_name("_base")
     471                      .dwattr $C$DW$35, DW_AT_type(*$C$DW$T$19)
     472                      .dwattr $C$DW$35, DW_AT_location[DW_OP_breg20 -2]
     473 0000004c 1E42          MOVL      *-SP[2],ACC           ; [CPU_] |216| 
     474                      .dwpsn  file "C:/work/grepos/c2000_bootROM/f28004x_bootrom/F28004x_ROM_dev/F28004x_ROM/driverlib/lin_
     475 0000004d 7622   EALLOW
     476                      .dwpsn  file "C:/work/grepos/c2000_bootROM/f28004x_bootrom/F28004x_ROM_dev/F28004x_ROM/driverlib/lin_
     477 0000004e 0204          MOVB      ACC,#4                ; [CPU_] |227| 
     478 0000004f 0742          ADDL      ACC,*-SP[2]           ; [CPU_] |227| 
     479 00000050 8AA9          MOVL      XAR4,ACC              ; [CPU_] |227| 
     480 00000051 18C4          AND       *+XAR4[0],#0xffbf     ; [CPU_] |227| 
         00000052 FFBF 
     481                      .dwpsn  file "C:/work/grepos/c2000_bootROM/f28004x_bootrom/F28004x_ROM_dev/F28004x_ROM/driverlib/lin_
     482 00000053 0204          MOVB      ACC,#4                ; [CPU_] |228| 
     483 00000054 0742          ADDL      ACC,*-SP[2]           ; [CPU_] |228| 
     484 00000055 8AA9          MOVL      XAR4,ACC              ; [CPU_] |228| 
     485 00000056 1AC4          OR        *+XAR4[0],#0x0022     ; [CPU_] |228| 
         00000057 0022 
     486                      .dwpsn  file "C:/work/grepos/c2000_bootROM/f28004x_bootrom/F28004x_ROM_dev/F28004x_ROM/driverlib/lin_
     487 00000058 761A   EDIS
TMS320C2000 Assembler PC v6.2.9 Tue Apr 14 13:32:51 2015

Tools Copyright (c) 1996-2014 Texas Instruments Incorporated
C:\Users\a0272466\AppData\Local\Temp\0802410                         PAGE   10

     488                      .dwpsn  file "C:/work/grepos/c2000_bootROM/f28004x_bootrom/F28004x_ROM_dev/F28004x_ROM/driverlib/lin_
     489 00000059 FF69          SPM       #0                    ; [CPU_] 
     490 0000005a FE82          SUBB      SP,#2                 ; [CPU_U] 
     491                      .dwcfi  cfa_offset, -2
     492              $C$DW$36        .dwtag  DW_TAG_TI_branch
     493                      .dwattr $C$DW$36, DW_AT_low_pc(0x00)
     494                      .dwattr $C$DW$36, DW_AT_TI_return
     495 0000005b 0006          LRETR     ; [CPU_] 
     496                      ; return occurs ; [] 
     497                      .dwattr $C$DW$33, DW_AT_TI_end_file("C:/work/grepos/c2000_bootROM/f28004x_bootrom/F28004x_ROM_dev/F28
     498                      .dwattr $C$DW$33, DW_AT_TI_end_line(0xe8)
     499                      .dwattr $C$DW$33, DW_AT_TI_end_column(0x01)
     500                      .dwendentry
     501                      .dwendtag $C$DW$33
     502              
     503 0000005c               .sect   ".text"
     504                      .clink
     505                      .global _LIN_setSCIParity
     506              
     507              $C$DW$37        .dwtag  DW_TAG_subprogram, DW_AT_name("LIN_setSCIParity")
     508                      .dwattr $C$DW$37, DW_AT_low_pc(_LIN_setSCIParity)
     509                      .dwattr $C$DW$37, DW_AT_high_pc(0x00)
     510                      .dwattr $C$DW$37, DW_AT_TI_symbol_name("_LIN_setSCIParity")
     511                      .dwattr $C$DW$37, DW_AT_external
     512                      .dwattr $C$DW$37, DW_AT_TI_begin_file("C:/work/grepos/c2000_bootROM/f28004x_bootrom/F28004x_ROM_dev/F
     513                      .dwattr $C$DW$37, DW_AT_TI_begin_line(0xfb)
     514                      .dwattr $C$DW$37, DW_AT_TI_begin_column(0x01)
     515                      .dwattr $C$DW$37, DW_AT_TI_max_frame_size(-6)
     516                      .dwpsn  file "C:/work/grepos/c2000_bootROM/f28004x_bootrom/F28004x_ROM_dev/F28004x_ROM/driverlib/lin_
     517              
     518                      .dwfde $C$DW$CIE, _LIN_setSCIParity
     519              $C$DW$38        .dwtag  DW_TAG_formal_parameter, DW_AT_name("base")
     520                      .dwattr $C$DW$38, DW_AT_TI_symbol_name("_base")
     521                      .dwattr $C$DW$38, DW_AT_type(*$C$DW$T$19)
     522                      .dwattr $C$DW$38, DW_AT_location[DW_OP_reg0]
     523              $C$DW$39        .dwtag  DW_TAG_formal_parameter, DW_AT_name("enable")
     524                      .dwattr $C$DW$39, DW_AT_TI_symbol_name("_enable")
     525                      .dwattr $C$DW$39, DW_AT_type(*$C$DW$T$38)
     526                      .dwattr $C$DW$39, DW_AT_location[DW_OP_reg12]
     527              $C$DW$40        .dwtag  DW_TAG_formal_parameter, DW_AT_name("mode")
     528                      .dwattr $C$DW$40, DW_AT_TI_symbol_name("_mode")
     529                      .dwattr $C$DW$40, DW_AT_type(*$C$DW$T$38)
     530                      .dwattr $C$DW$40, DW_AT_location[DW_OP_reg14]
     531              
     532              ;***************************************************************
     533              ;* FNAME: _LIN_setSCIParity             FR SIZE:   4           *
     534              ;*                                                             *
     535              ;* FUNCTION ENVIRONMENT                                        *
     536              ;*                                                             *
     537              ;* FUNCTION PROPERTIES                                         *
     538              ;*                            0 Parameter,  4 Auto,  0 SOE     *
     539              ;***************************************************************
     540              
     541 0000005c       _LIN_setSCIParity:
     542                      .dwcfi  cfa_offset, -2
TMS320C2000 Assembler PC v6.2.9 Tue Apr 14 13:32:51 2015

Tools Copyright (c) 1996-2014 Texas Instruments Incorporated
C:\Users\a0272466\AppData\Local\Temp\0802410                         PAGE   11

     543                      .dwcfi  save_reg_to_mem, 26, 0
     544                      .dwcfi  save_reg_to_reg, 78, 26
     545 0000005c FE04          ADDB      SP,#4                 ; [CPU_U] 
     546                      .dwcfi  cfa_offset, -6
     547              $C$DW$41        .dwtag  DW_TAG_variable, DW_AT_name("base")
     548                      .dwattr $C$DW$41, DW_AT_TI_symbol_name("_base")
     549                      .dwattr $C$DW$41, DW_AT_type(*$C$DW$T$19)
     550                      .dwattr $C$DW$41, DW_AT_location[DW_OP_breg20 -2]
     551              $C$DW$42        .dwtag  DW_TAG_variable, DW_AT_name("enable")
     552                      .dwattr $C$DW$42, DW_AT_TI_symbol_name("_enable")
     553                      .dwattr $C$DW$42, DW_AT_type(*$C$DW$T$38)
     554                      .dwattr $C$DW$42, DW_AT_location[DW_OP_breg20 -3]
     555              $C$DW$43        .dwtag  DW_TAG_variable, DW_AT_name("mode")
     556                      .dwattr $C$DW$43, DW_AT_TI_symbol_name("_mode")
     557                      .dwattr $C$DW$43, DW_AT_type(*$C$DW$T$38)
     558                      .dwattr $C$DW$43, DW_AT_location[DW_OP_breg20 -4]
     559 0000005d 7D44          MOV       *-SP[4],AR5           ; [CPU_] |252| 
     560 0000005e 7C43          MOV       *-SP[3],AR4           ; [CPU_] |252| 
     561 0000005f 1E42          MOVL      *-SP[2],ACC           ; [CPU_] |252| 
     562                      .dwpsn  file "C:/work/grepos/c2000_bootROM/f28004x_bootrom/F28004x_ROM_dev/F28004x_ROM/driverlib/lin_
     563 00000060 0204          MOVB      ACC,#4                ; [CPU_] |261| 
     564 00000061 0742          ADDL      ACC,*-SP[2]           ; [CPU_] |261| 
     565 00000062 8AA9          MOVL      XAR4,ACC              ; [CPU_] |261| 
     566 00000063 18C4          AND       *+XAR4[0],#0xfff3     ; [CPU_] |261| 
         00000064 FFF3 
     567                      .dwpsn  file "C:/work/grepos/c2000_bootROM/f28004x_bootrom/F28004x_ROM_dev/F28004x_ROM/driverlib/lin_
     568 00000065 0204          MOVB      ACC,#4                ; [CPU_] |264| 
     569 00000066 0742          ADDL      ACC,*-SP[2]           ; [CPU_] |264| 
     570 00000067 8AA9          MOVL      XAR4,ACC              ; [CPU_] |264| 
     571 00000068 9243          MOV       AL,*-SP[3]            ; [CPU_] |264| 
     572 00000069 EC03          BF        $C$L1,EQ              ; [CPU_] |264| 
     573                      ; branchcc occurs ; [] |264| 
     574 0000006a 9A04          MOVB      AL,#4                 ; [CPU_] |264| 
     575 0000006b 6F02          B         $C$L2,UNC             ; [CPU_] |264| 
     576                      ; branch occurs ; [] |264| 
     577 0000006c       $C$L1:    
     578 0000006c 9A00          MOVB      AL,#0                 ; [CPU_] |264| 
     579 0000006d       $C$L2:    
     580 0000006d CAC4          OR        AL,*+XAR4[0]          ; [CPU_] |264| 
     581 0000006e 9344          MOV       AH,*-SP[4]            ; [CPU_] |264| 
     582 0000006f EC03          BF        $C$L3,EQ              ; [CPU_] |264| 
     583                      ; branchcc occurs ; [] |264| 
     584 00000070 9B08          MOVB      AH,#8                 ; [CPU_] |264| 
     585 00000071 6F02          B         $C$L4,UNC             ; [CPU_] |264| 
     586                      ; branch occurs ; [] |264| 
     587 00000072       $C$L3:    
     588 00000072 9B00          MOVB      AH,#0                 ; [CPU_] |264| 
     589 00000073       $C$L4:    
     590 00000073 CAA8          OR        AL,AH                 ; [CPU_] |264| 
     591 00000074 96C4          MOV       *+XAR4[0],AL          ; [CPU_] |264| 
     592                      .dwpsn  file "C:/work/grepos/c2000_bootROM/f28004x_bootrom/F28004x_ROM_dev/F28004x_ROM/driverlib/lin_
     593 00000075 FE84          SUBB      SP,#4                 ; [CPU_U] 
     594                      .dwcfi  cfa_offset, -2
     595              $C$DW$44        .dwtag  DW_TAG_TI_branch
     596                      .dwattr $C$DW$44, DW_AT_low_pc(0x00)
TMS320C2000 Assembler PC v6.2.9 Tue Apr 14 13:32:51 2015

Tools Copyright (c) 1996-2014 Texas Instruments Incorporated
C:\Users\a0272466\AppData\Local\Temp\0802410                         PAGE   12

     597                      .dwattr $C$DW$44, DW_AT_TI_return
     598 00000076 0006          LRETR     ; [CPU_] 
     599                      ; return occurs ; [] 
     600                      .dwattr $C$DW$37, DW_AT_TI_end_file("C:/work/grepos/c2000_bootROM/f28004x_bootrom/F28004x_ROM_dev/F28
     601                      .dwattr $C$DW$37, DW_AT_TI_end_line(0x10a)
     602                      .dwattr $C$DW$37, DW_AT_TI_end_column(0x01)
     603                      .dwendentry
     604                      .dwendtag $C$DW$37
     605              
     606 00000077               .sect   ".text"
     607                      .clink
     608                      .global _LIN_disableMaskFiltering
     609              
     610              $C$DW$45        .dwtag  DW_TAG_subprogram, DW_AT_name("LIN_disableMaskFiltering")
     611                      .dwattr $C$DW$45, DW_AT_low_pc(_LIN_disableMaskFiltering)
     612                      .dwattr $C$DW$45, DW_AT_high_pc(0x00)
     613                      .dwattr $C$DW$45, DW_AT_TI_symbol_name("_LIN_disableMaskFiltering")
     614                      .dwattr $C$DW$45, DW_AT_external
     615                      .dwattr $C$DW$45, DW_AT_TI_begin_file("C:/work/grepos/c2000_bootROM/f28004x_bootrom/F28004x_ROM_dev/F
     616                      .dwattr $C$DW$45, DW_AT_TI_begin_line(0x118)
     617                      .dwattr $C$DW$45, DW_AT_TI_begin_column(0x01)
     618                      .dwattr $C$DW$45, DW_AT_TI_max_frame_size(-4)
     619                      .dwpsn  file "C:/work/grepos/c2000_bootROM/f28004x_bootrom/F28004x_ROM_dev/F28004x_ROM/driverlib/lin_
     620              
     621                      .dwfde $C$DW$CIE, _LIN_disableMaskFiltering
     622              $C$DW$46        .dwtag  DW_TAG_formal_parameter, DW_AT_name("base")
     623                      .dwattr $C$DW$46, DW_AT_TI_symbol_name("_base")
     624                      .dwattr $C$DW$46, DW_AT_type(*$C$DW$T$19)
     625                      .dwattr $C$DW$46, DW_AT_location[DW_OP_reg0]
     626              
     627              ;***************************************************************
     628              ;* FNAME: _LIN_disableMaskFiltering     FR SIZE:   2           *
     629              ;*                                                             *
     630              ;* FUNCTION ENVIRONMENT                                        *
     631              ;*                                                             *
     632              ;* FUNCTION PROPERTIES                                         *
     633              ;*                            0 Parameter,  2 Auto,  0 SOE     *
     634              ;***************************************************************
     635              
     636 00000077       _LIN_disableMaskFiltering:
     637                      .dwcfi  cfa_offset, -2
     638                      .dwcfi  save_reg_to_mem, 26, 0
     639                      .dwcfi  save_reg_to_reg, 78, 26
     640 00000077 FE02          ADDB      SP,#2                 ; [CPU_U] 
     641                      .dwcfi  cfa_offset, -4
     642              $C$DW$47        .dwtag  DW_TAG_variable, DW_AT_name("base")
     643                      .dwattr $C$DW$47, DW_AT_TI_symbol_name("_base")
     644                      .dwattr $C$DW$47, DW_AT_type(*$C$DW$T$19)
     645                      .dwattr $C$DW$47, DW_AT_location[DW_OP_breg20 -2]
     646 00000078 1E42          MOVL      *-SP[2],ACC           ; [CPU_] |281| 
     647                      .dwpsn  file "C:/work/grepos/c2000_bootROM/f28004x_bootrom/F28004x_ROM_dev/F28004x_ROM/driverlib/lin_
     648 00000079 0204          MOVB      ACC,#4                ; [CPU_] |290| 
     649 0000007a 0742          ADDL      ACC,*-SP[2]           ; [CPU_] |290| 
     650 0000007b 8AA9          MOVL      XAR4,ACC              ; [CPU_] |290| 
     651 0000007c 1AC4          OR        *+XAR4[0],#0x1000     ; [CPU_] |290| 
TMS320C2000 Assembler PC v6.2.9 Tue Apr 14 13:32:51 2015

Tools Copyright (c) 1996-2014 Texas Instruments Incorporated
C:\Users\a0272466\AppData\Local\Temp\0802410                         PAGE   13

         0000007d 1000 
     652                      .dwpsn  file "C:/work/grepos/c2000_bootROM/f28004x_bootrom/F28004x_ROM_dev/F28004x_ROM/driverlib/lin_
     653 0000007e FE82          SUBB      SP,#2                 ; [CPU_U] 
     654                      .dwcfi  cfa_offset, -2
     655              $C$DW$48        .dwtag  DW_TAG_TI_branch
     656                      .dwattr $C$DW$48, DW_AT_low_pc(0x00)
     657                      .dwattr $C$DW$48, DW_AT_TI_return
     658 0000007f 0006          LRETR     ; [CPU_] 
     659                      ; return occurs ; [] 
     660                      .dwattr $C$DW$45, DW_AT_TI_end_file("C:/work/grepos/c2000_bootROM/f28004x_bootrom/F28004x_ROM_dev/F28
     661                      .dwattr $C$DW$45, DW_AT_TI_end_line(0x123)
     662                      .dwattr $C$DW$45, DW_AT_TI_end_column(0x01)
     663                      .dwendentry
     664                      .dwendtag $C$DW$45
     665              
     666 00000080               .sect   ".text"
     667                      .clink
     668                      .global _LIN_disableSCIMode
     669              
     670              $C$DW$49        .dwtag  DW_TAG_subprogram, DW_AT_name("LIN_disableSCIMode")
     671                      .dwattr $C$DW$49, DW_AT_low_pc(_LIN_disableSCIMode)
     672                      .dwattr $C$DW$49, DW_AT_high_pc(0x00)
     673                      .dwattr $C$DW$49, DW_AT_TI_symbol_name("_LIN_disableSCIMode")
     674                      .dwattr $C$DW$49, DW_AT_external
     675                      .dwattr $C$DW$49, DW_AT_TI_begin_file("C:/work/grepos/c2000_bootROM/f28004x_bootrom/F28004x_ROM_dev/F
     676                      .dwattr $C$DW$49, DW_AT_TI_begin_line(0x131)
     677                      .dwattr $C$DW$49, DW_AT_TI_begin_column(0x01)
     678                      .dwattr $C$DW$49, DW_AT_TI_max_frame_size(-4)
     679                      .dwpsn  file "C:/work/grepos/c2000_bootROM/f28004x_bootrom/F28004x_ROM_dev/F28004x_ROM/driverlib/lin_
     680              
     681                      .dwfde $C$DW$CIE, _LIN_disableSCIMode
     682              $C$DW$50        .dwtag  DW_TAG_formal_parameter, DW_AT_name("base")
     683                      .dwattr $C$DW$50, DW_AT_TI_symbol_name("_base")
     684                      .dwattr $C$DW$50, DW_AT_type(*$C$DW$T$19)
     685                      .dwattr $C$DW$50, DW_AT_location[DW_OP_reg0]
     686              
     687              ;***************************************************************
     688              ;* FNAME: _LIN_disableSCIMode           FR SIZE:   2           *
     689              ;*                                                             *
     690              ;* FUNCTION ENVIRONMENT                                        *
     691              ;*                                                             *
     692              ;* FUNCTION PROPERTIES                                         *
     693              ;*                            0 Parameter,  2 Auto,  0 SOE     *
     694              ;***************************************************************
     695              
     696 00000080       _LIN_disableSCIMode:
     697                      .dwcfi  cfa_offset, -2
     698                      .dwcfi  save_reg_to_mem, 26, 0
     699                      .dwcfi  save_reg_to_reg, 78, 26
     700 00000080 FE02          ADDB      SP,#2                 ; [CPU_U] 
     701                      .dwcfi  cfa_offset, -4
     702              $C$DW$51        .dwtag  DW_TAG_variable, DW_AT_name("base")
     703                      .dwattr $C$DW$51, DW_AT_TI_symbol_name("_base")
     704                      .dwattr $C$DW$51, DW_AT_type(*$C$DW$T$19)
     705                      .dwattr $C$DW$51, DW_AT_location[DW_OP_breg20 -2]
TMS320C2000 Assembler PC v6.2.9 Tue Apr 14 13:32:51 2015

Tools Copyright (c) 1996-2014 Texas Instruments Incorporated
C:\Users\a0272466\AppData\Local\Temp\0802410                         PAGE   14

     706 00000081 1E42          MOVL      *-SP[2],ACC           ; [CPU_] |306| 
     707                      .dwpsn  file "C:/work/grepos/c2000_bootROM/f28004x_bootrom/F28004x_ROM_dev/F28004x_ROM/driverlib/lin_
     708 00000082 7622   EALLOW
     709                      .dwpsn  file "C:/work/grepos/c2000_bootROM/f28004x_bootrom/F28004x_ROM_dev/F28004x_ROM/driverlib/lin_
     710 00000083 0204          MOVB      ACC,#4                ; [CPU_] |317| 
     711 00000084 0742          ADDL      ACC,*-SP[2]           ; [CPU_] |317| 
     712 00000085 8AA9          MOVL      XAR4,ACC              ; [CPU_] |317| 
     713 00000086 18C4          AND       *+XAR4[0],#0xffdd     ; [CPU_] |317| 
         00000087 FFDD 
     714                      .dwpsn  file "C:/work/grepos/c2000_bootROM/f28004x_bootrom/F28004x_ROM_dev/F28004x_ROM/driverlib/lin_
     715 00000088 0204          MOVB      ACC,#4                ; [CPU_] |319| 
     716 00000089 0742          ADDL      ACC,*-SP[2]           ; [CPU_] |319| 
     717 0000008a 8AA9          MOVL      XAR4,ACC              ; [CPU_] |319| 
     718 0000008b 1AC4          OR        *+XAR4[0],#0x0040     ; [CPU_] |319| 
         0000008c 0040 
     719                      .dwpsn  file "C:/work/grepos/c2000_bootROM/f28004x_bootrom/F28004x_ROM_dev/F28004x_ROM/driverlib/lin_
     720 0000008d 761A   EDIS
     721                      .dwpsn  file "C:/work/grepos/c2000_bootROM/f28004x_bootrom/F28004x_ROM_dev/F28004x_ROM/driverlib/lin_
     722 0000008e FF69          SPM       #0                    ; [CPU_] 
     723 0000008f FE82          SUBB      SP,#2                 ; [CPU_U] 
     724                      .dwcfi  cfa_offset, -2
     725              $C$DW$52        .dwtag  DW_TAG_TI_branch
     726                      .dwattr $C$DW$52, DW_AT_low_pc(0x00)
     727                      .dwattr $C$DW$52, DW_AT_TI_return
     728 00000090 0006          LRETR     ; [CPU_] 
     729                      ; return occurs ; [] 
     730                      .dwattr $C$DW$49, DW_AT_TI_end_file("C:/work/grepos/c2000_bootROM/f28004x_bootrom/F28004x_ROM_dev/F28
     731                      .dwattr $C$DW$49, DW_AT_TI_end_line(0x142)
     732                      .dwattr $C$DW$49, DW_AT_TI_end_column(0x01)
     733                      .dwendentry
     734                      .dwendtag $C$DW$49
     735              
     736 00000091               .sect   ".text"
     737                      .clink
     738                      .global _LIN_initModule
     739              
     740              $C$DW$53        .dwtag  DW_TAG_subprogram, DW_AT_name("LIN_initModule")
     741                      .dwattr $C$DW$53, DW_AT_low_pc(_LIN_initModule)
     742                      .dwattr $C$DW$53, DW_AT_high_pc(0x00)
     743                      .dwattr $C$DW$53, DW_AT_TI_symbol_name("_LIN_initModule")
     744                      .dwattr $C$DW$53, DW_AT_external
     745                      .dwattr $C$DW$53, DW_AT_TI_begin_file("C:/work/grepos/c2000_bootROM/f28004x_bootrom/F28004x_ROM_dev/F
     746                      .dwattr $C$DW$53, DW_AT_TI_begin_line(0x150)
     747                      .dwattr $C$DW$53, DW_AT_TI_begin_column(0x01)
     748                      .dwattr $C$DW$53, DW_AT_TI_max_frame_size(-4)
     749                      .dwpsn  file "C:/work/grepos/c2000_bootROM/f28004x_bootrom/F28004x_ROM_dev/F28004x_ROM/driverlib/lin_
     750              
     751                      .dwfde $C$DW$CIE, _LIN_initModule
     752              $C$DW$54        .dwtag  DW_TAG_formal_parameter, DW_AT_name("base")
     753                      .dwattr $C$DW$54, DW_AT_TI_symbol_name("_base")
     754                      .dwattr $C$DW$54, DW_AT_type(*$C$DW$T$19)
     755                      .dwattr $C$DW$54, DW_AT_location[DW_OP_reg0]
     756              
     757              ;***************************************************************
     758              ;* FNAME: _LIN_initModule               FR SIZE:   2           *
TMS320C2000 Assembler PC v6.2.9 Tue Apr 14 13:32:51 2015

Tools Copyright (c) 1996-2014 Texas Instruments Incorporated
C:\Users\a0272466\AppData\Local\Temp\0802410                         PAGE   15

     759              ;*                                                             *
     760              ;* FUNCTION ENVIRONMENT                                        *
     761              ;*                                                             *
     762              ;* FUNCTION PROPERTIES                                         *
     763              ;*                            0 Parameter,  2 Auto,  0 SOE     *
     764              ;***************************************************************
     765              
     766 00000091       _LIN_initModule:
     767                      .dwcfi  cfa_offset, -2
     768                      .dwcfi  save_reg_to_mem, 26, 0
     769                      .dwcfi  save_reg_to_reg, 78, 26
     770 00000091 FE02          ADDB      SP,#2                 ; [CPU_U] 
     771                      .dwcfi  cfa_offset, -4
     772              $C$DW$55        .dwtag  DW_TAG_variable, DW_AT_name("base")
     773                      .dwattr $C$DW$55, DW_AT_TI_symbol_name("_base")
     774                      .dwattr $C$DW$55, DW_AT_type(*$C$DW$T$19)
     775                      .dwattr $C$DW$55, DW_AT_location[DW_OP_breg20 -2]
     776 00000092 1E42          MOVL      *-SP[2],ACC           ; [CPU_] |337| 
     777                      .dwpsn  file "C:/work/grepos/c2000_bootROM/f28004x_bootrom/F28004x_ROM_dev/F28004x_ROM/driverlib/lin_
     778 00000093 7622   EALLOW
     779                      .dwpsn  file "C:/work/grepos/c2000_bootROM/f28004x_bootrom/F28004x_ROM_dev/F28004x_ROM/driverlib/lin_
     780 00000094 8A42          MOVL      XAR4,*-SP[2]          ; [CPU_] |349| 
     781 00000095 0201          MOVB      ACC,#1                ; [CPU_] |349| 
     782 00000096 1EC4          MOVL      *+XAR4[0],ACC         ; [CPU_] |349| 
     783                      .dwpsn  file "C:/work/grepos/c2000_bootROM/f28004x_bootrom/F28004x_ROM_dev/F28004x_ROM/driverlib/lin_
     784 00000097 BE40          MOVB      XAR6,#64              ; [CPU_] |356| 
     785 00000098 0204          MOVB      ACC,#4                ; [CPU_] |356| 
     786 00000099 0742          ADDL      ACC,*-SP[2]           ; [CPU_] |356| 
     787 0000009a 8AA9          MOVL      XAR4,ACC              ; [CPU_] |356| 
     788 0000009b C2C4          MOVL      *+XAR4[0],XAR6        ; [CPU_] |356| 
     789                      .dwpsn  file "C:/work/grepos/c2000_bootROM/f28004x_bootrom/F28004x_ROM_dev/F28004x_ROM/driverlib/lin_
     790 0000009c 0204          MOVB      ACC,#4                ; [CPU_] |373| 
     791 0000009d 0742          ADDL      ACC,*-SP[2]           ; [CPU_] |373| 
     792 0000009e 8AA9          MOVL      XAR4,ACC              ; [CPU_] |373| 
     793 0000009f 1AC4          OR        *+XAR4[0],#0x1c20     ; [CPU_] |373| 
         000000a0 1C20 
     794                      .dwpsn  file "C:/work/grepos/c2000_bootROM/f28004x_bootrom/F28004x_ROM_dev/F28004x_ROM/driverlib/lin_
     795 000000a1 0206          MOVB      ACC,#6                ; [CPU_] |377| 
     796 000000a2 0742          ADDL      ACC,*-SP[2]           ; [CPU_] |377| 
     797 000000a3 8AA9          MOVL      XAR4,ACC              ; [CPU_] |377| 
     798 000000a4 1AC4          OR        *+XAR4[0],#0x0300     ; [CPU_] |377| 
         000000a5 0300 
     799                      .dwpsn  file "C:/work/grepos/c2000_bootROM/f28004x_bootrom/F28004x_ROM_dev/F28004x_ROM/driverlib/lin_
     800 000000a6 8F40          MOVL      XAR5,#4046            ; [CPU_U] |383| 
         000000a7 0FCE 
     801 000000a8 027C          MOVB      ACC,#124              ; [CPU_] |383| 
     802 000000a9 0742          ADDL      ACC,*-SP[2]           ; [CPU_] |383| 
     803 000000aa 8AA9          MOVL      XAR4,ACC              ; [CPU_] |383| 
     804 000000ab A0C4          MOVL      *+XAR4[0],XAR5        ; [CPU_] |383| 
     805                      .dwpsn  file "C:/work/grepos/c2000_bootROM/f28004x_bootrom/F28004x_ROM_dev/F28004x_ROM/driverlib/lin_
     806 000000ac 022C          MOVB      ACC,#44               ; [CPU_] |388| 
     807 000000ad 8F40          MOVL      XAR5,#280             ; [CPU_U] |388| 
         000000ae 0118 
     808 000000af 0742          ADDL      ACC,*-SP[2]           ; [CPU_] |388| 
     809 000000b0 8AA9          MOVL      XAR4,ACC              ; [CPU_] |388| 
TMS320C2000 Assembler PC v6.2.9 Tue Apr 14 13:32:51 2015

Tools Copyright (c) 1996-2014 Texas Instruments Incorporated
C:\Users\a0272466\AppData\Local\Temp\0802410                         PAGE   16

     810 000000b1 A0C4          MOVL      *+XAR4[0],XAR5        ; [CPU_] |388| 
     811                      .dwpsn  file "C:/work/grepos/c2000_bootROM/f28004x_bootrom/F28004x_ROM_dev/F28004x_ROM/driverlib/lin_
     812 000000b2 28AB          MOV       PL,#255               ; [CPU_] |393| 
         000000b3 00FF 
     813 000000b4 28AA          MOV       PH,#255               ; [CPU_] |393| 
         000000b5 00FF 
     814 000000b6 026C          MOVB      ACC,#108              ; [CPU_] |393| 
     815 000000b7 0742          ADDL      ACC,*-SP[2]           ; [CPU_] |393| 
     816 000000b8 8AA9          MOVL      XAR4,ACC              ; [CPU_] |393| 
     817 000000b9 A9C4          MOVL      *+XAR4[0],P           ; [CPU_] |393| 
     818                      .dwpsn  file "C:/work/grepos/c2000_bootROM/f28004x_bootrom/F28004x_ROM_dev/F28004x_ROM/driverlib/lin_
     819 000000ba BE00          MOVB      XAR6,#0               ; [CPU_] |400| 
     820 000000bb 0260          MOVB      ACC,#96               ; [CPU_] |400| 
     821 000000bc 0742          ADDL      ACC,*-SP[2]           ; [CPU_] |400| 
     822 000000bd 8AA9          MOVL      XAR4,ACC              ; [CPU_] |400| 
     823 000000be C2C4          MOVL      *+XAR4[0],XAR6        ; [CPU_] |400| 
     824                      .dwpsn  file "C:/work/grepos/c2000_bootROM/f28004x_bootrom/F28004x_ROM_dev/F28004x_ROM/driverlib/lin_
     825 000000bf 0228          MOVB      ACC,#40               ; [CPU_] |405| 
     826 000000c0 0742          ADDL      ACC,*-SP[2]           ; [CPU_] |405| 
     827 000000c1 8AA9          MOVL      XAR4,ACC              ; [CPU_] |405| 
     828 000000c2 CCC4          AND       AL,*+XAR4[0],#0xffe0  ; [CPU_] |405| 
         000000c3 FFE0 
     829 000000c4 5007          ORB       AL,#0x07              ; [CPU_] |405| 
     830 000000c5 88A9          MOVZ      AR6,AL                ; [CPU_] |405| 
     831 000000c6 0228          MOVB      ACC,#40               ; [CPU_] |405| 
     832 000000c7 0742          ADDL      ACC,*-SP[2]           ; [CPU_] |405| 
     833 000000c8 8AA9          MOVL      XAR4,ACC              ; [CPU_] |405| 
     834 000000c9 7EC4          MOV       *+XAR4[0],AR6         ; [CPU_] |405| 
     835                      .dwpsn  file "C:/work/grepos/c2000_bootROM/f28004x_bootrom/F28004x_ROM_dev/F28004x_ROM/driverlib/lin_
     836 000000ca 0228          MOVB      ACC,#40               ; [CPU_] |408| 
     837 000000cb 0742          ADDL      ACC,*-SP[2]           ; [CPU_] |408| 
     838 000000cc 8AA9          MOVL      XAR4,ACC              ; [CPU_] |408| 
     839 000000cd CCC4          AND       AL,*+XAR4[0],#0xfff8  ; [CPU_] |408| 
         000000ce FFF8 
     840 000000cf 5007          ORB       AL,#0x07              ; [CPU_] |408| 
     841 000000d0 88A9          MOVZ      AR6,AL                ; [CPU_] |408| 
     842 000000d1 022A          MOVB      ACC,#42               ; [CPU_] |408| 
     843 000000d2 0742          ADDL      ACC,*-SP[2]           ; [CPU_] |408| 
     844 000000d3 8AA9          MOVL      XAR4,ACC              ; [CPU_] |408| 
     845 000000d4 7EC4          MOV       *+XAR4[0],AR6         ; [CPU_] |408| 
     846                      .dwpsn  file "C:/work/grepos/c2000_bootROM/f28004x_bootrom/F28004x_ROM_dev/F28004x_ROM/driverlib/lin_
     847 000000d5 023C          MOVB      ACC,#60               ; [CPU_] |417| 
     848 000000d6 0742          ADDL      ACC,*-SP[2]           ; [CPU_] |417| 
     849 000000d7 8AA9          MOVL      XAR4,ACC              ; [CPU_] |417| 
     850 000000d8 56BF          MOVB      *+XAR4[0],#6,UNC      ; [CPU_] |417| 
         000000d9 06C4 
     851                      .dwpsn  file "C:/work/grepos/c2000_bootROM/f28004x_bootrom/F28004x_ROM_dev/F28004x_ROM/driverlib/lin_
     852 000000da 0248          MOVB      ACC,#72               ; [CPU_] |425| 
     853 000000db 0742          ADDL      ACC,*-SP[2]           ; [CPU_] |425| 
     854 000000dc 8AA9          MOVL      XAR4,ACC              ; [CPU_] |425| 
     855 000000dd 2BC4          MOV       *+XAR4[0],#0          ; [CPU_] |425| 
     856                      .dwpsn  file "C:/work/grepos/c2000_bootROM/f28004x_bootrom/F28004x_ROM_dev/F28004x_ROM/driverlib/lin_
     857 000000de 0240          MOVB      ACC,#64               ; [CPU_] |432| 
     858 000000df 0742          ADDL      ACC,*-SP[2]           ; [CPU_] |432| 
     859 000000e0 8AA9          MOVL      XAR4,ACC              ; [CPU_] |432| 
TMS320C2000 Assembler PC v6.2.9 Tue Apr 14 13:32:51 2015

Tools Copyright (c) 1996-2014 Texas Instruments Incorporated
C:\Users\a0272466\AppData\Local\Temp\0802410                         PAGE   17

     860 000000e1 2BC4          MOV       *+XAR4[0],#0          ; [CPU_] |432| 
     861                      .dwpsn  file "C:/work/grepos/c2000_bootROM/f28004x_bootrom/F28004x_ROM_dev/F28004x_ROM/driverlib/lin_
     862 000000e2 0254          MOVB      ACC,#84               ; [CPU_] |440| 
     863 000000e3 0742          ADDL      ACC,*-SP[2]           ; [CPU_] |440| 
     864 000000e4 8AA9          MOVL      XAR4,ACC              ; [CPU_] |440| 
     865 000000e5 2BC4          MOV       *+XAR4[0],#0          ; [CPU_] |440| 
     866                      .dwpsn  file "C:/work/grepos/c2000_bootROM/f28004x_bootrom/F28004x_ROM_dev/F28004x_ROM/driverlib/lin_
     867 000000e6 0258          MOVB      ACC,#88               ; [CPU_] |448| 
     868 000000e7 0742          ADDL      ACC,*-SP[2]           ; [CPU_] |448| 
     869 000000e8 8AA9          MOVL      XAR4,ACC              ; [CPU_] |448| 
     870 000000e9 2BC4          MOV       *+XAR4[0],#0          ; [CPU_] |448| 
     871                      .dwpsn  file "C:/work/grepos/c2000_bootROM/f28004x_bootrom/F28004x_ROM_dev/F28004x_ROM/driverlib/lin_
     872 000000ea 025C          MOVB      ACC,#92               ; [CPU_] |456| 
     873 000000eb 0742          ADDL      ACC,*-SP[2]           ; [CPU_] |456| 
     874 000000ec 8AA9          MOVL      XAR4,ACC              ; [CPU_] |456| 
     875 000000ed 56BF          MOVB      *+XAR4[0],#7,UNC      ; [CPU_] |456| 
         000000ee 07C4 
     876                      .dwpsn  file "C:/work/grepos/c2000_bootROM/f28004x_bootrom/F28004x_ROM_dev/F28004x_ROM/driverlib/lin_
     877 000000ef BE00          MOVB      XAR6,#0               ; [CPU_] |477| 
     878 000000f0 0214          MOVB      ACC,#20               ; [CPU_] |477| 
     879 000000f1 0742          ADDL      ACC,*-SP[2]           ; [CPU_] |477| 
     880 000000f2 8AA9          MOVL      XAR4,ACC              ; [CPU_] |477| 
     881 000000f3 C2C4          MOVL      *+XAR4[0],XAR6        ; [CPU_] |477| 
     882                      .dwpsn  file "C:/work/grepos/c2000_bootROM/f28004x_bootrom/F28004x_ROM_dev/F28004x_ROM/driverlib/lin_
     883 000000f4 020C          MOVB      ACC,#12               ; [CPU_] |498| 
     884 000000f5 0742          ADDL      ACC,*-SP[2]           ; [CPU_] |498| 
     885 000000f6 8AA9          MOVL      XAR4,ACC              ; [CPU_] |498| 
     886 000000f7 C2C4          MOVL      *+XAR4[0],XAR6        ; [CPU_] |498| 
     887                      .dwpsn  file "C:/work/grepos/c2000_bootROM/f28004x_bootrom/F28004x_ROM_dev/F28004x_ROM/driverlib/lin_
     888 000000f8 0204          MOVB      ACC,#4                ; [CPU_] |503| 
     889 000000f9 0742          ADDL      ACC,*-SP[2]           ; [CPU_] |503| 
     890 000000fa 8AA9          MOVL      XAR4,ACC              ; [CPU_] |503| 
     891 000000fb 1AC4          OR        *+XAR4[0],#128        ; [CPU_] |503| 
         000000fc 0080 
     892                      .dwpsn  file "C:/work/grepos/c2000_bootROM/f28004x_bootrom/F28004x_ROM_dev/F28004x_ROM/driverlib/lin_
     893 000000fd 761A   EDIS
     894                      .dwpsn  file "C:/work/grepos/c2000_bootROM/f28004x_bootrom/F28004x_ROM_dev/F28004x_ROM/driverlib/lin_
     895 000000fe FF69          SPM       #0                    ; [CPU_] 
     896 000000ff FE82          SUBB      SP,#2                 ; [CPU_U] 
     897                      .dwcfi  cfa_offset, -2
     898              $C$DW$56        .dwtag  DW_TAG_TI_branch
     899                      .dwattr $C$DW$56, DW_AT_low_pc(0x00)
     900                      .dwattr $C$DW$56, DW_AT_TI_return
     901 00000100 0006          LRETR     ; [CPU_] 
     902                      ; return occurs ; [] 
     903                      .dwattr $C$DW$53, DW_AT_TI_end_file("C:/work/grepos/c2000_bootROM/f28004x_bootrom/F28004x_ROM_dev/F28
     904                      .dwattr $C$DW$53, DW_AT_TI_end_line(0x1fa)
     905                      .dwattr $C$DW$53, DW_AT_TI_end_column(0x01)
     906                      .dwendentry
     907                      .dwendtag $C$DW$53
     908              
     909 00000101               .sect   ".text"
     910                      .clink
     911                      .global _LIN_setFunctional
     912              
TMS320C2000 Assembler PC v6.2.9 Tue Apr 14 13:32:51 2015

Tools Copyright (c) 1996-2014 Texas Instruments Incorporated
C:\Users\a0272466\AppData\Local\Temp\0802410                         PAGE   18

     913              $C$DW$57        .dwtag  DW_TAG_subprogram, DW_AT_name("LIN_setFunctional")
     914                      .dwattr $C$DW$57, DW_AT_low_pc(_LIN_setFunctional)
     915                      .dwattr $C$DW$57, DW_AT_high_pc(0x00)
     916                      .dwattr $C$DW$57, DW_AT_TI_symbol_name("_LIN_setFunctional")
     917                      .dwattr $C$DW$57, DW_AT_external
     918                      .dwattr $C$DW$57, DW_AT_TI_begin_file("C:/work/grepos/c2000_bootROM/f28004x_bootrom/F28004x_ROM_dev/F
     919                      .dwattr $C$DW$57, DW_AT_TI_begin_line(0x20b)
     920                      .dwattr $C$DW$57, DW_AT_TI_begin_column(0x01)
     921                      .dwattr $C$DW$57, DW_AT_TI_max_frame_size(-4)
     922                      .dwpsn  file "C:/work/grepos/c2000_bootROM/f28004x_bootrom/F28004x_ROM_dev/F28004x_ROM/driverlib/lin_
     923              
     924                      .dwfde $C$DW$CIE, _LIN_setFunctional
     925              $C$DW$58        .dwtag  DW_TAG_formal_parameter, DW_AT_name("base")
     926                      .dwattr $C$DW$58, DW_AT_TI_symbol_name("_base")
     927                      .dwattr $C$DW$58, DW_AT_type(*$C$DW$T$19)
     928                      .dwattr $C$DW$58, DW_AT_location[DW_OP_reg0]
     929              $C$DW$59        .dwtag  DW_TAG_formal_parameter, DW_AT_name("port")
     930                      .dwattr $C$DW$59, DW_AT_TI_symbol_name("_port")
     931                      .dwattr $C$DW$59, DW_AT_type(*$C$DW$T$19)
     932                      .dwattr $C$DW$59, DW_AT_location[DW_OP_breg20 -6]
     933              
     934              ;***************************************************************
     935              ;* FNAME: _LIN_setFunctional            FR SIZE:   2           *
     936              ;*                                                             *
     937              ;* FUNCTION ENVIRONMENT                                        *
     938              ;*                                                             *
     939              ;* FUNCTION PROPERTIES                                         *
     940              ;*                            0 Parameter,  2 Auto,  0 SOE     *
     941              ;***************************************************************
     942              
     943 00000101       _LIN_setFunctional:
     944                      .dwcfi  cfa_offset, -2
     945                      .dwcfi  save_reg_to_mem, 26, 0
     946                      .dwcfi  save_reg_to_reg, 78, 26
     947 00000101 FE02          ADDB      SP,#2                 ; [CPU_U] 
     948                      .dwcfi  cfa_offset, -4
     949              $C$DW$60        .dwtag  DW_TAG_variable, DW_AT_name("base")
     950                      .dwattr $C$DW$60, DW_AT_TI_symbol_name("_base")
     951                      .dwattr $C$DW$60, DW_AT_type(*$C$DW$T$19)
     952                      .dwattr $C$DW$60, DW_AT_location[DW_OP_breg20 -2]
     953 00000102 1E42          MOVL      *-SP[2],ACC           ; [CPU_] |524| 
     954                      .dwpsn  file "C:/work/grepos/c2000_bootROM/f28004x_bootrom/F28004x_ROM_dev/F28004x_ROM/driverlib/lin_
     955 00000103 C446          MOVL      XAR6,*-SP[6]          ; [CPU_] |530| 
     956 00000104 023C          MOVB      ACC,#60               ; [CPU_] |530| 
     957 00000105 0742          ADDL      ACC,*-SP[2]           ; [CPU_] |530| 
     958 00000106 8AA9          MOVL      XAR4,ACC              ; [CPU_] |530| 
     959 00000107 C2C4          MOVL      *+XAR4[0],XAR6        ; [CPU_] |530| 
     960                      .dwpsn  file "C:/work/grepos/c2000_bootROM/f28004x_bootrom/F28004x_ROM_dev/F28004x_ROM/driverlib/lin_
     961 00000108 FE82          SUBB      SP,#2                 ; [CPU_U] 
     962                      .dwcfi  cfa_offset, -2
     963              $C$DW$61        .dwtag  DW_TAG_TI_branch
     964                      .dwattr $C$DW$61, DW_AT_low_pc(0x00)
     965                      .dwattr $C$DW$61, DW_AT_TI_return
     966 00000109 0006          LRETR     ; [CPU_] 
     967                      ; return occurs ; [] 
TMS320C2000 Assembler PC v6.2.9 Tue Apr 14 13:32:51 2015

Tools Copyright (c) 1996-2014 Texas Instruments Incorporated
C:\Users\a0272466\AppData\Local\Temp\0802410                         PAGE   19

     968                      .dwattr $C$DW$57, DW_AT_TI_end_file("C:/work/grepos/c2000_bootROM/f28004x_bootrom/F28004x_ROM_dev/F28
     969                      .dwattr $C$DW$57, DW_AT_TI_end_line(0x213)
     970                      .dwattr $C$DW$57, DW_AT_TI_end_column(0x01)
     971                      .dwendentry
     972                      .dwendtag $C$DW$57
     973              
     974 0000010a               .sect   ".text"
     975                      .clink
     976                      .global _LIN_sendHeader
     977              
     978              $C$DW$62        .dwtag  DW_TAG_subprogram, DW_AT_name("LIN_sendHeader")
     979                      .dwattr $C$DW$62, DW_AT_low_pc(_LIN_sendHeader)
     980                      .dwattr $C$DW$62, DW_AT_high_pc(0x00)
     981                      .dwattr $C$DW$62, DW_AT_TI_symbol_name("_LIN_sendHeader")
     982                      .dwattr $C$DW$62, DW_AT_external
     983                      .dwattr $C$DW$62, DW_AT_TI_begin_file("C:/work/grepos/c2000_bootROM/f28004x_bootrom/F28004x_ROM_dev/F
     984                      .dwattr $C$DW$62, DW_AT_TI_begin_line(0x222)
     985                      .dwattr $C$DW$62, DW_AT_TI_begin_column(0x01)
     986                      .dwattr $C$DW$62, DW_AT_TI_max_frame_size(-6)
     987                      .dwpsn  file "C:/work/grepos/c2000_bootROM/f28004x_bootrom/F28004x_ROM_dev/F28004x_ROM/driverlib/lin_
     988              
     989                      .dwfde $C$DW$CIE, _LIN_sendHeader
     990              $C$DW$63        .dwtag  DW_TAG_formal_parameter, DW_AT_name("base")
     991                      .dwattr $C$DW$63, DW_AT_TI_symbol_name("_base")
     992                      .dwattr $C$DW$63, DW_AT_type(*$C$DW$T$19)
     993                      .dwattr $C$DW$63, DW_AT_location[DW_OP_reg0]
     994              $C$DW$64        .dwtag  DW_TAG_formal_parameter, DW_AT_name("identifier")
     995                      .dwattr $C$DW$64, DW_AT_TI_symbol_name("_identifier")
     996                      .dwattr $C$DW$64, DW_AT_type(*$C$DW$T$36)
     997                      .dwattr $C$DW$64, DW_AT_location[DW_OP_reg12]
     998              
     999              ;***************************************************************
    1000              ;* FNAME: _LIN_sendHeader               FR SIZE:   4           *
    1001              ;*                                                             *
    1002              ;* FUNCTION ENVIRONMENT                                        *
    1003              ;*                                                             *
    1004              ;* FUNCTION PROPERTIES                                         *
    1005              ;*                            0 Parameter,  3 Auto,  0 SOE     *
    1006              ;***************************************************************
    1007              
    1008 0000010a       _LIN_sendHeader:
    1009                      .dwcfi  cfa_offset, -2
    1010                      .dwcfi  save_reg_to_mem, 26, 0
    1011                      .dwcfi  save_reg_to_reg, 78, 26
    1012 0000010a FE04          ADDB      SP,#4                 ; [CPU_U] 
    1013                      .dwcfi  cfa_offset, -6
    1014              $C$DW$65        .dwtag  DW_TAG_variable, DW_AT_name("base")
    1015                      .dwattr $C$DW$65, DW_AT_TI_symbol_name("_base")
    1016                      .dwattr $C$DW$65, DW_AT_type(*$C$DW$T$19)
    1017                      .dwattr $C$DW$65, DW_AT_location[DW_OP_breg20 -2]
    1018              $C$DW$66        .dwtag  DW_TAG_variable, DW_AT_name("identifier")
    1019                      .dwattr $C$DW$66, DW_AT_TI_symbol_name("_identifier")
    1020                      .dwattr $C$DW$66, DW_AT_type(*$C$DW$T$36)
    1021                      .dwattr $C$DW$66, DW_AT_location[DW_OP_breg20 -3]
    1022 0000010b 7C43          MOV       *-SP[3],AR4           ; [CPU_] |547| 
TMS320C2000 Assembler PC v6.2.9 Tue Apr 14 13:32:51 2015

Tools Copyright (c) 1996-2014 Texas Instruments Incorporated
C:\Users\a0272466\AppData\Local\Temp\0802410                         PAGE   20

    1023 0000010c 1E42          MOVL      *-SP[2],ACC           ; [CPU_] |547| 
    1024                      .dwpsn  file "C:/work/grepos/c2000_bootROM/f28004x_bootrom/F28004x_ROM_dev/F28004x_ROM/driverlib/lin_
    1025 0000010d 0270          MOVB      ACC,#112              ; [CPU_] |553| 
    1026 0000010e 0742          ADDL      ACC,*-SP[2]           ; [CPU_] |553| 
    1027 0000010f 8AA9          MOVL      XAR4,ACC              ; [CPU_] |553| 
    1028 00000110 CCC4          AND       AL,*+XAR4[0],#0xff00  ; [CPU_] |553| 
         00000111 FF00 
    1029 00000112 CA43          OR        AL,*-SP[3]            ; [CPU_] |553| 
    1030 00000113 88A9          MOVZ      AR6,AL                ; [CPU_] |553| 
    1031 00000114 0270          MOVB      ACC,#112              ; [CPU_] |553| 
    1032 00000115 0742          ADDL      ACC,*-SP[2]           ; [CPU_] |553| 
    1033 00000116 8AA9          MOVL      XAR4,ACC              ; [CPU_] |553| 
    1034 00000117 7EC4          MOV       *+XAR4[0],AR6         ; [CPU_] |553| 
    1035                      .dwpsn  file "C:/work/grepos/c2000_bootROM/f28004x_bootrom/F28004x_ROM_dev/F28004x_ROM/driverlib/lin_
    1036 00000118 FE84          SUBB      SP,#4                 ; [CPU_U] 
    1037                      .dwcfi  cfa_offset, -2
    1038              $C$DW$67        .dwtag  DW_TAG_TI_branch
    1039                      .dwattr $C$DW$67, DW_AT_low_pc(0x00)
    1040                      .dwattr $C$DW$67, DW_AT_TI_return
    1041 00000119 0006          LRETR     ; [CPU_] 
    1042                      ; return occurs ; [] 
    1043                      .dwattr $C$DW$62, DW_AT_TI_end_file("C:/work/grepos/c2000_bootROM/f28004x_bootrom/F28004x_ROM_dev/F28
    1044                      .dwattr $C$DW$62, DW_AT_TI_end_line(0x22b)
    1045                      .dwattr $C$DW$62, DW_AT_TI_end_column(0x01)
    1046                      .dwendentry
    1047                      .dwendtag $C$DW$62
    1048              
    1049 0000011a               .sect   ".text"
    1050                      .clink
    1051                      .global _LIN_setIDSlaveTask
    1052              
    1053              $C$DW$68        .dwtag  DW_TAG_subprogram, DW_AT_name("LIN_setIDSlaveTask")
    1054                      .dwattr $C$DW$68, DW_AT_low_pc(_LIN_setIDSlaveTask)
    1055                      .dwattr $C$DW$68, DW_AT_high_pc(0x00)
    1056                      .dwattr $C$DW$68, DW_AT_TI_symbol_name("_LIN_setIDSlaveTask")
    1057                      .dwattr $C$DW$68, DW_AT_external
    1058                      .dwattr $C$DW$68, DW_AT_TI_begin_file("C:/work/grepos/c2000_bootROM/f28004x_bootrom/F28004x_ROM_dev/F
    1059                      .dwattr $C$DW$68, DW_AT_TI_begin_line(0x23b)
    1060                      .dwattr $C$DW$68, DW_AT_TI_begin_column(0x01)
    1061                      .dwattr $C$DW$68, DW_AT_TI_max_frame_size(-6)
    1062                      .dwpsn  file "C:/work/grepos/c2000_bootROM/f28004x_bootrom/F28004x_ROM_dev/F28004x_ROM/driverlib/lin_
    1063              
    1064                      .dwfde $C$DW$CIE, _LIN_setIDSlaveTask
    1065              $C$DW$69        .dwtag  DW_TAG_formal_parameter, DW_AT_name("base")
    1066                      .dwattr $C$DW$69, DW_AT_TI_symbol_name("_base")
    1067                      .dwattr $C$DW$69, DW_AT_type(*$C$DW$T$19)
    1068                      .dwattr $C$DW$69, DW_AT_location[DW_OP_reg0]
    1069              $C$DW$70        .dwtag  DW_TAG_formal_parameter, DW_AT_name("identifier")
    1070                      .dwattr $C$DW$70, DW_AT_TI_symbol_name("_identifier")
    1071                      .dwattr $C$DW$70, DW_AT_type(*$C$DW$T$36)
    1072                      .dwattr $C$DW$70, DW_AT_location[DW_OP_reg12]
    1073              
    1074              ;***************************************************************
    1075              ;* FNAME: _LIN_setIDSlaveTask           FR SIZE:   4           *
    1076              ;*                                                             *
TMS320C2000 Assembler PC v6.2.9 Tue Apr 14 13:32:51 2015

Tools Copyright (c) 1996-2014 Texas Instruments Incorporated
C:\Users\a0272466\AppData\Local\Temp\0802410                         PAGE   21

    1077              ;* FUNCTION ENVIRONMENT                                        *
    1078              ;*                                                             *
    1079              ;* FUNCTION PROPERTIES                                         *
    1080              ;*                            0 Parameter,  3 Auto,  0 SOE     *
    1081              ;***************************************************************
    1082              
    1083 0000011a       _LIN_setIDSlaveTask:
    1084                      .dwcfi  cfa_offset, -2
    1085                      .dwcfi  save_reg_to_mem, 26, 0
    1086                      .dwcfi  save_reg_to_reg, 78, 26
    1087 0000011a FE04          ADDB      SP,#4                 ; [CPU_U] 
    1088                      .dwcfi  cfa_offset, -6
    1089              $C$DW$71        .dwtag  DW_TAG_variable, DW_AT_name("base")
    1090                      .dwattr $C$DW$71, DW_AT_TI_symbol_name("_base")
    1091                      .dwattr $C$DW$71, DW_AT_type(*$C$DW$T$19)
    1092                      .dwattr $C$DW$71, DW_AT_location[DW_OP_breg20 -2]
    1093              $C$DW$72        .dwtag  DW_TAG_variable, DW_AT_name("identifier")
    1094                      .dwattr $C$DW$72, DW_AT_TI_symbol_name("_identifier")
    1095                      .dwattr $C$DW$72, DW_AT_type(*$C$DW$T$36)
    1096                      .dwattr $C$DW$72, DW_AT_location[DW_OP_breg20 -3]
    1097 0000011b 7C43          MOV       *-SP[3],AR4           ; [CPU_] |572| 
    1098 0000011c 1E42          MOVL      *-SP[2],ACC           ; [CPU_] |572| 
    1099                      .dwpsn  file "C:/work/grepos/c2000_bootROM/f28004x_bootrom/F28004x_ROM_dev/F28004x_ROM/driverlib/lin_
    1100 0000011d 0270          MOVB      ACC,#112              ; [CPU_] |578| 
    1101 0000011e 8043          MOVZ      AR7,*-SP[3]           ; [CPU_] |578| 
    1102 0000011f 0742          ADDL      ACC,*-SP[2]           ; [CPU_] |578| 
    1103 00000120 8AA9          MOVL      XAR4,ACC              ; [CPU_] |578| 
    1104 00000121 92C4          MOV       AL,*+XAR4[0]          ; [CPU_] |578| 
    1105 00000122 38A7          MOVB      AL.MSB,AR7            ; [CPU_] |578| 
    1106 00000123 88A9          MOVZ      AR6,AL                ; [CPU_] |578| 
    1107 00000124 0270          MOVB      ACC,#112              ; [CPU_] |578| 
    1108 00000125 0742          ADDL      ACC,*-SP[2]           ; [CPU_] |578| 
    1109 00000126 8AA9          MOVL      XAR4,ACC              ; [CPU_] |578| 
    1110 00000127 7EC4          MOV       *+XAR4[0],AR6         ; [CPU_] |578| 
    1111                      .dwpsn  file "C:/work/grepos/c2000_bootROM/f28004x_bootrom/F28004x_ROM_dev/F28004x_ROM/driverlib/lin_
    1112 00000128 FE84          SUBB      SP,#4                 ; [CPU_U] 
    1113                      .dwcfi  cfa_offset, -2
    1114              $C$DW$73        .dwtag  DW_TAG_TI_branch
    1115                      .dwattr $C$DW$73, DW_AT_low_pc(0x00)
    1116                      .dwattr $C$DW$73, DW_AT_TI_return
    1117 00000129 0006          LRETR     ; [CPU_] 
    1118                      ; return occurs ; [] 
    1119                      .dwattr $C$DW$68, DW_AT_TI_end_file("C:/work/grepos/c2000_bootROM/f28004x_bootrom/F28004x_ROM_dev/F28
    1120                      .dwattr $C$DW$68, DW_AT_TI_end_line(0x245)
    1121                      .dwattr $C$DW$68, DW_AT_TI_end_column(0x01)
    1122                      .dwendentry
    1123                      .dwendtag $C$DW$68
    1124              
    1125 0000012a               .sect   ".text"
    1126                      .clink
    1127                      .global _LIN_sendWakeupSignal
    1128              
    1129              $C$DW$74        .dwtag  DW_TAG_subprogram, DW_AT_name("LIN_sendWakeupSignal")
    1130                      .dwattr $C$DW$74, DW_AT_low_pc(_LIN_sendWakeupSignal)
    1131                      .dwattr $C$DW$74, DW_AT_high_pc(0x00)
TMS320C2000 Assembler PC v6.2.9 Tue Apr 14 13:32:51 2015

Tools Copyright (c) 1996-2014 Texas Instruments Incorporated
C:\Users\a0272466\AppData\Local\Temp\0802410                         PAGE   22

    1132                      .dwattr $C$DW$74, DW_AT_TI_symbol_name("_LIN_sendWakeupSignal")
    1133                      .dwattr $C$DW$74, DW_AT_external
    1134                      .dwattr $C$DW$74, DW_AT_TI_begin_file("C:/work/grepos/c2000_bootROM/f28004x_bootrom/F28004x_ROM_dev/F
    1135                      .dwattr $C$DW$74, DW_AT_TI_begin_line(0x254)
    1136                      .dwattr $C$DW$74, DW_AT_TI_begin_column(0x01)
    1137                      .dwattr $C$DW$74, DW_AT_TI_max_frame_size(-4)
    1138                      .dwpsn  file "C:/work/grepos/c2000_bootROM/f28004x_bootrom/F28004x_ROM_dev/F28004x_ROM/driverlib/lin_
    1139              
    1140                      .dwfde $C$DW$CIE, _LIN_sendWakeupSignal
    1141              $C$DW$75        .dwtag  DW_TAG_formal_parameter, DW_AT_name("base")
    1142                      .dwattr $C$DW$75, DW_AT_TI_symbol_name("_base")
    1143                      .dwattr $C$DW$75, DW_AT_type(*$C$DW$T$19)
    1144                      .dwattr $C$DW$75, DW_AT_location[DW_OP_reg0]
    1145              
    1146              ;***************************************************************
    1147              ;* FNAME: _LIN_sendWakeupSignal         FR SIZE:   2           *
    1148              ;*                                                             *
    1149              ;* FUNCTION ENVIRONMENT                                        *
    1150              ;*                                                             *
    1151              ;* FUNCTION PROPERTIES                                         *
    1152              ;*                            0 Parameter,  2 Auto,  0 SOE     *
    1153              ;***************************************************************
    1154              
    1155 0000012a       _LIN_sendWakeupSignal:
    1156                      .dwcfi  cfa_offset, -2
    1157                      .dwcfi  save_reg_to_mem, 26, 0
    1158                      .dwcfi  save_reg_to_reg, 78, 26
    1159 0000012a FE02          ADDB      SP,#2                 ; [CPU_U] 
    1160                      .dwcfi  cfa_offset, -4
    1161              $C$DW$76        .dwtag  DW_TAG_variable, DW_AT_name("base")
    1162                      .dwattr $C$DW$76, DW_AT_TI_symbol_name("_base")
    1163                      .dwattr $C$DW$76, DW_AT_type(*$C$DW$T$19)
    1164                      .dwattr $C$DW$76, DW_AT_location[DW_OP_breg20 -2]
    1165 0000012b 1E42          MOVL      *-SP[2],ACC           ; [CPU_] |597| 
    1166                      .dwpsn  file "C:/work/grepos/c2000_bootROM/f28004x_bootrom/F28004x_ROM_dev/F28004x_ROM/driverlib/lin_
    1167 0000012c 0277          MOVB      ACC,#119              ; [CPU_] |603| 
    1168 0000012d 0742          ADDL      ACC,*-SP[2]           ; [CPU_] |603| 
    1169 0000012e 8AA9          MOVL      XAR4,ACC              ; [CPU_] |603| 
    1170 0000012f 9AF0          MOVB      AL,#240               ; [CPU_] |603| 
    1171 00000130 3CC4          MOVB      *+XAR4[0],AL.LSB      ; [CPU_] |603| 
    1172                      .dwpsn  file "C:/work/grepos/c2000_bootROM/f28004x_bootrom/F28004x_ROM_dev/F28004x_ROM/driverlib/lin_
    1173 00000131 0208          MOVB      ACC,#8                ; [CPU_] |604| 
    1174 00000132 0742          ADDL      ACC,*-SP[2]           ; [CPU_] |604| 
    1175 00000133 8AA9          MOVL      XAR4,ACC              ; [CPU_] |604| 
    1176 00000134 1AC4          OR        *+XAR4[0],#0x0100     ; [CPU_] |604| 
         00000135 0100 
    1177                      .dwpsn  file "C:/work/grepos/c2000_bootROM/f28004x_bootrom/F28004x_ROM_dev/F28004x_ROM/driverlib/lin_
    1178 00000136 FE82          SUBB      SP,#2                 ; [CPU_U] 
    1179                      .dwcfi  cfa_offset, -2
    1180              $C$DW$77        .dwtag  DW_TAG_TI_branch
    1181                      .dwattr $C$DW$77, DW_AT_low_pc(0x00)
    1182                      .dwattr $C$DW$77, DW_AT_TI_return
    1183 00000137 0006          LRETR     ; [CPU_] 
    1184                      ; return occurs ; [] 
    1185                      .dwattr $C$DW$74, DW_AT_TI_end_file("C:/work/grepos/c2000_bootROM/f28004x_bootrom/F28004x_ROM_dev/F28
TMS320C2000 Assembler PC v6.2.9 Tue Apr 14 13:32:51 2015

Tools Copyright (c) 1996-2014 Texas Instruments Incorporated
C:\Users\a0272466\AppData\Local\Temp\0802410                         PAGE   23

    1186                      .dwattr $C$DW$74, DW_AT_TI_end_line(0x25d)
    1187                      .dwattr $C$DW$74, DW_AT_TI_end_column(0x01)
    1188                      .dwendentry
    1189                      .dwendtag $C$DW$74
    1190              
    1191 00000138               .sect   ".text"
    1192                      .clink
    1193                      .global _LIN_enterSleep
    1194              
    1195              $C$DW$78        .dwtag  DW_TAG_subprogram, DW_AT_name("LIN_enterSleep")
    1196                      .dwattr $C$DW$78, DW_AT_low_pc(_LIN_enterSleep)
    1197                      .dwattr $C$DW$78, DW_AT_high_pc(0x00)
    1198                      .dwattr $C$DW$78, DW_AT_TI_symbol_name("_LIN_enterSleep")
    1199                      .dwattr $C$DW$78, DW_AT_external
    1200                      .dwattr $C$DW$78, DW_AT_TI_begin_file("C:/work/grepos/c2000_bootROM/f28004x_bootrom/F28004x_ROM_dev/F
    1201                      .dwattr $C$DW$78, DW_AT_TI_begin_line(0x26e)
    1202                      .dwattr $C$DW$78, DW_AT_TI_begin_column(0x01)
    1203                      .dwattr $C$DW$78, DW_AT_TI_max_frame_size(-4)
    1204                      .dwpsn  file "C:/work/grepos/c2000_bootROM/f28004x_bootrom/F28004x_ROM_dev/F28004x_ROM/driverlib/lin_
    1205              
    1206                      .dwfde $C$DW$CIE, _LIN_enterSleep
    1207              $C$DW$79        .dwtag  DW_TAG_formal_parameter, DW_AT_name("base")
    1208                      .dwattr $C$DW$79, DW_AT_TI_symbol_name("_base")
    1209                      .dwattr $C$DW$79, DW_AT_type(*$C$DW$T$19)
    1210                      .dwattr $C$DW$79, DW_AT_location[DW_OP_reg0]
    1211              
    1212              ;***************************************************************
    1213              ;* FNAME: _LIN_enterSleep               FR SIZE:   2           *
    1214              ;*                                                             *
    1215              ;* FUNCTION ENVIRONMENT                                        *
    1216              ;*                                                             *
    1217              ;* FUNCTION PROPERTIES                                         *
    1218              ;*                            0 Parameter,  2 Auto,  0 SOE     *
    1219              ;***************************************************************
    1220              
    1221 00000138       _LIN_enterSleep:
    1222                      .dwcfi  cfa_offset, -2
    1223                      .dwcfi  save_reg_to_mem, 26, 0
    1224                      .dwcfi  save_reg_to_reg, 78, 26
    1225 00000138 FE02          ADDB      SP,#2                 ; [CPU_U] 
    1226                      .dwcfi  cfa_offset, -4
    1227              $C$DW$80        .dwtag  DW_TAG_variable, DW_AT_name("base")
    1228                      .dwattr $C$DW$80, DW_AT_TI_symbol_name("_base")
    1229                      .dwattr $C$DW$80, DW_AT_type(*$C$DW$T$19)
    1230                      .dwattr $C$DW$80, DW_AT_location[DW_OP_breg20 -2]
    1231 00000139 1E42          MOVL      *-SP[2],ACC           ; [CPU_] |623| 
    1232                      .dwpsn  file "C:/work/grepos/c2000_bootROM/f28004x_bootrom/F28004x_ROM_dev/F28004x_ROM/driverlib/lin_
    1233 0000013a 0208          MOVB      ACC,#8                ; [CPU_] |629| 
    1234 0000013b 0742          ADDL      ACC,*-SP[2]           ; [CPU_] |629| 
    1235 0000013c 8AA9          MOVL      XAR4,ACC              ; [CPU_] |629| 
    1236 0000013d 1AC4          OR        *+XAR4[0],#0x0001     ; [CPU_] |629| 
         0000013e 0001 
    1237                      .dwpsn  file "C:/work/grepos/c2000_bootROM/f28004x_bootrom/F28004x_ROM_dev/F28004x_ROM/driverlib/lin_
    1238 0000013f FE82          SUBB      SP,#2                 ; [CPU_U] 
    1239                      .dwcfi  cfa_offset, -2
TMS320C2000 Assembler PC v6.2.9 Tue Apr 14 13:32:51 2015

Tools Copyright (c) 1996-2014 Texas Instruments Incorporated
C:\Users\a0272466\AppData\Local\Temp\0802410                         PAGE   24

    1240              $C$DW$81        .dwtag  DW_TAG_TI_branch
    1241                      .dwattr $C$DW$81, DW_AT_low_pc(0x00)
    1242                      .dwattr $C$DW$81, DW_AT_TI_return
    1243 00000140 0006          LRETR     ; [CPU_] 
    1244                      ; return occurs ; [] 
    1245                      .dwattr $C$DW$78, DW_AT_TI_end_file("C:/work/grepos/c2000_bootROM/f28004x_bootrom/F28004x_ROM_dev/F28
    1246                      .dwattr $C$DW$78, DW_AT_TI_end_line(0x276)
    1247                      .dwattr $C$DW$78, DW_AT_TI_end_column(0x01)
    1248                      .dwendentry
    1249                      .dwendtag $C$DW$78
    1250              
    1251 00000141               .sect   ".text"
    1252                      .clink
    1253                      .global _LIN_softwareReset
    1254              
    1255              $C$DW$82        .dwtag  DW_TAG_subprogram, DW_AT_name("LIN_softwareReset")
    1256                      .dwattr $C$DW$82, DW_AT_low_pc(_LIN_softwareReset)
    1257                      .dwattr $C$DW$82, DW_AT_high_pc(0x00)
    1258                      .dwattr $C$DW$82, DW_AT_TI_symbol_name("_LIN_softwareReset")
    1259                      .dwattr $C$DW$82, DW_AT_external
    1260                      .dwattr $C$DW$82, DW_AT_TI_begin_file("C:/work/grepos/c2000_bootROM/f28004x_bootrom/F28004x_ROM_dev/F
    1261                      .dwattr $C$DW$82, DW_AT_TI_begin_line(0x288)
    1262                      .dwattr $C$DW$82, DW_AT_TI_begin_column(0x01)
    1263                      .dwattr $C$DW$82, DW_AT_TI_max_frame_size(-4)
    1264                      .dwpsn  file "C:/work/grepos/c2000_bootROM/f28004x_bootrom/F28004x_ROM_dev/F28004x_ROM/driverlib/lin_
    1265              
    1266                      .dwfde $C$DW$CIE, _LIN_softwareReset
    1267              $C$DW$83        .dwtag  DW_TAG_formal_parameter, DW_AT_name("base")
    1268                      .dwattr $C$DW$83, DW_AT_TI_symbol_name("_base")
    1269                      .dwattr $C$DW$83, DW_AT_type(*$C$DW$T$19)
    1270                      .dwattr $C$DW$83, DW_AT_location[DW_OP_reg0]
    1271              
    1272              ;***************************************************************
    1273              ;* FNAME: _LIN_softwareReset            FR SIZE:   2           *
    1274              ;*                                                             *
    1275              ;* FUNCTION ENVIRONMENT                                        *
    1276              ;*                                                             *
    1277              ;* FUNCTION PROPERTIES                                         *
    1278              ;*                            0 Parameter,  2 Auto,  0 SOE     *
    1279              ;***************************************************************
    1280              
    1281 00000141       _LIN_softwareReset:
    1282                      .dwcfi  cfa_offset, -2
    1283                      .dwcfi  save_reg_to_mem, 26, 0
    1284                      .dwcfi  save_reg_to_reg, 78, 26
    1285 00000141 FE02          ADDB      SP,#2                 ; [CPU_U] 
    1286                      .dwcfi  cfa_offset, -4
    1287              $C$DW$84        .dwtag  DW_TAG_variable, DW_AT_name("base")
    1288                      .dwattr $C$DW$84, DW_AT_TI_symbol_name("_base")
    1289                      .dwattr $C$DW$84, DW_AT_type(*$C$DW$T$19)
    1290                      .dwattr $C$DW$84, DW_AT_location[DW_OP_breg20 -2]
    1291 00000142 1E42          MOVL      *-SP[2],ACC           ; [CPU_] |649| 
    1292                      .dwpsn  file "C:/work/grepos/c2000_bootROM/f28004x_bootrom/F28004x_ROM_dev/F28004x_ROM/driverlib/lin_
    1293 00000143 0204          MOVB      ACC,#4                ; [CPU_] |655| 
    1294 00000144 0742          ADDL      ACC,*-SP[2]           ; [CPU_] |655| 
TMS320C2000 Assembler PC v6.2.9 Tue Apr 14 13:32:51 2015

Tools Copyright (c) 1996-2014 Texas Instruments Incorporated
C:\Users\a0272466\AppData\Local\Temp\0802410                         PAGE   25

    1295 00000145 8AA9          MOVL      XAR4,ACC              ; [CPU_] |655| 
    1296 00000146 18C4          AND       *+XAR4[0],#0xff7f     ; [CPU_] |655| 
         00000147 FF7F 
    1297                      .dwpsn  file "C:/work/grepos/c2000_bootROM/f28004x_bootrom/F28004x_ROM_dev/F28004x_ROM/driverlib/lin_
    1298 00000148 0204          MOVB      ACC,#4                ; [CPU_] |656| 
    1299 00000149 0742          ADDL      ACC,*-SP[2]           ; [CPU_] |656| 
    1300 0000014a 8AA9          MOVL      XAR4,ACC              ; [CPU_] |656| 
    1301 0000014b 1AC4          OR        *+XAR4[0],#0x0080     ; [CPU_] |656| 
         0000014c 0080 
    1302                      .dwpsn  file "C:/work/grepos/c2000_bootROM/f28004x_bootrom/F28004x_ROM_dev/F28004x_ROM/driverlib/lin_
    1303 0000014d FE82          SUBB      SP,#2                 ; [CPU_U] 
    1304                      .dwcfi  cfa_offset, -2
    1305              $C$DW$85        .dwtag  DW_TAG_TI_branch
    1306                      .dwattr $C$DW$85, DW_AT_low_pc(0x00)
    1307                      .dwattr $C$DW$85, DW_AT_TI_return
    1308 0000014e 0006          LRETR     ; [CPU_] 
    1309                      ; return occurs ; [] 
    1310                      .dwattr $C$DW$82, DW_AT_TI_end_file("C:/work/grepos/c2000_bootROM/f28004x_bootrom/F28004x_ROM_dev/F28
    1311                      .dwattr $C$DW$82, DW_AT_TI_end_line(0x291)
    1312                      .dwattr $C$DW$82, DW_AT_TI_end_column(0x01)
    1313                      .dwendentry
    1314                      .dwendtag $C$DW$82
    1315              
    1316 0000014f               .sect   ".text"
    1317                      .clink
    1318                      .global _LIN_enterResetState
    1319              
    1320              $C$DW$86        .dwtag  DW_TAG_subprogram, DW_AT_name("LIN_enterResetState")
    1321                      .dwattr $C$DW$86, DW_AT_low_pc(_LIN_enterResetState)
    1322                      .dwattr $C$DW$86, DW_AT_high_pc(0x00)
    1323                      .dwattr $C$DW$86, DW_AT_TI_symbol_name("_LIN_enterResetState")
    1324                      .dwattr $C$DW$86, DW_AT_external
    1325                      .dwattr $C$DW$86, DW_AT_TI_begin_file("C:/work/grepos/c2000_bootROM/f28004x_bootrom/F28004x_ROM_dev/F
    1326                      .dwattr $C$DW$86, DW_AT_TI_begin_line(0x2a5)
    1327                      .dwattr $C$DW$86, DW_AT_TI_begin_column(0x01)
    1328                      .dwattr $C$DW$86, DW_AT_TI_max_frame_size(-4)
    1329                      .dwpsn  file "C:/work/grepos/c2000_bootROM/f28004x_bootrom/F28004x_ROM_dev/F28004x_ROM/driverlib/lin_
    1330              
    1331                      .dwfde $C$DW$CIE, _LIN_enterResetState
    1332              $C$DW$87        .dwtag  DW_TAG_formal_parameter, DW_AT_name("base")
    1333                      .dwattr $C$DW$87, DW_AT_TI_symbol_name("_base")
    1334                      .dwattr $C$DW$87, DW_AT_type(*$C$DW$T$19)
    1335                      .dwattr $C$DW$87, DW_AT_location[DW_OP_reg0]
    1336              
    1337              ;***************************************************************
    1338              ;* FNAME: _LIN_enterResetState          FR SIZE:   2           *
    1339              ;*                                                             *
    1340              ;* FUNCTION ENVIRONMENT                                        *
    1341              ;*                                                             *
    1342              ;* FUNCTION PROPERTIES                                         *
    1343              ;*                            0 Parameter,  2 Auto,  0 SOE     *
    1344              ;***************************************************************
    1345              
    1346 0000014f       _LIN_enterResetState:
    1347                      .dwcfi  cfa_offset, -2
TMS320C2000 Assembler PC v6.2.9 Tue Apr 14 13:32:51 2015

Tools Copyright (c) 1996-2014 Texas Instruments Incorporated
C:\Users\a0272466\AppData\Local\Temp\0802410                         PAGE   26

    1348                      .dwcfi  save_reg_to_mem, 26, 0
    1349                      .dwcfi  save_reg_to_reg, 78, 26
    1350 0000014f FE02          ADDB      SP,#2                 ; [CPU_U] 
    1351                      .dwcfi  cfa_offset, -4
    1352              $C$DW$88        .dwtag  DW_TAG_variable, DW_AT_name("base")
    1353                      .dwattr $C$DW$88, DW_AT_TI_symbol_name("_base")
    1354                      .dwattr $C$DW$88, DW_AT_type(*$C$DW$T$19)
    1355                      .dwattr $C$DW$88, DW_AT_location[DW_OP_breg20 -2]
    1356 00000150 1E42          MOVL      *-SP[2],ACC           ; [CPU_] |678| 
    1357                      .dwpsn  file "C:/work/grepos/c2000_bootROM/f28004x_bootrom/F28004x_ROM_dev/F28004x_ROM/driverlib/lin_
    1358 00000151 0204          MOVB      ACC,#4                ; [CPU_] |684| 
    1359 00000152 0742          ADDL      ACC,*-SP[2]           ; [CPU_] |684| 
    1360 00000153 8AA9          MOVL      XAR4,ACC              ; [CPU_] |684| 
    1361 00000154 18C4          AND       *+XAR4[0],#0xff7f     ; [CPU_] |684| 
         00000155 FF7F 
    1362                      .dwpsn  file "C:/work/grepos/c2000_bootROM/f28004x_bootrom/F28004x_ROM_dev/F28004x_ROM/driverlib/lin_
    1363 00000156 FE82          SUBB      SP,#2                 ; [CPU_U] 
    1364                      .dwcfi  cfa_offset, -2
    1365              $C$DW$89        .dwtag  DW_TAG_TI_branch
    1366                      .dwattr $C$DW$89, DW_AT_low_pc(0x00)
    1367                      .dwattr $C$DW$89, DW_AT_TI_return
    1368 00000157 0006          LRETR     ; [CPU_] 
    1369                      ; return occurs ; [] 
    1370                      .dwattr $C$DW$86, DW_AT_TI_end_file("C:/work/grepos/c2000_bootROM/f28004x_bootrom/F28004x_ROM_dev/F28
    1371                      .dwattr $C$DW$86, DW_AT_TI_end_line(0x2ad)
    1372                      .dwattr $C$DW$86, DW_AT_TI_end_column(0x01)
    1373                      .dwendentry
    1374                      .dwendtag $C$DW$86
    1375              
    1376 00000158               .sect   ".text"
    1377                      .clink
    1378                      .global _LIN_enterReadyState
    1379              
    1380              $C$DW$90        .dwtag  DW_TAG_subprogram, DW_AT_name("LIN_enterReadyState")
    1381                      .dwattr $C$DW$90, DW_AT_low_pc(_LIN_enterReadyState)
    1382                      .dwattr $C$DW$90, DW_AT_high_pc(0x00)
    1383                      .dwattr $C$DW$90, DW_AT_TI_symbol_name("_LIN_enterReadyState")
    1384                      .dwattr $C$DW$90, DW_AT_external
    1385                      .dwattr $C$DW$90, DW_AT_TI_begin_file("C:/work/grepos/c2000_bootROM/f28004x_bootrom/F28004x_ROM_dev/F
    1386                      .dwattr $C$DW$90, DW_AT_TI_begin_line(0x2bf)
    1387                      .dwattr $C$DW$90, DW_AT_TI_begin_column(0x01)
    1388                      .dwattr $C$DW$90, DW_AT_TI_max_frame_size(-4)
    1389                      .dwpsn  file "C:/work/grepos/c2000_bootROM/f28004x_bootrom/F28004x_ROM_dev/F28004x_ROM/driverlib/lin_
    1390              
    1391                      .dwfde $C$DW$CIE, _LIN_enterReadyState
    1392              $C$DW$91        .dwtag  DW_TAG_formal_parameter, DW_AT_name("base")
    1393                      .dwattr $C$DW$91, DW_AT_TI_symbol_name("_base")
    1394                      .dwattr $C$DW$91, DW_AT_type(*$C$DW$T$19)
    1395                      .dwattr $C$DW$91, DW_AT_location[DW_OP_reg0]
    1396              
    1397              ;***************************************************************
    1398              ;* FNAME: _LIN_enterReadyState          FR SIZE:   2           *
    1399              ;*                                                             *
    1400              ;* FUNCTION ENVIRONMENT                                        *
    1401              ;*                                                             *
TMS320C2000 Assembler PC v6.2.9 Tue Apr 14 13:32:51 2015

Tools Copyright (c) 1996-2014 Texas Instruments Incorporated
C:\Users\a0272466\AppData\Local\Temp\0802410                         PAGE   27

    1402              ;* FUNCTION PROPERTIES                                         *
    1403              ;*                            0 Parameter,  2 Auto,  0 SOE     *
    1404              ;***************************************************************
    1405              
    1406 00000158       _LIN_enterReadyState:
    1407                      .dwcfi  cfa_offset, -2
    1408                      .dwcfi  save_reg_to_mem, 26, 0
    1409                      .dwcfi  save_reg_to_reg, 78, 26
    1410 00000158 FE02          ADDB      SP,#2                 ; [CPU_U] 
    1411                      .dwcfi  cfa_offset, -4
    1412              $C$DW$92        .dwtag  DW_TAG_variable, DW_AT_name("base")
    1413                      .dwattr $C$DW$92, DW_AT_TI_symbol_name("_base")
    1414                      .dwattr $C$DW$92, DW_AT_type(*$C$DW$T$19)
    1415                      .dwattr $C$DW$92, DW_AT_location[DW_OP_breg20 -2]
    1416 00000159 1E42          MOVL      *-SP[2],ACC           ; [CPU_] |704| 
    1417                      .dwpsn  file "C:/work/grepos/c2000_bootROM/f28004x_bootrom/F28004x_ROM_dev/F28004x_ROM/driverlib/lin_
    1418 0000015a 0204          MOVB      ACC,#4                ; [CPU_] |710| 
    1419 0000015b 0742          ADDL      ACC,*-SP[2]           ; [CPU_] |710| 
    1420 0000015c 8AA9          MOVL      XAR4,ACC              ; [CPU_] |710| 
    1421 0000015d 1AC4          OR        *+XAR4[0],#0x0080     ; [CPU_] |710| 
         0000015e 0080 
    1422                      .dwpsn  file "C:/work/grepos/c2000_bootROM/f28004x_bootrom/F28004x_ROM_dev/F28004x_ROM/driverlib/lin_
    1423 0000015f FE82          SUBB      SP,#2                 ; [CPU_U] 
    1424                      .dwcfi  cfa_offset, -2
    1425              $C$DW$93        .dwtag  DW_TAG_TI_branch
    1426                      .dwattr $C$DW$93, DW_AT_low_pc(0x00)
    1427                      .dwattr $C$DW$93, DW_AT_TI_return
    1428 00000160 0006          LRETR     ; [CPU_] 
    1429                      ; return occurs ; [] 
    1430                      .dwattr $C$DW$90, DW_AT_TI_end_file("C:/work/grepos/c2000_bootROM/f28004x_bootrom/F28004x_ROM_dev/F28
    1431                      .dwattr $C$DW$90, DW_AT_TI_end_line(0x2c7)
    1432                      .dwattr $C$DW$90, DW_AT_TI_end_column(0x01)
    1433                      .dwendentry
    1434                      .dwendtag $C$DW$90
    1435              
    1436 00000161               .sect   ".text"
    1437                      .clink
    1438                      .global _LIN_isTxReady
    1439              
    1440              $C$DW$94        .dwtag  DW_TAG_subprogram, DW_AT_name("LIN_isTxReady")
    1441                      .dwattr $C$DW$94, DW_AT_low_pc(_LIN_isTxReady)
    1442                      .dwattr $C$DW$94, DW_AT_high_pc(0x00)
    1443                      .dwattr $C$DW$94, DW_AT_TI_symbol_name("_LIN_isTxReady")
    1444                      .dwattr $C$DW$94, DW_AT_external
    1445                      .dwattr $C$DW$94, DW_AT_type(*$C$DW$T$19)
    1446                      .dwattr $C$DW$94, DW_AT_TI_begin_file("C:/work/grepos/c2000_bootROM/f28004x_bootrom/F28004x_ROM_dev/F
    1447                      .dwattr $C$DW$94, DW_AT_TI_begin_line(0x2d6)
    1448                      .dwattr $C$DW$94, DW_AT_TI_begin_column(0x01)
    1449                      .dwattr $C$DW$94, DW_AT_TI_max_frame_size(-4)
    1450                      .dwpsn  file "C:/work/grepos/c2000_bootROM/f28004x_bootrom/F28004x_ROM_dev/F28004x_ROM/driverlib/lin_
    1451              
    1452                      .dwfde $C$DW$CIE, _LIN_isTxReady
    1453              $C$DW$95        .dwtag  DW_TAG_formal_parameter, DW_AT_name("base")
    1454                      .dwattr $C$DW$95, DW_AT_TI_symbol_name("_base")
    1455                      .dwattr $C$DW$95, DW_AT_type(*$C$DW$T$19)
TMS320C2000 Assembler PC v6.2.9 Tue Apr 14 13:32:51 2015

Tools Copyright (c) 1996-2014 Texas Instruments Incorporated
C:\Users\a0272466\AppData\Local\Temp\0802410                         PAGE   28

    1456                      .dwattr $C$DW$95, DW_AT_location[DW_OP_reg0]
    1457              
    1458              ;***************************************************************
    1459              ;* FNAME: _LIN_isTxReady                FR SIZE:   2           *
    1460              ;*                                                             *
    1461              ;* FUNCTION ENVIRONMENT                                        *
    1462              ;*                                                             *
    1463              ;* FUNCTION PROPERTIES                                         *
    1464              ;*                            0 Parameter,  2 Auto,  0 SOE     *
    1465              ;***************************************************************
    1466              
    1467 00000161       _LIN_isTxReady:
    1468                      .dwcfi  cfa_offset, -2
    1469                      .dwcfi  save_reg_to_mem, 26, 0
    1470                      .dwcfi  save_reg_to_reg, 78, 26
    1471 00000161 FE02          ADDB      SP,#2                 ; [CPU_U] 
    1472                      .dwcfi  cfa_offset, -4
    1473              $C$DW$96        .dwtag  DW_TAG_variable, DW_AT_name("base")
    1474                      .dwattr $C$DW$96, DW_AT_TI_symbol_name("_base")
    1475                      .dwattr $C$DW$96, DW_AT_type(*$C$DW$T$19)
    1476                      .dwattr $C$DW$96, DW_AT_location[DW_OP_breg20 -2]
    1477 00000162 1E42          MOVL      *-SP[2],ACC           ; [CPU_] |727| 
    1478                      .dwpsn  file "C:/work/grepos/c2000_bootROM/f28004x_bootrom/F28004x_ROM_dev/F28004x_ROM/driverlib/lin_
    1479 00000163 021C          MOVB      ACC,#28               ; [CPU_] |733| 
    1480 00000164 0742          ADDL      ACC,*-SP[2]           ; [CPU_] |733| 
    1481 00000165 8AA9          MOVL      XAR4,ACC              ; [CPU_] |733| 
    1482 00000166 CCC4          AND       AL,*+XAR4[0],#0x0100  ; [CPU_] |733| 
         00000167 0100 
    1483 00000168 0EA9          MOVU      ACC,AL                ; [CPU_] |733| 
    1484                      .dwpsn  file "C:/work/grepos/c2000_bootROM/f28004x_bootrom/F28004x_ROM_dev/F28004x_ROM/driverlib/lin_
    1485 00000169 FE82          SUBB      SP,#2                 ; [CPU_U] 
    1486                      .dwcfi  cfa_offset, -2
    1487              $C$DW$97        .dwtag  DW_TAG_TI_branch
    1488                      .dwattr $C$DW$97, DW_AT_low_pc(0x00)
    1489                      .dwattr $C$DW$97, DW_AT_TI_return
    1490 0000016a 0006          LRETR     ; [CPU_] 
    1491                      ; return occurs ; [] 
    1492                      .dwattr $C$DW$94, DW_AT_TI_end_file("C:/work/grepos/c2000_bootROM/f28004x_bootrom/F28004x_ROM_dev/F28
    1493                      .dwattr $C$DW$94, DW_AT_TI_end_line(0x2de)
    1494                      .dwattr $C$DW$94, DW_AT_TI_end_column(0x01)
    1495                      .dwendentry
    1496                      .dwendtag $C$DW$94
    1497              
    1498 0000016b               .sect   ".text"
    1499                      .clink
    1500                      .global _LIN_setLength
    1501              
    1502              $C$DW$98        .dwtag  DW_TAG_subprogram, DW_AT_name("LIN_setLength")
    1503                      .dwattr $C$DW$98, DW_AT_low_pc(_LIN_setLength)
    1504                      .dwattr $C$DW$98, DW_AT_high_pc(0x00)
    1505                      .dwattr $C$DW$98, DW_AT_TI_symbol_name("_LIN_setLength")
    1506                      .dwattr $C$DW$98, DW_AT_external
    1507                      .dwattr $C$DW$98, DW_AT_TI_begin_file("C:/work/grepos/c2000_bootROM/f28004x_bootrom/F28004x_ROM_dev/F
    1508                      .dwattr $C$DW$98, DW_AT_TI_begin_line(0x2ed)
    1509                      .dwattr $C$DW$98, DW_AT_TI_begin_column(0x01)
TMS320C2000 Assembler PC v6.2.9 Tue Apr 14 13:32:51 2015

Tools Copyright (c) 1996-2014 Texas Instruments Incorporated
C:\Users\a0272466\AppData\Local\Temp\0802410                         PAGE   29

    1510                      .dwattr $C$DW$98, DW_AT_TI_max_frame_size(-4)
    1511                      .dwpsn  file "C:/work/grepos/c2000_bootROM/f28004x_bootrom/F28004x_ROM_dev/F28004x_ROM/driverlib/lin_
    1512              
    1513                      .dwfde $C$DW$CIE, _LIN_setLength
    1514              $C$DW$99        .dwtag  DW_TAG_formal_parameter, DW_AT_name("base")
    1515                      .dwattr $C$DW$99, DW_AT_TI_symbol_name("_base")
    1516                      .dwattr $C$DW$99, DW_AT_type(*$C$DW$T$19)
    1517                      .dwattr $C$DW$99, DW_AT_location[DW_OP_reg0]
    1518              $C$DW$100       .dwtag  DW_TAG_formal_parameter, DW_AT_name("length")
    1519                      .dwattr $C$DW$100, DW_AT_TI_symbol_name("_length")
    1520                      .dwattr $C$DW$100, DW_AT_type(*$C$DW$T$19)
    1521                      .dwattr $C$DW$100, DW_AT_location[DW_OP_breg20 -6]
    1522              
    1523              ;***************************************************************
    1524              ;* FNAME: _LIN_setLength                FR SIZE:   2           *
    1525              ;*                                                             *
    1526              ;* FUNCTION ENVIRONMENT                                        *
    1527              ;*                                                             *
    1528              ;* FUNCTION PROPERTIES                                         *
    1529              ;*                            0 Parameter,  2 Auto,  0 SOE     *
    1530              ;***************************************************************
    1531              
    1532 0000016b       _LIN_setLength:
    1533                      .dwcfi  cfa_offset, -2
    1534                      .dwcfi  save_reg_to_mem, 26, 0
    1535                      .dwcfi  save_reg_to_reg, 78, 26
    1536 0000016b FE02          ADDB      SP,#2                 ; [CPU_U] 
    1537                      .dwcfi  cfa_offset, -4
    1538              $C$DW$101       .dwtag  DW_TAG_variable, DW_AT_name("base")
    1539                      .dwattr $C$DW$101, DW_AT_TI_symbol_name("_base")
    1540                      .dwattr $C$DW$101, DW_AT_type(*$C$DW$T$19)
    1541                      .dwattr $C$DW$101, DW_AT_location[DW_OP_breg20 -2]
    1542 0000016c 1E42          MOVL      *-SP[2],ACC           ; [CPU_] |750| 
    1543                      .dwpsn  file "C:/work/grepos/c2000_bootROM/f28004x_bootrom/F28004x_ROM_dev/F28004x_ROM/driverlib/lin_
    1544 0000016d 8846          MOVZ      AR6,*-SP[6]           ; [CPU_] |756| 
    1545 0000016e 0228          MOVB      ACC,#40               ; [CPU_] |756| 
    1546 0000016f 0742          ADDL      ACC,*-SP[2]           ; [CPU_] |756| 
    1547 00000170 DE81          SUBB      XAR6,#1               ; [CPU_U] |756| 
    1548 00000171 8AA9          MOVL      XAR4,ACC              ; [CPU_] |756| 
    1549 00000172 CDC4          AND       AH,*+XAR4[0],#0xfff8  ; [CPU_] |756| 
         00000173 FFF8 
    1550 00000174 99A6          OR        AR6,AH                ; [CPU_] |756| 
    1551 00000175 022A          MOVB      ACC,#42               ; [CPU_] |756| 
    1552 00000176 0742          ADDL      ACC,*-SP[2]           ; [CPU_] |756| 
    1553 00000177 8AA9          MOVL      XAR4,ACC              ; [CPU_] |756| 
    1554 00000178 7EC4          MOV       *+XAR4[0],AR6         ; [CPU_] |756| 
    1555                      .dwpsn  file "C:/work/grepos/c2000_bootROM/f28004x_bootrom/F28004x_ROM_dev/F28004x_ROM/driverlib/lin_
    1556 00000179 FE82          SUBB      SP,#2                 ; [CPU_U] 
    1557                      .dwcfi  cfa_offset, -2
    1558              $C$DW$102       .dwtag  DW_TAG_TI_branch
    1559                      .dwattr $C$DW$102, DW_AT_low_pc(0x00)
    1560                      .dwattr $C$DW$102, DW_AT_TI_return
    1561 0000017a 0006          LRETR     ; [CPU_] 
    1562                      ; return occurs ; [] 
    1563                      .dwattr $C$DW$98, DW_AT_TI_end_file("C:/work/grepos/c2000_bootROM/f28004x_bootrom/F28004x_ROM_dev/F28
TMS320C2000 Assembler PC v6.2.9 Tue Apr 14 13:32:51 2015

Tools Copyright (c) 1996-2014 Texas Instruments Incorporated
C:\Users\a0272466\AppData\Local\Temp\0802410                         PAGE   30

    1564                      .dwattr $C$DW$98, DW_AT_TI_end_line(0x2f8)
    1565                      .dwattr $C$DW$98, DW_AT_TI_end_column(0x01)
    1566                      .dwendentry
    1567                      .dwendtag $C$DW$98
    1568              
    1569 0000017b               .sect   ".text"
    1570                      .clink
    1571                      .global _LIN_setCharLength
    1572              
    1573              $C$DW$103       .dwtag  DW_TAG_subprogram, DW_AT_name("LIN_setCharLength")
    1574                      .dwattr $C$DW$103, DW_AT_low_pc(_LIN_setCharLength)
    1575                      .dwattr $C$DW$103, DW_AT_high_pc(0x00)
    1576                      .dwattr $C$DW$103, DW_AT_TI_symbol_name("_LIN_setCharLength")
    1577                      .dwattr $C$DW$103, DW_AT_external
    1578                      .dwattr $C$DW$103, DW_AT_TI_begin_file("C:/work/grepos/c2000_bootROM/f28004x_bootrom/F28004x_ROM_dev/
    1579                      .dwattr $C$DW$103, DW_AT_TI_begin_line(0x307)
    1580                      .dwattr $C$DW$103, DW_AT_TI_begin_column(0x01)
    1581                      .dwattr $C$DW$103, DW_AT_TI_max_frame_size(-4)
    1582                      .dwpsn  file "C:/work/grepos/c2000_bootROM/f28004x_bootrom/F28004x_ROM_dev/F28004x_ROM/driverlib/lin_
    1583              
    1584                      .dwfde $C$DW$CIE, _LIN_setCharLength
    1585              $C$DW$104       .dwtag  DW_TAG_formal_parameter, DW_AT_name("base")
    1586                      .dwattr $C$DW$104, DW_AT_TI_symbol_name("_base")
    1587                      .dwattr $C$DW$104, DW_AT_type(*$C$DW$T$19)
    1588                      .dwattr $C$DW$104, DW_AT_location[DW_OP_reg0]
    1589              $C$DW$105       .dwtag  DW_TAG_formal_parameter, DW_AT_name("numBits")
    1590                      .dwattr $C$DW$105, DW_AT_TI_symbol_name("_numBits")
    1591                      .dwattr $C$DW$105, DW_AT_type(*$C$DW$T$19)
    1592                      .dwattr $C$DW$105, DW_AT_location[DW_OP_breg20 -6]
    1593              
    1594              ;***************************************************************
    1595              ;* FNAME: _LIN_setCharLength            FR SIZE:   2           *
    1596              ;*                                                             *
    1597              ;* FUNCTION ENVIRONMENT                                        *
    1598              ;*                                                             *
    1599              ;* FUNCTION PROPERTIES                                         *
    1600              ;*                            0 Parameter,  2 Auto,  0 SOE     *
    1601              ;***************************************************************
    1602              
    1603 0000017b       _LIN_setCharLength:
    1604                      .dwcfi  cfa_offset, -2
    1605                      .dwcfi  save_reg_to_mem, 26, 0
    1606                      .dwcfi  save_reg_to_reg, 78, 26
    1607 0000017b FE02          ADDB      SP,#2                 ; [CPU_U] 
    1608                      .dwcfi  cfa_offset, -4
    1609              $C$DW$106       .dwtag  DW_TAG_variable, DW_AT_name("base")
    1610                      .dwattr $C$DW$106, DW_AT_TI_symbol_name("_base")
    1611                      .dwattr $C$DW$106, DW_AT_type(*$C$DW$T$19)
    1612                      .dwattr $C$DW$106, DW_AT_location[DW_OP_breg20 -2]
    1613 0000017c 1E42          MOVL      *-SP[2],ACC           ; [CPU_] |776| 
    1614                      .dwpsn  file "C:/work/grepos/c2000_bootROM/f28004x_bootrom/F28004x_ROM_dev/F28004x_ROM/driverlib/lin_
    1615 0000017d 8846          MOVZ      AR6,*-SP[6]           ; [CPU_] |782| 
    1616 0000017e 0228          MOVB      ACC,#40               ; [CPU_] |782| 
    1617 0000017f 0742          ADDL      ACC,*-SP[2]           ; [CPU_] |782| 
    1618 00000180 DE81          SUBB      XAR6,#1               ; [CPU_U] |782| 
TMS320C2000 Assembler PC v6.2.9 Tue Apr 14 13:32:51 2015

Tools Copyright (c) 1996-2014 Texas Instruments Incorporated
C:\Users\a0272466\AppData\Local\Temp\0802410                         PAGE   31

    1619 00000181 8AA9          MOVL      XAR4,ACC              ; [CPU_] |782| 
    1620 00000182 CDC4          AND       AH,*+XAR4[0],#0xffe0  ; [CPU_] |782| 
         00000183 FFE0 
    1621 00000184 99A6          OR        AR6,AH                ; [CPU_] |782| 
    1622 00000185 0228          MOVB      ACC,#40               ; [CPU_] |782| 
    1623 00000186 0742          ADDL      ACC,*-SP[2]           ; [CPU_] |782| 
    1624 00000187 8AA9          MOVL      XAR4,ACC              ; [CPU_] |782| 
    1625 00000188 7EC4          MOV       *+XAR4[0],AR6         ; [CPU_] |782| 
    1626                      .dwpsn  file "C:/work/grepos/c2000_bootROM/f28004x_bootrom/F28004x_ROM_dev/F28004x_ROM/driverlib/lin_
    1627 00000189 FE82          SUBB      SP,#2                 ; [CPU_U] 
    1628                      .dwcfi  cfa_offset, -2
    1629              $C$DW$107       .dwtag  DW_TAG_TI_branch
    1630                      .dwattr $C$DW$107, DW_AT_low_pc(0x00)
    1631                      .dwattr $C$DW$107, DW_AT_TI_return
    1632 0000018a 0006          LRETR     ; [CPU_] 
    1633                      ; return occurs ; [] 
    1634                      .dwattr $C$DW$103, DW_AT_TI_end_file("C:/work/grepos/c2000_bootROM/f28004x_bootrom/F28004x_ROM_dev/F2
    1635                      .dwattr $C$DW$103, DW_AT_TI_end_line(0x310)
    1636                      .dwattr $C$DW$103, DW_AT_TI_end_column(0x01)
    1637                      .dwendentry
    1638                      .dwendtag $C$DW$103
    1639              
    1640 0000018b               .sect   ".text"
    1641                      .clink
    1642                      .global _LIN_setCommMode
    1643              
    1644              $C$DW$108       .dwtag  DW_TAG_subprogram, DW_AT_name("LIN_setCommMode")
    1645                      .dwattr $C$DW$108, DW_AT_low_pc(_LIN_setCommMode)
    1646                      .dwattr $C$DW$108, DW_AT_high_pc(0x00)
    1647                      .dwattr $C$DW$108, DW_AT_TI_symbol_name("_LIN_setCommMode")
    1648                      .dwattr $C$DW$108, DW_AT_external
    1649                      .dwattr $C$DW$108, DW_AT_TI_begin_file("C:/work/grepos/c2000_bootROM/f28004x_bootrom/F28004x_ROM_dev/
    1650                      .dwattr $C$DW$108, DW_AT_TI_begin_line(0x32c)
    1651                      .dwattr $C$DW$108, DW_AT_TI_begin_column(0x01)
    1652                      .dwattr $C$DW$108, DW_AT_TI_max_frame_size(-6)
    1653                      .dwpsn  file "C:/work/grepos/c2000_bootROM/f28004x_bootrom/F28004x_ROM_dev/F28004x_ROM/driverlib/lin_
    1654              
    1655                      .dwfde $C$DW$CIE, _LIN_setCommMode
    1656              $C$DW$109       .dwtag  DW_TAG_formal_parameter, DW_AT_name("base")
    1657                      .dwattr $C$DW$109, DW_AT_TI_symbol_name("_base")
    1658                      .dwattr $C$DW$109, DW_AT_type(*$C$DW$T$19)
    1659                      .dwattr $C$DW$109, DW_AT_location[DW_OP_reg0]
    1660              $C$DW$110       .dwtag  DW_TAG_formal_parameter, DW_AT_name("mode")
    1661                      .dwattr $C$DW$110, DW_AT_TI_symbol_name("_mode")
    1662                      .dwattr $C$DW$110, DW_AT_type(*$C$DW$T$24)
    1663                      .dwattr $C$DW$110, DW_AT_location[DW_OP_reg12]
    1664              
    1665              ;***************************************************************
    1666              ;* FNAME: _LIN_setCommMode              FR SIZE:   4           *
    1667              ;*                                                             *
    1668              ;* FUNCTION ENVIRONMENT                                        *
    1669              ;*                                                             *
    1670              ;* FUNCTION PROPERTIES                                         *
    1671              ;*                            0 Parameter,  3 Auto,  0 SOE     *
    1672              ;***************************************************************
TMS320C2000 Assembler PC v6.2.9 Tue Apr 14 13:32:51 2015

Tools Copyright (c) 1996-2014 Texas Instruments Incorporated
C:\Users\a0272466\AppData\Local\Temp\0802410                         PAGE   32

    1673              
    1674 0000018b       _LIN_setCommMode:
    1675                      .dwcfi  cfa_offset, -2
    1676                      .dwcfi  save_reg_to_mem, 26, 0
    1677                      .dwcfi  save_reg_to_reg, 78, 26
    1678 0000018b FE04          ADDB      SP,#4                 ; [CPU_U] 
    1679                      .dwcfi  cfa_offset, -6
    1680              $C$DW$111       .dwtag  DW_TAG_variable, DW_AT_name("base")
    1681                      .dwattr $C$DW$111, DW_AT_TI_symbol_name("_base")
    1682                      .dwattr $C$DW$111, DW_AT_type(*$C$DW$T$19)
    1683                      .dwattr $C$DW$111, DW_AT_location[DW_OP_breg20 -2]
    1684              $C$DW$112       .dwtag  DW_TAG_variable, DW_AT_name("mode")
    1685                      .dwattr $C$DW$112, DW_AT_TI_symbol_name("_mode")
    1686                      .dwattr $C$DW$112, DW_AT_type(*$C$DW$T$24)
    1687                      .dwattr $C$DW$112, DW_AT_location[DW_OP_breg20 -3]
    1688 0000018c 7C43          MOV       *-SP[3],AR4           ; [CPU_] |813| 
    1689 0000018d 1E42          MOVL      *-SP[2],ACC           ; [CPU_] |813| 
    1690                      .dwpsn  file "C:/work/grepos/c2000_bootROM/f28004x_bootrom/F28004x_ROM_dev/F28004x_ROM/driverlib/lin_
    1691 0000018e 0204          MOVB      ACC,#4                ; [CPU_] |822| 
    1692 0000018f 0742          ADDL      ACC,*-SP[2]           ; [CPU_] |822| 
    1693 00000190 8AA9          MOVL      XAR4,ACC              ; [CPU_] |822| 
    1694 00000191 CCC4          AND       AL,*+XAR4[0],#0xfffe  ; [CPU_] |822| 
         00000192 FFFE 
    1695 00000193 CA43          OR        AL,*-SP[3]            ; [CPU_] |822| 
    1696 00000194 88A9          MOVZ      AR6,AL                ; [CPU_] |822| 
    1697 00000195 0204          MOVB      ACC,#4                ; [CPU_] |822| 
    1698 00000196 0742          ADDL      ACC,*-SP[2]           ; [CPU_] |822| 
    1699 00000197 8AA9          MOVL      XAR4,ACC              ; [CPU_] |822| 
    1700 00000198 7EC4          MOV       *+XAR4[0],AR6         ; [CPU_] |822| 
    1701                      .dwpsn  file "C:/work/grepos/c2000_bootROM/f28004x_bootrom/F28004x_ROM_dev/F28004x_ROM/driverlib/lin_
    1702 00000199 FE84          SUBB      SP,#4                 ; [CPU_U] 
    1703                      .dwcfi  cfa_offset, -2
    1704              $C$DW$113       .dwtag  DW_TAG_TI_branch
    1705                      .dwattr $C$DW$113, DW_AT_low_pc(0x00)
    1706                      .dwattr $C$DW$113, DW_AT_TI_return
    1707 0000019a 0006          LRETR     ; [CPU_] 
    1708                      ; return occurs ; [] 
    1709                      .dwattr $C$DW$108, DW_AT_TI_end_file("C:/work/grepos/c2000_bootROM/f28004x_bootrom/F28004x_ROM_dev/F2
    1710                      .dwattr $C$DW$108, DW_AT_TI_end_line(0x338)
    1711                      .dwattr $C$DW$108, DW_AT_TI_end_column(0x01)
    1712                      .dwendentry
    1713                      .dwendtag $C$DW$108
    1714              
    1715 0000019b               .sect   ".text"
    1716                      .clink
    1717                      .global _LIN_setMasks
    1718              
    1719              $C$DW$114       .dwtag  DW_TAG_subprogram, DW_AT_name("LIN_setMasks")
    1720                      .dwattr $C$DW$114, DW_AT_low_pc(_LIN_setMasks)
    1721                      .dwattr $C$DW$114, DW_AT_high_pc(0x00)
    1722                      .dwattr $C$DW$114, DW_AT_TI_symbol_name("_LIN_setMasks")
    1723                      .dwattr $C$DW$114, DW_AT_external
    1724                      .dwattr $C$DW$114, DW_AT_TI_begin_file("C:/work/grepos/c2000_bootROM/f28004x_bootrom/F28004x_ROM_dev/
    1725                      .dwattr $C$DW$114, DW_AT_TI_begin_line(0x346)
    1726                      .dwattr $C$DW$114, DW_AT_TI_begin_column(0x01)
TMS320C2000 Assembler PC v6.2.9 Tue Apr 14 13:32:51 2015

Tools Copyright (c) 1996-2014 Texas Instruments Incorporated
C:\Users\a0272466\AppData\Local\Temp\0802410                         PAGE   33

    1727                      .dwattr $C$DW$114, DW_AT_TI_max_frame_size(-6)
    1728                      .dwpsn  file "C:/work/grepos/c2000_bootROM/f28004x_bootrom/F28004x_ROM_dev/F28004x_ROM/driverlib/lin_
    1729              
    1730                      .dwfde $C$DW$CIE, _LIN_setMasks
    1731              $C$DW$115       .dwtag  DW_TAG_formal_parameter, DW_AT_name("base")
    1732                      .dwattr $C$DW$115, DW_AT_TI_symbol_name("_base")
    1733                      .dwattr $C$DW$115, DW_AT_type(*$C$DW$T$19)
    1734                      .dwattr $C$DW$115, DW_AT_location[DW_OP_reg0]
    1735              $C$DW$116       .dwtag  DW_TAG_formal_parameter, DW_AT_name("txMask")
    1736                      .dwattr $C$DW$116, DW_AT_TI_symbol_name("_txMask")
    1737                      .dwattr $C$DW$116, DW_AT_type(*$C$DW$T$36)
    1738                      .dwattr $C$DW$116, DW_AT_location[DW_OP_reg12]
    1739              $C$DW$117       .dwtag  DW_TAG_formal_parameter, DW_AT_name("rxMask")
    1740                      .dwattr $C$DW$117, DW_AT_TI_symbol_name("_rxMask")
    1741                      .dwattr $C$DW$117, DW_AT_type(*$C$DW$T$36)
    1742                      .dwattr $C$DW$117, DW_AT_location[DW_OP_reg14]
    1743              
    1744              ;***************************************************************
    1745              ;* FNAME: _LIN_setMasks                 FR SIZE:   4           *
    1746              ;*                                                             *
    1747              ;* FUNCTION ENVIRONMENT                                        *
    1748              ;*                                                             *
    1749              ;* FUNCTION PROPERTIES                                         *
    1750              ;*                            0 Parameter,  4 Auto,  0 SOE     *
    1751              ;***************************************************************
    1752              
    1753 0000019b       _LIN_setMasks:
    1754                      .dwcfi  cfa_offset, -2
    1755                      .dwcfi  save_reg_to_mem, 26, 0
    1756                      .dwcfi  save_reg_to_reg, 78, 26
    1757 0000019b FE04          ADDB      SP,#4                 ; [CPU_U] 
    1758                      .dwcfi  cfa_offset, -6
    1759              $C$DW$118       .dwtag  DW_TAG_variable, DW_AT_name("base")
    1760                      .dwattr $C$DW$118, DW_AT_TI_symbol_name("_base")
    1761                      .dwattr $C$DW$118, DW_AT_type(*$C$DW$T$19)
    1762                      .dwattr $C$DW$118, DW_AT_location[DW_OP_breg20 -2]
    1763              $C$DW$119       .dwtag  DW_TAG_variable, DW_AT_name("txMask")
    1764                      .dwattr $C$DW$119, DW_AT_TI_symbol_name("_txMask")
    1765                      .dwattr $C$DW$119, DW_AT_type(*$C$DW$T$36)
    1766                      .dwattr $C$DW$119, DW_AT_location[DW_OP_breg20 -3]
    1767              $C$DW$120       .dwtag  DW_TAG_variable, DW_AT_name("rxMask")
    1768                      .dwattr $C$DW$120, DW_AT_TI_symbol_name("_rxMask")
    1769                      .dwattr $C$DW$120, DW_AT_type(*$C$DW$T$36)
    1770                      .dwattr $C$DW$120, DW_AT_location[DW_OP_breg20 -4]
    1771 0000019c 7D44          MOV       *-SP[4],AR5           ; [CPU_] |839| 
    1772 0000019d 7C43          MOV       *-SP[3],AR4           ; [CPU_] |839| 
    1773 0000019e 1E42          MOVL      *-SP[2],ACC           ; [CPU_] |839| 
    1774                      .dwpsn  file "C:/work/grepos/c2000_bootROM/f28004x_bootrom/F28004x_ROM_dev/F28004x_ROM/driverlib/lin_
    1775 0000019f 2901          CLRC      SXM                   ; [CPU_] 
    1776 000001a0 2544          MOV       ACC,*-SP[4] << 16     ; [CPU_] |845| 
    1777 000001a1 AF43          OR        ACC,*-SP[3]           ; [CPU_] |845| 
    1778 000001a2 1EA6          MOVL      XAR6,ACC              ; [CPU_] |845| 
    1779 000001a3 026C          MOVB      ACC,#108              ; [CPU_] |845| 
    1780 000001a4 0742          ADDL      ACC,*-SP[2]           ; [CPU_] |845| 
    1781 000001a5 8AA9          MOVL      XAR4,ACC              ; [CPU_] |845| 
TMS320C2000 Assembler PC v6.2.9 Tue Apr 14 13:32:51 2015

Tools Copyright (c) 1996-2014 Texas Instruments Incorporated
C:\Users\a0272466\AppData\Local\Temp\0802410                         PAGE   34

    1782 000001a6 C2C4          MOVL      *+XAR4[0],XAR6        ; [CPU_] |845| 
    1783                      .dwpsn  file "C:/work/grepos/c2000_bootROM/f28004x_bootrom/F28004x_ROM_dev/F28004x_ROM/driverlib/lin_
    1784 000001a7 FE84          SUBB      SP,#4                 ; [CPU_U] 
    1785                      .dwcfi  cfa_offset, -2
    1786              $C$DW$121       .dwtag  DW_TAG_TI_branch
    1787                      .dwattr $C$DW$121, DW_AT_low_pc(0x00)
    1788                      .dwattr $C$DW$121, DW_AT_TI_return
    1789 000001a8 0006          LRETR     ; [CPU_] 
    1790                      ; return occurs ; [] 
    1791                      .dwattr $C$DW$114, DW_AT_TI_end_file("C:/work/grepos/c2000_bootROM/f28004x_bootrom/F28004x_ROM_dev/F2
    1792                      .dwattr $C$DW$114, DW_AT_TI_end_line(0x350)
    1793                      .dwattr $C$DW$114, DW_AT_TI_end_column(0x01)
    1794                      .dwendentry
    1795                      .dwendtag $C$DW$114
    1796              
    1797 000001a9               .sect   ".text"
    1798                      .clink
    1799                      .global _LIN_sendData
    1800              
    1801              $C$DW$122       .dwtag  DW_TAG_subprogram, DW_AT_name("LIN_sendData")
    1802                      .dwattr $C$DW$122, DW_AT_low_pc(_LIN_sendData)
    1803                      .dwattr $C$DW$122, DW_AT_high_pc(0x00)
    1804                      .dwattr $C$DW$122, DW_AT_TI_symbol_name("_LIN_sendData")
    1805                      .dwattr $C$DW$122, DW_AT_external
    1806                      .dwattr $C$DW$122, DW_AT_TI_begin_file("C:/work/grepos/c2000_bootROM/f28004x_bootrom/F28004x_ROM_dev/
    1807                      .dwattr $C$DW$122, DW_AT_TI_begin_line(0x360)
    1808                      .dwattr $C$DW$122, DW_AT_TI_begin_column(0x01)
    1809                      .dwattr $C$DW$122, DW_AT_TI_max_frame_size(-10)
    1810                      .dwpsn  file "C:/work/grepos/c2000_bootROM/f28004x_bootrom/F28004x_ROM_dev/F28004x_ROM/driverlib/lin_
    1811              
    1812                      .dwfde $C$DW$CIE, _LIN_sendData
    1813              $C$DW$123       .dwtag  DW_TAG_formal_parameter, DW_AT_name("base")
    1814                      .dwattr $C$DW$123, DW_AT_TI_symbol_name("_base")
    1815                      .dwattr $C$DW$123, DW_AT_type(*$C$DW$T$19)
    1816                      .dwattr $C$DW$123, DW_AT_location[DW_OP_reg0]
    1817              $C$DW$124       .dwtag  DW_TAG_formal_parameter, DW_AT_name("data")
    1818                      .dwattr $C$DW$124, DW_AT_TI_symbol_name("_data")
    1819                      .dwattr $C$DW$124, DW_AT_type(*$C$DW$T$42)
    1820                      .dwattr $C$DW$124, DW_AT_location[DW_OP_reg12]
    1821              
    1822              ;***************************************************************
    1823              ;* FNAME: _LIN_sendData                 FR SIZE:   8           *
    1824              ;*                                                             *
    1825              ;* FUNCTION ENVIRONMENT                                        *
    1826              ;*                                                             *
    1827              ;* FUNCTION PROPERTIES                                         *
    1828              ;*                            0 Parameter,  8 Auto,  0 SOE     *
    1829              ;***************************************************************
    1830              
    1831 000001a9       _LIN_sendData:
    1832                      .dwcfi  cfa_offset, -2
    1833                      .dwcfi  save_reg_to_mem, 26, 0
    1834                      .dwcfi  save_reg_to_reg, 78, 26
    1835 000001a9 FE08          ADDB      SP,#8                 ; [CPU_U] 
    1836                      .dwcfi  cfa_offset, -10
TMS320C2000 Assembler PC v6.2.9 Tue Apr 14 13:32:51 2015

Tools Copyright (c) 1996-2014 Texas Instruments Incorporated
C:\Users\a0272466\AppData\Local\Temp\0802410                         PAGE   35

    1837              $C$DW$125       .dwtag  DW_TAG_variable, DW_AT_name("base")
    1838                      .dwattr $C$DW$125, DW_AT_TI_symbol_name("_base")
    1839                      .dwattr $C$DW$125, DW_AT_type(*$C$DW$T$19)
    1840                      .dwattr $C$DW$125, DW_AT_location[DW_OP_breg20 -2]
    1841              $C$DW$126       .dwtag  DW_TAG_variable, DW_AT_name("data")
    1842                      .dwattr $C$DW$126, DW_AT_TI_symbol_name("_data")
    1843                      .dwattr $C$DW$126, DW_AT_type(*$C$DW$T$42)
    1844                      .dwattr $C$DW$126, DW_AT_location[DW_OP_breg20 -4]
    1845              $C$DW$127       .dwtag  DW_TAG_variable, DW_AT_name("i")
    1846                      .dwattr $C$DW$127, DW_AT_TI_symbol_name("_i")
    1847                      .dwattr $C$DW$127, DW_AT_type(*$C$DW$T$50)
    1848                      .dwattr $C$DW$127, DW_AT_location[DW_OP_breg20 -5]
    1849              $C$DW$128       .dwtag  DW_TAG_variable, DW_AT_name("length")
    1850                      .dwattr $C$DW$128, DW_AT_TI_symbol_name("_length")
    1851                      .dwattr $C$DW$128, DW_AT_type(*$C$DW$T$36)
    1852                      .dwattr $C$DW$128, DW_AT_location[DW_OP_breg20 -6]
    1853              $C$DW$129       .dwtag  DW_TAG_variable, DW_AT_name("pData")
    1854                      .dwattr $C$DW$129, DW_AT_TI_symbol_name("_pData")
    1855                      .dwattr $C$DW$129, DW_AT_type(*$C$DW$T$42)
    1856                      .dwattr $C$DW$129, DW_AT_location[DW_OP_breg20 -8]
    1857 000001aa A844          MOVL      *-SP[4],XAR4          ; [CPU_] |865| 
    1858 000001ab 1E42          MOVL      *-SP[2],ACC           ; [CPU_] |865| 
    1859                      .dwpsn  file "C:/work/grepos/c2000_bootROM/f28004x_bootrom/F28004x_ROM_dev/F28004x_ROM/driverlib/lin_
    1860 000001ac 022A          MOVB      ACC,#42               ; [CPU_] |878| 
    1861 000001ad 0742          ADDL      ACC,*-SP[2]           ; [CPU_] |878| 
    1862 000001ae 8AA9          MOVL      XAR4,ACC              ; [CPU_] |878| 
    1863 000001af 92C4          MOV       AL,*+XAR4[0]          ; [CPU_] |878| 
    1864 000001b0 9646          MOV       *-SP[6],AL            ; [CPU_] |878| 
    1865                      .dwpsn  file "C:/work/grepos/c2000_bootROM/f28004x_bootrom/F28004x_ROM_dev/F28004x_ROM/driverlib/lin_
    1866 000001b1 8846          MOVZ      AR6,*-SP[6]           ; [CPU_] |880| 
    1867 000001b2 0644          MOVL      ACC,*-SP[4]           ; [CPU_] |880| 
    1868 000001b3 0DA6          ADDU      ACC,AR6               ; [CPU_] |880| 
    1869 000001b4 1E48          MOVL      *-SP[8],ACC           ; [CPU_] |880| 
    1870                      .dwpsn  file "C:/work/grepos/c2000_bootROM/f28004x_bootrom/F28004x_ROM_dev/F28004x_ROM/driverlib/lin_
    1871 000001b5 9246          MOV       AL,*-SP[6]            ; [CPU_] |885| 
    1872 000001b6 9645          MOV       *-SP[5],AL            ; [CPU_] |885| 
    1873                      .dwpsn  file "C:/work/grepos/c2000_bootROM/f28004x_bootrom/F28004x_ROM_dev/F28004x_ROM/driverlib/lin_
    1874 000001b7 6411          B         $C$L6,LT              ; [CPU_] |885| 
    1875                      ; branchcc occurs ; [] |885| 
    1876 000001b8       $C$L5:    
    1877                      .dwpsn  file "C:/work/grepos/c2000_bootROM/f28004x_bootrom/F28004x_ROM_dev/F28004x_ROM/driverlib/lin_
    1878 000001b8 8A48          MOVL      XAR4,*-SP[8]          ; [CPU_] |887| 
    1879 000001b9 F003          XORB      AL,#0x03              ; [CPU_] |887| 
    1880 000001ba 3B01          SETC      SXM                   ; [CPU_] 
    1881 000001bb 85A9          MOV       ACC,AL                ; [CPU_] |887| 
    1882 000001bc 88C4          MOVZ      AR6,*+XAR4[0]         ; [CPU_] |887| 
    1883 000001bd 0742          ADDL      ACC,*-SP[2]           ; [CPU_] |887| 
    1884 000001be 0974          ADDB      ACC,#116              ; [CPU_] |887| 
    1885 000001bf 8AA9          MOVL      XAR4,ACC              ; [CPU_] |887| 
    1886 000001c0 92A6          MOV       AL,AR6                ; [CPU_] |887| 
    1887 000001c1 3CC4          MOVB      *+XAR4[0],AL.LSB      ; [CPU_] |887| 
    1888                      .dwpsn  file "C:/work/grepos/c2000_bootROM/f28004x_bootrom/F28004x_ROM_dev/F28004x_ROM/driverlib/lin_
    1889 000001c2 0201          MOVB      ACC,#1                ; [CPU_] |889| 
    1890 000001c3 5641          SUBL      *-SP[8],ACC           ; [CPU_] |889| 
         000001c4 0048 
TMS320C2000 Assembler PC v6.2.9 Tue Apr 14 13:32:51 2015

Tools Copyright (c) 1996-2014 Texas Instruments Incorporated
C:\Users\a0272466\AppData\Local\Temp\0802410                         PAGE   36

    1891                      .dwpsn  file "C:/work/grepos/c2000_bootROM/f28004x_bootrom/F28004x_ROM_dev/F28004x_ROM/driverlib/lin_
    1892 000001c5 0B45          DEC       *-SP[5]               ; [CPU_] |885| 
    1893                      .dwpsn  file "C:/work/grepos/c2000_bootROM/f28004x_bootrom/F28004x_ROM_dev/F28004x_ROM/driverlib/lin_
    1894 000001c6 9245          MOV       AL,*-SP[5]            ; [CPU_] |885| 
    1895 000001c7 63F1          B         $C$L5,GEQ             ; [CPU_] |885| 
    1896                      ; branchcc occurs ; [] |885| 
    1897                      .dwpsn  file "C:/work/grepos/c2000_bootROM/f28004x_bootrom/F28004x_ROM_dev/F28004x_ROM/driverlib/lin_
    1898 000001c8       $C$L6:    
    1899 000001c8 FE88          SUBB      SP,#8                 ; [CPU_U] 
    1900                      .dwcfi  cfa_offset, -2
    1901              $C$DW$130       .dwtag  DW_TAG_TI_branch
    1902                      .dwattr $C$DW$130, DW_AT_low_pc(0x00)
    1903                      .dwattr $C$DW$130, DW_AT_TI_return
    1904 000001c9 0006          LRETR     ; [CPU_] 
    1905                      ; return occurs ; [] 
    1906                      .dwattr $C$DW$122, DW_AT_TI_end_file("C:/work/grepos/c2000_bootROM/f28004x_bootrom/F28004x_ROM_dev/F2
    1907                      .dwattr $C$DW$122, DW_AT_TI_end_line(0x37b)
    1908                      .dwattr $C$DW$122, DW_AT_TI_end_column(0x01)
    1909                      .dwendentry
    1910                      .dwendtag $C$DW$122
    1911              
    1912 000001ca               .sect   ".text"
    1913                      .clink
    1914                      .global _LIN_isRxReady
    1915              
    1916              $C$DW$131       .dwtag  DW_TAG_subprogram, DW_AT_name("LIN_isRxReady")
    1917                      .dwattr $C$DW$131, DW_AT_low_pc(_LIN_isRxReady)
    1918                      .dwattr $C$DW$131, DW_AT_high_pc(0x00)
    1919                      .dwattr $C$DW$131, DW_AT_TI_symbol_name("_LIN_isRxReady")
    1920                      .dwattr $C$DW$131, DW_AT_external
    1921                      .dwattr $C$DW$131, DW_AT_type(*$C$DW$T$19)
    1922                      .dwattr $C$DW$131, DW_AT_TI_begin_file("C:/work/grepos/c2000_bootROM/f28004x_bootrom/F28004x_ROM_dev/
    1923                      .dwattr $C$DW$131, DW_AT_TI_begin_line(0x38a)
    1924                      .dwattr $C$DW$131, DW_AT_TI_begin_column(0x01)
    1925                      .dwattr $C$DW$131, DW_AT_TI_max_frame_size(-4)
    1926                      .dwpsn  file "C:/work/grepos/c2000_bootROM/f28004x_bootrom/F28004x_ROM_dev/F28004x_ROM/driverlib/lin_
    1927              
    1928                      .dwfde $C$DW$CIE, _LIN_isRxReady
    1929              $C$DW$132       .dwtag  DW_TAG_formal_parameter, DW_AT_name("base")
    1930                      .dwattr $C$DW$132, DW_AT_TI_symbol_name("_base")
    1931                      .dwattr $C$DW$132, DW_AT_type(*$C$DW$T$19)
    1932                      .dwattr $C$DW$132, DW_AT_location[DW_OP_reg0]
    1933              
    1934              ;***************************************************************
    1935              ;* FNAME: _LIN_isRxReady                FR SIZE:   2           *
    1936              ;*                                                             *
    1937              ;* FUNCTION ENVIRONMENT                                        *
    1938              ;*                                                             *
    1939              ;* FUNCTION PROPERTIES                                         *
    1940              ;*                            0 Parameter,  2 Auto,  0 SOE     *
    1941              ;***************************************************************
    1942              
    1943 000001ca       _LIN_isRxReady:
    1944                      .dwcfi  cfa_offset, -2
    1945                      .dwcfi  save_reg_to_mem, 26, 0
TMS320C2000 Assembler PC v6.2.9 Tue Apr 14 13:32:51 2015

Tools Copyright (c) 1996-2014 Texas Instruments Incorporated
C:\Users\a0272466\AppData\Local\Temp\0802410                         PAGE   37

    1946                      .dwcfi  save_reg_to_reg, 78, 26
    1947 000001ca FE02          ADDB      SP,#2                 ; [CPU_U] 
    1948                      .dwcfi  cfa_offset, -4
    1949              $C$DW$133       .dwtag  DW_TAG_variable, DW_AT_name("base")
    1950                      .dwattr $C$DW$133, DW_AT_TI_symbol_name("_base")
    1951                      .dwattr $C$DW$133, DW_AT_type(*$C$DW$T$19)
    1952                      .dwattr $C$DW$133, DW_AT_location[DW_OP_breg20 -2]
    1953 000001cb 1E42          MOVL      *-SP[2],ACC           ; [CPU_] |907| 
    1954                      .dwpsn  file "C:/work/grepos/c2000_bootROM/f28004x_bootrom/F28004x_ROM_dev/F28004x_ROM/driverlib/lin_
    1955 000001cc 021C          MOVB      ACC,#28               ; [CPU_] |913| 
    1956 000001cd 0742          ADDL      ACC,*-SP[2]           ; [CPU_] |913| 
    1957 000001ce 8AA9          MOVL      XAR4,ACC              ; [CPU_] |913| 
    1958 000001cf CCC4          AND       AL,*+XAR4[0],#0x0200  ; [CPU_] |913| 
         000001d0 0200 
    1959 000001d1 0EA9          MOVU      ACC,AL                ; [CPU_] |913| 
    1960                      .dwpsn  file "C:/work/grepos/c2000_bootROM/f28004x_bootrom/F28004x_ROM_dev/F28004x_ROM/driverlib/lin_
    1961 000001d2 FE82          SUBB      SP,#2                 ; [CPU_U] 
    1962                      .dwcfi  cfa_offset, -2
    1963              $C$DW$134       .dwtag  DW_TAG_TI_branch
    1964                      .dwattr $C$DW$134, DW_AT_low_pc(0x00)
    1965                      .dwattr $C$DW$134, DW_AT_TI_return
    1966 000001d3 0006          LRETR     ; [CPU_] 
    1967                      ; return occurs ; [] 
    1968                      .dwattr $C$DW$131, DW_AT_TI_end_file("C:/work/grepos/c2000_bootROM/f28004x_bootrom/F28004x_ROM_dev/F2
    1969                      .dwattr $C$DW$131, DW_AT_TI_end_line(0x392)
    1970                      .dwattr $C$DW$131, DW_AT_TI_end_column(0x01)
    1971                      .dwendentry
    1972                      .dwendtag $C$DW$131
    1973              
    1974 000001d4               .sect   ".text"
    1975                      .clink
    1976                      .global _LIN_getTxRxErrorStatus
    1977              
    1978              $C$DW$135       .dwtag  DW_TAG_subprogram, DW_AT_name("LIN_getTxRxErrorStatus")
    1979                      .dwattr $C$DW$135, DW_AT_low_pc(_LIN_getTxRxErrorStatus)
    1980                      .dwattr $C$DW$135, DW_AT_high_pc(0x00)
    1981                      .dwattr $C$DW$135, DW_AT_TI_symbol_name("_LIN_getTxRxErrorStatus")
    1982                      .dwattr $C$DW$135, DW_AT_external
    1983                      .dwattr $C$DW$135, DW_AT_type(*$C$DW$T$19)
    1984                      .dwattr $C$DW$135, DW_AT_TI_begin_file("C:/work/grepos/c2000_bootROM/f28004x_bootrom/F28004x_ROM_dev/
    1985                      .dwattr $C$DW$135, DW_AT_TI_begin_line(0x3a3)
    1986                      .dwattr $C$DW$135, DW_AT_TI_begin_column(0x01)
    1987                      .dwattr $C$DW$135, DW_AT_TI_max_frame_size(-6)
    1988                      .dwpsn  file "C:/work/grepos/c2000_bootROM/f28004x_bootrom/F28004x_ROM_dev/F28004x_ROM/driverlib/lin_
    1989              
    1990                      .dwfde $C$DW$CIE, _LIN_getTxRxErrorStatus
    1991              $C$DW$136       .dwtag  DW_TAG_formal_parameter, DW_AT_name("base")
    1992                      .dwattr $C$DW$136, DW_AT_TI_symbol_name("_base")
    1993                      .dwattr $C$DW$136, DW_AT_type(*$C$DW$T$19)
    1994                      .dwattr $C$DW$136, DW_AT_location[DW_OP_reg0]
    1995              
    1996              ;***************************************************************
    1997              ;* FNAME: _LIN_getTxRxErrorStatus       FR SIZE:   4           *
    1998              ;*                                                             *
    1999              ;* FUNCTION ENVIRONMENT                                        *
TMS320C2000 Assembler PC v6.2.9 Tue Apr 14 13:32:51 2015

Tools Copyright (c) 1996-2014 Texas Instruments Incorporated
C:\Users\a0272466\AppData\Local\Temp\0802410                         PAGE   38

    2000              ;*                                                             *
    2001              ;* FUNCTION PROPERTIES                                         *
    2002              ;*                            0 Parameter,  4 Auto,  0 SOE     *
    2003              ;***************************************************************
    2004              
    2005 000001d4       _LIN_getTxRxErrorStatus:
    2006                      .dwcfi  cfa_offset, -2
    2007                      .dwcfi  save_reg_to_mem, 26, 0
    2008                      .dwcfi  save_reg_to_reg, 78, 26
    2009 000001d4 FE04          ADDB      SP,#4                 ; [CPU_U] 
    2010                      .dwcfi  cfa_offset, -6
    2011              $C$DW$137       .dwtag  DW_TAG_variable, DW_AT_name("base")
    2012                      .dwattr $C$DW$137, DW_AT_TI_symbol_name("_base")
    2013                      .dwattr $C$DW$137, DW_AT_type(*$C$DW$T$19)
    2014                      .dwattr $C$DW$137, DW_AT_location[DW_OP_breg20 -2]
    2015              $C$DW$138       .dwtag  DW_TAG_variable, DW_AT_name("status")
    2016                      .dwattr $C$DW$138, DW_AT_TI_symbol_name("_status")
    2017                      .dwattr $C$DW$138, DW_AT_type(*$C$DW$T$19)
    2018                      .dwattr $C$DW$138, DW_AT_location[DW_OP_breg20 -4]
    2019 000001d5 1E42          MOVL      *-SP[2],ACC           ; [CPU_] |932| 
    2020                      .dwpsn  file "C:/work/grepos/c2000_bootROM/f28004x_bootrom/F28004x_ROM_dev/F28004x_ROM/driverlib/lin_
    2021 000001d6 021C          MOVB      ACC,#28               ; [CPU_] |940| 
    2022 000001d7 0742          ADDL      ACC,*-SP[2]           ; [CPU_] |940| 
    2023 000001d8 8AA9          MOVL      XAR4,ACC              ; [CPU_] |940| 
    2024 000001d9 06C4          MOVL      ACC,*+XAR4[0]         ; [CPU_] |940| 
    2025 000001da 90D0          ANDB      AL,#208               ; [CPU_] |940| 
    2026 000001db 18A8          AND       AH,#65280             ; [CPU_] |940| 
         000001dc FF00 
    2027 000001dd 1E44          MOVL      *-SP[4],ACC           ; [CPU_] |940| 
    2028                      .dwpsn  file "C:/work/grepos/c2000_bootROM/f28004x_bootrom/F28004x_ROM_dev/F28004x_ROM/driverlib/lin_
    2029 000001de 28AB          MOV       PL,#208               ; [CPU_] |947| 
         000001df 00D0 
    2030 000001e0 28AA          MOV       PH,#65280             ; [CPU_] |947| 
         000001e1 FF00 
    2031 000001e2 021C          MOVB      ACC,#28               ; [CPU_] |947| 
    2032 000001e3 0742          ADDL      ACC,*-SP[2]           ; [CPU_] |947| 
    2033 000001e4 8AA9          MOVL      XAR4,ACC              ; [CPU_] |947| 
    2034 000001e5 A9C4          MOVL      *+XAR4[0],P           ; [CPU_] |947| 
    2035                      .dwpsn  file "C:/work/grepos/c2000_bootROM/f28004x_bootrom/F28004x_ROM_dev/F28004x_ROM/driverlib/lin_
    2036 000001e6 0644          MOVL      ACC,*-SP[4]           ; [CPU_] |952| 
    2037                      .dwpsn  file "C:/work/grepos/c2000_bootROM/f28004x_bootrom/F28004x_ROM_dev/F28004x_ROM/driverlib/lin_
    2038 000001e7 FE84          SUBB      SP,#4                 ; [CPU_U] 
    2039                      .dwcfi  cfa_offset, -2
    2040              $C$DW$139       .dwtag  DW_TAG_TI_branch
    2041                      .dwattr $C$DW$139, DW_AT_low_pc(0x00)
    2042                      .dwattr $C$DW$139, DW_AT_TI_return
    2043 000001e8 0006          LRETR     ; [CPU_] 
    2044                      ; return occurs ; [] 
    2045                      .dwattr $C$DW$135, DW_AT_TI_end_file("C:/work/grepos/c2000_bootROM/f28004x_bootrom/F28004x_ROM_dev/F2
    2046                      .dwattr $C$DW$135, DW_AT_TI_end_line(0x3b9)
    2047                      .dwattr $C$DW$135, DW_AT_TI_end_column(0x01)
    2048                      .dwendentry
    2049                      .dwendtag $C$DW$135
    2050              
    2051 000001e9               .sect   ".text"
TMS320C2000 Assembler PC v6.2.9 Tue Apr 14 13:32:51 2015

Tools Copyright (c) 1996-2014 Texas Instruments Incorporated
C:\Users\a0272466\AppData\Local\Temp\0802410                         PAGE   39

    2052                      .clink
    2053                      .global _LIN_getIdentifier
    2054              
    2055              $C$DW$140       .dwtag  DW_TAG_subprogram, DW_AT_name("LIN_getIdentifier")
    2056                      .dwattr $C$DW$140, DW_AT_low_pc(_LIN_getIdentifier)
    2057                      .dwattr $C$DW$140, DW_AT_high_pc(0x00)
    2058                      .dwattr $C$DW$140, DW_AT_TI_symbol_name("_LIN_getIdentifier")
    2059                      .dwattr $C$DW$140, DW_AT_external
    2060                      .dwattr $C$DW$140, DW_AT_type(*$C$DW$T$19)
    2061                      .dwattr $C$DW$140, DW_AT_TI_begin_file("C:/work/grepos/c2000_bootROM/f28004x_bootrom/F28004x_ROM_dev/
    2062                      .dwattr $C$DW$140, DW_AT_TI_begin_line(0x3c7)
    2063                      .dwattr $C$DW$140, DW_AT_TI_begin_column(0x01)
    2064                      .dwattr $C$DW$140, DW_AT_TI_max_frame_size(-4)
    2065                      .dwpsn  file "C:/work/grepos/c2000_bootROM/f28004x_bootrom/F28004x_ROM_dev/F28004x_ROM/driverlib/lin_
    2066              
    2067                      .dwfde $C$DW$CIE, _LIN_getIdentifier
    2068              $C$DW$141       .dwtag  DW_TAG_formal_parameter, DW_AT_name("base")
    2069                      .dwattr $C$DW$141, DW_AT_TI_symbol_name("_base")
    2070                      .dwattr $C$DW$141, DW_AT_type(*$C$DW$T$19)
    2071                      .dwattr $C$DW$141, DW_AT_location[DW_OP_reg0]
    2072              
    2073              ;***************************************************************
    2074              ;* FNAME: _LIN_getIdentifier            FR SIZE:   2           *
    2075              ;*                                                             *
    2076              ;* FUNCTION ENVIRONMENT                                        *
    2077              ;*                                                             *
    2078              ;* FUNCTION PROPERTIES                                         *
    2079              ;*                            0 Parameter,  2 Auto,  0 SOE     *
    2080              ;***************************************************************
    2081              
    2082 000001e9       _LIN_getIdentifier:
    2083                      .dwcfi  cfa_offset, -2
    2084                      .dwcfi  save_reg_to_mem, 26, 0
    2085                      .dwcfi  save_reg_to_reg, 78, 26
    2086 000001e9 FE02          ADDB      SP,#2                 ; [CPU_U] 
    2087                      .dwcfi  cfa_offset, -4
    2088              $C$DW$142       .dwtag  DW_TAG_variable, DW_AT_name("base")
    2089                      .dwattr $C$DW$142, DW_AT_TI_symbol_name("_base")
    2090                      .dwattr $C$DW$142, DW_AT_type(*$C$DW$T$19)
    2091                      .dwattr $C$DW$142, DW_AT_location[DW_OP_breg20 -2]
    2092 000001ea 1E42          MOVL      *-SP[2],ACC           ; [CPU_] |968| 
    2093                      .dwpsn  file "C:/work/grepos/c2000_bootROM/f28004x_bootrom/F28004x_ROM_dev/F28004x_ROM/driverlib/lin_
    2094 000001eb 0272          MOVB      ACC,#114              ; [CPU_] |974| 
    2095 000001ec 0742          ADDL      ACC,*-SP[2]           ; [CPU_] |974| 
    2096 000001ed 8AA9          MOVL      XAR4,ACC              ; [CPU_] |974| 
    2097 000001ee 02FF          MOVB      ACC,#255              ; [CPU_] |974| 
    2098 000001ef 89C4          AND       ACC,*+XAR4[0]         ; [CPU_] |974| 
    2099                      .dwpsn  file "C:/work/grepos/c2000_bootROM/f28004x_bootrom/F28004x_ROM_dev/F28004x_ROM/driverlib/lin_
    2100 000001f0 FE82          SUBB      SP,#2                 ; [CPU_U] 
    2101                      .dwcfi  cfa_offset, -2
    2102              $C$DW$143       .dwtag  DW_TAG_TI_branch
    2103                      .dwattr $C$DW$143, DW_AT_low_pc(0x00)
    2104                      .dwattr $C$DW$143, DW_AT_TI_return
    2105 000001f1 0006          LRETR     ; [CPU_] 
    2106                      ; return occurs ; [] 
TMS320C2000 Assembler PC v6.2.9 Tue Apr 14 13:32:51 2015

Tools Copyright (c) 1996-2014 Texas Instruments Incorporated
C:\Users\a0272466\AppData\Local\Temp\0802410                         PAGE   40

    2107                      .dwattr $C$DW$140, DW_AT_TI_end_file("C:/work/grepos/c2000_bootROM/f28004x_bootrom/F28004x_ROM_dev/F2
    2108                      .dwattr $C$DW$140, DW_AT_TI_end_line(0x3cf)
    2109                      .dwattr $C$DW$140, DW_AT_TI_end_column(0x01)
    2110                      .dwendentry
    2111                      .dwendtag $C$DW$140
    2112              
    2113 000001f2               .sect   ".text"
    2114                      .clink
    2115                      .global _LIN_getData
    2116              
    2117              $C$DW$144       .dwtag  DW_TAG_subprogram, DW_AT_name("LIN_getData")
    2118                      .dwattr $C$DW$144, DW_AT_low_pc(_LIN_getData)
    2119                      .dwattr $C$DW$144, DW_AT_high_pc(0x00)
    2120                      .dwattr $C$DW$144, DW_AT_TI_symbol_name("_LIN_getData")
    2121                      .dwattr $C$DW$144, DW_AT_external
    2122                      .dwattr $C$DW$144, DW_AT_TI_begin_file("C:/work/grepos/c2000_bootROM/f28004x_bootrom/F28004x_ROM_dev/
    2123                      .dwattr $C$DW$144, DW_AT_TI_begin_line(0x3df)
    2124                      .dwattr $C$DW$144, DW_AT_TI_begin_column(0x01)
    2125                      .dwattr $C$DW$144, DW_AT_TI_max_frame_size(-10)
    2126                      .dwpsn  file "C:/work/grepos/c2000_bootROM/f28004x_bootrom/F28004x_ROM_dev/F28004x_ROM/driverlib/lin_
    2127              
    2128                      .dwfde $C$DW$CIE, _LIN_getData
    2129              $C$DW$145       .dwtag  DW_TAG_formal_parameter, DW_AT_name("base")
    2130                      .dwattr $C$DW$145, DW_AT_TI_symbol_name("_base")
    2131                      .dwattr $C$DW$145, DW_AT_type(*$C$DW$T$19)
    2132                      .dwattr $C$DW$145, DW_AT_location[DW_OP_reg0]
    2133              $C$DW$146       .dwtag  DW_TAG_formal_parameter, DW_AT_name("data")
    2134                      .dwattr $C$DW$146, DW_AT_TI_symbol_name("_data")
    2135                      .dwattr $C$DW$146, DW_AT_type(*$C$DW$T$44)
    2136                      .dwattr $C$DW$146, DW_AT_location[DW_OP_reg12]
    2137              
    2138              ;***************************************************************
    2139              ;* FNAME: _LIN_getData                  FR SIZE:   8           *
    2140              ;*                                                             *
    2141              ;* FUNCTION ENVIRONMENT                                        *
    2142              ;*                                                             *
    2143              ;* FUNCTION PROPERTIES                                         *
    2144              ;*                            0 Parameter,  8 Auto,  0 SOE     *
    2145              ;***************************************************************
    2146              
    2147 000001f2       _LIN_getData:
    2148                      .dwcfi  cfa_offset, -2
    2149                      .dwcfi  save_reg_to_mem, 26, 0
    2150                      .dwcfi  save_reg_to_reg, 78, 26
    2151 000001f2 FE08          ADDB      SP,#8                 ; [CPU_U] 
    2152                      .dwcfi  cfa_offset, -10
    2153              $C$DW$147       .dwtag  DW_TAG_variable, DW_AT_name("base")
    2154                      .dwattr $C$DW$147, DW_AT_TI_symbol_name("_base")
    2155                      .dwattr $C$DW$147, DW_AT_type(*$C$DW$T$19)
    2156                      .dwattr $C$DW$147, DW_AT_location[DW_OP_breg20 -2]
    2157              $C$DW$148       .dwtag  DW_TAG_variable, DW_AT_name("data")
    2158                      .dwattr $C$DW$148, DW_AT_TI_symbol_name("_data")
    2159                      .dwattr $C$DW$148, DW_AT_type(*$C$DW$T$44)
    2160                      .dwattr $C$DW$148, DW_AT_location[DW_OP_breg20 -4]
    2161              $C$DW$149       .dwtag  DW_TAG_variable, DW_AT_name("i")
TMS320C2000 Assembler PC v6.2.9 Tue Apr 14 13:32:51 2015

Tools Copyright (c) 1996-2014 Texas Instruments Incorporated
C:\Users\a0272466\AppData\Local\Temp\0802410                         PAGE   41

    2162                      .dwattr $C$DW$149, DW_AT_TI_symbol_name("_i")
    2163                      .dwattr $C$DW$149, DW_AT_type(*$C$DW$T$36)
    2164                      .dwattr $C$DW$149, DW_AT_location[DW_OP_breg20 -5]
    2165              $C$DW$150       .dwtag  DW_TAG_variable, DW_AT_name("length")
    2166                      .dwattr $C$DW$150, DW_AT_TI_symbol_name("_length")
    2167                      .dwattr $C$DW$150, DW_AT_type(*$C$DW$T$36)
    2168                      .dwattr $C$DW$150, DW_AT_location[DW_OP_breg20 -6]
    2169              $C$DW$151       .dwtag  DW_TAG_variable, DW_AT_name("pData")
    2170                      .dwattr $C$DW$151, DW_AT_TI_symbol_name("_pData")
    2171                      .dwattr $C$DW$151, DW_AT_type(*$C$DW$T$42)
    2172                      .dwattr $C$DW$151, DW_AT_location[DW_OP_breg20 -8]
    2173 000001f3 A844          MOVL      *-SP[4],XAR4          ; [CPU_] |992| 
    2174 000001f4 1E42          MOVL      *-SP[2],ACC           ; [CPU_] |992| 
    2175                      .dwpsn  file "C:/work/grepos/c2000_bootROM/f28004x_bootrom/F28004x_ROM_dev/F28004x_ROM/driverlib/lin_
    2176 000001f5 0644          MOVL      ACC,*-SP[4]           ; [CPU_] |995| 
    2177 000001f6 1E48          MOVL      *-SP[8],ACC           ; [CPU_] |995| 
    2178                      .dwpsn  file "C:/work/grepos/c2000_bootROM/f28004x_bootrom/F28004x_ROM_dev/F28004x_ROM/driverlib/lin_
    2179 000001f7 022A          MOVB      ACC,#42               ; [CPU_] |1005| 
    2180 000001f8 0742          ADDL      ACC,*-SP[2]           ; [CPU_] |1005| 
    2181 000001f9 8AA9          MOVL      XAR4,ACC              ; [CPU_] |1005| 
    2182 000001fa 92C4          MOV       AL,*+XAR4[0]          ; [CPU_] |1005| 
    2183 000001fb 9646          MOV       *-SP[6],AL            ; [CPU_] |1005| 
    2184                      .dwpsn  file "C:/work/grepos/c2000_bootROM/f28004x_bootrom/F28004x_ROM_dev/F28004x_ROM/driverlib/lin_
    2185 000001fc 2B45          MOV       *-SP[5],#0            ; [CPU_] |1010| 
    2186 000001fd 6F0E          B         $C$L8,UNC             ; [CPU_] |1010| 
    2187                      ; branch occurs ; [] |1010| 
    2188 000001fe       $C$L7:    
    2189                      .dwpsn  file "C:/work/grepos/c2000_bootROM/f28004x_bootrom/F28004x_ROM_dev/F28004x_ROM/driverlib/lin_
    2190 000001fe 9245          MOV       AL,*-SP[5]            ; [CPU_] |1012| 
    2191 000001ff F003          XORB      AL,#0x03              ; [CPU_] |1012| 
    2192 00000200 8348          MOVL      XAR5,*-SP[8]          ; [CPU_] |1012| 
    2193 00000201 0EA9          MOVU      ACC,AL                ; [CPU_] |1012| 
    2194 00000202 0742          ADDL      ACC,*-SP[2]           ; [CPU_] |1012| 
    2195 00000203 0964          ADDB      ACC,#100              ; [CPU_] |1012| 
    2196 00000204 8AA9          MOVL      XAR4,ACC              ; [CPU_] |1012| 
    2197 00000205 C6C4          MOVB      AL.LSB,*+XAR4[0]      ; [CPU_] |1012| 
    2198 00000206 96C5          MOV       *+XAR5[0],AL          ; [CPU_] |1012| 
    2199                      .dwpsn  file "C:/work/grepos/c2000_bootROM/f28004x_bootrom/F28004x_ROM_dev/F28004x_ROM/driverlib/lin_
    2200 00000207 0201          MOVB      ACC,#1                ; [CPU_] |1014| 
    2201 00000208 5601          ADDL      *-SP[8],ACC           ; [CPU_] |1014| 
         00000209 0048 
    2202                      .dwpsn  file "C:/work/grepos/c2000_bootROM/f28004x_bootrom/F28004x_ROM_dev/F28004x_ROM/driverlib/lin_
    2203 0000020a 0A45          INC       *-SP[5]               ; [CPU_] |1010| 
    2204 0000020b       $C$L8:    
    2205                      .dwpsn  file "C:/work/grepos/c2000_bootROM/f28004x_bootrom/F28004x_ROM_dev/F28004x_ROM/driverlib/lin_
    2206 0000020b 9246          MOV       AL,*-SP[6]            ; [CPU_] |1010| 
    2207 0000020c 5445          CMP       AL,*-SP[5]            ; [CPU_] |1010| 
    2208 0000020d 67F1          B         $C$L7,HIS             ; [CPU_] |1010| 
    2209                      ; branchcc occurs ; [] |1010| 
    2210                      .dwpsn  file "C:/work/grepos/c2000_bootROM/f28004x_bootrom/F28004x_ROM_dev/F28004x_ROM/driverlib/lin_
    2211 0000020e FE88          SUBB      SP,#8                 ; [CPU_U] 
    2212                      .dwcfi  cfa_offset, -2
    2213              $C$DW$152       .dwtag  DW_TAG_TI_branch
    2214                      .dwattr $C$DW$152, DW_AT_low_pc(0x00)
    2215                      .dwattr $C$DW$152, DW_AT_TI_return
TMS320C2000 Assembler PC v6.2.9 Tue Apr 14 13:32:51 2015

Tools Copyright (c) 1996-2014 Texas Instruments Incorporated
C:\Users\a0272466\AppData\Local\Temp\0802410                         PAGE   42

    2216 0000020f 0006          LRETR     ; [CPU_] 
    2217                      ; return occurs ; [] 
    2218                      .dwattr $C$DW$144, DW_AT_TI_end_file("C:/work/grepos/c2000_bootROM/f28004x_bootrom/F28004x_ROM_dev/F2
    2219                      .dwattr $C$DW$144, DW_AT_TI_end_line(0x3f8)
    2220                      .dwattr $C$DW$144, DW_AT_TI_end_column(0x01)
    2221                      .dwendentry
    2222                      .dwendtag $C$DW$144
    2223              
    2224 00000210               .sect   ".text"
    2225                      .clink
    2226                      .global _LIN_enableLoopback
    2227              
    2228              $C$DW$153       .dwtag  DW_TAG_subprogram, DW_AT_name("LIN_enableLoopback")
    2229                      .dwattr $C$DW$153, DW_AT_low_pc(_LIN_enableLoopback)
    2230                      .dwattr $C$DW$153, DW_AT_high_pc(0x00)
    2231                      .dwattr $C$DW$153, DW_AT_TI_symbol_name("_LIN_enableLoopback")
    2232                      .dwattr $C$DW$153, DW_AT_external
    2233                      .dwattr $C$DW$153, DW_AT_TI_begin_file("C:/work/grepos/c2000_bootROM/f28004x_bootrom/F28004x_ROM_dev/
    2234                      .dwattr $C$DW$153, DW_AT_TI_begin_line(0x408)
    2235                      .dwattr $C$DW$153, DW_AT_TI_begin_column(0x01)
    2236                      .dwattr $C$DW$153, DW_AT_TI_max_frame_size(-6)
    2237                      .dwpsn  file "C:/work/grepos/c2000_bootROM/f28004x_bootrom/F28004x_ROM_dev/F28004x_ROM/driverlib/lin_
    2238              
    2239                      .dwfde $C$DW$CIE, _LIN_enableLoopback
    2240              $C$DW$154       .dwtag  DW_TAG_formal_parameter, DW_AT_name("base")
    2241                      .dwattr $C$DW$154, DW_AT_TI_symbol_name("_base")
    2242                      .dwattr $C$DW$154, DW_AT_type(*$C$DW$T$19)
    2243                      .dwattr $C$DW$154, DW_AT_location[DW_OP_reg0]
    2244              $C$DW$155       .dwtag  DW_TAG_formal_parameter, DW_AT_name("loopbackType")
    2245                      .dwattr $C$DW$155, DW_AT_TI_symbol_name("_loopbackType")
    2246                      .dwattr $C$DW$155, DW_AT_type(*$C$DW$T$26)
    2247                      .dwattr $C$DW$155, DW_AT_location[DW_OP_reg12]
    2248              
    2249              ;***************************************************************
    2250              ;* FNAME: _LIN_enableLoopback           FR SIZE:   4           *
    2251              ;*                                                             *
    2252              ;* FUNCTION ENVIRONMENT                                        *
    2253              ;*                                                             *
    2254              ;* FUNCTION PROPERTIES                                         *
    2255              ;*                            0 Parameter,  3 Auto,  0 SOE     *
    2256              ;***************************************************************
    2257              
    2258 00000210       _LIN_enableLoopback:
    2259                      .dwcfi  cfa_offset, -2
    2260                      .dwcfi  save_reg_to_mem, 26, 0
    2261                      .dwcfi  save_reg_to_reg, 78, 26
    2262 00000210 FE04          ADDB      SP,#4                 ; [CPU_U] 
    2263                      .dwcfi  cfa_offset, -6
    2264              $C$DW$156       .dwtag  DW_TAG_variable, DW_AT_name("base")
    2265                      .dwattr $C$DW$156, DW_AT_TI_symbol_name("_base")
    2266                      .dwattr $C$DW$156, DW_AT_type(*$C$DW$T$19)
    2267                      .dwattr $C$DW$156, DW_AT_location[DW_OP_breg20 -2]
    2268              $C$DW$157       .dwtag  DW_TAG_variable, DW_AT_name("loopbackType")
    2269                      .dwattr $C$DW$157, DW_AT_TI_symbol_name("_loopbackType")
    2270                      .dwattr $C$DW$157, DW_AT_type(*$C$DW$T$26)
TMS320C2000 Assembler PC v6.2.9 Tue Apr 14 13:32:51 2015

Tools Copyright (c) 1996-2014 Texas Instruments Incorporated
C:\Users\a0272466\AppData\Local\Temp\0802410                         PAGE   43

    2271                      .dwattr $C$DW$157, DW_AT_location[DW_OP_breg20 -3]
    2272 00000211 7C43          MOV       *-SP[3],AR4           ; [CPU_] |1033| 
    2273 00000212 1E42          MOVL      *-SP[2],ACC           ; [CPU_] |1033| 
    2274                      .dwpsn  file "C:/work/grepos/c2000_bootROM/f28004x_bootrom/F28004x_ROM_dev/F28004x_ROM/driverlib/lin_
    2275 00000213 7622   EALLOW
    2276                      .dwpsn  file "C:/work/grepos/c2000_bootROM/f28004x_bootrom/F28004x_ROM_dev/F28004x_ROM/driverlib/lin_
    2277 00000214 0290          MOVB      ACC,#144              ; [CPU_] |1044| 
    2278 00000215 0742          ADDL      ACC,*-SP[2]           ; [CPU_] |1044| 
    2279 00000216 8AA9          MOVL      XAR4,ACC              ; [CPU_] |1044| 
    2280 00000217 18C4          AND       *+XAR4[0],#0xf0fd     ; [CPU_] |1044| 
         00000218 F0FD 
    2281                      .dwpsn  file "C:/work/grepos/c2000_bootROM/f28004x_bootrom/F28004x_ROM_dev/F28004x_ROM/driverlib/lin_
    2282 00000219 0290          MOVB      ACC,#144              ; [CPU_] |1050| 
    2283 0000021a 0742          ADDL      ACC,*-SP[2]           ; [CPU_] |1050| 
    2284 0000021b 8AA9          MOVL      XAR4,ACC              ; [CPU_] |1050| 
    2285 0000021c 9243          MOV       AL,*-SP[3]            ; [CPU_] |1050| 
    2286 0000021d CAC4          OR        AL,*+XAR4[0]          ; [CPU_] |1050| 
    2287 0000021e 1AA9          OR        AL,#0x0a00            ; [CPU_] |1050| 
         0000021f 0A00 
    2288 00000220 96C4          MOV       *+XAR4[0],AL          ; [CPU_] |1050| 
    2289                      .dwpsn  file "C:/work/grepos/c2000_bootROM/f28004x_bootrom/F28004x_ROM_dev/F28004x_ROM/driverlib/lin_
    2290 00000221 761A   EDIS
    2291                      .dwpsn  file "C:/work/grepos/c2000_bootROM/f28004x_bootrom/F28004x_ROM_dev/F28004x_ROM/driverlib/lin_
    2292 00000222 FF69          SPM       #0                    ; [CPU_] 
    2293 00000223 FE84          SUBB      SP,#4                 ; [CPU_U] 
    2294                      .dwcfi  cfa_offset, -2
    2295              $C$DW$158       .dwtag  DW_TAG_TI_branch
    2296                      .dwattr $C$DW$158, DW_AT_low_pc(0x00)
    2297                      .dwattr $C$DW$158, DW_AT_TI_return
    2298 00000224 0006          LRETR     ; [CPU_] 
    2299                      ; return occurs ; [] 
    2300                      .dwattr $C$DW$153, DW_AT_TI_end_file("C:/work/grepos/c2000_bootROM/f28004x_bootrom/F28004x_ROM_dev/F2
    2301                      .dwattr $C$DW$153, DW_AT_TI_end_line(0x41e)
    2302                      .dwattr $C$DW$153, DW_AT_TI_end_column(0x01)
    2303                      .dwendentry
    2304                      .dwendtag $C$DW$153
    2305              
    2306 00000225               .sect   ".text"
    2307                      .clink
    2308                      .global _LIN_disableLoopback
    2309              
    2310              $C$DW$159       .dwtag  DW_TAG_subprogram, DW_AT_name("LIN_disableLoopback")
    2311                      .dwattr $C$DW$159, DW_AT_low_pc(_LIN_disableLoopback)
    2312                      .dwattr $C$DW$159, DW_AT_high_pc(0x00)
    2313                      .dwattr $C$DW$159, DW_AT_TI_symbol_name("_LIN_disableLoopback")
    2314                      .dwattr $C$DW$159, DW_AT_external
    2315                      .dwattr $C$DW$159, DW_AT_TI_begin_file("C:/work/grepos/c2000_bootROM/f28004x_bootrom/F28004x_ROM_dev/
    2316                      .dwattr $C$DW$159, DW_AT_TI_begin_line(0x42c)
    2317                      .dwattr $C$DW$159, DW_AT_TI_begin_column(0x01)
    2318                      .dwattr $C$DW$159, DW_AT_TI_max_frame_size(-4)
    2319                      .dwpsn  file "C:/work/grepos/c2000_bootROM/f28004x_bootrom/F28004x_ROM_dev/F28004x_ROM/driverlib/lin_
    2320              
    2321                      .dwfde $C$DW$CIE, _LIN_disableLoopback
    2322              $C$DW$160       .dwtag  DW_TAG_formal_parameter, DW_AT_name("base")
    2323                      .dwattr $C$DW$160, DW_AT_TI_symbol_name("_base")
TMS320C2000 Assembler PC v6.2.9 Tue Apr 14 13:32:51 2015

Tools Copyright (c) 1996-2014 Texas Instruments Incorporated
C:\Users\a0272466\AppData\Local\Temp\0802410                         PAGE   44

    2324                      .dwattr $C$DW$160, DW_AT_type(*$C$DW$T$19)
    2325                      .dwattr $C$DW$160, DW_AT_location[DW_OP_reg0]
    2326              
    2327              ;***************************************************************
    2328              ;* FNAME: _LIN_disableLoopback          FR SIZE:   2           *
    2329              ;*                                                             *
    2330              ;* FUNCTION ENVIRONMENT                                        *
    2331              ;*                                                             *
    2332              ;* FUNCTION PROPERTIES                                         *
    2333              ;*                            0 Parameter,  2 Auto,  0 SOE     *
    2334              ;***************************************************************
    2335              
    2336 00000225       _LIN_disableLoopback:
    2337                      .dwcfi  cfa_offset, -2
    2338                      .dwcfi  save_reg_to_mem, 26, 0
    2339                      .dwcfi  save_reg_to_reg, 78, 26
    2340 00000225 FE02          ADDB      SP,#2                 ; [CPU_U] 
    2341                      .dwcfi  cfa_offset, -4
    2342              $C$DW$161       .dwtag  DW_TAG_variable, DW_AT_name("base")
    2343                      .dwattr $C$DW$161, DW_AT_TI_symbol_name("_base")
    2344                      .dwattr $C$DW$161, DW_AT_type(*$C$DW$T$19)
    2345                      .dwattr $C$DW$161, DW_AT_location[DW_OP_breg20 -2]
    2346 00000226 1E42          MOVL      *-SP[2],ACC           ; [CPU_] |1069| 
    2347                      .dwpsn  file "C:/work/grepos/c2000_bootROM/f28004x_bootrom/F28004x_ROM_dev/F28004x_ROM/driverlib/lin_
    2348 00000227 7622   EALLOW
    2349                      .dwpsn  file "C:/work/grepos/c2000_bootROM/f28004x_bootrom/F28004x_ROM_dev/F28004x_ROM/driverlib/lin_
    2350 00000228 0290          MOVB      ACC,#144              ; [CPU_] |1080| 
    2351 00000229 0742          ADDL      ACC,*-SP[2]           ; [CPU_] |1080| 
    2352 0000022a 8AA9          MOVL      XAR4,ACC              ; [CPU_] |1080| 
    2353 0000022b 18C4          AND       *+XAR4[0],#0xf0fd     ; [CPU_] |1080| 
         0000022c F0FD 
    2354                      .dwpsn  file "C:/work/grepos/c2000_bootROM/f28004x_bootrom/F28004x_ROM_dev/F28004x_ROM/driverlib/lin_
    2355 0000022d 761A   EDIS
    2356                      .dwpsn  file "C:/work/grepos/c2000_bootROM/f28004x_bootrom/F28004x_ROM_dev/F28004x_ROM/driverlib/lin_
    2357 0000022e FF69          SPM       #0                    ; [CPU_] 
    2358 0000022f FE82          SUBB      SP,#2                 ; [CPU_U] 
    2359                      .dwcfi  cfa_offset, -2
    2360              $C$DW$162       .dwtag  DW_TAG_TI_branch
    2361                      .dwattr $C$DW$162, DW_AT_low_pc(0x00)
    2362                      .dwattr $C$DW$162, DW_AT_TI_return
    2363 00000230 0006          LRETR     ; [CPU_] 
    2364                      ; return occurs ; [] 
    2365                      .dwattr $C$DW$159, DW_AT_TI_end_file("C:/work/grepos/c2000_bootROM/f28004x_bootrom/F28004x_ROM_dev/F2
    2366                      .dwattr $C$DW$159, DW_AT_TI_end_line(0x43c)
    2367                      .dwattr $C$DW$159, DW_AT_TI_end_column(0x01)
    2368                      .dwendentry
    2369                      .dwendtag $C$DW$159
    2370              
    2371 00000231               .sect   ".text"
    2372                      .clink
    2373                      .global _LIN_enableInterrupt
    2374              
    2375              $C$DW$163       .dwtag  DW_TAG_subprogram, DW_AT_name("LIN_enableInterrupt")
    2376                      .dwattr $C$DW$163, DW_AT_low_pc(_LIN_enableInterrupt)
    2377                      .dwattr $C$DW$163, DW_AT_high_pc(0x00)
TMS320C2000 Assembler PC v6.2.9 Tue Apr 14 13:32:51 2015

Tools Copyright (c) 1996-2014 Texas Instruments Incorporated
C:\Users\a0272466\AppData\Local\Temp\0802410                         PAGE   45

    2378                      .dwattr $C$DW$163, DW_AT_TI_symbol_name("_LIN_enableInterrupt")
    2379                      .dwattr $C$DW$163, DW_AT_external
    2380                      .dwattr $C$DW$163, DW_AT_TI_begin_file("C:/work/grepos/c2000_bootROM/f28004x_bootrom/F28004x_ROM_dev/
    2381                      .dwattr $C$DW$163, DW_AT_TI_begin_line(0x45e)
    2382                      .dwattr $C$DW$163, DW_AT_TI_begin_column(0x01)
    2383                      .dwattr $C$DW$163, DW_AT_TI_max_frame_size(-4)
    2384                      .dwpsn  file "C:/work/grepos/c2000_bootROM/f28004x_bootrom/F28004x_ROM_dev/F28004x_ROM/driverlib/lin_
    2385              
    2386                      .dwfde $C$DW$CIE, _LIN_enableInterrupt
    2387              $C$DW$164       .dwtag  DW_TAG_formal_parameter, DW_AT_name("base")
    2388                      .dwattr $C$DW$164, DW_AT_TI_symbol_name("_base")
    2389                      .dwattr $C$DW$164, DW_AT_type(*$C$DW$T$19)
    2390                      .dwattr $C$DW$164, DW_AT_location[DW_OP_reg0]
    2391              $C$DW$165       .dwtag  DW_TAG_formal_parameter, DW_AT_name("intFlags")
    2392                      .dwattr $C$DW$165, DW_AT_TI_symbol_name("_intFlags")
    2393                      .dwattr $C$DW$165, DW_AT_type(*$C$DW$T$19)
    2394                      .dwattr $C$DW$165, DW_AT_location[DW_OP_breg20 -6]
    2395              
    2396              ;***************************************************************
    2397              ;* FNAME: _LIN_enableInterrupt          FR SIZE:   2           *
    2398              ;*                                                             *
    2399              ;* FUNCTION ENVIRONMENT                                        *
    2400              ;*                                                             *
    2401              ;* FUNCTION PROPERTIES                                         *
    2402              ;*                            0 Parameter,  2 Auto,  0 SOE     *
    2403              ;***************************************************************
    2404              
    2405 00000231       _LIN_enableInterrupt:
    2406                      .dwcfi  cfa_offset, -2
    2407                      .dwcfi  save_reg_to_mem, 26, 0
    2408                      .dwcfi  save_reg_to_reg, 78, 26
    2409 00000231 FE02          ADDB      SP,#2                 ; [CPU_U] 
    2410                      .dwcfi  cfa_offset, -4
    2411              $C$DW$166       .dwtag  DW_TAG_variable, DW_AT_name("base")
    2412                      .dwattr $C$DW$166, DW_AT_TI_symbol_name("_base")
    2413                      .dwattr $C$DW$166, DW_AT_type(*$C$DW$T$19)
    2414                      .dwattr $C$DW$166, DW_AT_location[DW_OP_breg20 -2]
    2415 00000232 1E42          MOVL      *-SP[2],ACC           ; [CPU_] |1119| 
    2416                      .dwpsn  file "C:/work/grepos/c2000_bootROM/f28004x_bootrom/F28004x_ROM_dev/F28004x_ROM/driverlib/lin_
    2417 00000233 C446          MOVL      XAR6,*-SP[6]          ; [CPU_] |1125| 
    2418 00000234 020C          MOVB      ACC,#12               ; [CPU_] |1125| 
    2419 00000235 0742          ADDL      ACC,*-SP[2]           ; [CPU_] |1125| 
    2420 00000236 8AA9          MOVL      XAR4,ACC              ; [CPU_] |1125| 
    2421 00000237 C2C4          MOVL      *+XAR4[0],XAR6        ; [CPU_] |1125| 
    2422                      .dwpsn  file "C:/work/grepos/c2000_bootROM/f28004x_bootrom/F28004x_ROM_dev/F28004x_ROM/driverlib/lin_
    2423 00000238 FE82          SUBB      SP,#2                 ; [CPU_U] 
    2424                      .dwcfi  cfa_offset, -2
    2425              $C$DW$167       .dwtag  DW_TAG_TI_branch
    2426                      .dwattr $C$DW$167, DW_AT_low_pc(0x00)
    2427                      .dwattr $C$DW$167, DW_AT_TI_return
    2428 00000239 0006          LRETR     ; [CPU_] 
    2429                      ; return occurs ; [] 
    2430                      .dwattr $C$DW$163, DW_AT_TI_end_file("C:/work/grepos/c2000_bootROM/f28004x_bootrom/F28004x_ROM_dev/F2
    2431                      .dwattr $C$DW$163, DW_AT_TI_end_line(0x466)
    2432                      .dwattr $C$DW$163, DW_AT_TI_end_column(0x01)
TMS320C2000 Assembler PC v6.2.9 Tue Apr 14 13:32:51 2015

Tools Copyright (c) 1996-2014 Texas Instruments Incorporated
C:\Users\a0272466\AppData\Local\Temp\0802410                         PAGE   46

    2433                      .dwendentry
    2434                      .dwendtag $C$DW$163
    2435              
    2436 0000023a               .sect   ".text"
    2437                      .clink
    2438                      .global _LIN_disableInterrupt
    2439              
    2440              $C$DW$168       .dwtag  DW_TAG_subprogram, DW_AT_name("LIN_disableInterrupt")
    2441                      .dwattr $C$DW$168, DW_AT_low_pc(_LIN_disableInterrupt)
    2442                      .dwattr $C$DW$168, DW_AT_high_pc(0x00)
    2443                      .dwattr $C$DW$168, DW_AT_TI_symbol_name("_LIN_disableInterrupt")
    2444                      .dwattr $C$DW$168, DW_AT_external
    2445                      .dwattr $C$DW$168, DW_AT_TI_begin_file("C:/work/grepos/c2000_bootROM/f28004x_bootrom/F28004x_ROM_dev/
    2446                      .dwattr $C$DW$168, DW_AT_TI_begin_line(0x488)
    2447                      .dwattr $C$DW$168, DW_AT_TI_begin_column(0x01)
    2448                      .dwattr $C$DW$168, DW_AT_TI_max_frame_size(-4)
    2449                      .dwpsn  file "C:/work/grepos/c2000_bootROM/f28004x_bootrom/F28004x_ROM_dev/F28004x_ROM/driverlib/lin_
    2450              
    2451                      .dwfde $C$DW$CIE, _LIN_disableInterrupt
    2452              $C$DW$169       .dwtag  DW_TAG_formal_parameter, DW_AT_name("base")
    2453                      .dwattr $C$DW$169, DW_AT_TI_symbol_name("_base")
    2454                      .dwattr $C$DW$169, DW_AT_type(*$C$DW$T$19)
    2455                      .dwattr $C$DW$169, DW_AT_location[DW_OP_reg0]
    2456              $C$DW$170       .dwtag  DW_TAG_formal_parameter, DW_AT_name("intFlags")
    2457                      .dwattr $C$DW$170, DW_AT_TI_symbol_name("_intFlags")
    2458                      .dwattr $C$DW$170, DW_AT_type(*$C$DW$T$19)
    2459                      .dwattr $C$DW$170, DW_AT_location[DW_OP_breg20 -6]
    2460              
    2461              ;***************************************************************
    2462              ;* FNAME: _LIN_disableInterrupt         FR SIZE:   2           *
    2463              ;*                                                             *
    2464              ;* FUNCTION ENVIRONMENT                                        *
    2465              ;*                                                             *
    2466              ;* FUNCTION PROPERTIES                                         *
    2467              ;*                            0 Parameter,  2 Auto,  0 SOE     *
    2468              ;***************************************************************
    2469              
    2470 0000023a       _LIN_disableInterrupt:
    2471                      .dwcfi  cfa_offset, -2
    2472                      .dwcfi  save_reg_to_mem, 26, 0
    2473                      .dwcfi  save_reg_to_reg, 78, 26
    2474 0000023a FE02          ADDB      SP,#2                 ; [CPU_U] 
    2475                      .dwcfi  cfa_offset, -4
    2476              $C$DW$171       .dwtag  DW_TAG_variable, DW_AT_name("base")
    2477                      .dwattr $C$DW$171, DW_AT_TI_symbol_name("_base")
    2478                      .dwattr $C$DW$171, DW_AT_type(*$C$DW$T$19)
    2479                      .dwattr $C$DW$171, DW_AT_location[DW_OP_breg20 -2]
    2480 0000023b 1E42          MOVL      *-SP[2],ACC           ; [CPU_] |1161| 
    2481                      .dwpsn  file "C:/work/grepos/c2000_bootROM/f28004x_bootrom/F28004x_ROM_dev/F28004x_ROM/driverlib/lin_
    2482 0000023c C446          MOVL      XAR6,*-SP[6]          ; [CPU_] |1167| 
    2483 0000023d 0210          MOVB      ACC,#16               ; [CPU_] |1167| 
    2484 0000023e 0742          ADDL      ACC,*-SP[2]           ; [CPU_] |1167| 
    2485 0000023f 8AA9          MOVL      XAR4,ACC              ; [CPU_] |1167| 
    2486 00000240 C2C4          MOVL      *+XAR4[0],XAR6        ; [CPU_] |1167| 
    2487                      .dwpsn  file "C:/work/grepos/c2000_bootROM/f28004x_bootrom/F28004x_ROM_dev/F28004x_ROM/driverlib/lin_
TMS320C2000 Assembler PC v6.2.9 Tue Apr 14 13:32:51 2015

Tools Copyright (c) 1996-2014 Texas Instruments Incorporated
C:\Users\a0272466\AppData\Local\Temp\0802410                         PAGE   47

    2488 00000241 FE82          SUBB      SP,#2                 ; [CPU_U] 
    2489                      .dwcfi  cfa_offset, -2
    2490              $C$DW$172       .dwtag  DW_TAG_TI_branch
    2491                      .dwattr $C$DW$172, DW_AT_low_pc(0x00)
    2492                      .dwattr $C$DW$172, DW_AT_TI_return
    2493 00000242 0006          LRETR     ; [CPU_] 
    2494                      ; return occurs ; [] 
    2495                      .dwattr $C$DW$168, DW_AT_TI_end_file("C:/work/grepos/c2000_bootROM/f28004x_bootrom/F28004x_ROM_dev/F2
    2496                      .dwattr $C$DW$168, DW_AT_TI_end_line(0x490)
    2497                      .dwattr $C$DW$168, DW_AT_TI_end_column(0x01)
    2498                      .dwendentry
    2499                      .dwendtag $C$DW$168
    2500              
    2501 00000243               .sect   ".text"
    2502                      .clink
    2503                      .global _LIN_clearInterruptStatus
    2504              
    2505              $C$DW$173       .dwtag  DW_TAG_subprogram, DW_AT_name("LIN_clearInterruptStatus")
    2506                      .dwattr $C$DW$173, DW_AT_low_pc(_LIN_clearInterruptStatus)
    2507                      .dwattr $C$DW$173, DW_AT_high_pc(0x00)
    2508                      .dwattr $C$DW$173, DW_AT_TI_symbol_name("_LIN_clearInterruptStatus")
    2509                      .dwattr $C$DW$173, DW_AT_external
    2510                      .dwattr $C$DW$173, DW_AT_TI_begin_file("C:/work/grepos/c2000_bootROM/f28004x_bootrom/F28004x_ROM_dev/
    2511                      .dwattr $C$DW$173, DW_AT_TI_begin_line(0x4af)
    2512                      .dwattr $C$DW$173, DW_AT_TI_begin_column(0x01)
    2513                      .dwattr $C$DW$173, DW_AT_TI_max_frame_size(-4)
    2514                      .dwpsn  file "C:/work/grepos/c2000_bootROM/f28004x_bootrom/F28004x_ROM_dev/F28004x_ROM/driverlib/lin_
    2515              
    2516                      .dwfde $C$DW$CIE, _LIN_clearInterruptStatus
    2517              $C$DW$174       .dwtag  DW_TAG_formal_parameter, DW_AT_name("base")
    2518                      .dwattr $C$DW$174, DW_AT_TI_symbol_name("_base")
    2519                      .dwattr $C$DW$174, DW_AT_type(*$C$DW$T$19)
    2520                      .dwattr $C$DW$174, DW_AT_location[DW_OP_reg0]
    2521              $C$DW$175       .dwtag  DW_TAG_formal_parameter, DW_AT_name("intFlags")
    2522                      .dwattr $C$DW$175, DW_AT_TI_symbol_name("_intFlags")
    2523                      .dwattr $C$DW$175, DW_AT_type(*$C$DW$T$19)
    2524                      .dwattr $C$DW$175, DW_AT_location[DW_OP_breg20 -6]
    2525              
    2526              ;***************************************************************
    2527              ;* FNAME: _LIN_clearInterruptStatus     FR SIZE:   2           *
    2528              ;*                                                             *
    2529              ;* FUNCTION ENVIRONMENT                                        *
    2530              ;*                                                             *
    2531              ;* FUNCTION PROPERTIES                                         *
    2532              ;*                            0 Parameter,  2 Auto,  0 SOE     *
    2533              ;***************************************************************
    2534              
    2535 00000243       _LIN_clearInterruptStatus:
    2536                      .dwcfi  cfa_offset, -2
    2537                      .dwcfi  save_reg_to_mem, 26, 0
    2538                      .dwcfi  save_reg_to_reg, 78, 26
    2539 00000243 FE02          ADDB      SP,#2                 ; [CPU_U] 
    2540                      .dwcfi  cfa_offset, -4
    2541              $C$DW$176       .dwtag  DW_TAG_variable, DW_AT_name("base")
    2542                      .dwattr $C$DW$176, DW_AT_TI_symbol_name("_base")
TMS320C2000 Assembler PC v6.2.9 Tue Apr 14 13:32:51 2015

Tools Copyright (c) 1996-2014 Texas Instruments Incorporated
C:\Users\a0272466\AppData\Local\Temp\0802410                         PAGE   48

    2543                      .dwattr $C$DW$176, DW_AT_type(*$C$DW$T$19)
    2544                      .dwattr $C$DW$176, DW_AT_location[DW_OP_breg20 -2]
    2545 00000244 1E42          MOVL      *-SP[2],ACC           ; [CPU_] |1200| 
    2546                      .dwpsn  file "C:/work/grepos/c2000_bootROM/f28004x_bootrom/F28004x_ROM_dev/F28004x_ROM/driverlib/lin_
    2547 00000245 C446          MOVL      XAR6,*-SP[6]          ; [CPU_] |1206| 
    2548 00000246 021C          MOVB      ACC,#28               ; [CPU_] |1206| 
    2549 00000247 0742          ADDL      ACC,*-SP[2]           ; [CPU_] |1206| 
    2550 00000248 8AA9          MOVL      XAR4,ACC              ; [CPU_] |1206| 
    2551 00000249 C2C4          MOVL      *+XAR4[0],XAR6        ; [CPU_] |1206| 
    2552                      .dwpsn  file "C:/work/grepos/c2000_bootROM/f28004x_bootrom/F28004x_ROM_dev/F28004x_ROM/driverlib/lin_
    2553 0000024a FE82          SUBB      SP,#2                 ; [CPU_U] 
    2554                      .dwcfi  cfa_offset, -2
    2555              $C$DW$177       .dwtag  DW_TAG_TI_branch
    2556                      .dwattr $C$DW$177, DW_AT_low_pc(0x00)
    2557                      .dwattr $C$DW$177, DW_AT_TI_return
    2558 0000024b 0006          LRETR     ; [CPU_] 
    2559                      ; return occurs ; [] 
    2560                      .dwattr $C$DW$173, DW_AT_TI_end_file("C:/work/grepos/c2000_bootROM/f28004x_bootrom/F28004x_ROM_dev/F2
    2561                      .dwattr $C$DW$173, DW_AT_TI_end_line(0x4b7)
    2562                      .dwattr $C$DW$173, DW_AT_TI_end_column(0x01)
    2563                      .dwendentry
    2564                      .dwendtag $C$DW$173
    2565              
    2566 0000024c               .sect   ".text"
    2567                      .clink
    2568                      .global _LIN_getInterruptStatus
    2569              
    2570              $C$DW$178       .dwtag  DW_TAG_subprogram, DW_AT_name("LIN_getInterruptStatus")
    2571                      .dwattr $C$DW$178, DW_AT_low_pc(_LIN_getInterruptStatus)
    2572                      .dwattr $C$DW$178, DW_AT_high_pc(0x00)
    2573                      .dwattr $C$DW$178, DW_AT_TI_symbol_name("_LIN_getInterruptStatus")
    2574                      .dwattr $C$DW$178, DW_AT_external
    2575                      .dwattr $C$DW$178, DW_AT_type(*$C$DW$T$19)
    2576                      .dwattr $C$DW$178, DW_AT_TI_begin_file("C:/work/grepos/c2000_bootROM/f28004x_bootrom/F28004x_ROM_dev/
    2577                      .dwattr $C$DW$178, DW_AT_TI_begin_line(0x4d4)
    2578                      .dwattr $C$DW$178, DW_AT_TI_begin_column(0x01)
    2579                      .dwattr $C$DW$178, DW_AT_TI_max_frame_size(-4)
    2580                      .dwpsn  file "C:/work/grepos/c2000_bootROM/f28004x_bootrom/F28004x_ROM_dev/F28004x_ROM/driverlib/lin_
    2581              
    2582                      .dwfde $C$DW$CIE, _LIN_getInterruptStatus
    2583              $C$DW$179       .dwtag  DW_TAG_formal_parameter, DW_AT_name("base")
    2584                      .dwattr $C$DW$179, DW_AT_TI_symbol_name("_base")
    2585                      .dwattr $C$DW$179, DW_AT_type(*$C$DW$T$19)
    2586                      .dwattr $C$DW$179, DW_AT_location[DW_OP_reg0]
    2587              
    2588              ;***************************************************************
    2589              ;* FNAME: _LIN_getInterruptStatus       FR SIZE:   2           *
    2590              ;*                                                             *
    2591              ;* FUNCTION ENVIRONMENT                                        *
    2592              ;*                                                             *
    2593              ;* FUNCTION PROPERTIES                                         *
    2594              ;*                            0 Parameter,  2 Auto,  0 SOE     *
    2595              ;***************************************************************
    2596              
    2597 0000024c       _LIN_getInterruptStatus:
TMS320C2000 Assembler PC v6.2.9 Tue Apr 14 13:32:51 2015

Tools Copyright (c) 1996-2014 Texas Instruments Incorporated
C:\Users\a0272466\AppData\Local\Temp\0802410                         PAGE   49

    2598                      .dwcfi  cfa_offset, -2
    2599                      .dwcfi  save_reg_to_mem, 26, 0
    2600                      .dwcfi  save_reg_to_reg, 78, 26
    2601 0000024c FE02          ADDB      SP,#2                 ; [CPU_U] 
    2602                      .dwcfi  cfa_offset, -4
    2603              $C$DW$180       .dwtag  DW_TAG_variable, DW_AT_name("base")
    2604                      .dwattr $C$DW$180, DW_AT_TI_symbol_name("_base")
    2605                      .dwattr $C$DW$180, DW_AT_type(*$C$DW$T$19)
    2606                      .dwattr $C$DW$180, DW_AT_location[DW_OP_breg20 -2]
    2607 0000024d 1E42          MOVL      *-SP[2],ACC           ; [CPU_] |1237| 
    2608                      .dwpsn  file "C:/work/grepos/c2000_bootROM/f28004x_bootrom/F28004x_ROM_dev/F28004x_ROM/driverlib/lin_
    2609 0000024e 021C          MOVB      ACC,#28               ; [CPU_] |1243| 
    2610 0000024f 0742          ADDL      ACC,*-SP[2]           ; [CPU_] |1243| 
    2611 00000250 8AA9          MOVL      XAR4,ACC              ; [CPU_] |1243| 
    2612 00000251 06C4          MOVL      ACC,*+XAR4[0]         ; [CPU_] |1243| 
    2613                      .dwpsn  file "C:/work/grepos/c2000_bootROM/f28004x_bootrom/F28004x_ROM_dev/F28004x_ROM/driverlib/lin_
    2614 00000252 FE82          SUBB      SP,#2                 ; [CPU_U] 
    2615                      .dwcfi  cfa_offset, -2
    2616              $C$DW$181       .dwtag  DW_TAG_TI_branch
    2617                      .dwattr $C$DW$181, DW_AT_low_pc(0x00)
    2618                      .dwattr $C$DW$181, DW_AT_TI_return
    2619 00000253 0006          LRETR     ; [CPU_] 
    2620                      ; return occurs ; [] 
    2621                      .dwattr $C$DW$178, DW_AT_TI_end_file("C:/work/grepos/c2000_bootROM/f28004x_bootrom/F28004x_ROM_dev/F2
    2622                      .dwattr $C$DW$178, DW_AT_TI_end_line(0x4dc)
    2623                      .dwattr $C$DW$178, DW_AT_TI_end_column(0x01)
    2624                      .dwendentry
    2625                      .dwendtag $C$DW$178
    2626              
    2627 00000254               .sect   ".text"
    2628                      .clink
    2629                      .global _LIN_setInterruptLevel
    2630              
    2631              $C$DW$182       .dwtag  DW_TAG_subprogram, DW_AT_name("LIN_setInterruptLevel")
    2632                      .dwattr $C$DW$182, DW_AT_low_pc(_LIN_setInterruptLevel)
    2633                      .dwattr $C$DW$182, DW_AT_high_pc(0x00)
    2634                      .dwattr $C$DW$182, DW_AT_TI_symbol_name("_LIN_setInterruptLevel")
    2635                      .dwattr $C$DW$182, DW_AT_external
    2636                      .dwattr $C$DW$182, DW_AT_TI_begin_file("C:/work/grepos/c2000_bootROM/f28004x_bootrom/F28004x_ROM_dev/
    2637                      .dwattr $C$DW$182, DW_AT_TI_begin_line(0x4fd)
    2638                      .dwattr $C$DW$182, DW_AT_TI_begin_column(0x01)
    2639                      .dwattr $C$DW$182, DW_AT_TI_max_frame_size(-6)
    2640                      .dwpsn  file "C:/work/grepos/c2000_bootROM/f28004x_bootrom/F28004x_ROM_dev/F28004x_ROM/driverlib/lin_
    2641              
    2642                      .dwfde $C$DW$CIE, _LIN_setInterruptLevel
    2643              $C$DW$183       .dwtag  DW_TAG_formal_parameter, DW_AT_name("base")
    2644                      .dwattr $C$DW$183, DW_AT_TI_symbol_name("_base")
    2645                      .dwattr $C$DW$183, DW_AT_type(*$C$DW$T$19)
    2646                      .dwattr $C$DW$183, DW_AT_location[DW_OP_reg0]
    2647              $C$DW$184       .dwtag  DW_TAG_formal_parameter, DW_AT_name("intFlags")
    2648                      .dwattr $C$DW$184, DW_AT_TI_symbol_name("_intFlags")
    2649                      .dwattr $C$DW$184, DW_AT_type(*$C$DW$T$19)
    2650                      .dwattr $C$DW$184, DW_AT_location[DW_OP_breg20 -8]
    2651              $C$DW$185       .dwtag  DW_TAG_formal_parameter, DW_AT_name("setToLvl1")
    2652                      .dwattr $C$DW$185, DW_AT_TI_symbol_name("_setToLvl1")
TMS320C2000 Assembler PC v6.2.9 Tue Apr 14 13:32:51 2015

Tools Copyright (c) 1996-2014 Texas Instruments Incorporated
C:\Users\a0272466\AppData\Local\Temp\0802410                         PAGE   50

    2653                      .dwattr $C$DW$185, DW_AT_type(*$C$DW$T$38)
    2654                      .dwattr $C$DW$185, DW_AT_location[DW_OP_reg12]
    2655              
    2656              ;***************************************************************
    2657              ;* FNAME: _LIN_setInterruptLevel        FR SIZE:   4           *
    2658              ;*                                                             *
    2659              ;* FUNCTION ENVIRONMENT                                        *
    2660              ;*                                                             *
    2661              ;* FUNCTION PROPERTIES                                         *
    2662              ;*                            0 Parameter,  3 Auto,  0 SOE     *
    2663              ;***************************************************************
    2664              
    2665 00000254       _LIN_setInterruptLevel:
    2666                      .dwcfi  cfa_offset, -2
    2667                      .dwcfi  save_reg_to_mem, 26, 0
    2668                      .dwcfi  save_reg_to_reg, 78, 26
    2669 00000254 FE04          ADDB      SP,#4                 ; [CPU_U] 
    2670                      .dwcfi  cfa_offset, -6
    2671              $C$DW$186       .dwtag  DW_TAG_variable, DW_AT_name("base")
    2672                      .dwattr $C$DW$186, DW_AT_TI_symbol_name("_base")
    2673                      .dwattr $C$DW$186, DW_AT_type(*$C$DW$T$19)
    2674                      .dwattr $C$DW$186, DW_AT_location[DW_OP_breg20 -2]
    2675              $C$DW$187       .dwtag  DW_TAG_variable, DW_AT_name("setToLvl1")
    2676                      .dwattr $C$DW$187, DW_AT_TI_symbol_name("_setToLvl1")
    2677                      .dwattr $C$DW$187, DW_AT_type(*$C$DW$T$38)
    2678                      .dwattr $C$DW$187, DW_AT_location[DW_OP_breg20 -3]
    2679 00000255 7C43          MOV       *-SP[3],AR4           ; [CPU_] |1278| 
    2680 00000256 1E42          MOVL      *-SP[2],ACC           ; [CPU_] |1278| 
    2681                      .dwpsn  file "C:/work/grepos/c2000_bootROM/f28004x_bootrom/F28004x_ROM_dev/F28004x_ROM/driverlib/lin_
    2682 00000257 9243          MOV       AL,*-SP[3]            ; [CPU_] |1284| 
    2683 00000258 EC07          BF        $C$L9,EQ              ; [CPU_] |1284| 
    2684                      ; branchcc occurs ; [] |1284| 
    2685                      .dwpsn  file "C:/work/grepos/c2000_bootROM/f28004x_bootrom/F28004x_ROM_dev/F28004x_ROM/driverlib/lin_
    2686 00000259 C448          MOVL      XAR6,*-SP[8]          ; [CPU_] |1286| 
    2687 0000025a 0214          MOVB      ACC,#20               ; [CPU_] |1286| 
    2688 0000025b 0742          ADDL      ACC,*-SP[2]           ; [CPU_] |1286| 
    2689 0000025c 8AA9          MOVL      XAR4,ACC              ; [CPU_] |1286| 
    2690 0000025d C2C4          MOVL      *+XAR4[0],XAR6        ; [CPU_] |1286| 
    2691                      .dwpsn  file "C:/work/grepos/c2000_bootROM/f28004x_bootrom/F28004x_ROM_dev/F28004x_ROM/driverlib/lin_
    2692 0000025e 6F06          B         $C$L10,UNC            ; [CPU_] |1287| 
    2693                      ; branch occurs ; [] |1287| 
    2694 0000025f       $C$L9:    
    2695                      .dwpsn  file "C:/work/grepos/c2000_bootROM/f28004x_bootrom/F28004x_ROM_dev/F28004x_ROM/driverlib/lin_
    2696 0000025f C448          MOVL      XAR6,*-SP[8]          ; [CPU_] |1290| 
    2697 00000260 0218          MOVB      ACC,#24               ; [CPU_] |1290| 
    2698 00000261 0742          ADDL      ACC,*-SP[2]           ; [CPU_] |1290| 
    2699 00000262 8AA9          MOVL      XAR4,ACC              ; [CPU_] |1290| 
    2700 00000263 C2C4          MOVL      *+XAR4[0],XAR6        ; [CPU_] |1290| 
    2701                      .dwpsn  file "C:/work/grepos/c2000_bootROM/f28004x_bootrom/F28004x_ROM_dev/F28004x_ROM/driverlib/lin_
    2702 00000264       $C$L10:    
    2703 00000264 FE84          SUBB      SP,#4                 ; [CPU_U] 
    2704                      .dwcfi  cfa_offset, -2
    2705              $C$DW$188       .dwtag  DW_TAG_TI_branch
    2706                      .dwattr $C$DW$188, DW_AT_low_pc(0x00)
    2707                      .dwattr $C$DW$188, DW_AT_TI_return
TMS320C2000 Assembler PC v6.2.9 Tue Apr 14 13:32:51 2015

Tools Copyright (c) 1996-2014 Texas Instruments Incorporated
C:\Users\a0272466\AppData\Local\Temp\0802410                         PAGE   51

    2708 00000265 0006          LRETR     ; [CPU_] 
    2709                      ; return occurs ; [] 
    2710                      .dwattr $C$DW$182, DW_AT_TI_end_file("C:/work/grepos/c2000_bootROM/f28004x_bootrom/F28004x_ROM_dev/F2
    2711                      .dwattr $C$DW$182, DW_AT_TI_end_line(0x50c)
    2712                      .dwattr $C$DW$182, DW_AT_TI_end_column(0x01)
    2713                      .dwendentry
    2714                      .dwendtag $C$DW$182
    2715              
    2716 00000266               .sect   ".text"
    2717                      .clink
    2718                      .global _LIN_getConfigValue
    2719              
    2720              $C$DW$189       .dwtag  DW_TAG_subprogram, DW_AT_name("LIN_getConfigValue")
    2721                      .dwattr $C$DW$189, DW_AT_low_pc(_LIN_getConfigValue)
    2722                      .dwattr $C$DW$189, DW_AT_high_pc(0x00)
    2723                      .dwattr $C$DW$189, DW_AT_TI_symbol_name("_LIN_getConfigValue")
    2724                      .dwattr $C$DW$189, DW_AT_external
    2725                      .dwattr $C$DW$189, DW_AT_TI_begin_file("C:/work/grepos/c2000_bootROM/f28004x_bootrom/F28004x_ROM_dev/
    2726                      .dwattr $C$DW$189, DW_AT_TI_begin_line(0x524)
    2727                      .dwattr $C$DW$189, DW_AT_TI_begin_column(0x01)
    2728                      .dwattr $C$DW$189, DW_AT_TI_max_frame_size(-8)
    2729                      .dwpsn  file "C:/work/grepos/c2000_bootROM/f28004x_bootrom/F28004x_ROM_dev/F28004x_ROM/driverlib/lin_
    2730              
    2731                      .dwfde $C$DW$CIE, _LIN_getConfigValue
    2732              $C$DW$190       .dwtag  DW_TAG_formal_parameter, DW_AT_name("base")
    2733                      .dwattr $C$DW$190, DW_AT_TI_symbol_name("_base")
    2734                      .dwattr $C$DW$190, DW_AT_type(*$C$DW$T$19)
    2735                      .dwattr $C$DW$190, DW_AT_location[DW_OP_reg0]
    2736              $C$DW$191       .dwtag  DW_TAG_formal_parameter, DW_AT_name("configReg")
    2737                      .dwattr $C$DW$191, DW_AT_TI_symbol_name("_configReg")
    2738                      .dwattr $C$DW$191, DW_AT_type(*$C$DW$T$32)
    2739                      .dwattr $C$DW$191, DW_AT_location[DW_OP_reg12]
    2740              $C$DW$192       .dwtag  DW_TAG_formal_parameter, DW_AT_name("type")
    2741                      .dwattr $C$DW$192, DW_AT_TI_symbol_name("_type")
    2742                      .dwattr $C$DW$192, DW_AT_type(*$C$DW$T$28)
    2743                      .dwattr $C$DW$192, DW_AT_location[DW_OP_reg14]
    2744              
    2745              ;***************************************************************
    2746              ;* FNAME: _LIN_getConfigValue           FR SIZE:   6           *
    2747              ;*                                                             *
    2748              ;* FUNCTION ENVIRONMENT                                        *
    2749              ;*                                                             *
    2750              ;* FUNCTION PROPERTIES                                         *
    2751              ;*                            0 Parameter,  5 Auto,  0 SOE     *
    2752              ;***************************************************************
    2753              
    2754 00000266       _LIN_getConfigValue:
    2755                      .dwcfi  cfa_offset, -2
    2756                      .dwcfi  save_reg_to_mem, 26, 0
    2757                      .dwcfi  save_reg_to_reg, 78, 26
    2758 00000266 FE06          ADDB      SP,#6                 ; [CPU_U] 
    2759                      .dwcfi  cfa_offset, -8
    2760              $C$DW$193       .dwtag  DW_TAG_variable, DW_AT_name("base")
    2761                      .dwattr $C$DW$193, DW_AT_TI_symbol_name("_base")
    2762                      .dwattr $C$DW$193, DW_AT_type(*$C$DW$T$19)
TMS320C2000 Assembler PC v6.2.9 Tue Apr 14 13:32:51 2015

Tools Copyright (c) 1996-2014 Texas Instruments Incorporated
C:\Users\a0272466\AppData\Local\Temp\0802410                         PAGE   52

    2763                      .dwattr $C$DW$193, DW_AT_location[DW_OP_breg20 -2]
    2764              $C$DW$194       .dwtag  DW_TAG_variable, DW_AT_name("configReg")
    2765                      .dwattr $C$DW$194, DW_AT_TI_symbol_name("_configReg")
    2766                      .dwattr $C$DW$194, DW_AT_type(*$C$DW$T$32)
    2767                      .dwattr $C$DW$194, DW_AT_location[DW_OP_breg20 -4]
    2768              $C$DW$195       .dwtag  DW_TAG_variable, DW_AT_name("type")
    2769                      .dwattr $C$DW$195, DW_AT_TI_symbol_name("_type")
    2770                      .dwattr $C$DW$195, DW_AT_type(*$C$DW$T$28)
    2771                      .dwattr $C$DW$195, DW_AT_location[DW_OP_breg20 -5]
    2772 00000267 7D45          MOV       *-SP[5],AR5           ; [CPU_] |1318| 
    2773 00000268 A844          MOVL      *-SP[4],XAR4          ; [CPU_] |1318| 
    2774 00000269 1E42          MOVL      *-SP[2],ACC           ; [CPU_] |1318| 
    2775                      .dwpsn  file "C:/work/grepos/c2000_bootROM/f28004x_bootrom/F28004x_ROM_dev/F28004x_ROM/driverlib/lin_
    2776 0000026a 9245          MOV       AL,*-SP[5]            ; [CPU_] |1324| 
    2777 0000026b ED3D          BF        $C$L11,NEQ            ; [CPU_] |1324| 
    2778                      ; branchcc occurs ; [] |1324| 
    2779                      .dwpsn  file "C:/work/grepos/c2000_bootROM/f28004x_bootrom/F28004x_ROM_dev/F28004x_ROM/driverlib/lin_
    2780 0000026c 8A44          MOVL      XAR4,*-SP[4]          ; [CPU_] |1326| 
    2781 0000026d 0201          MOVB      ACC,#1                ; [CPU_] |1326| 
    2782 0000026e 1EC4          MOVL      *+XAR4[0],ACC         ; [CPU_] |1326| 
    2783                      .dwpsn  file "C:/work/grepos/c2000_bootROM/f28004x_bootrom/F28004x_ROM_dev/F28004x_ROM/driverlib/lin_
    2784 0000026f 8A44          MOVL      XAR4,*-SP[4]          ; [CPU_] |1327| 
    2785 00000270 28A9          MOV       AL,#7392              ; [CPU_] |1327| 
         00000271 1CE0 
    2786 00000272 28A8          MOV       AH,#768               ; [CPU_] |1327| 
         00000273 0300 
    2787 00000274 1ED4          MOVL      *+XAR4[2],ACC         ; [CPU_] |1327| 
    2788                      .dwpsn  file "C:/work/grepos/c2000_bootROM/f28004x_bootrom/F28004x_ROM_dev/F28004x_ROM/driverlib/lin_
    2789 00000275 8A44          MOVL      XAR4,*-SP[4]          ; [CPU_] |1328| 
    2790 00000276 0200          MOVB      ACC,#0                ; [CPU_] |1328| 
    2791 00000277 1EE4          MOVL      *+XAR4[4],ACC         ; [CPU_] |1328| 
    2792                      .dwpsn  file "C:/work/grepos/c2000_bootROM/f28004x_bootrom/F28004x_ROM_dev/F28004x_ROM/driverlib/lin_
    2793 00000278 8A44          MOVL      XAR4,*-SP[4]          ; [CPU_] |1329| 
    2794 00000279 1EF4          MOVL      *+XAR4[6],ACC         ; [CPU_] |1329| 
    2795                      .dwpsn  file "C:/work/grepos/c2000_bootROM/f28004x_bootrom/F28004x_ROM_dev/F28004x_ROM/driverlib/lin_
    2796 0000027a 8A44          MOVL      XAR4,*-SP[4]          ; [CPU_] |1330| 
    2797 0000027b D008          MOVB      XAR0,#8               ; [CPU_] |1330| 
    2798 0000027c 1E94          MOVL      *+XAR4[AR0],ACC       ; [CPU_] |1330| 
    2799                      .dwpsn  file "C:/work/grepos/c2000_bootROM/f28004x_bootrom/F28004x_ROM_dev/F28004x_ROM/driverlib/lin_
    2800 0000027d 8344          MOVL      XAR5,*-SP[4]          ; [CPU_] |1331| 
    2801 0000027e D00A          MOVB      XAR0,#10              ; [CPU_] |1331| 
    2802 0000027f 8F07          MOVL      XAR4,#458752          ; [CPU_U] |1331| 
         00000280 0000 
    2803 00000281 A895          MOVL      *+XAR5[AR0],XAR4      ; [CPU_] |1331| 
    2804                      .dwpsn  file "C:/work/grepos/c2000_bootROM/f28004x_bootrom/F28004x_ROM_dev/F28004x_ROM/driverlib/lin_
    2805 00000282 8344          MOVL      XAR5,*-SP[4]          ; [CPU_] |1332| 
    2806 00000283 D00C          MOVB      XAR0,#12              ; [CPU_] |1332| 
    2807 00000284 8F00          MOVL      XAR4,#280             ; [CPU_U] |1332| 
         00000285 0118 
    2808 00000286 A895          MOVL      *+XAR5[AR0],XAR4      ; [CPU_] |1332| 
    2809                      .dwpsn  file "C:/work/grepos/c2000_bootROM/f28004x_bootrom/F28004x_ROM_dev/F28004x_ROM/driverlib/lin_
    2810 00000287 8A44          MOVL      XAR4,*-SP[4]          ; [CPU_] |1333| 
    2811 00000288 D00E          MOVB      XAR0,#14              ; [CPU_] |1333| 
    2812 00000289 0206          MOVB      ACC,#6                ; [CPU_] |1333| 
    2813 0000028a 1E94          MOVL      *+XAR4[AR0],ACC       ; [CPU_] |1333| 
TMS320C2000 Assembler PC v6.2.9 Tue Apr 14 13:32:51 2015

Tools Copyright (c) 1996-2014 Texas Instruments Incorporated
C:\Users\a0272466\AppData\Local\Temp\0802410                         PAGE   53

    2814                      .dwpsn  file "C:/work/grepos/c2000_bootROM/f28004x_bootrom/F28004x_ROM_dev/F28004x_ROM/driverlib/lin_
    2815 0000028b 8A44          MOVL      XAR4,*-SP[4]          ; [CPU_] |1334| 
    2816 0000028c D010          MOVB      XAR0,#16              ; [CPU_] |1334| 
    2817 0000028d 0200          MOVB      ACC,#0                ; [CPU_] |1334| 
    2818 0000028e 1E94          MOVL      *+XAR4[AR0],ACC       ; [CPU_] |1334| 
    2819                      .dwpsn  file "C:/work/grepos/c2000_bootROM/f28004x_bootrom/F28004x_ROM_dev/F28004x_ROM/driverlib/lin_
    2820 0000028f 8A44          MOVL      XAR4,*-SP[4]          ; [CPU_] |1335| 
    2821 00000290 D012          MOVB      XAR0,#18              ; [CPU_] |1335| 
    2822 00000291 1E94          MOVL      *+XAR4[AR0],ACC       ; [CPU_] |1335| 
    2823                      .dwpsn  file "C:/work/grepos/c2000_bootROM/f28004x_bootrom/F28004x_ROM_dev/F28004x_ROM/driverlib/lin_
    2824 00000292 8A44          MOVL      XAR4,*-SP[4]          ; [CPU_] |1336| 
    2825 00000293 D014          MOVB      XAR0,#20              ; [CPU_] |1336| 
    2826 00000294 1E94          MOVL      *+XAR4[AR0],ACC       ; [CPU_] |1336| 
    2827                      .dwpsn  file "C:/work/grepos/c2000_bootROM/f28004x_bootrom/F28004x_ROM_dev/F28004x_ROM/driverlib/lin_
    2828 00000295 8A44          MOVL      XAR4,*-SP[4]          ; [CPU_] |1337| 
    2829 00000296 D016          MOVB      XAR0,#22              ; [CPU_] |1337| 
    2830 00000297 0207          MOVB      ACC,#7                ; [CPU_] |1337| 
    2831 00000298 1E94          MOVL      *+XAR4[AR0],ACC       ; [CPU_] |1337| 
    2832                      .dwpsn  file "C:/work/grepos/c2000_bootROM/f28004x_bootrom/F28004x_ROM_dev/F28004x_ROM/driverlib/lin_
    2833 00000299 8A44          MOVL      XAR4,*-SP[4]          ; [CPU_] |1338| 
    2834 0000029a D018          MOVB      XAR0,#24              ; [CPU_] |1338| 
    2835 0000029b 0200          MOVB      ACC,#0                ; [CPU_] |1338| 
    2836 0000029c 1E94          MOVL      *+XAR4[AR0],ACC       ; [CPU_] |1338| 
    2837                      .dwpsn  file "C:/work/grepos/c2000_bootROM/f28004x_bootrom/F28004x_ROM_dev/F28004x_ROM/driverlib/lin_
    2838 0000029d 8A44          MOVL      XAR4,*-SP[4]          ; [CPU_] |1339| 
    2839 0000029e 9AFF          MOV       AL,#255               ; [CPU_] |1339| 
    2840 0000029f 9BFF          MOV       AH,#255               ; [CPU_] |1339| 
    2841 000002a0 D01A          MOVB      XAR0,#26              ; [CPU_] |1339| 
    2842 000002a1 1E94          MOVL      *+XAR4[AR0],ACC       ; [CPU_] |1339| 
    2843                      .dwpsn  file "C:/work/grepos/c2000_bootROM/f28004x_bootrom/F28004x_ROM_dev/F28004x_ROM/driverlib/lin_
    2844 000002a2 8344          MOVL      XAR5,*-SP[4]          ; [CPU_] |1340| 
    2845 000002a3 D01C          MOVB      XAR0,#28              ; [CPU_] |1340| 
    2846 000002a4 8F00          MOVL      XAR4,#4046            ; [CPU_U] |1340| 
         000002a5 0FCE 
    2847 000002a6 A895          MOVL      *+XAR5[AR0],XAR4      ; [CPU_] |1340| 
    2848                      .dwpsn  file "C:/work/grepos/c2000_bootROM/f28004x_bootrom/F28004x_ROM_dev/F28004x_ROM/driverlib/lin_
    2849 000002a7 6F64          B         $C$L12,UNC            ; [CPU_] |1341| 
    2850                      ; branch occurs ; [] |1341| 
    2851 000002a8       $C$L11:    
    2852                      .dwpsn  file "C:/work/grepos/c2000_bootROM/f28004x_bootrom/F28004x_ROM_dev/F28004x_ROM/driverlib/lin_
    2853 000002a8 8A42          MOVL      XAR4,*-SP[2]          ; [CPU_] |1344| 
    2854 000002a9 8344          MOVL      XAR5,*-SP[4]          ; [CPU_] |1344| 
    2855 000002aa 06C4          MOVL      ACC,*+XAR4[0]         ; [CPU_] |1344| 
    2856 000002ab 1EC5          MOVL      *+XAR5[0],ACC         ; [CPU_] |1344| 
    2857                      .dwpsn  file "C:/work/grepos/c2000_bootROM/f28004x_bootrom/F28004x_ROM_dev/F28004x_ROM/driverlib/lin_
    2858 000002ac 0204          MOVB      ACC,#4                ; [CPU_] |1345| 
    2859 000002ad 8344          MOVL      XAR5,*-SP[4]          ; [CPU_] |1345| 
    2860 000002ae 0742          ADDL      ACC,*-SP[2]           ; [CPU_] |1345| 
    2861 000002af 8AA9          MOVL      XAR4,ACC              ; [CPU_] |1345| 
    2862 000002b0 06C4          MOVL      ACC,*+XAR4[0]         ; [CPU_] |1345| 
    2863 000002b1 1ED5          MOVL      *+XAR5[2],ACC         ; [CPU_] |1345| 
    2864                      .dwpsn  file "C:/work/grepos/c2000_bootROM/f28004x_bootrom/F28004x_ROM_dev/F28004x_ROM/driverlib/lin_
    2865 000002b2 0208          MOVB      ACC,#8                ; [CPU_] |1346| 
    2866 000002b3 8344          MOVL      XAR5,*-SP[4]          ; [CPU_] |1346| 
    2867 000002b4 0742          ADDL      ACC,*-SP[2]           ; [CPU_] |1346| 
TMS320C2000 Assembler PC v6.2.9 Tue Apr 14 13:32:51 2015

Tools Copyright (c) 1996-2014 Texas Instruments Incorporated
C:\Users\a0272466\AppData\Local\Temp\0802410                         PAGE   54

    2868 000002b5 8AA9          MOVL      XAR4,ACC              ; [CPU_] |1346| 
    2869 000002b6 06C4          MOVL      ACC,*+XAR4[0]         ; [CPU_] |1346| 
    2870 000002b7 1EE5          MOVL      *+XAR5[4],ACC         ; [CPU_] |1346| 
    2871                      .dwpsn  file "C:/work/grepos/c2000_bootROM/f28004x_bootrom/F28004x_ROM_dev/F28004x_ROM/driverlib/lin_
    2872 000002b8 020C          MOVB      ACC,#12               ; [CPU_] |1347| 
    2873 000002b9 8344          MOVL      XAR5,*-SP[4]          ; [CPU_] |1347| 
    2874 000002ba 0742          ADDL      ACC,*-SP[2]           ; [CPU_] |1347| 
    2875 000002bb 8AA9          MOVL      XAR4,ACC              ; [CPU_] |1347| 
    2876 000002bc 06C4          MOVL      ACC,*+XAR4[0]         ; [CPU_] |1347| 
    2877 000002bd 1EF5          MOVL      *+XAR5[6],ACC         ; [CPU_] |1347| 
    2878                      .dwpsn  file "C:/work/grepos/c2000_bootROM/f28004x_bootrom/F28004x_ROM_dev/F28004x_ROM/driverlib/lin_
    2879 000002be D008          MOVB      XAR0,#8               ; [CPU_] |1348| 
    2880 000002bf 0214          MOVB      ACC,#20               ; [CPU_] |1348| 
    2881 000002c0 8344          MOVL      XAR5,*-SP[4]          ; [CPU_] |1348| 
    2882 000002c1 0742          ADDL      ACC,*-SP[2]           ; [CPU_] |1348| 
    2883 000002c2 8AA9          MOVL      XAR4,ACC              ; [CPU_] |1348| 
    2884 000002c3 06C4          MOVL      ACC,*+XAR4[0]         ; [CPU_] |1348| 
    2885 000002c4 1E95          MOVL      *+XAR5[AR0],ACC       ; [CPU_] |1348| 
    2886                      .dwpsn  file "C:/work/grepos/c2000_bootROM/f28004x_bootrom/F28004x_ROM_dev/F28004x_ROM/driverlib/lin_
    2887 000002c5 0228          MOVB      ACC,#40               ; [CPU_] |1349| 
    2888 000002c6 D00A          MOVB      XAR0,#10              ; [CPU_] |1349| 
    2889 000002c7 8344          MOVL      XAR5,*-SP[4]          ; [CPU_] |1349| 
    2890 000002c8 0742          ADDL      ACC,*-SP[2]           ; [CPU_] |1349| 
    2891 000002c9 8AA9          MOVL      XAR4,ACC              ; [CPU_] |1349| 
    2892 000002ca 06C4          MOVL      ACC,*+XAR4[0]         ; [CPU_] |1349| 
    2893 000002cb 1E95          MOVL      *+XAR5[AR0],ACC       ; [CPU_] |1349| 
    2894                      .dwpsn  file "C:/work/grepos/c2000_bootROM/f28004x_bootrom/F28004x_ROM_dev/F28004x_ROM/driverlib/lin_
    2895 000002cc 022C          MOVB      ACC,#44               ; [CPU_] |1350| 
    2896 000002cd D00C          MOVB      XAR0,#12              ; [CPU_] |1350| 
    2897 000002ce 8344          MOVL      XAR5,*-SP[4]          ; [CPU_] |1350| 
    2898 000002cf 0742          ADDL      ACC,*-SP[2]           ; [CPU_] |1350| 
    2899 000002d0 8AA9          MOVL      XAR4,ACC              ; [CPU_] |1350| 
    2900 000002d1 06C4          MOVL      ACC,*+XAR4[0]         ; [CPU_] |1350| 
    2901 000002d2 1E95          MOVL      *+XAR5[AR0],ACC       ; [CPU_] |1350| 
    2902                      .dwpsn  file "C:/work/grepos/c2000_bootROM/f28004x_bootrom/F28004x_ROM_dev/F28004x_ROM/driverlib/lin_
    2903 000002d3 023C          MOVB      ACC,#60               ; [CPU_] |1351| 
    2904 000002d4 D00E          MOVB      XAR0,#14              ; [CPU_] |1351| 
    2905 000002d5 8344          MOVL      XAR5,*-SP[4]          ; [CPU_] |1351| 
    2906 000002d6 0742          ADDL      ACC,*-SP[2]           ; [CPU_] |1351| 
    2907 000002d7 8AA9          MOVL      XAR4,ACC              ; [CPU_] |1351| 
    2908 000002d8 06C4          MOVL      ACC,*+XAR4[0]         ; [CPU_] |1351| 
    2909 000002d9 1E95          MOVL      *+XAR5[AR0],ACC       ; [CPU_] |1351| 
    2910                      .dwpsn  file "C:/work/grepos/c2000_bootROM/f28004x_bootrom/F28004x_ROM_dev/F28004x_ROM/driverlib/lin_
    2911 000002da 0240          MOVB      ACC,#64               ; [CPU_] |1352| 
    2912 000002db D010          MOVB      XAR0,#16              ; [CPU_] |1352| 
    2913 000002dc 8344          MOVL      XAR5,*-SP[4]          ; [CPU_] |1352| 
    2914 000002dd 0742          ADDL      ACC,*-SP[2]           ; [CPU_] |1352| 
    2915 000002de 8AA9          MOVL      XAR4,ACC              ; [CPU_] |1352| 
    2916 000002df 06C4          MOVL      ACC,*+XAR4[0]         ; [CPU_] |1352| 
    2917 000002e0 1E95          MOVL      *+XAR5[AR0],ACC       ; [CPU_] |1352| 
    2918                      .dwpsn  file "C:/work/grepos/c2000_bootROM/f28004x_bootrom/F28004x_ROM_dev/F28004x_ROM/driverlib/lin_
    2919 000002e1 0254          MOVB      ACC,#84               ; [CPU_] |1353| 
    2920 000002e2 D012          MOVB      XAR0,#18              ; [CPU_] |1353| 
    2921 000002e3 8344          MOVL      XAR5,*-SP[4]          ; [CPU_] |1353| 
    2922 000002e4 0742          ADDL      ACC,*-SP[2]           ; [CPU_] |1353| 
TMS320C2000 Assembler PC v6.2.9 Tue Apr 14 13:32:51 2015

Tools Copyright (c) 1996-2014 Texas Instruments Incorporated
C:\Users\a0272466\AppData\Local\Temp\0802410                         PAGE   55

    2923 000002e5 8AA9          MOVL      XAR4,ACC              ; [CPU_] |1353| 
    2924 000002e6 06C4          MOVL      ACC,*+XAR4[0]         ; [CPU_] |1353| 
    2925 000002e7 1E95          MOVL      *+XAR5[AR0],ACC       ; [CPU_] |1353| 
    2926                      .dwpsn  file "C:/work/grepos/c2000_bootROM/f28004x_bootrom/F28004x_ROM_dev/F28004x_ROM/driverlib/lin_
    2927 000002e8 0258          MOVB      ACC,#88               ; [CPU_] |1354| 
    2928 000002e9 D014          MOVB      XAR0,#20              ; [CPU_] |1354| 
    2929 000002ea 8344          MOVL      XAR5,*-SP[4]          ; [CPU_] |1354| 
    2930 000002eb 0742          ADDL      ACC,*-SP[2]           ; [CPU_] |1354| 
    2931 000002ec 8AA9          MOVL      XAR4,ACC              ; [CPU_] |1354| 
    2932 000002ed 06C4          MOVL      ACC,*+XAR4[0]         ; [CPU_] |1354| 
    2933 000002ee 1E95          MOVL      *+XAR5[AR0],ACC       ; [CPU_] |1354| 
    2934                      .dwpsn  file "C:/work/grepos/c2000_bootROM/f28004x_bootrom/F28004x_ROM_dev/F28004x_ROM/driverlib/lin_
    2935 000002ef 025C          MOVB      ACC,#92               ; [CPU_] |1355| 
    2936 000002f0 D016          MOVB      XAR0,#22              ; [CPU_] |1355| 
    2937 000002f1 8344          MOVL      XAR5,*-SP[4]          ; [CPU_] |1355| 
    2938 000002f2 0742          ADDL      ACC,*-SP[2]           ; [CPU_] |1355| 
    2939 000002f3 8AA9          MOVL      XAR4,ACC              ; [CPU_] |1355| 
    2940 000002f4 06C4          MOVL      ACC,*+XAR4[0]         ; [CPU_] |1355| 
    2941 000002f5 1E95          MOVL      *+XAR5[AR0],ACC       ; [CPU_] |1355| 
    2942                      .dwpsn  file "C:/work/grepos/c2000_bootROM/f28004x_bootrom/F28004x_ROM_dev/F28004x_ROM/driverlib/lin_
    2943 000002f6 0260          MOVB      ACC,#96               ; [CPU_] |1356| 
    2944 000002f7 D018          MOVB      XAR0,#24              ; [CPU_] |1356| 
    2945 000002f8 8344          MOVL      XAR5,*-SP[4]          ; [CPU_] |1356| 
    2946 000002f9 0742          ADDL      ACC,*-SP[2]           ; [CPU_] |1356| 
    2947 000002fa 8AA9          MOVL      XAR4,ACC              ; [CPU_] |1356| 
    2948 000002fb 06C4          MOVL      ACC,*+XAR4[0]         ; [CPU_] |1356| 
    2949 000002fc 1E95          MOVL      *+XAR5[AR0],ACC       ; [CPU_] |1356| 
    2950                      .dwpsn  file "C:/work/grepos/c2000_bootROM/f28004x_bootrom/F28004x_ROM_dev/F28004x_ROM/driverlib/lin_
    2951 000002fd 026C          MOVB      ACC,#108              ; [CPU_] |1357| 
    2952 000002fe D01A          MOVB      XAR0,#26              ; [CPU_] |1357| 
    2953 000002ff 8344          MOVL      XAR5,*-SP[4]          ; [CPU_] |1357| 
    2954 00000300 0742          ADDL      ACC,*-SP[2]           ; [CPU_] |1357| 
    2955 00000301 8AA9          MOVL      XAR4,ACC              ; [CPU_] |1357| 
    2956 00000302 06C4          MOVL      ACC,*+XAR4[0]         ; [CPU_] |1357| 
    2957 00000303 1E95          MOVL      *+XAR5[AR0],ACC       ; [CPU_] |1357| 
    2958                      .dwpsn  file "C:/work/grepos/c2000_bootROM/f28004x_bootrom/F28004x_ROM_dev/F28004x_ROM/driverlib/lin_
    2959 00000304 027C          MOVB      ACC,#124              ; [CPU_] |1358| 
    2960 00000305 D01C          MOVB      XAR0,#28              ; [CPU_] |1358| 
    2961 00000306 8344          MOVL      XAR5,*-SP[4]          ; [CPU_] |1358| 
    2962 00000307 0742          ADDL      ACC,*-SP[2]           ; [CPU_] |1358| 
    2963 00000308 8AA9          MOVL      XAR4,ACC              ; [CPU_] |1358| 
    2964 00000309 06C4          MOVL      ACC,*+XAR4[0]         ; [CPU_] |1358| 
    2965 0000030a 1E95          MOVL      *+XAR5[AR0],ACC       ; [CPU_] |1358| 
    2966                      .dwpsn  file "C:/work/grepos/c2000_bootROM/f28004x_bootrom/F28004x_ROM_dev/F28004x_ROM/driverlib/lin_
    2967 0000030b       $C$L12:    
    2968 0000030b FE86          SUBB      SP,#6                 ; [CPU_U] 
    2969                      .dwcfi  cfa_offset, -2
    2970              $C$DW$196       .dwtag  DW_TAG_TI_branch
    2971                      .dwattr $C$DW$196, DW_AT_low_pc(0x00)
    2972                      .dwattr $C$DW$196, DW_AT_TI_return
    2973 0000030c 0006          LRETR     ; [CPU_] 
    2974                      ; return occurs ; [] 
    2975                      .dwattr $C$DW$189, DW_AT_TI_end_file("C:/work/grepos/c2000_bootROM/f28004x_bootrom/F28004x_ROM_dev/F2
    2976                      .dwattr $C$DW$189, DW_AT_TI_end_line(0x550)
    2977                      .dwattr $C$DW$189, DW_AT_TI_end_column(0x01)
TMS320C2000 Assembler PC v6.2.9 Tue Apr 14 13:32:51 2015

Tools Copyright (c) 1996-2014 Texas Instruments Incorporated
C:\Users\a0272466\AppData\Local\Temp\0802410                         PAGE   56

    2978                      .dwendentry
    2979                      .dwendtag $C$DW$189
    2980              
    2981 0000030d               .sect   ".text"
    2982                      .clink
    2983                      .global _LIN_getInterruptOffset
    2984              
    2985              $C$DW$197       .dwtag  DW_TAG_subprogram, DW_AT_name("LIN_getInterruptOffset")
    2986                      .dwattr $C$DW$197, DW_AT_low_pc(_LIN_getInterruptOffset)
    2987                      .dwattr $C$DW$197, DW_AT_high_pc(0x00)
    2988                      .dwattr $C$DW$197, DW_AT_TI_symbol_name("_LIN_getInterruptOffset")
    2989                      .dwattr $C$DW$197, DW_AT_external
    2990                      .dwattr $C$DW$197, DW_AT_type(*$C$DW$T$19)
    2991                      .dwattr $C$DW$197, DW_AT_TI_begin_file("C:/work/grepos/c2000_bootROM/f28004x_bootrom/F28004x_ROM_dev/
    2992                      .dwattr $C$DW$197, DW_AT_TI_begin_line(0x56a)
    2993                      .dwattr $C$DW$197, DW_AT_TI_begin_column(0x01)
    2994                      .dwattr $C$DW$197, DW_AT_TI_max_frame_size(-8)
    2995                      .dwpsn  file "C:/work/grepos/c2000_bootROM/f28004x_bootrom/F28004x_ROM_dev/F28004x_ROM/driverlib/lin_
    2996              
    2997                      .dwfde $C$DW$CIE, _LIN_getInterruptOffset
    2998              $C$DW$198       .dwtag  DW_TAG_formal_parameter, DW_AT_name("base")
    2999                      .dwattr $C$DW$198, DW_AT_TI_symbol_name("_base")
    3000                      .dwattr $C$DW$198, DW_AT_type(*$C$DW$T$19)
    3001                      .dwattr $C$DW$198, DW_AT_location[DW_OP_reg0]
    3002              $C$DW$199       .dwtag  DW_TAG_formal_parameter, DW_AT_name("line")
    3003                      .dwattr $C$DW$199, DW_AT_TI_symbol_name("_line")
    3004                      .dwattr $C$DW$199, DW_AT_type(*$C$DW$T$30)
    3005                      .dwattr $C$DW$199, DW_AT_location[DW_OP_reg12]
    3006              
    3007              ;***************************************************************
    3008              ;* FNAME: _LIN_getInterruptOffset       FR SIZE:   6           *
    3009              ;*                                                             *
    3010              ;* FUNCTION ENVIRONMENT                                        *
    3011              ;*                                                             *
    3012              ;* FUNCTION PROPERTIES                                         *
    3013              ;*                            0 Parameter,  6 Auto,  0 SOE     *
    3014              ;***************************************************************
    3015              
    3016 0000030d       _LIN_getInterruptOffset:
    3017                      .dwcfi  cfa_offset, -2
    3018                      .dwcfi  save_reg_to_mem, 26, 0
    3019                      .dwcfi  save_reg_to_reg, 78, 26
    3020 0000030d FE06          ADDB      SP,#6                 ; [CPU_U] 
    3021                      .dwcfi  cfa_offset, -8
    3022              $C$DW$200       .dwtag  DW_TAG_variable, DW_AT_name("base")
    3023                      .dwattr $C$DW$200, DW_AT_TI_symbol_name("_base")
    3024                      .dwattr $C$DW$200, DW_AT_type(*$C$DW$T$19)
    3025                      .dwattr $C$DW$200, DW_AT_location[DW_OP_breg20 -2]
    3026              $C$DW$201       .dwtag  DW_TAG_variable, DW_AT_name("line")
    3027                      .dwattr $C$DW$201, DW_AT_TI_symbol_name("_line")
    3028                      .dwattr $C$DW$201, DW_AT_type(*$C$DW$T$30)
    3029                      .dwattr $C$DW$201, DW_AT_location[DW_OP_breg20 -3]
    3030              $C$DW$202       .dwtag  DW_TAG_variable, DW_AT_name("offset")
    3031                      .dwattr $C$DW$202, DW_AT_TI_symbol_name("_offset")
    3032                      .dwattr $C$DW$202, DW_AT_type(*$C$DW$T$19)
TMS320C2000 Assembler PC v6.2.9 Tue Apr 14 13:32:51 2015

Tools Copyright (c) 1996-2014 Texas Instruments Incorporated
C:\Users\a0272466\AppData\Local\Temp\0802410                         PAGE   57

    3033                      .dwattr $C$DW$202, DW_AT_location[DW_OP_breg20 -6]
    3034 0000030e 7C43          MOV       *-SP[3],AR4           ; [CPU_] |1387| 
    3035 0000030f 1E42          MOVL      *-SP[2],ACC           ; [CPU_] |1387| 
    3036                      .dwpsn  file "C:/work/grepos/c2000_bootROM/f28004x_bootrom/F28004x_ROM_dev/F28004x_ROM/driverlib/lin_
    3037 00000310 9243          MOV       AL,*-SP[3]            ; [CPU_] |1398| 
    3038 00000311 ED09          BF        $C$L13,NEQ            ; [CPU_] |1398| 
    3039                      ; branchcc occurs ; [] |1398| 
    3040                      .dwpsn  file "C:/work/grepos/c2000_bootROM/f28004x_bootrom/F28004x_ROM_dev/F28004x_ROM/driverlib/lin_
    3041 00000312 0220          MOVB      ACC,#32               ; [CPU_] |1400| 
    3042 00000313 0742          ADDL      ACC,*-SP[2]           ; [CPU_] |1400| 
    3043 00000314 8AA9          MOVL      XAR4,ACC              ; [CPU_] |1400| 
    3044 00000315 92C4          MOV       AL,*+XAR4[0]          ; [CPU_] |1400| 
    3045 00000316 901F          ANDB      AL,#0x1f              ; [CPU_] |1400| 
    3046 00000317 0EA9          MOVU      ACC,AL                ; [CPU_] |1400| 
    3047 00000318 1E46          MOVL      *-SP[6],ACC           ; [CPU_] |1400| 
    3048                      .dwpsn  file "C:/work/grepos/c2000_bootROM/f28004x_bootrom/F28004x_ROM_dev/F28004x_ROM/driverlib/lin_
    3049 00000319 6F08          B         $C$L14,UNC            ; [CPU_] |1401| 
    3050                      ; branch occurs ; [] |1401| 
    3051 0000031a       $C$L13:    
    3052                      .dwpsn  file "C:/work/grepos/c2000_bootROM/f28004x_bootrom/F28004x_ROM_dev/F28004x_ROM/driverlib/lin_
    3053 0000031a 0224          MOVB      ACC,#36               ; [CPU_] |1404| 
    3054 0000031b 0742          ADDL      ACC,*-SP[2]           ; [CPU_] |1404| 
    3055 0000031c 8AA9          MOVL      XAR4,ACC              ; [CPU_] |1404| 
    3056 0000031d 92C4          MOV       AL,*+XAR4[0]          ; [CPU_] |1404| 
    3057 0000031e 901F          ANDB      AL,#0x1f              ; [CPU_] |1404| 
    3058 0000031f 0EA9          MOVU      ACC,AL                ; [CPU_] |1404| 
    3059 00000320 1E46          MOVL      *-SP[6],ACC           ; [CPU_] |1404| 
    3060 00000321       $C$L14:    
    3061                      .dwpsn  file "C:/work/grepos/c2000_bootROM/f28004x_bootrom/F28004x_ROM_dev/F28004x_ROM/driverlib/lin_
    3062 00000321 0646          MOVL      ACC,*-SP[6]           ; [CPU_] |1407| 
    3063                      .dwpsn  file "C:/work/grepos/c2000_bootROM/f28004x_bootrom/F28004x_ROM_dev/F28004x_ROM/driverlib/lin_
    3064 00000322 FE86          SUBB      SP,#6                 ; [CPU_U] 
    3065                      .dwcfi  cfa_offset, -2
    3066              $C$DW$203       .dwtag  DW_TAG_TI_branch
    3067                      .dwattr $C$DW$203, DW_AT_low_pc(0x00)
    3068                      .dwattr $C$DW$203, DW_AT_TI_return
    3069 00000323 0006          LRETR     ; [CPU_] 
    3070                      ; return occurs ; [] 
    3071                      .dwattr $C$DW$197, DW_AT_TI_end_file("C:/work/grepos/c2000_bootROM/f28004x_bootrom/F28004x_ROM_dev/F2
    3072                      .dwattr $C$DW$197, DW_AT_TI_end_line(0x580)
    3073                      .dwattr $C$DW$197, DW_AT_TI_end_column(0x01)
    3074                      .dwendentry
    3075                      .dwendtag $C$DW$197
    3076              
    3077 00000324               .sect   ".text"
    3078                      .clink
    3079                      .global _LIN_enableMultibufferMode
    3080              
    3081              $C$DW$204       .dwtag  DW_TAG_subprogram, DW_AT_name("LIN_enableMultibufferMode")
    3082                      .dwattr $C$DW$204, DW_AT_low_pc(_LIN_enableMultibufferMode)
    3083                      .dwattr $C$DW$204, DW_AT_high_pc(0x00)
    3084                      .dwattr $C$DW$204, DW_AT_TI_symbol_name("_LIN_enableMultibufferMode")
    3085                      .dwattr $C$DW$204, DW_AT_external
    3086                      .dwattr $C$DW$204, DW_AT_TI_begin_file("C:/work/grepos/c2000_bootROM/f28004x_bootrom/F28004x_ROM_dev/
    3087                      .dwattr $C$DW$204, DW_AT_TI_begin_line(0x58e)
TMS320C2000 Assembler PC v6.2.9 Tue Apr 14 13:32:51 2015

Tools Copyright (c) 1996-2014 Texas Instruments Incorporated
C:\Users\a0272466\AppData\Local\Temp\0802410                         PAGE   58

    3088                      .dwattr $C$DW$204, DW_AT_TI_begin_column(0x01)
    3089                      .dwattr $C$DW$204, DW_AT_TI_max_frame_size(-4)
    3090                      .dwpsn  file "C:/work/grepos/c2000_bootROM/f28004x_bootrom/F28004x_ROM_dev/F28004x_ROM/driverlib/lin_
    3091              
    3092                      .dwfde $C$DW$CIE, _LIN_enableMultibufferMode
    3093              $C$DW$205       .dwtag  DW_TAG_formal_parameter, DW_AT_name("base")
    3094                      .dwattr $C$DW$205, DW_AT_TI_symbol_name("_base")
    3095                      .dwattr $C$DW$205, DW_AT_type(*$C$DW$T$19)
    3096                      .dwattr $C$DW$205, DW_AT_location[DW_OP_reg0]
    3097              
    3098              ;***************************************************************
    3099              ;* FNAME: _LIN_enableMultibufferMode    FR SIZE:   2           *
    3100              ;*                                                             *
    3101              ;* FUNCTION ENVIRONMENT                                        *
    3102              ;*                                                             *
    3103              ;* FUNCTION PROPERTIES                                         *
    3104              ;*                            0 Parameter,  2 Auto,  0 SOE     *
    3105              ;***************************************************************
    3106              
    3107 00000324       _LIN_enableMultibufferMode:
    3108                      .dwcfi  cfa_offset, -2
    3109                      .dwcfi  save_reg_to_mem, 26, 0
    3110                      .dwcfi  save_reg_to_reg, 78, 26
    3111 00000324 FE02          ADDB      SP,#2                 ; [CPU_U] 
    3112                      .dwcfi  cfa_offset, -4
    3113              $C$DW$206       .dwtag  DW_TAG_variable, DW_AT_name("base")
    3114                      .dwattr $C$DW$206, DW_AT_TI_symbol_name("_base")
    3115                      .dwattr $C$DW$206, DW_AT_type(*$C$DW$T$19)
    3116                      .dwattr $C$DW$206, DW_AT_location[DW_OP_breg20 -2]
    3117 00000325 1E42          MOVL      *-SP[2],ACC           ; [CPU_] |1423| 
    3118                      .dwpsn  file "C:/work/grepos/c2000_bootROM/f28004x_bootrom/F28004x_ROM_dev/F28004x_ROM/driverlib/lin_
    3119 00000326 0204          MOVB      ACC,#4                ; [CPU_] |1429| 
    3120 00000327 0742          ADDL      ACC,*-SP[2]           ; [CPU_] |1429| 
    3121 00000328 8AA9          MOVL      XAR4,ACC              ; [CPU_] |1429| 
    3122 00000329 1AC4          OR        *+XAR4[0],#0x0400     ; [CPU_] |1429| 
         0000032a 0400 
    3123                      .dwpsn  file "C:/work/grepos/c2000_bootROM/f28004x_bootrom/F28004x_ROM_dev/F28004x_ROM/driverlib/lin_
    3124 0000032b FE82          SUBB      SP,#2                 ; [CPU_U] 
    3125                      .dwcfi  cfa_offset, -2
    3126              $C$DW$207       .dwtag  DW_TAG_TI_branch
    3127                      .dwattr $C$DW$207, DW_AT_low_pc(0x00)
    3128                      .dwattr $C$DW$207, DW_AT_TI_return
    3129 0000032c 0006          LRETR     ; [CPU_] 
    3130                      ; return occurs ; [] 
    3131                      .dwattr $C$DW$204, DW_AT_TI_end_file("C:/work/grepos/c2000_bootROM/f28004x_bootrom/F28004x_ROM_dev/F2
    3132                      .dwattr $C$DW$204, DW_AT_TI_end_line(0x596)
    3133                      .dwattr $C$DW$204, DW_AT_TI_end_column(0x01)
    3134                      .dwendentry
    3135                      .dwendtag $C$DW$204
    3136              
    3137 0000032d               .sect   ".text"
    3138                      .clink
    3139                      .global _LIN_disableMultibufferMode
    3140              
    3141              $C$DW$208       .dwtag  DW_TAG_subprogram, DW_AT_name("LIN_disableMultibufferMode")
TMS320C2000 Assembler PC v6.2.9 Tue Apr 14 13:32:51 2015

