TMS320C2000 Assembler PC v6.2.9 Tue Apr 14 13:33:08 2015

Tools Copyright (c) 1996-2014 Texas Instruments Incorporated
C:\Users\a0272466\AppData\Local\Temp\0769210                         PAGE    1

       1              ;***************************************************************
       2              ;* TMS320C2000 C/C++ Codegen                         PC v6.2.9 *
       3              ;* Date/Time created: Tue Apr 14 13:33:05 2015                 *
       4              ;***************************************************************
       5                      .compiler_opts --cla_support=cla0 --float_support=fpu32 --hll_source=on --mem_model:code=flat --mem_m
       6        0002  FP      .set    XAR2
       7              
       8              $C$DW$CU        .dwtag  DW_TAG_compile_unit
       9                      .dwattr $C$DW$CU, DW_AT_name("C:/work/grepos/c2000_bootROM/f28004x_bootrom/F28004x_ROM_dev/F28004x_RO
      10                      .dwattr $C$DW$CU, DW_AT_producer("TMS320C2000 C/C++ Codegen PC v6.2.9 Copyright (c) 1996-2014 Texas I
      11                      .dwattr $C$DW$CU, DW_AT_TI_version(0x01)
      12                      .dwattr $C$DW$CU, DW_AT_comp_dir("C:\work\grepos\c2000_bootROM\f28004x_bootrom\F28004x_ROM_dev\ccs_fi
      13              
      14              $C$DW$1 .dwtag  DW_TAG_subprogram, DW_AT_name("Interrupt_enable")
      15                      .dwattr $C$DW$1, DW_AT_TI_symbol_name("_Interrupt_enable")
      16                      .dwattr $C$DW$1, DW_AT_declaration
      17                      .dwattr $C$DW$1, DW_AT_external
      18              $C$DW$2 .dwtag  DW_TAG_formal_parameter
      19                      .dwattr $C$DW$2, DW_AT_type(*$C$DW$T$37)
      20                      .dwendtag $C$DW$1
      21              
      22              
      23              $C$DW$3 .dwtag  DW_TAG_subprogram, DW_AT_name("Interrupt_disable")
      24                      .dwattr $C$DW$3, DW_AT_TI_symbol_name("_Interrupt_disable")
      25                      .dwattr $C$DW$3, DW_AT_declaration
      26                      .dwattr $C$DW$3, DW_AT_external
      27              $C$DW$4 .dwtag  DW_TAG_formal_parameter
      28                      .dwattr $C$DW$4, DW_AT_type(*$C$DW$T$37)
      29                      .dwendtag $C$DW$3
      30              
      31              
      32              $C$DW$5 .dwtag  DW_TAG_subprogram, DW_AT_name("__byte")
      33                      .dwattr $C$DW$5, DW_AT_TI_symbol_name("___byte")
      34                      .dwattr $C$DW$5, DW_AT_type(*$C$DW$T$54)
      35                      .dwattr $C$DW$5, DW_AT_declaration
      36                      .dwattr $C$DW$5, DW_AT_external
      37              $C$DW$6 .dwtag  DW_TAG_formal_parameter
      38                      .dwattr $C$DW$6, DW_AT_type(*$C$DW$T$54)
      39              $C$DW$7 .dwtag  DW_TAG_formal_parameter
      40                      .dwattr $C$DW$7, DW_AT_type(*$C$DW$T$11)
      41                      .dwendtag $C$DW$5
      42              
      43 00000000               .sect   ".econst:_PMBUS_crc8Table"
      44                      .clink
      45                      .align  1
      46 00000000       _PMBUS_crc8Table:
      47 00000000 0000          .bits   0,16                    ; _PMBUS_crc8Table[0] @ 0
      48 00000001 0007          .bits   7,16                    ; _PMBUS_crc8Table[1] @ 16
      49 00000002 000E          .bits   14,16                   ; _PMBUS_crc8Table[2] @ 32
      50 00000003 0009          .bits   9,16                    ; _PMBUS_crc8Table[3] @ 48
      51 00000004 001C          .bits   28,16                   ; _PMBUS_crc8Table[4] @ 64
      52 00000005 001B          .bits   27,16                   ; _PMBUS_crc8Table[5] @ 80
      53 00000006 0012          .bits   18,16                   ; _PMBUS_crc8Table[6] @ 96
      54 00000007 0015          .bits   21,16                   ; _PMBUS_crc8Table[7] @ 112
      55 00000008 0038          .bits   56,16                   ; _PMBUS_crc8Table[8] @ 128
TMS320C2000 Assembler PC v6.2.9 Tue Apr 14 13:33:08 2015

Tools Copyright (c) 1996-2014 Texas Instruments Incorporated
C:\Users\a0272466\AppData\Local\Temp\0769210                         PAGE    2

      56 00000009 003F          .bits   63,16                   ; _PMBUS_crc8Table[9] @ 144
      57 0000000a 0036          .bits   54,16                   ; _PMBUS_crc8Table[10] @ 160
      58 0000000b 0031          .bits   49,16                   ; _PMBUS_crc8Table[11] @ 176
      59 0000000c 0024          .bits   36,16                   ; _PMBUS_crc8Table[12] @ 192
      60 0000000d 0023          .bits   35,16                   ; _PMBUS_crc8Table[13] @ 208
      61 0000000e 002A          .bits   42,16                   ; _PMBUS_crc8Table[14] @ 224
      62 0000000f 002D          .bits   45,16                   ; _PMBUS_crc8Table[15] @ 240
      63 00000010 0070          .bits   112,16                  ; _PMBUS_crc8Table[16] @ 256
      64 00000011 0077          .bits   119,16                  ; _PMBUS_crc8Table[17] @ 272
      65 00000012 007E          .bits   126,16                  ; _PMBUS_crc8Table[18] @ 288
      66 00000013 0079          .bits   121,16                  ; _PMBUS_crc8Table[19] @ 304
      67 00000014 006C          .bits   108,16                  ; _PMBUS_crc8Table[20] @ 320
      68 00000015 006B          .bits   107,16                  ; _PMBUS_crc8Table[21] @ 336
      69 00000016 0062          .bits   98,16                   ; _PMBUS_crc8Table[22] @ 352
      70 00000017 0065          .bits   101,16                  ; _PMBUS_crc8Table[23] @ 368
      71 00000018 0048          .bits   72,16                   ; _PMBUS_crc8Table[24] @ 384
      72 00000019 004F          .bits   79,16                   ; _PMBUS_crc8Table[25] @ 400
      73 0000001a 0046          .bits   70,16                   ; _PMBUS_crc8Table[26] @ 416
      74 0000001b 0041          .bits   65,16                   ; _PMBUS_crc8Table[27] @ 432
      75 0000001c 0054          .bits   84,16                   ; _PMBUS_crc8Table[28] @ 448
      76 0000001d 0053          .bits   83,16                   ; _PMBUS_crc8Table[29] @ 464
      77 0000001e 005A          .bits   90,16                   ; _PMBUS_crc8Table[30] @ 480
      78 0000001f 005D          .bits   93,16                   ; _PMBUS_crc8Table[31] @ 496
      79 00000020 00E0          .bits   224,16                  ; _PMBUS_crc8Table[32] @ 512
      80 00000021 00E7          .bits   231,16                  ; _PMBUS_crc8Table[33] @ 528
      81 00000022 00EE          .bits   238,16                  ; _PMBUS_crc8Table[34] @ 544
      82 00000023 00E9          .bits   233,16                  ; _PMBUS_crc8Table[35] @ 560
      83 00000024 00FC          .bits   252,16                  ; _PMBUS_crc8Table[36] @ 576
      84 00000025 00FB          .bits   251,16                  ; _PMBUS_crc8Table[37] @ 592
      85 00000026 00F2          .bits   242,16                  ; _PMBUS_crc8Table[38] @ 608
      86 00000027 00F5          .bits   245,16                  ; _PMBUS_crc8Table[39] @ 624
      87 00000028 00D8          .bits   216,16                  ; _PMBUS_crc8Table[40] @ 640
      88 00000029 00DF          .bits   223,16                  ; _PMBUS_crc8Table[41] @ 656
      89 0000002a 00D6          .bits   214,16                  ; _PMBUS_crc8Table[42] @ 672
      90 0000002b 00D1          .bits   209,16                  ; _PMBUS_crc8Table[43] @ 688
      91 0000002c 00C4          .bits   196,16                  ; _PMBUS_crc8Table[44] @ 704
      92 0000002d 00C3          .bits   195,16                  ; _PMBUS_crc8Table[45] @ 720
      93 0000002e 00CA          .bits   202,16                  ; _PMBUS_crc8Table[46] @ 736
      94 0000002f 00CD          .bits   205,16                  ; _PMBUS_crc8Table[47] @ 752
      95 00000030 0090          .bits   144,16                  ; _PMBUS_crc8Table[48] @ 768
      96 00000031 0097          .bits   151,16                  ; _PMBUS_crc8Table[49] @ 784
      97 00000032 009E          .bits   158,16                  ; _PMBUS_crc8Table[50] @ 800
      98 00000033 0099          .bits   153,16                  ; _PMBUS_crc8Table[51] @ 816
      99 00000034 008C          .bits   140,16                  ; _PMBUS_crc8Table[52] @ 832
     100 00000035 008B          .bits   139,16                  ; _PMBUS_crc8Table[53] @ 848
     101 00000036 0082          .bits   130,16                  ; _PMBUS_crc8Table[54] @ 864
     102 00000037 0085          .bits   133,16                  ; _PMBUS_crc8Table[55] @ 880
     103 00000038 00A8          .bits   168,16                  ; _PMBUS_crc8Table[56] @ 896
     104 00000039 00AF          .bits   175,16                  ; _PMBUS_crc8Table[57] @ 912
     105 0000003a 00A6          .bits   166,16                  ; _PMBUS_crc8Table[58] @ 928
     106 0000003b 00A1          .bits   161,16                  ; _PMBUS_crc8Table[59] @ 944
     107 0000003c 00B4          .bits   180,16                  ; _PMBUS_crc8Table[60] @ 960
     108 0000003d 00B3          .bits   179,16                  ; _PMBUS_crc8Table[61] @ 976
     109 0000003e 00BA          .bits   186,16                  ; _PMBUS_crc8Table[62] @ 992
     110 0000003f 00BD          .bits   189,16                  ; _PMBUS_crc8Table[63] @ 1008
TMS320C2000 Assembler PC v6.2.9 Tue Apr 14 13:33:08 2015

Tools Copyright (c) 1996-2014 Texas Instruments Incorporated
C:\Users\a0272466\AppData\Local\Temp\0769210                         PAGE    3

     111 00000040 00C7          .bits   199,16                  ; _PMBUS_crc8Table[64] @ 1024
     112 00000041 00C0          .bits   192,16                  ; _PMBUS_crc8Table[65] @ 1040
     113 00000042 00C9          .bits   201,16                  ; _PMBUS_crc8Table[66] @ 1056
     114 00000043 00CE          .bits   206,16                  ; _PMBUS_crc8Table[67] @ 1072
     115 00000044 00DB          .bits   219,16                  ; _PMBUS_crc8Table[68] @ 1088
     116 00000045 00DC          .bits   220,16                  ; _PMBUS_crc8Table[69] @ 1104
     117 00000046 00D5          .bits   213,16                  ; _PMBUS_crc8Table[70] @ 1120
     118 00000047 00D2          .bits   210,16                  ; _PMBUS_crc8Table[71] @ 1136
     119 00000048 00FF          .bits   255,16                  ; _PMBUS_crc8Table[72] @ 1152
     120 00000049 00F8          .bits   248,16                  ; _PMBUS_crc8Table[73] @ 1168
     121 0000004a 00F1          .bits   241,16                  ; _PMBUS_crc8Table[74] @ 1184
     122 0000004b 00F6          .bits   246,16                  ; _PMBUS_crc8Table[75] @ 1200
     123 0000004c 00E3          .bits   227,16                  ; _PMBUS_crc8Table[76] @ 1216
     124 0000004d 00E4          .bits   228,16                  ; _PMBUS_crc8Table[77] @ 1232
     125 0000004e 00ED          .bits   237,16                  ; _PMBUS_crc8Table[78] @ 1248
     126 0000004f 00EA          .bits   234,16                  ; _PMBUS_crc8Table[79] @ 1264
     127 00000050 00B7          .bits   183,16                  ; _PMBUS_crc8Table[80] @ 1280
     128 00000051 00B0          .bits   176,16                  ; _PMBUS_crc8Table[81] @ 1296
     129 00000052 00B9          .bits   185,16                  ; _PMBUS_crc8Table[82] @ 1312
     130 00000053 00BE          .bits   190,16                  ; _PMBUS_crc8Table[83] @ 1328
     131 00000054 00AB          .bits   171,16                  ; _PMBUS_crc8Table[84] @ 1344
     132 00000055 00AC          .bits   172,16                  ; _PMBUS_crc8Table[85] @ 1360
     133 00000056 00A5          .bits   165,16                  ; _PMBUS_crc8Table[86] @ 1376
     134 00000057 00A2          .bits   162,16                  ; _PMBUS_crc8Table[87] @ 1392
     135 00000058 008F          .bits   143,16                  ; _PMBUS_crc8Table[88] @ 1408
     136 00000059 0088          .bits   136,16                  ; _PMBUS_crc8Table[89] @ 1424
     137 0000005a 0081          .bits   129,16                  ; _PMBUS_crc8Table[90] @ 1440
     138 0000005b 0086          .bits   134,16                  ; _PMBUS_crc8Table[91] @ 1456
     139 0000005c 0093          .bits   147,16                  ; _PMBUS_crc8Table[92] @ 1472
     140 0000005d 0094          .bits   148,16                  ; _PMBUS_crc8Table[93] @ 1488
     141 0000005e 009D          .bits   157,16                  ; _PMBUS_crc8Table[94] @ 1504
     142 0000005f 009A          .bits   154,16                  ; _PMBUS_crc8Table[95] @ 1520
     143 00000060 0027          .bits   39,16                   ; _PMBUS_crc8Table[96] @ 1536
     144 00000061 0020          .bits   32,16                   ; _PMBUS_crc8Table[97] @ 1552
     145 00000062 0029          .bits   41,16                   ; _PMBUS_crc8Table[98] @ 1568
     146 00000063 002E          .bits   46,16                   ; _PMBUS_crc8Table[99] @ 1584
     147 00000064 003B          .bits   59,16                   ; _PMBUS_crc8Table[100] @ 1600
     148 00000065 003C          .bits   60,16                   ; _PMBUS_crc8Table[101] @ 1616
     149 00000066 0035          .bits   53,16                   ; _PMBUS_crc8Table[102] @ 1632
     150 00000067 0032          .bits   50,16                   ; _PMBUS_crc8Table[103] @ 1648
     151 00000068 001F          .bits   31,16                   ; _PMBUS_crc8Table[104] @ 1664
     152 00000069 0018          .bits   24,16                   ; _PMBUS_crc8Table[105] @ 1680
     153 0000006a 0011          .bits   17,16                   ; _PMBUS_crc8Table[106] @ 1696
     154 0000006b 0016          .bits   22,16                   ; _PMBUS_crc8Table[107] @ 1712
     155 0000006c 0003          .bits   3,16                    ; _PMBUS_crc8Table[108] @ 1728
     156 0000006d 0004          .bits   4,16                    ; _PMBUS_crc8Table[109] @ 1744
     157 0000006e 000D          .bits   13,16                   ; _PMBUS_crc8Table[110] @ 1760
     158 0000006f 000A          .bits   10,16                   ; _PMBUS_crc8Table[111] @ 1776
     159 00000070 0057          .bits   87,16                   ; _PMBUS_crc8Table[112] @ 1792
     160 00000071 0050          .bits   80,16                   ; _PMBUS_crc8Table[113] @ 1808
     161 00000072 0059          .bits   89,16                   ; _PMBUS_crc8Table[114] @ 1824
     162 00000073 005E          .bits   94,16                   ; _PMBUS_crc8Table[115] @ 1840
     163 00000074 004B          .bits   75,16                   ; _PMBUS_crc8Table[116] @ 1856
     164 00000075 004C          .bits   76,16                   ; _PMBUS_crc8Table[117] @ 1872
     165 00000076 0045          .bits   69,16                   ; _PMBUS_crc8Table[118] @ 1888
TMS320C2000 Assembler PC v6.2.9 Tue Apr 14 13:33:08 2015

Tools Copyright (c) 1996-2014 Texas Instruments Incorporated
C:\Users\a0272466\AppData\Local\Temp\0769210                         PAGE    4

     166 00000077 0042          .bits   66,16                   ; _PMBUS_crc8Table[119] @ 1904
     167 00000078 006F          .bits   111,16                  ; _PMBUS_crc8Table[120] @ 1920
     168 00000079 0068          .bits   104,16                  ; _PMBUS_crc8Table[121] @ 1936
     169 0000007a 0061          .bits   97,16                   ; _PMBUS_crc8Table[122] @ 1952
     170 0000007b 0066          .bits   102,16                  ; _PMBUS_crc8Table[123] @ 1968
     171 0000007c 0073          .bits   115,16                  ; _PMBUS_crc8Table[124] @ 1984
     172 0000007d 0074          .bits   116,16                  ; _PMBUS_crc8Table[125] @ 2000
     173 0000007e 007D          .bits   125,16                  ; _PMBUS_crc8Table[126] @ 2016
     174 0000007f 007A          .bits   122,16                  ; _PMBUS_crc8Table[127] @ 2032
     175 00000080 0089          .bits   137,16                  ; _PMBUS_crc8Table[128] @ 2048
     176 00000081 008E          .bits   142,16                  ; _PMBUS_crc8Table[129] @ 2064
     177 00000082 0087          .bits   135,16                  ; _PMBUS_crc8Table[130] @ 2080
     178 00000083 0080          .bits   128,16                  ; _PMBUS_crc8Table[131] @ 2096
     179 00000084 0095          .bits   149,16                  ; _PMBUS_crc8Table[132] @ 2112
     180 00000085 0092          .bits   146,16                  ; _PMBUS_crc8Table[133] @ 2128
     181 00000086 009B          .bits   155,16                  ; _PMBUS_crc8Table[134] @ 2144
     182 00000087 009C          .bits   156,16                  ; _PMBUS_crc8Table[135] @ 2160
     183 00000088 00B1          .bits   177,16                  ; _PMBUS_crc8Table[136] @ 2176
     184 00000089 00B6          .bits   182,16                  ; _PMBUS_crc8Table[137] @ 2192
     185 0000008a 00BF          .bits   191,16                  ; _PMBUS_crc8Table[138] @ 2208
     186 0000008b 00B8          .bits   184,16                  ; _PMBUS_crc8Table[139] @ 2224
     187 0000008c 00AD          .bits   173,16                  ; _PMBUS_crc8Table[140] @ 2240
     188 0000008d 00AA          .bits   170,16                  ; _PMBUS_crc8Table[141] @ 2256
     189 0000008e 00A3          .bits   163,16                  ; _PMBUS_crc8Table[142] @ 2272
     190 0000008f 00A4          .bits   164,16                  ; _PMBUS_crc8Table[143] @ 2288
     191 00000090 00F9          .bits   249,16                  ; _PMBUS_crc8Table[144] @ 2304
     192 00000091 00FE          .bits   254,16                  ; _PMBUS_crc8Table[145] @ 2320
     193 00000092 00F7          .bits   247,16                  ; _PMBUS_crc8Table[146] @ 2336
     194 00000093 00F0          .bits   240,16                  ; _PMBUS_crc8Table[147] @ 2352
     195 00000094 00E5          .bits   229,16                  ; _PMBUS_crc8Table[148] @ 2368
     196 00000095 00E2          .bits   226,16                  ; _PMBUS_crc8Table[149] @ 2384
     197 00000096 00EB          .bits   235,16                  ; _PMBUS_crc8Table[150] @ 2400
     198 00000097 00EC          .bits   236,16                  ; _PMBUS_crc8Table[151] @ 2416
     199 00000098 00C1          .bits   193,16                  ; _PMBUS_crc8Table[152] @ 2432
     200 00000099 00C6          .bits   198,16                  ; _PMBUS_crc8Table[153] @ 2448
     201 0000009a 00CF          .bits   207,16                  ; _PMBUS_crc8Table[154] @ 2464
     202 0000009b 00C8          .bits   200,16                  ; _PMBUS_crc8Table[155] @ 2480
     203 0000009c 00DD          .bits   221,16                  ; _PMBUS_crc8Table[156] @ 2496
     204 0000009d 00DA          .bits   218,16                  ; _PMBUS_crc8Table[157] @ 2512
     205 0000009e 00D3          .bits   211,16                  ; _PMBUS_crc8Table[158] @ 2528
     206 0000009f 00D4          .bits   212,16                  ; _PMBUS_crc8Table[159] @ 2544
     207 000000a0 0069          .bits   105,16                  ; _PMBUS_crc8Table[160] @ 2560
     208 000000a1 006E          .bits   110,16                  ; _PMBUS_crc8Table[161] @ 2576
     209 000000a2 0067          .bits   103,16                  ; _PMBUS_crc8Table[162] @ 2592
     210 000000a3 0060          .bits   96,16                   ; _PMBUS_crc8Table[163] @ 2608
     211 000000a4 0075          .bits   117,16                  ; _PMBUS_crc8Table[164] @ 2624
     212 000000a5 0072          .bits   114,16                  ; _PMBUS_crc8Table[165] @ 2640
     213 000000a6 007B          .bits   123,16                  ; _PMBUS_crc8Table[166] @ 2656
     214 000000a7 007C          .bits   124,16                  ; _PMBUS_crc8Table[167] @ 2672
     215 000000a8 0051          .bits   81,16                   ; _PMBUS_crc8Table[168] @ 2688
     216 000000a9 0056          .bits   86,16                   ; _PMBUS_crc8Table[169] @ 2704
     217 000000aa 005F          .bits   95,16                   ; _PMBUS_crc8Table[170] @ 2720
     218 000000ab 0058          .bits   88,16                   ; _PMBUS_crc8Table[171] @ 2736
     219 000000ac 004D          .bits   77,16                   ; _PMBUS_crc8Table[172] @ 2752
     220 000000ad 004A          .bits   74,16                   ; _PMBUS_crc8Table[173] @ 2768
TMS320C2000 Assembler PC v6.2.9 Tue Apr 14 13:33:08 2015

Tools Copyright (c) 1996-2014 Texas Instruments Incorporated
C:\Users\a0272466\AppData\Local\Temp\0769210                         PAGE    5

     221 000000ae 0043          .bits   67,16                   ; _PMBUS_crc8Table[174] @ 2784
     222 000000af 0044          .bits   68,16                   ; _PMBUS_crc8Table[175] @ 2800
     223 000000b0 0019          .bits   25,16                   ; _PMBUS_crc8Table[176] @ 2816
     224 000000b1 001E          .bits   30,16                   ; _PMBUS_crc8Table[177] @ 2832
     225 000000b2 0017          .bits   23,16                   ; _PMBUS_crc8Table[178] @ 2848
     226 000000b3 0010          .bits   16,16                   ; _PMBUS_crc8Table[179] @ 2864
     227 000000b4 0005          .bits   5,16                    ; _PMBUS_crc8Table[180] @ 2880
     228 000000b5 0002          .bits   2,16                    ; _PMBUS_crc8Table[181] @ 2896
     229 000000b6 000B          .bits   11,16                   ; _PMBUS_crc8Table[182] @ 2912
     230 000000b7 000C          .bits   12,16                   ; _PMBUS_crc8Table[183] @ 2928
     231 000000b8 0021          .bits   33,16                   ; _PMBUS_crc8Table[184] @ 2944
     232 000000b9 0026          .bits   38,16                   ; _PMBUS_crc8Table[185] @ 2960
     233 000000ba 002F          .bits   47,16                   ; _PMBUS_crc8Table[186] @ 2976
     234 000000bb 0028          .bits   40,16                   ; _PMBUS_crc8Table[187] @ 2992
     235 000000bc 003D          .bits   61,16                   ; _PMBUS_crc8Table[188] @ 3008
     236 000000bd 003A          .bits   58,16                   ; _PMBUS_crc8Table[189] @ 3024
     237 000000be 0033          .bits   51,16                   ; _PMBUS_crc8Table[190] @ 3040
     238 000000bf 0034          .bits   52,16                   ; _PMBUS_crc8Table[191] @ 3056
     239 000000c0 004E          .bits   78,16                   ; _PMBUS_crc8Table[192] @ 3072
     240 000000c1 0049          .bits   73,16                   ; _PMBUS_crc8Table[193] @ 3088
     241 000000c2 0040          .bits   64,16                   ; _PMBUS_crc8Table[194] @ 3104
     242 000000c3 0047          .bits   71,16                   ; _PMBUS_crc8Table[195] @ 3120
     243 000000c4 0052          .bits   82,16                   ; _PMBUS_crc8Table[196] @ 3136
     244 000000c5 0055          .bits   85,16                   ; _PMBUS_crc8Table[197] @ 3152
     245 000000c6 005C          .bits   92,16                   ; _PMBUS_crc8Table[198] @ 3168
     246 000000c7 005B          .bits   91,16                   ; _PMBUS_crc8Table[199] @ 3184
     247 000000c8 0076          .bits   118,16                  ; _PMBUS_crc8Table[200] @ 3200
     248 000000c9 0071          .bits   113,16                  ; _PMBUS_crc8Table[201] @ 3216
     249 000000ca 0078          .bits   120,16                  ; _PMBUS_crc8Table[202] @ 3232
     250 000000cb 007F          .bits   127,16                  ; _PMBUS_crc8Table[203] @ 3248
     251 000000cc 006A          .bits   106,16                  ; _PMBUS_crc8Table[204] @ 3264
     252 000000cd 006D          .bits   109,16                  ; _PMBUS_crc8Table[205] @ 3280
     253 000000ce 0064          .bits   100,16                  ; _PMBUS_crc8Table[206] @ 3296
     254 000000cf 0063          .bits   99,16                   ; _PMBUS_crc8Table[207] @ 3312
     255 000000d0 003E          .bits   62,16                   ; _PMBUS_crc8Table[208] @ 3328
     256 000000d1 0039          .bits   57,16                   ; _PMBUS_crc8Table[209] @ 3344
     257 000000d2 0030          .bits   48,16                   ; _PMBUS_crc8Table[210] @ 3360
     258 000000d3 0037          .bits   55,16                   ; _PMBUS_crc8Table[211] @ 3376
     259 000000d4 0022          .bits   34,16                   ; _PMBUS_crc8Table[212] @ 3392
     260 000000d5 0025          .bits   37,16                   ; _PMBUS_crc8Table[213] @ 3408
     261 000000d6 002C          .bits   44,16                   ; _PMBUS_crc8Table[214] @ 3424
     262 000000d7 002B          .bits   43,16                   ; _PMBUS_crc8Table[215] @ 3440
     263 000000d8 0006          .bits   6,16                    ; _PMBUS_crc8Table[216] @ 3456
     264 000000d9 0001          .bits   1,16                    ; _PMBUS_crc8Table[217] @ 3472
     265 000000da 0008          .bits   8,16                    ; _PMBUS_crc8Table[218] @ 3488
     266 000000db 000F          .bits   15,16                   ; _PMBUS_crc8Table[219] @ 3504
     267 000000dc 001A          .bits   26,16                   ; _PMBUS_crc8Table[220] @ 3520
     268 000000dd 001D          .bits   29,16                   ; _PMBUS_crc8Table[221] @ 3536
     269 000000de 0014          .bits   20,16                   ; _PMBUS_crc8Table[222] @ 3552
     270 000000df 0013          .bits   19,16                   ; _PMBUS_crc8Table[223] @ 3568
     271 000000e0 00AE          .bits   174,16                  ; _PMBUS_crc8Table[224] @ 3584
     272 000000e1 00A9          .bits   169,16                  ; _PMBUS_crc8Table[225] @ 3600
     273 000000e2 00A0          .bits   160,16                  ; _PMBUS_crc8Table[226] @ 3616
     274 000000e3 00A7          .bits   167,16                  ; _PMBUS_crc8Table[227] @ 3632
     275 000000e4 00B2          .bits   178,16                  ; _PMBUS_crc8Table[228] @ 3648
TMS320C2000 Assembler PC v6.2.9 Tue Apr 14 13:33:08 2015

Tools Copyright (c) 1996-2014 Texas Instruments Incorporated
C:\Users\a0272466\AppData\Local\Temp\0769210                         PAGE    6

     276 000000e5 00B5          .bits   181,16                  ; _PMBUS_crc8Table[229] @ 3664
     277 000000e6 00BC          .bits   188,16                  ; _PMBUS_crc8Table[230] @ 3680
     278 000000e7 00BB          .bits   187,16                  ; _PMBUS_crc8Table[231] @ 3696
     279 000000e8 0096          .bits   150,16                  ; _PMBUS_crc8Table[232] @ 3712
     280 000000e9 0091          .bits   145,16                  ; _PMBUS_crc8Table[233] @ 3728
     281 000000ea 0098          .bits   152,16                  ; _PMBUS_crc8Table[234] @ 3744
     282 000000eb 009F          .bits   159,16                  ; _PMBUS_crc8Table[235] @ 3760
     283 000000ec 008A          .bits   138,16                  ; _PMBUS_crc8Table[236] @ 3776
     284 000000ed 008D          .bits   141,16                  ; _PMBUS_crc8Table[237] @ 3792
     285 000000ee 0084          .bits   132,16                  ; _PMBUS_crc8Table[238] @ 3808
     286 000000ef 0083          .bits   131,16                  ; _PMBUS_crc8Table[239] @ 3824
     287 000000f0 00DE          .bits   222,16                  ; _PMBUS_crc8Table[240] @ 3840
     288 000000f1 00D9          .bits   217,16                  ; _PMBUS_crc8Table[241] @ 3856
     289 000000f2 00D0          .bits   208,16                  ; _PMBUS_crc8Table[242] @ 3872
     290 000000f3 00D7          .bits   215,16                  ; _PMBUS_crc8Table[243] @ 3888
     291 000000f4 00C2          .bits   194,16                  ; _PMBUS_crc8Table[244] @ 3904
     292 000000f5 00C5          .bits   197,16                  ; _PMBUS_crc8Table[245] @ 3920
     293 000000f6 00CC          .bits   204,16                  ; _PMBUS_crc8Table[246] @ 3936
     294 000000f7 00CB          .bits   203,16                  ; _PMBUS_crc8Table[247] @ 3952
     295 000000f8 00E6          .bits   230,16                  ; _PMBUS_crc8Table[248] @ 3968
     296 000000f9 00E1          .bits   225,16                  ; _PMBUS_crc8Table[249] @ 3984
     297 000000fa 00E8          .bits   232,16                  ; _PMBUS_crc8Table[250] @ 4000
     298 000000fb 00EF          .bits   239,16                  ; _PMBUS_crc8Table[251] @ 4016
     299 000000fc 00FA          .bits   250,16                  ; _PMBUS_crc8Table[252] @ 4032
     300 000000fd 00FD          .bits   253,16                  ; _PMBUS_crc8Table[253] @ 4048
     301 000000fe 00F4          .bits   244,16                  ; _PMBUS_crc8Table[254] @ 4064
     302 000000ff 00F3          .bits   243,16                  ; _PMBUS_crc8Table[255] @ 4080
     303              
     304              $C$DW$8 .dwtag  DW_TAG_variable, DW_AT_name("PMBUS_crc8Table")
     305                      .dwattr $C$DW$8, DW_AT_TI_symbol_name("_PMBUS_crc8Table")
     306                      .dwattr $C$DW$8, DW_AT_type(*$C$DW$T$52)
     307                      .dwattr $C$DW$8, DW_AT_location[DW_OP_addr _PMBUS_crc8Table]
     308              ;       c:\ti\ccsv6\tools\compiler\c2000_6.2.9\bin\ac2000.exe -@C:\\Users\\a0272466\\AppData\\Local\\Temp\\07
     309 00000000               .sect   ".text"
     310                      .clink
     311              
     312              $C$DW$9 .dwtag  DW_TAG_subprogram, DW_AT_name("Interrupt_register")
     313                      .dwattr $C$DW$9, DW_AT_low_pc(_Interrupt_register)
     314                      .dwattr $C$DW$9, DW_AT_high_pc(0x00)
     315                      .dwattr $C$DW$9, DW_AT_TI_symbol_name("_Interrupt_register")
     316                      .dwattr $C$DW$9, DW_AT_TI_begin_file("C:/work/grepos/c2000_bootROM/f28004x_bootrom/F28004x_ROM_dev/F2
     317                      .dwattr $C$DW$9, DW_AT_TI_begin_line(0xa0)
     318                      .dwattr $C$DW$9, DW_AT_TI_begin_column(0x01)
     319                      .dwattr $C$DW$9, DW_AT_TI_max_frame_size(-6)
     320                      .dwpsn  file "C:/work/grepos/c2000_bootROM/f28004x_bootrom/F28004x_ROM_dev/F28004x_ROM/driverlib/inte
     321              
     322                      .dwfde $C$DW$CIE, _Interrupt_register
     323              $C$DW$10        .dwtag  DW_TAG_formal_parameter, DW_AT_name("interruptNumber")
     324                      .dwattr $C$DW$10, DW_AT_TI_symbol_name("_interruptNumber")
     325                      .dwattr $C$DW$10, DW_AT_type(*$C$DW$T$37)
     326                      .dwattr $C$DW$10, DW_AT_location[DW_OP_reg0]
     327              $C$DW$11        .dwtag  DW_TAG_formal_parameter, DW_AT_name("handler")
     328                      .dwattr $C$DW$11, DW_AT_TI_symbol_name("_handler")
     329                      .dwattr $C$DW$11, DW_AT_type(*$C$DW$T$36)
     330                      .dwattr $C$DW$11, DW_AT_location[DW_OP_reg12]
TMS320C2000 Assembler PC v6.2.9 Tue Apr 14 13:33:08 2015

Tools Copyright (c) 1996-2014 Texas Instruments Incorporated
C:\Users\a0272466\AppData\Local\Temp\0769210                         PAGE    7

     331              
     332              ;***************************************************************
     333              ;* FNAME: _Interrupt_register           FR SIZE:   4           *
     334              ;*                                                             *
     335              ;* FUNCTION ENVIRONMENT                                        *
     336              ;*                                                             *
     337              ;* FUNCTION PROPERTIES                                         *
     338              ;*                            0 Parameter,  4 Auto,  0 SOE     *
     339              ;***************************************************************
     340              
     341 00000000       _Interrupt_register:
     342                      .dwcfi  cfa_offset, -2
     343                      .dwcfi  save_reg_to_mem, 26, 0
     344                      .dwcfi  save_reg_to_reg, 78, 26
     345 00000000 FE04          ADDB      SP,#4                 ; [CPU_U] 
     346                      .dwcfi  cfa_offset, -6
     347              $C$DW$12        .dwtag  DW_TAG_variable, DW_AT_name("interruptNumber")
     348                      .dwattr $C$DW$12, DW_AT_TI_symbol_name("_interruptNumber")
     349                      .dwattr $C$DW$12, DW_AT_type(*$C$DW$T$37)
     350                      .dwattr $C$DW$12, DW_AT_location[DW_OP_breg20 -2]
     351              $C$DW$13        .dwtag  DW_TAG_variable, DW_AT_name("handler")
     352                      .dwattr $C$DW$13, DW_AT_TI_symbol_name("_handler")
     353                      .dwattr $C$DW$13, DW_AT_type(*$C$DW$T$36)
     354                      .dwattr $C$DW$13, DW_AT_location[DW_OP_breg20 -4]
     355 00000001 A844          MOVL      *-SP[4],XAR4          ; [CPU_] |161| 
     356 00000002 1E42          MOVL      *-SP[2],ACC           ; [CPU_] |161| 
     357                      .dwpsn  file "C:/work/grepos/c2000_bootROM/f28004x_bootrom/F28004x_ROM_dev/F28004x_ROM/driverlib/inte
     358 00000003 7622   EALLOW
     359                      .dwpsn  file "C:/work/grepos/c2000_bootROM/f28004x_bootrom/F28004x_ROM_dev/F28004x_ROM/driverlib/inte
     360 00000004 0642          MOVL      ACC,*-SP[2]           ; [CPU_] |164| 
     361 00000005 C444          MOVL      XAR6,*-SP[4]          ; [CPU_] |164| 
     362 00000006 0EA8          MOVU      ACC,AH                ; [CPU_] |164| 
     363 00000007 FF30          LSL       ACC,1                 ; [CPU_] |164| 
     364 00000008 FF18          ADD       ACC,#13 << 8          ; [CPU_] |164| 
         00000009 000D 
     365 0000000a 8AA9          MOVL      XAR4,ACC              ; [CPU_] |164| 
     366 0000000b C2C4          MOVL      *+XAR4[0],XAR6        ; [CPU_] |164| 
     367                      .dwpsn  file "C:/work/grepos/c2000_bootROM/f28004x_bootrom/F28004x_ROM_dev/F28004x_ROM/driverlib/inte
     368 0000000c 761A   EDIS
     369                      .dwpsn  file "C:/work/grepos/c2000_bootROM/f28004x_bootrom/F28004x_ROM_dev/F28004x_ROM/driverlib/inte
     370 0000000d FF69          SPM       #0                    ; [CPU_] 
     371 0000000e FE84          SUBB      SP,#4                 ; [CPU_U] 
     372                      .dwcfi  cfa_offset, -2
     373              $C$DW$14        .dwtag  DW_TAG_TI_branch
     374                      .dwattr $C$DW$14, DW_AT_low_pc(0x00)
     375                      .dwattr $C$DW$14, DW_AT_TI_return
     376 0000000f 0006          LRETR     ; [CPU_] 
     377                      ; return occurs ; [] 
     378                      .dwattr $C$DW$9, DW_AT_TI_end_file("C:/work/grepos/c2000_bootROM/f28004x_bootrom/F28004x_ROM_dev/F280
     379                      .dwattr $C$DW$9, DW_AT_TI_end_line(0xa7)
     380                      .dwattr $C$DW$9, DW_AT_TI_end_column(0x01)
     381                      .dwendentry
     382                      .dwendtag $C$DW$9
     383              
     384 00000010               .sect   ".text"
TMS320C2000 Assembler PC v6.2.9 Tue Apr 14 13:33:08 2015

Tools Copyright (c) 1996-2014 Texas Instruments Incorporated
C:\Users\a0272466\AppData\Local\Temp\0769210                         PAGE    8

     385                      .clink
     386              
     387              $C$DW$15        .dwtag  DW_TAG_subprogram, DW_AT_name("Interrupt_unregister")
     388                      .dwattr $C$DW$15, DW_AT_low_pc(_Interrupt_unregister)
     389                      .dwattr $C$DW$15, DW_AT_high_pc(0x00)
     390                      .dwattr $C$DW$15, DW_AT_TI_symbol_name("_Interrupt_unregister")
     391                      .dwattr $C$DW$15, DW_AT_TI_begin_file("C:/work/grepos/c2000_bootROM/f28004x_bootrom/F28004x_ROM_dev/F
     392                      .dwattr $C$DW$15, DW_AT_TI_begin_line(0xba)
     393                      .dwattr $C$DW$15, DW_AT_TI_begin_column(0x01)
     394                      .dwattr $C$DW$15, DW_AT_TI_max_frame_size(-4)
     395                      .dwpsn  file "C:/work/grepos/c2000_bootROM/f28004x_bootrom/F28004x_ROM_dev/F28004x_ROM/driverlib/inte
     396              
     397                      .dwfde $C$DW$CIE, _Interrupt_unregister
     398              $C$DW$16        .dwtag  DW_TAG_formal_parameter, DW_AT_name("interruptNumber")
     399                      .dwattr $C$DW$16, DW_AT_TI_symbol_name("_interruptNumber")
     400                      .dwattr $C$DW$16, DW_AT_type(*$C$DW$T$37)
     401                      .dwattr $C$DW$16, DW_AT_location[DW_OP_reg0]
     402              
     403              ;***************************************************************
     404              ;* FNAME: _Interrupt_unregister         FR SIZE:   2           *
     405              ;*                                                             *
     406              ;* FUNCTION ENVIRONMENT                                        *
     407              ;*                                                             *
     408              ;* FUNCTION PROPERTIES                                         *
     409              ;*                            0 Parameter,  2 Auto,  0 SOE     *
     410              ;***************************************************************
     411              
     412 00000010       _Interrupt_unregister:
     413                      .dwcfi  cfa_offset, -2
     414                      .dwcfi  save_reg_to_mem, 26, 0
     415                      .dwcfi  save_reg_to_reg, 78, 26
     416 00000010 FE02          ADDB      SP,#2                 ; [CPU_U] 
     417                      .dwcfi  cfa_offset, -4
     418              $C$DW$17        .dwtag  DW_TAG_variable, DW_AT_name("interruptNumber")
     419                      .dwattr $C$DW$17, DW_AT_TI_symbol_name("_interruptNumber")
     420                      .dwattr $C$DW$17, DW_AT_type(*$C$DW$T$37)
     421                      .dwattr $C$DW$17, DW_AT_location[DW_OP_breg20 -2]
     422 00000011 1E42          MOVL      *-SP[2],ACC           ; [CPU_] |187| 
     423                      .dwpsn  file "C:/work/grepos/c2000_bootROM/f28004x_bootrom/F28004x_ROM_dev/F28004x_ROM/driverlib/inte
     424 00000012 7622   EALLOW
     425                      .dwpsn  file "C:/work/grepos/c2000_bootROM/f28004x_bootrom/F28004x_ROM_dev/F28004x_ROM/driverlib/inte
     426 00000013 8F40'         MOVL      XAR5,#_Interrupt_defaultHandler ; [CPU_U] |190| 
         00000014 002D 
     427 00000015 0642          MOVL      ACC,*-SP[2]           ; [CPU_] |190| 
     428 00000016 0EA8          MOVU      ACC,AH                ; [CPU_] |190| 
     429 00000017 FF30          LSL       ACC,1                 ; [CPU_] |190| 
     430 00000018 FF18          ADD       ACC,#13 << 8          ; [CPU_] |190| 
         00000019 000D 
     431 0000001a 8AA9          MOVL      XAR4,ACC              ; [CPU_] |190| 
     432 0000001b A0C4          MOVL      *+XAR4[0],XAR5        ; [CPU_] |190| 
     433                      .dwpsn  file "C:/work/grepos/c2000_bootROM/f28004x_bootrom/F28004x_ROM_dev/F28004x_ROM/driverlib/inte
     434 0000001c 761A   EDIS
     435                      .dwpsn  file "C:/work/grepos/c2000_bootROM/f28004x_bootrom/F28004x_ROM_dev/F28004x_ROM/driverlib/inte
     436 0000001d FF69          SPM       #0                    ; [CPU_] 
     437 0000001e FE82          SUBB      SP,#2                 ; [CPU_U] 
TMS320C2000 Assembler PC v6.2.9 Tue Apr 14 13:33:08 2015

Tools Copyright (c) 1996-2014 Texas Instruments Incorporated
C:\Users\a0272466\AppData\Local\Temp\0769210                         PAGE    9

     438                      .dwcfi  cfa_offset, -2
     439              $C$DW$18        .dwtag  DW_TAG_TI_branch
     440                      .dwattr $C$DW$18, DW_AT_low_pc(0x00)
     441                      .dwattr $C$DW$18, DW_AT_TI_return
     442 0000001f 0006          LRETR     ; [CPU_] 
     443                      ; return occurs ; [] 
     444                      .dwattr $C$DW$15, DW_AT_TI_end_file("C:/work/grepos/c2000_bootROM/f28004x_bootrom/F28004x_ROM_dev/F28
     445                      .dwattr $C$DW$15, DW_AT_TI_end_line(0xc1)
     446                      .dwattr $C$DW$15, DW_AT_TI_end_column(0x01)
     447                      .dwendentry
     448                      .dwendtag $C$DW$15
     449              
     450 00000020               .sect   ".text"
     451                      .clink
     452              
     453              $C$DW$19        .dwtag  DW_TAG_subprogram, DW_AT_name("PMBUS_getBasicIntNumber")
     454                      .dwattr $C$DW$19, DW_AT_low_pc(_PMBUS_getBasicIntNumber)
     455                      .dwattr $C$DW$19, DW_AT_high_pc(0x00)
     456                      .dwattr $C$DW$19, DW_AT_TI_symbol_name("_PMBUS_getBasicIntNumber")
     457                      .dwattr $C$DW$19, DW_AT_type(*$C$DW$T$37)
     458                      .dwattr $C$DW$19, DW_AT_TI_begin_file("C:/work/grepos/c2000_bootROM/f28004x_bootrom/F28004x_ROM_dev/F
     459                      .dwattr $C$DW$19, DW_AT_TI_begin_line(0x44)
     460                      .dwattr $C$DW$19, DW_AT_TI_begin_column(0x01)
     461                      .dwattr $C$DW$19, DW_AT_TI_max_frame_size(-4)
     462                      .dwpsn  file "C:/work/grepos/c2000_bootROM/f28004x_bootrom/F28004x_ROM_dev/F28004x_ROM/driverlib/pmbu
     463              
     464                      .dwfde $C$DW$CIE, _PMBUS_getBasicIntNumber
     465              $C$DW$20        .dwtag  DW_TAG_formal_parameter, DW_AT_name("base")
     466                      .dwattr $C$DW$20, DW_AT_TI_symbol_name("_base")
     467                      .dwattr $C$DW$20, DW_AT_type(*$C$DW$T$37)
     468                      .dwattr $C$DW$20, DW_AT_location[DW_OP_reg0]
     469              
     470              ;***************************************************************
     471              ;* FNAME: _PMBUS_getBasicIntNumber      FR SIZE:   2           *
     472              ;*                                                             *
     473              ;* FUNCTION ENVIRONMENT                                        *
     474              ;*                                                             *
     475              ;* FUNCTION PROPERTIES                                         *
     476              ;*                            0 Parameter,  2 Auto,  0 SOE     *
     477              ;***************************************************************
     478              
     479 00000020       _PMBUS_getBasicIntNumber:
     480                      .dwcfi  cfa_offset, -2
     481                      .dwcfi  save_reg_to_mem, 26, 0
     482                      .dwcfi  save_reg_to_reg, 78, 26
     483 00000020 FE02          ADDB      SP,#2                 ; [CPU_U] 
     484                      .dwcfi  cfa_offset, -4
     485              $C$DW$21        .dwtag  DW_TAG_variable, DW_AT_name("base")
     486                      .dwattr $C$DW$21, DW_AT_TI_symbol_name("_base")
     487                      .dwattr $C$DW$21, DW_AT_type(*$C$DW$T$37)
     488                      .dwattr $C$DW$21, DW_AT_location[DW_OP_breg20 -2]
     489 00000021 1E42          MOVL      *-SP[2],ACC           ; [CPU_] |69| 
     490                      .dwpsn  file "C:/work/grepos/c2000_bootROM/f28004x_bootrom/F28004x_ROM_dev/F28004x_ROM/driverlib/pmbu
     491 00000022 FF20          MOV       ACC,#25600            ; [CPU_] |70| 
         00000023 6400 
TMS320C2000 Assembler PC v6.2.9 Tue Apr 14 13:33:08 2015

Tools Copyright (c) 1996-2014 Texas Instruments Incorporated
C:\Users\a0272466\AppData\Local\Temp\0769210                         PAGE   10

     492 00000024 0F42          CMPL      ACC,*-SP[2]           ; [CPU_] |70| 
     493 00000025 ED05          BF        $C$L1,NEQ             ; [CPU_] |70| 
     494                      ; branchcc occurs ; [] |70| 
     495                      .dwpsn  file "C:/work/grepos/c2000_bootROM/f28004x_bootrom/F28004x_ROM_dev/F28004x_ROM/driverlib/pmbu
     496 00000026 28A9          MOV       AL,#2061              ; [CPU_] |72| 
         00000027 080D 
     497 00000028 9BBC          MOV       AH,#188               ; [CPU_] |72| 
     498 00000029 6F02          B         $C$L2,UNC             ; [CPU_] |72| 
     499                      ; branch occurs ; [] |72| 
     500 0000002a       $C$L1:    
     501                      .dwpsn  file "C:/work/grepos/c2000_bootROM/f28004x_bootrom/F28004x_ROM_dev/F28004x_ROM/driverlib/pmbu
     502 0000002a 0200          MOVB      ACC,#0                ; [CPU_] |76| 
     503 0000002b       $C$L2:    
     504                      .dwpsn  file "C:/work/grepos/c2000_bootROM/f28004x_bootrom/F28004x_ROM_dev/F28004x_ROM/driverlib/pmbu
     505 0000002b FE82          SUBB      SP,#2                 ; [CPU_U] 
     506                      .dwcfi  cfa_offset, -2
     507              $C$DW$22        .dwtag  DW_TAG_TI_branch
     508                      .dwattr $C$DW$22, DW_AT_low_pc(0x00)
     509                      .dwattr $C$DW$22, DW_AT_TI_return
     510 0000002c 0006          LRETR     ; [CPU_] 
     511                      ; return occurs ; [] 
     512                      .dwattr $C$DW$19, DW_AT_TI_end_file("C:/work/grepos/c2000_bootROM/f28004x_bootrom/F28004x_ROM_dev/F28
     513                      .dwattr $C$DW$19, DW_AT_TI_end_line(0x4e)
     514                      .dwattr $C$DW$19, DW_AT_TI_end_column(0x01)
     515                      .dwendentry
     516                      .dwendtag $C$DW$19
     517              
     518 0000002d               .sect   ".text"
     519                      .clink
     520              
     521              $C$DW$23        .dwtag  DW_TAG_subprogram, DW_AT_name("Interrupt_defaultHandler")
     522                      .dwattr $C$DW$23, DW_AT_low_pc(_Interrupt_defaultHandler)
     523                      .dwattr $C$DW$23, DW_AT_high_pc(0x00)
     524                      .dwattr $C$DW$23, DW_AT_TI_symbol_name("_Interrupt_defaultHandler")
     525                      .dwattr $C$DW$23, DW_AT_TI_begin_file("C:/work/grepos/c2000_bootROM/f28004x_bootrom/F28004x_ROM_dev/F
     526                      .dwattr $C$DW$23, DW_AT_TI_begin_line(0x51)
     527                      .dwattr $C$DW$23, DW_AT_TI_begin_column(0x0d)
     528                      .dwattr $C$DW$23, DW_AT_TI_max_frame_size(-2)
     529                      .dwpsn  file "C:/work/grepos/c2000_bootROM/f28004x_bootrom/F28004x_ROM_dev/F28004x_ROM/driverlib/inte
     530              
     531                      .dwfde $C$DW$CIE, _Interrupt_defaultHandler
     532              
     533              ;***************************************************************
     534              ;* FNAME: _Interrupt_defaultHandler     FR SIZE:   0           *
     535              ;*                                                             *
     536              ;* FUNCTION ENVIRONMENT                                        *
     537              ;*                                                             *
     538              ;* FUNCTION PROPERTIES                                         *
     539              ;*                            0 Parameter,  0 Auto,  0 SOE     *
     540              ;***************************************************************
     541              
     542 0000002d       _Interrupt_defaultHandler:
     543                      .dwcfi  cfa_offset, -2
     544                      .dwcfi  save_reg_to_mem, 26, 0
     545                      .dwcfi  save_reg_to_reg, 78, 26
TMS320C2000 Assembler PC v6.2.9 Tue Apr 14 13:33:08 2015

Tools Copyright (c) 1996-2014 Texas Instruments Incorporated
C:\Users\a0272466\AppData\Local\Temp\0769210                         PAGE   11

     546                      .dwpsn  file "C:/work/grepos/c2000_bootROM/f28004x_bootrom/F28004x_ROM_dev/F28004x_ROM/driverlib/inte
     547 0000002d 7625   ESTOP0
     548                      .dwpsn  file "C:/work/grepos/c2000_bootROM/f28004x_bootrom/F28004x_ROM_dev/F28004x_ROM/driverlib/inte
     549                      .dwpsn  file "C:/work/grepos/c2000_bootROM/f28004x_bootrom/F28004x_ROM_dev/F28004x_ROM/driverlib/inte
     550 0000002e FF69          SPM       #0                    ; [CPU_] 
     551              $C$DW$24        .dwtag  DW_TAG_TI_branch
     552                      .dwattr $C$DW$24, DW_AT_low_pc(0x00)
     553                      .dwattr $C$DW$24, DW_AT_TI_return
     554 0000002f 0006          LRETR     ; [CPU_] 
     555                      ; return occurs ; [] 
     556                      .dwattr $C$DW$23, DW_AT_TI_end_file("C:/work/grepos/c2000_bootROM/f28004x_bootrom/F28004x_ROM_dev/F28
     557                      .dwattr $C$DW$23, DW_AT_TI_end_line(0x57)
     558                      .dwattr $C$DW$23, DW_AT_TI_end_column(0x01)
     559                      .dwendentry
     560                      .dwendtag $C$DW$23
     561              
     562 00000030               .sect   ".text"
     563                      .clink
     564                      .global _PMBUS_configSlave
     565              
     566              $C$DW$25        .dwtag  DW_TAG_subprogram, DW_AT_name("PMBUS_configSlave")
     567                      .dwattr $C$DW$25, DW_AT_low_pc(_PMBUS_configSlave)
     568                      .dwattr $C$DW$25, DW_AT_high_pc(0x00)
     569                      .dwattr $C$DW$25, DW_AT_TI_symbol_name("_PMBUS_configSlave")
     570                      .dwattr $C$DW$25, DW_AT_external
     571                      .dwattr $C$DW$25, DW_AT_TI_begin_file("C:/work/grepos/c2000_bootROM/f28004x_bootrom/F28004x_ROM_dev/F
     572                      .dwattr $C$DW$25, DW_AT_TI_begin_line(0x55)
     573                      .dwattr $C$DW$25, DW_AT_TI_begin_column(0x06)
     574                      .dwattr $C$DW$25, DW_AT_TI_max_frame_size(-8)
     575                      .dwpsn  file "C:/work/grepos/c2000_bootROM/f28004x_bootrom/F28004x_ROM_dev/F28004x_ROM/driverlib/pmbu
     576              
     577                      .dwfde $C$DW$CIE, _PMBUS_configSlave
     578              $C$DW$26        .dwtag  DW_TAG_formal_parameter, DW_AT_name("base")
     579                      .dwattr $C$DW$26, DW_AT_TI_symbol_name("_base")
     580                      .dwattr $C$DW$26, DW_AT_type(*$C$DW$T$37)
     581                      .dwattr $C$DW$26, DW_AT_location[DW_OP_reg0]
     582              $C$DW$27        .dwtag  DW_TAG_formal_parameter, DW_AT_name("configWord")
     583                      .dwattr $C$DW$27, DW_AT_TI_symbol_name("_configWord")
     584                      .dwattr $C$DW$27, DW_AT_type(*$C$DW$T$37)
     585                      .dwattr $C$DW$27, DW_AT_location[DW_OP_breg20 -10]
     586              
     587              ;***************************************************************
     588              ;* FNAME: _PMBUS_configSlave            FR SIZE:   6           *
     589              ;*                                                             *
     590              ;* FUNCTION ENVIRONMENT                                        *
     591              ;*                                                             *
     592              ;* FUNCTION PROPERTIES                                         *
     593              ;*                            0 Parameter,  6 Auto,  0 SOE     *
     594              ;***************************************************************
     595              
     596 00000030       _PMBUS_configSlave:
     597                      .dwcfi  cfa_offset, -2
     598                      .dwcfi  save_reg_to_mem, 26, 0
     599                      .dwcfi  save_reg_to_reg, 78, 26
     600 00000030 FE06          ADDB      SP,#6                 ; [CPU_U] 
TMS320C2000 Assembler PC v6.2.9 Tue Apr 14 13:33:08 2015

Tools Copyright (c) 1996-2014 Texas Instruments Incorporated
C:\Users\a0272466\AppData\Local\Temp\0769210                         PAGE   12

     601                      .dwcfi  cfa_offset, -8
     602              $C$DW$28        .dwtag  DW_TAG_variable, DW_AT_name("base")
     603                      .dwattr $C$DW$28, DW_AT_TI_symbol_name("_base")
     604                      .dwattr $C$DW$28, DW_AT_type(*$C$DW$T$37)
     605                      .dwattr $C$DW$28, DW_AT_location[DW_OP_breg20 -2]
     606              $C$DW$29        .dwtag  DW_TAG_variable, DW_AT_name("interruptState")
     607                      .dwattr $C$DW$29, DW_AT_TI_symbol_name("_interruptState")
     608                      .dwattr $C$DW$29, DW_AT_type(*$C$DW$T$37)
     609                      .dwattr $C$DW$29, DW_AT_location[DW_OP_breg20 -4]
     610              $C$DW$30        .dwtag  DW_TAG_variable, DW_AT_name("bitmask")
     611                      .dwattr $C$DW$30, DW_AT_TI_symbol_name("_bitmask")
     612                      .dwattr $C$DW$30, DW_AT_type(*$C$DW$T$37)
     613                      .dwattr $C$DW$30, DW_AT_location[DW_OP_breg20 -6]
     614 00000031 1E42          MOVL      *-SP[2],ACC           ; [CPU_] |86| 
     615                      .dwpsn  file "C:/work/grepos/c2000_bootROM/f28004x_bootrom/F28004x_ROM_dev/F28004x_ROM/driverlib/pmbu
     616 00000032 0200          MOVB      ACC,#0                ; [CPU_] |88| 
     617 00000033 1E44          MOVL      *-SP[4],ACC           ; [CPU_] |88| 
     618                      .dwpsn  file "C:/work/grepos/c2000_bootROM/f28004x_bootrom/F28004x_ROM_dev/F28004x_ROM/driverlib/pmbu
     619 00000034 1E46          MOVL      *-SP[6],ACC           ; [CPU_] |88| 
     620                      .dwpsn  file "C:/work/grepos/c2000_bootROM/f28004x_bootrom/F28004x_ROM_dev/F28004x_ROM/driverlib/pmbu
     621 00000035 7622   EALLOW
     622                      .dwpsn  file "C:/work/grepos/c2000_bootROM/f28004x_bootrom/F28004x_ROM_dev/F28004x_ROM/driverlib/pmbu
     623 00000036 020A          MOVB      ACC,#10               ; [CPU_] |96| 
     624 00000037 0742          ADDL      ACC,*-SP[2]           ; [CPU_] |96| 
     625 00000038 8AA9          MOVL      XAR4,ACC              ; [CPU_] |96| 
     626 00000039 06C4          MOVL      ACC,*+XAR4[0]         ; [CPU_] |96| 
     627 0000003a 1E44          MOVL      *-SP[4],ACC           ; [CPU_] |96| 
     628                      .dwpsn  file "C:/work/grepos/c2000_bootROM/f28004x_bootrom/F28004x_ROM_dev/F28004x_ROM/driverlib/pmbu
     629 0000003b 8F40          MOVL      XAR5,#1023            ; [CPU_U] |97| 
         0000003c 03FF 
     630 0000003d 020A          MOVB      ACC,#10               ; [CPU_] |97| 
     631 0000003e 0742          ADDL      ACC,*-SP[2]           ; [CPU_] |97| 
     632 0000003f 8AA9          MOVL      XAR4,ACC              ; [CPU_] |97| 
     633 00000040 A0C4          MOVL      *+XAR4[0],XAR5        ; [CPU_] |97| 
     634                      .dwpsn  file "C:/work/grepos/c2000_bootROM/f28004x_bootrom/F28004x_ROM_dev/F28004x_ROM/driverlib/pmbu
     635 00000041 28A9          MOV       AL,#32896             ; [CPU_] |100| 
         00000042 8080 
     636 00000043 9B70          MOV       AH,#112               ; [CPU_] |100| 
     637 00000044 1E46          MOVL      *-SP[6],ACC           ; [CPU_] |100| 
     638                      .dwpsn  file "C:/work/grepos/c2000_bootROM/f28004x_bootrom/F28004x_ROM_dev/F28004x_ROM/driverlib/pmbu
     639 00000045 020C          MOVB      ACC,#12               ; [CPU_] |104| 
     640 00000046 0742          ADDL      ACC,*-SP[2]           ; [CPU_] |104| 
     641 00000047 8AA9          MOVL      XAR4,ACC              ; [CPU_] |104| 
     642 00000048 0646          MOVL      ACC,*-SP[6]           ; [CPU_] |104| 
     643 00000049 FF55          NOT       ACC                   ; [CPU_] |104| 
     644 0000004a C0C4          AND       *+XAR4[0],AL          ; [CPU_] |104| 
     645 0000004b C1CC          AND       *+XAR4[1],AH          ; [CPU_] |104| 
     646                      .dwpsn  file "C:/work/grepos/c2000_bootROM/f28004x_bootrom/F28004x_ROM_dev/F28004x_ROM/driverlib/pmbu
     647 0000004c 020C          MOVB      ACC,#12               ; [CPU_] |107| 
     648 0000004d 0742          ADDL      ACC,*-SP[2]           ; [CPU_] |107| 
     649 0000004e 8AA9          MOVL      XAR4,ACC              ; [CPU_] |107| 
     650 0000004f 064A          MOVL      ACC,*-SP[10]          ; [CPU_] |107| 
     651 00000050 CE46          AND       AL,*-SP[6]            ; [CPU_] |107| 
     652 00000051 CF45          AND       AH,*-SP[5]            ; [CPU_] |107| 
     653 00000052 98C4          OR        *+XAR4[0],AL          ; [CPU_] |107| 
TMS320C2000 Assembler PC v6.2.9 Tue Apr 14 13:33:08 2015

Tools Copyright (c) 1996-2014 Texas Instruments Incorporated
C:\Users\a0272466\AppData\Local\Temp\0769210                         PAGE   13

     654 00000053 99CC          OR        *+XAR4[1],AH          ; [CPU_] |107| 
     655                      .dwpsn  file "C:/work/grepos/c2000_bootROM/f28004x_bootrom/F28004x_ROM_dev/F28004x_ROM/driverlib/pmbu
     656 00000054 C444          MOVL      XAR6,*-SP[4]          ; [CPU_] |110| 
     657 00000055 020A          MOVB      ACC,#10               ; [CPU_] |110| 
     658 00000056 0742          ADDL      ACC,*-SP[2]           ; [CPU_] |110| 
     659 00000057 8AA9          MOVL      XAR4,ACC              ; [CPU_] |110| 
     660 00000058 C2C4          MOVL      *+XAR4[0],XAR6        ; [CPU_] |110| 
     661                      .dwpsn  file "C:/work/grepos/c2000_bootROM/f28004x_bootrom/F28004x_ROM_dev/F28004x_ROM/driverlib/pmbu
     662 00000059 761A   EDIS
     663                      .dwpsn  file "C:/work/grepos/c2000_bootROM/f28004x_bootrom/F28004x_ROM_dev/F28004x_ROM/driverlib/pmbu
     664 0000005a FF69          SPM       #0                    ; [CPU_] 
     665 0000005b FE86          SUBB      SP,#6                 ; [CPU_U] 
     666                      .dwcfi  cfa_offset, -2
     667              $C$DW$31        .dwtag  DW_TAG_TI_branch
     668                      .dwattr $C$DW$31, DW_AT_low_pc(0x00)
     669                      .dwattr $C$DW$31, DW_AT_TI_return
     670 0000005c 0006          LRETR     ; [CPU_] 
     671                      ; return occurs ; [] 
     672                      .dwattr $C$DW$25, DW_AT_TI_end_file("C:/work/grepos/c2000_bootROM/f28004x_bootrom/F28004x_ROM_dev/F28
     673                      .dwattr $C$DW$25, DW_AT_TI_end_line(0x71)
     674                      .dwattr $C$DW$25, DW_AT_TI_end_column(0x01)
     675                      .dwendentry
     676                      .dwendtag $C$DW$25
     677              
     678 0000005d               .sect   ".text"
     679                      .clink
     680                      .global _PMBUS_registerBasicInterrupt
     681              
     682              $C$DW$32        .dwtag  DW_TAG_subprogram, DW_AT_name("PMBUS_registerBasicInterrupt")
     683                      .dwattr $C$DW$32, DW_AT_low_pc(_PMBUS_registerBasicInterrupt)
     684                      .dwattr $C$DW$32, DW_AT_high_pc(0x00)
     685                      .dwattr $C$DW$32, DW_AT_TI_symbol_name("_PMBUS_registerBasicInterrupt")
     686                      .dwattr $C$DW$32, DW_AT_external
     687                      .dwattr $C$DW$32, DW_AT_TI_begin_file("C:/work/grepos/c2000_bootROM/f28004x_bootrom/F28004x_ROM_dev/F
     688                      .dwattr $C$DW$32, DW_AT_TI_begin_line(0x79)
     689                      .dwattr $C$DW$32, DW_AT_TI_begin_column(0x01)
     690                      .dwattr $C$DW$32, DW_AT_TI_max_frame_size(-8)
     691                      .dwpsn  file "C:/work/grepos/c2000_bootROM/f28004x_bootrom/F28004x_ROM_dev/F28004x_ROM/driverlib/pmbu
     692              
     693                      .dwfde $C$DW$CIE, _PMBUS_registerBasicInterrupt
     694              $C$DW$33        .dwtag  DW_TAG_formal_parameter, DW_AT_name("base")
     695                      .dwattr $C$DW$33, DW_AT_TI_symbol_name("_base")
     696                      .dwattr $C$DW$33, DW_AT_type(*$C$DW$T$37)
     697                      .dwattr $C$DW$33, DW_AT_location[DW_OP_reg0]
     698              $C$DW$34        .dwtag  DW_TAG_formal_parameter, DW_AT_name("handler")
     699                      .dwattr $C$DW$34, DW_AT_TI_symbol_name("_handler")
     700                      .dwattr $C$DW$34, DW_AT_type(*$C$DW$T$36)
     701                      .dwattr $C$DW$34, DW_AT_location[DW_OP_reg12]
     702              
     703              ;***************************************************************
     704              ;* FNAME: _PMBUS_registerBasicInterrupt FR SIZE:   6           *
     705              ;*                                                             *
     706              ;* FUNCTION ENVIRONMENT                                        *
     707              ;*                                                             *
     708              ;* FUNCTION PROPERTIES                                         *
TMS320C2000 Assembler PC v6.2.9 Tue Apr 14 13:33:08 2015

Tools Copyright (c) 1996-2014 Texas Instruments Incorporated
C:\Users\a0272466\AppData\Local\Temp\0769210                         PAGE   14

     709              ;*                            0 Parameter,  6 Auto,  0 SOE     *
     710              ;***************************************************************
     711              
     712 0000005d       _PMBUS_registerBasicInterrupt:
     713                      .dwcfi  cfa_offset, -2
     714                      .dwcfi  save_reg_to_mem, 26, 0
     715                      .dwcfi  save_reg_to_reg, 78, 26
     716 0000005d FE06          ADDB      SP,#6                 ; [CPU_U] 
     717                      .dwcfi  cfa_offset, -8
     718              $C$DW$35        .dwtag  DW_TAG_variable, DW_AT_name("base")
     719                      .dwattr $C$DW$35, DW_AT_TI_symbol_name("_base")
     720                      .dwattr $C$DW$35, DW_AT_type(*$C$DW$T$37)
     721                      .dwattr $C$DW$35, DW_AT_location[DW_OP_breg20 -2]
     722              $C$DW$36        .dwtag  DW_TAG_variable, DW_AT_name("handler")
     723                      .dwattr $C$DW$36, DW_AT_TI_symbol_name("_handler")
     724                      .dwattr $C$DW$36, DW_AT_type(*$C$DW$T$36)
     725                      .dwattr $C$DW$36, DW_AT_location[DW_OP_breg20 -4]
     726              $C$DW$37        .dwtag  DW_TAG_variable, DW_AT_name("intNum")
     727                      .dwattr $C$DW$37, DW_AT_TI_symbol_name("_intNum")
     728                      .dwattr $C$DW$37, DW_AT_type(*$C$DW$T$37)
     729                      .dwattr $C$DW$37, DW_AT_location[DW_OP_breg20 -6]
     730 0000005e A844          MOVL      *-SP[4],XAR4          ; [CPU_] |122| 
     731 0000005f 1E42          MOVL      *-SP[2],ACC           ; [CPU_] |122| 
     732                      .dwpsn  file "C:/work/grepos/c2000_bootROM/f28004x_bootrom/F28004x_ROM_dev/F28004x_ROM/driverlib/pmbu
     733 00000060 0642          MOVL      ACC,*-SP[2]           ; [CPU_] |133| 
     734              $C$DW$38        .dwtag  DW_TAG_TI_branch
     735                      .dwattr $C$DW$38, DW_AT_low_pc(0x00)
     736                      .dwattr $C$DW$38, DW_AT_name("_PMBUS_getBasicIntNumber")
     737                      .dwattr $C$DW$38, DW_AT_TI_call
     738 00000061 7640'         LCR       #_PMBUS_getBasicIntNumber ; [CPU_] |133| 
         00000062 0020 
     739                      ; call occurs [#_PMBUS_getBasicIntNumber] ; [] |133| 
     740 00000063 1E46          MOVL      *-SP[6],ACC           ; [CPU_] |133| 
     741                      .dwpsn  file "C:/work/grepos/c2000_bootROM/f28004x_bootrom/F28004x_ROM_dev/F28004x_ROM/driverlib/pmbu
     742 00000064 8A44          MOVL      XAR4,*-SP[4]          ; [CPU_] |140| 
     743 00000065 0646          MOVL      ACC,*-SP[6]           ; [CPU_] |140| 
     744              $C$DW$39        .dwtag  DW_TAG_TI_branch
     745                      .dwattr $C$DW$39, DW_AT_low_pc(0x00)
     746                      .dwattr $C$DW$39, DW_AT_name("_Interrupt_register")
     747                      .dwattr $C$DW$39, DW_AT_TI_call
     748 00000066 7640'         LCR       #_Interrupt_register  ; [CPU_] |140| 
         00000067 0000 
     749                      ; call occurs [#_Interrupt_register] ; [] |140| 
     750                      .dwpsn  file "C:/work/grepos/c2000_bootROM/f28004x_bootrom/F28004x_ROM_dev/F28004x_ROM/driverlib/pmbu
     751 00000068 0646          MOVL      ACC,*-SP[6]           ; [CPU_] |145| 
     752              $C$DW$40        .dwtag  DW_TAG_TI_branch
     753                      .dwattr $C$DW$40, DW_AT_low_pc(0x00)
     754                      .dwattr $C$DW$40, DW_AT_name("_Interrupt_enable")
     755                      .dwattr $C$DW$40, DW_AT_TI_call
     756 00000069 7640!         LCR       #_Interrupt_enable    ; [CPU_] |145| 
         0000006a 0000 
     757                      ; call occurs [#_Interrupt_enable] ; [] |145| 
     758                      .dwpsn  file "C:/work/grepos/c2000_bootROM/f28004x_bootrom/F28004x_ROM_dev/F28004x_ROM/driverlib/pmbu
     759 0000006b FE86          SUBB      SP,#6                 ; [CPU_U] 
     760                      .dwcfi  cfa_offset, -2
TMS320C2000 Assembler PC v6.2.9 Tue Apr 14 13:33:08 2015

Tools Copyright (c) 1996-2014 Texas Instruments Incorporated
C:\Users\a0272466\AppData\Local\Temp\0769210                         PAGE   15

     761              $C$DW$41        .dwtag  DW_TAG_TI_branch
     762                      .dwattr $C$DW$41, DW_AT_low_pc(0x00)
     763                      .dwattr $C$DW$41, DW_AT_TI_return
     764 0000006c 0006          LRETR     ; [CPU_] 
     765                      ; return occurs ; [] 
     766                      .dwattr $C$DW$32, DW_AT_TI_end_file("C:/work/grepos/c2000_bootROM/f28004x_bootrom/F28004x_ROM_dev/F28
     767                      .dwattr $C$DW$32, DW_AT_TI_end_line(0x92)
     768                      .dwattr $C$DW$32, DW_AT_TI_end_column(0x01)
     769                      .dwendentry
     770                      .dwendtag $C$DW$32
     771              
     772 0000006d               .sect   ".text"
     773                      .clink
     774                      .global _PMBUS_unregisterBasicInterrupt
     775              
     776              $C$DW$42        .dwtag  DW_TAG_subprogram, DW_AT_name("PMBUS_unregisterBasicInterrupt")
     777                      .dwattr $C$DW$42, DW_AT_low_pc(_PMBUS_unregisterBasicInterrupt)
     778                      .dwattr $C$DW$42, DW_AT_high_pc(0x00)
     779                      .dwattr $C$DW$42, DW_AT_TI_symbol_name("_PMBUS_unregisterBasicInterrupt")
     780                      .dwattr $C$DW$42, DW_AT_external
     781                      .dwattr $C$DW$42, DW_AT_TI_begin_file("C:/work/grepos/c2000_bootROM/f28004x_bootrom/F28004x_ROM_dev/F
     782                      .dwattr $C$DW$42, DW_AT_TI_begin_line(0x99)
     783                      .dwattr $C$DW$42, DW_AT_TI_begin_column(0x06)
     784                      .dwattr $C$DW$42, DW_AT_TI_max_frame_size(-6)
     785                      .dwpsn  file "C:/work/grepos/c2000_bootROM/f28004x_bootrom/F28004x_ROM_dev/F28004x_ROM/driverlib/pmbu
     786              
     787                      .dwfde $C$DW$CIE, _PMBUS_unregisterBasicInterrupt
     788              $C$DW$43        .dwtag  DW_TAG_formal_parameter, DW_AT_name("base")
     789                      .dwattr $C$DW$43, DW_AT_TI_symbol_name("_base")
     790                      .dwattr $C$DW$43, DW_AT_type(*$C$DW$T$37)
     791                      .dwattr $C$DW$43, DW_AT_location[DW_OP_reg0]
     792              
     793              ;***************************************************************
     794              ;* FNAME: _PMBUS_unregisterBasicInterrupt FR SIZE:   4           *
     795              ;*                                                             *
     796              ;* FUNCTION ENVIRONMENT                                        *
     797              ;*                                                             *
     798              ;* FUNCTION PROPERTIES                                         *
     799              ;*                            0 Parameter,  4 Auto,  0 SOE     *
     800              ;***************************************************************
     801              
     802 0000006d       _PMBUS_unregisterBasicInterrupt:
     803                      .dwcfi  cfa_offset, -2
     804                      .dwcfi  save_reg_to_mem, 26, 0
     805                      .dwcfi  save_reg_to_reg, 78, 26
     806 0000006d FE04          ADDB      SP,#4                 ; [CPU_U] 
     807                      .dwcfi  cfa_offset, -6
     808              $C$DW$44        .dwtag  DW_TAG_variable, DW_AT_name("base")
     809                      .dwattr $C$DW$44, DW_AT_TI_symbol_name("_base")
     810                      .dwattr $C$DW$44, DW_AT_type(*$C$DW$T$37)
     811                      .dwattr $C$DW$44, DW_AT_location[DW_OP_breg20 -2]
     812              $C$DW$45        .dwtag  DW_TAG_variable, DW_AT_name("intNum")
     813                      .dwattr $C$DW$45, DW_AT_TI_symbol_name("_intNum")
     814                      .dwattr $C$DW$45, DW_AT_type(*$C$DW$T$37)
     815                      .dwattr $C$DW$45, DW_AT_location[DW_OP_breg20 -4]
TMS320C2000 Assembler PC v6.2.9 Tue Apr 14 13:33:08 2015

Tools Copyright (c) 1996-2014 Texas Instruments Incorporated
C:\Users\a0272466\AppData\Local\Temp\0769210                         PAGE   16

     816 0000006e 1E42          MOVL      *-SP[2],ACC           ; [CPU_] |154| 
     817                      .dwpsn  file "C:/work/grepos/c2000_bootROM/f28004x_bootrom/F28004x_ROM_dev/F28004x_ROM/driverlib/pmbu
     818 0000006f 0642          MOVL      ACC,*-SP[2]           ; [CPU_] |165| 
     819              $C$DW$46        .dwtag  DW_TAG_TI_branch
     820                      .dwattr $C$DW$46, DW_AT_low_pc(0x00)
     821                      .dwattr $C$DW$46, DW_AT_name("_PMBUS_getBasicIntNumber")
     822                      .dwattr $C$DW$46, DW_AT_TI_call
     823 00000070 7640'         LCR       #_PMBUS_getBasicIntNumber ; [CPU_] |165| 
         00000071 0020 
     824                      ; call occurs [#_PMBUS_getBasicIntNumber] ; [] |165| 
     825 00000072 1E44          MOVL      *-SP[4],ACC           ; [CPU_] |165| 
     826                      .dwpsn  file "C:/work/grepos/c2000_bootROM/f28004x_bootrom/F28004x_ROM_dev/F28004x_ROM/driverlib/pmbu
     827 00000073 0644          MOVL      ACC,*-SP[4]           ; [CPU_] |172| 
     828              $C$DW$47        .dwtag  DW_TAG_TI_branch
     829                      .dwattr $C$DW$47, DW_AT_low_pc(0x00)
     830                      .dwattr $C$DW$47, DW_AT_name("_Interrupt_disable")
     831                      .dwattr $C$DW$47, DW_AT_TI_call
     832 00000074 7640!         LCR       #_Interrupt_disable   ; [CPU_] |172| 
         00000075 0000 
     833                      ; call occurs [#_Interrupt_disable] ; [] |172| 
     834                      .dwpsn  file "C:/work/grepos/c2000_bootROM/f28004x_bootrom/F28004x_ROM_dev/F28004x_ROM/driverlib/pmbu
     835 00000076 0644          MOVL      ACC,*-SP[4]           ; [CPU_] |177| 
     836              $C$DW$48        .dwtag  DW_TAG_TI_branch
     837                      .dwattr $C$DW$48, DW_AT_low_pc(0x00)
     838                      .dwattr $C$DW$48, DW_AT_name("_Interrupt_unregister")
     839                      .dwattr $C$DW$48, DW_AT_TI_call
     840 00000077 7640'         LCR       #_Interrupt_unregister ; [CPU_] |177| 
         00000078 0010 
     841                      ; call occurs [#_Interrupt_unregister] ; [] |177| 
     842                      .dwpsn  file "C:/work/grepos/c2000_bootROM/f28004x_bootrom/F28004x_ROM_dev/F28004x_ROM/driverlib/pmbu
     843 00000079 FE84          SUBB      SP,#4                 ; [CPU_U] 
     844                      .dwcfi  cfa_offset, -2
     845              $C$DW$49        .dwtag  DW_TAG_TI_branch
     846                      .dwattr $C$DW$49, DW_AT_low_pc(0x00)
     847                      .dwattr $C$DW$49, DW_AT_TI_return
     848 0000007a 0006          LRETR     ; [CPU_] 
     849                      ; return occurs ; [] 
     850                      .dwattr $C$DW$42, DW_AT_TI_end_file("C:/work/grepos/c2000_bootROM/f28004x_bootrom/F28004x_ROM_dev/F28
     851                      .dwattr $C$DW$42, DW_AT_TI_end_line(0xb2)
     852                      .dwattr $C$DW$42, DW_AT_TI_end_column(0x01)
     853                      .dwendentry
     854                      .dwendtag $C$DW$42
     855              
     856 0000007b               .sect   ".text"
     857                      .clink
     858                      .global _PMBUS_getInterruptStatus
     859              
     860              $C$DW$50        .dwtag  DW_TAG_subprogram, DW_AT_name("PMBUS_getInterruptStatus")
     861                      .dwattr $C$DW$50, DW_AT_low_pc(_PMBUS_getInterruptStatus)
     862                      .dwattr $C$DW$50, DW_AT_high_pc(0x00)
     863                      .dwattr $C$DW$50, DW_AT_TI_symbol_name("_PMBUS_getInterruptStatus")
     864                      .dwattr $C$DW$50, DW_AT_external
     865                      .dwattr $C$DW$50, DW_AT_type(*$C$DW$T$37)
     866                      .dwattr $C$DW$50, DW_AT_TI_begin_file("C:/work/grepos/c2000_bootROM/f28004x_bootrom/F28004x_ROM_dev/F
     867                      .dwattr $C$DW$50, DW_AT_TI_begin_line(0xba)
TMS320C2000 Assembler PC v6.2.9 Tue Apr 14 13:33:08 2015

Tools Copyright (c) 1996-2014 Texas Instruments Incorporated
C:\Users\a0272466\AppData\Local\Temp\0769210                         PAGE   17

     868                      .dwattr $C$DW$50, DW_AT_TI_begin_column(0x01)
     869                      .dwattr $C$DW$50, DW_AT_TI_max_frame_size(-8)
     870                      .dwpsn  file "C:/work/grepos/c2000_bootROM/f28004x_bootrom/F28004x_ROM_dev/F28004x_ROM/driverlib/pmbu
     871              
     872                      .dwfde $C$DW$CIE, _PMBUS_getInterruptStatus
     873              $C$DW$51        .dwtag  DW_TAG_formal_parameter, DW_AT_name("base")
     874                      .dwattr $C$DW$51, DW_AT_TI_symbol_name("_base")
     875                      .dwattr $C$DW$51, DW_AT_type(*$C$DW$T$37)
     876                      .dwattr $C$DW$51, DW_AT_location[DW_OP_reg0]
     877              
     878              ;***************************************************************
     879              ;* FNAME: _PMBUS_getInterruptStatus     FR SIZE:   6           *
     880              ;*                                                             *
     881              ;* FUNCTION ENVIRONMENT                                        *
     882              ;*                                                             *
     883              ;* FUNCTION PROPERTIES                                         *
     884              ;*                            0 Parameter,  6 Auto,  0 SOE     *
     885              ;***************************************************************
     886              
     887 0000007b       _PMBUS_getInterruptStatus:
     888                      .dwcfi  cfa_offset, -2
     889                      .dwcfi  save_reg_to_mem, 26, 0
     890                      .dwcfi  save_reg_to_reg, 78, 26
     891 0000007b FE06          ADDB      SP,#6                 ; [CPU_U] 
     892                      .dwcfi  cfa_offset, -8
     893              $C$DW$52        .dwtag  DW_TAG_variable, DW_AT_name("base")
     894                      .dwattr $C$DW$52, DW_AT_TI_symbol_name("_base")
     895                      .dwattr $C$DW$52, DW_AT_type(*$C$DW$T$37)
     896                      .dwattr $C$DW$52, DW_AT_location[DW_OP_breg20 -2]
     897              $C$DW$53        .dwtag  DW_TAG_variable, DW_AT_name("temp")
     898                      .dwattr $C$DW$53, DW_AT_TI_symbol_name("_temp")
     899                      .dwattr $C$DW$53, DW_AT_type(*$C$DW$T$37)
     900                      .dwattr $C$DW$53, DW_AT_location[DW_OP_breg20 -4]
     901              $C$DW$54        .dwtag  DW_TAG_variable, DW_AT_name("intStatus")
     902                      .dwattr $C$DW$54, DW_AT_TI_symbol_name("_intStatus")
     903                      .dwattr $C$DW$54, DW_AT_type(*$C$DW$T$37)
     904                      .dwattr $C$DW$54, DW_AT_location[DW_OP_breg20 -6]
     905 0000007c 1E42          MOVL      *-SP[2],ACC           ; [CPU_] |187| 
     906                      .dwpsn  file "C:/work/grepos/c2000_bootROM/f28004x_bootrom/F28004x_ROM_dev/F28004x_ROM/driverlib/pmbu
     907 0000007d 0200          MOVB      ACC,#0                ; [CPU_] |188| 
     908 0000007e 1E46          MOVL      *-SP[6],ACC           ; [CPU_] |188| 
     909                      .dwpsn  file "C:/work/grepos/c2000_bootROM/f28004x_bootrom/F28004x_ROM_dev/F28004x_ROM/driverlib/pmbu
     910 0000007f 0208          MOVB      ACC,#8                ; [CPU_] |195| 
     911 00000080 0742          ADDL      ACC,*-SP[2]           ; [CPU_] |195| 
     912 00000081 8AA9          MOVL      XAR4,ACC              ; [CPU_] |195| 
     913 00000082 06C4          MOVL      ACC,*+XAR4[0]         ; [CPU_] |195| 
     914 00000083 9103          ANDB      AH,#3                 ; [CPU_] |195| 
     915 00000084 1E44          MOVL      *-SP[4],ACC           ; [CPU_] |195| 
     916                      .dwpsn  file "C:/work/grepos/c2000_bootROM/f28004x_bootrom/F28004x_ROM_dev/F28004x_ROM/driverlib/pmbu
     917 00000085 4344          TBIT      *-SP[4],#3            ; [CPU_] |201| 
     918 00000086 EF03          BF        $C$L3,NTC             ; [CPU_] |201| 
     919                      ; branchcc occurs ; [] |201| 
     920                      .dwpsn  file "C:/work/grepos/c2000_bootROM/f28004x_bootrom/F28004x_ROM_dev/F28004x_ROM/driverlib/pmbu
     921 00000087 1A46          OR        *-SP[6],#4            ; [CPU_] |204| 
         00000088 0004 
TMS320C2000 Assembler PC v6.2.9 Tue Apr 14 13:33:08 2015

Tools Copyright (c) 1996-2014 Texas Instruments Incorporated
C:\Users\a0272466\AppData\Local\Temp\0769210                         PAGE   18

     922 00000089       $C$L3:    
     923                      .dwpsn  file "C:/work/grepos/c2000_bootROM/f28004x_bootrom/F28004x_ROM_dev/F28004x_ROM/driverlib/pmbu
     924 00000089 4444          TBIT      *-SP[4],#4            ; [CPU_] |206| 
     925 0000008a EF03          BF        $C$L4,NTC             ; [CPU_] |206| 
     926                      ; branchcc occurs ; [] |206| 
     927                      .dwpsn  file "C:/work/grepos/c2000_bootROM/f28004x_bootrom/F28004x_ROM_dev/F28004x_ROM/driverlib/pmbu
     928 0000008b 1A46          OR        *-SP[6],#8            ; [CPU_] |209| 
         0000008c 0008 
     929 0000008d       $C$L4:    
     930                      .dwpsn  file "C:/work/grepos/c2000_bootROM/f28004x_bootrom/F28004x_ROM_dev/F28004x_ROM/driverlib/pmbu
     931 0000008d 4544          TBIT      *-SP[4],#5            ; [CPU_] |211| 
     932 0000008e EF03          BF        $C$L5,NTC             ; [CPU_] |211| 
     933                      ; branchcc occurs ; [] |211| 
     934                      .dwpsn  file "C:/work/grepos/c2000_bootROM/f28004x_bootrom/F28004x_ROM_dev/F28004x_ROM/driverlib/pmbu
     935 0000008f 1A46          OR        *-SP[6],#32           ; [CPU_] |214| 
         00000090 0020 
     936 00000091       $C$L5:    
     937                      .dwpsn  file "C:/work/grepos/c2000_bootROM/f28004x_bootrom/F28004x_ROM_dev/F28004x_ROM/driverlib/pmbu
     938 00000091 4844          TBIT      *-SP[4],#8            ; [CPU_] |216| 
     939 00000092 EF03          BF        $C$L6,NTC             ; [CPU_] |216| 
     940                      ; branchcc occurs ; [] |216| 
     941                      .dwpsn  file "C:/work/grepos/c2000_bootROM/f28004x_bootrom/F28004x_ROM_dev/F28004x_ROM/driverlib/pmbu
     942 00000093 1A46          OR        *-SP[6],#2            ; [CPU_] |219| 
         00000094 0002 
     943 00000095       $C$L6:    
     944                      .dwpsn  file "C:/work/grepos/c2000_bootROM/f28004x_bootrom/F28004x_ROM_dev/F28004x_ROM/driverlib/pmbu
     945 00000095 4944          TBIT      *-SP[4],#9            ; [CPU_] |221| 
     946 00000096 EF03          BF        $C$L7,NTC             ; [CPU_] |221| 
     947                      ; branchcc occurs ; [] |221| 
     948                      .dwpsn  file "C:/work/grepos/c2000_bootROM/f28004x_bootrom/F28004x_ROM_dev/F28004x_ROM/driverlib/pmbu
     949 00000097 1A46          OR        *-SP[6],#512          ; [CPU_] |224| 
         00000098 0200 
     950 00000099       $C$L7:    
     951                      .dwpsn  file "C:/work/grepos/c2000_bootROM/f28004x_bootrom/F28004x_ROM_dev/F28004x_ROM/driverlib/pmbu
     952 00000099 4A44          TBIT      *-SP[4],#10           ; [CPU_] |226| 
     953 0000009a EF03          BF        $C$L8,NTC             ; [CPU_] |226| 
     954                      ; branchcc occurs ; [] |226| 
     955                      .dwpsn  file "C:/work/grepos/c2000_bootROM/f28004x_bootrom/F28004x_ROM_dev/F28004x_ROM/driverlib/pmbu
     956 0000009b 1A46          OR        *-SP[6],#16           ; [CPU_] |229| 
         0000009c 0010 
     957 0000009d       $C$L8:    
     958                      .dwpsn  file "C:/work/grepos/c2000_bootROM/f28004x_bootrom/F28004x_ROM_dev/F28004x_ROM/driverlib/pmbu
     959 0000009d 4D44          TBIT      *-SP[4],#13           ; [CPU_] |231| 
     960 0000009e EF03          BF        $C$L9,NTC             ; [CPU_] |231| 
     961                      ; branchcc occurs ; [] |231| 
     962                      .dwpsn  file "C:/work/grepos/c2000_bootROM/f28004x_bootrom/F28004x_ROM_dev/F28004x_ROM/driverlib/pmbu
     963 0000009f 1A46          OR        *-SP[6],#1            ; [CPU_] |234| 
         000000a0 0001 
     964 000000a1       $C$L9:    
     965                      .dwpsn  file "C:/work/grepos/c2000_bootROM/f28004x_bootrom/F28004x_ROM_dev/F28004x_ROM/driverlib/pmbu
     966 000000a1 4E44          TBIT      *-SP[4],#14           ; [CPU_] |236| 
     967 000000a2 EF03          BF        $C$L10,NTC            ; [CPU_] |236| 
     968                      ; branchcc occurs ; [] |236| 
     969                      .dwpsn  file "C:/work/grepos/c2000_bootROM/f28004x_bootrom/F28004x_ROM_dev/F28004x_ROM/driverlib/pmbu
     970 000000a3 1A46          OR        *-SP[6],#256          ; [CPU_] |239| 
TMS320C2000 Assembler PC v6.2.9 Tue Apr 14 13:33:08 2015

Tools Copyright (c) 1996-2014 Texas Instruments Incorporated
C:\Users\a0272466\AppData\Local\Temp\0769210                         PAGE   19

         000000a4 0100 
     971 000000a5       $C$L10:    
     972                      .dwpsn  file "C:/work/grepos/c2000_bootROM/f28004x_bootrom/F28004x_ROM_dev/F28004x_ROM/driverlib/pmbu
     973 000000a5 4043          TBIT      *-SP[3],#0            ; [CPU_] |241| 
     974 000000a6 EF03          BF        $C$L11,NTC            ; [CPU_] |241| 
     975                      ; branchcc occurs ; [] |241| 
     976                      .dwpsn  file "C:/work/grepos/c2000_bootROM/f28004x_bootrom/F28004x_ROM_dev/F28004x_ROM/driverlib/pmbu
     977 000000a7 1A46          OR        *-SP[6],#64           ; [CPU_] |244| 
         000000a8 0040 
     978 000000a9       $C$L11:    
     979                      .dwpsn  file "C:/work/grepos/c2000_bootROM/f28004x_bootrom/F28004x_ROM_dev/F28004x_ROM/driverlib/pmbu
     980 000000a9 4143          TBIT      *-SP[3],#1            ; [CPU_] |246| 
     981 000000aa EF03          BF        $C$L12,NTC            ; [CPU_] |246| 
     982                      ; branchcc occurs ; [] |246| 
     983                      .dwpsn  file "C:/work/grepos/c2000_bootROM/f28004x_bootrom/F28004x_ROM_dev/F28004x_ROM/driverlib/pmbu
     984 000000ab 1A46          OR        *-SP[6],#128          ; [CPU_] |249| 
         000000ac 0080 
     985 000000ad       $C$L12:    
     986                      .dwpsn  file "C:/work/grepos/c2000_bootROM/f28004x_bootrom/F28004x_ROM_dev/F28004x_ROM/driverlib/pmbu
     987 000000ad 0646          MOVL      ACC,*-SP[6]           ; [CPU_] |251| 
     988                      .dwpsn  file "C:/work/grepos/c2000_bootROM/f28004x_bootrom/F28004x_ROM_dev/F28004x_ROM/driverlib/pmbu
     989 000000ae FE86          SUBB      SP,#6                 ; [CPU_U] 
     990                      .dwcfi  cfa_offset, -2
     991              $C$DW$55        .dwtag  DW_TAG_TI_branch
     992                      .dwattr $C$DW$55, DW_AT_low_pc(0x00)
     993                      .dwattr $C$DW$55, DW_AT_TI_return
     994 000000af 0006          LRETR     ; [CPU_] 
     995                      ; return occurs ; [] 
     996                      .dwattr $C$DW$50, DW_AT_TI_end_file("C:/work/grepos/c2000_bootROM/f28004x_bootrom/F28004x_ROM_dev/F28
     997                      .dwattr $C$DW$50, DW_AT_TI_end_line(0xfc)
     998                      .dwattr $C$DW$50, DW_AT_TI_end_column(0x01)
     999                      .dwendentry
    1000                      .dwendtag $C$DW$50
    1001              
    1002 000000b0               .sect   ".text"
    1003                      .clink
    1004                      .global _PMBUS_getSlaveData
    1005              
    1006              $C$DW$56        .dwtag  DW_TAG_subprogram, DW_AT_name("PMBUS_getSlaveData")
    1007                      .dwattr $C$DW$56, DW_AT_low_pc(_PMBUS_getSlaveData)
    1008                      .dwattr $C$DW$56, DW_AT_high_pc(0x00)
    1009                      .dwattr $C$DW$56, DW_AT_TI_symbol_name("_PMBUS_getSlaveData")
    1010                      .dwattr $C$DW$56, DW_AT_external
    1011                      .dwattr $C$DW$56, DW_AT_type(*$C$DW$T$20)
    1012                      .dwattr $C$DW$56, DW_AT_TI_begin_file("C:/work/grepos/c2000_bootROM/f28004x_bootrom/F28004x_ROM_dev/F
    1013                      .dwattr $C$DW$56, DW_AT_TI_begin_line(0x104)
    1014                      .dwattr $C$DW$56, DW_AT_TI_begin_column(0x01)
    1015                      .dwattr $C$DW$56, DW_AT_TI_max_frame_size(-12)
    1016                      .dwpsn  file "C:/work/grepos/c2000_bootROM/f28004x_bootrom/F28004x_ROM_dev/F28004x_ROM/driverlib/pmbu
    1017              
    1018                      .dwfde $C$DW$CIE, _PMBUS_getSlaveData
    1019              $C$DW$57        .dwtag  DW_TAG_formal_parameter, DW_AT_name("base")
    1020                      .dwattr $C$DW$57, DW_AT_TI_symbol_name("_base")
    1021                      .dwattr $C$DW$57, DW_AT_type(*$C$DW$T$37)
    1022                      .dwattr $C$DW$57, DW_AT_location[DW_OP_reg0]
TMS320C2000 Assembler PC v6.2.9 Tue Apr 14 13:33:08 2015

Tools Copyright (c) 1996-2014 Texas Instruments Incorporated
C:\Users\a0272466\AppData\Local\Temp\0769210                         PAGE   20

    1023              $C$DW$58        .dwtag  DW_TAG_formal_parameter, DW_AT_name("buffer")
    1024                      .dwattr $C$DW$58, DW_AT_TI_symbol_name("_buffer")
    1025                      .dwattr $C$DW$58, DW_AT_type(*$C$DW$T$47)
    1026                      .dwattr $C$DW$58, DW_AT_location[DW_OP_reg12]
    1027              $C$DW$59        .dwtag  DW_TAG_formal_parameter, DW_AT_name("status")
    1028                      .dwattr $C$DW$59, DW_AT_TI_symbol_name("_status")
    1029                      .dwattr $C$DW$59, DW_AT_type(*$C$DW$T$37)
    1030                      .dwattr $C$DW$59, DW_AT_location[DW_OP_breg20 -14]
    1031              
    1032              ;***************************************************************
    1033              ;* FNAME: _PMBUS_getSlaveData           FR SIZE:  10           *
    1034              ;*                                                             *
    1035              ;* FUNCTION ENVIRONMENT                                        *
    1036              ;*                                                             *
    1037              ;* FUNCTION PROPERTIES                                         *
    1038              ;*                            0 Parameter,  9 Auto,  0 SOE     *
    1039              ;***************************************************************
    1040              
    1041 000000b0       _PMBUS_getSlaveData:
    1042                      .dwcfi  cfa_offset, -2
    1043                      .dwcfi  save_reg_to_mem, 26, 0
    1044                      .dwcfi  save_reg_to_reg, 78, 26
    1045 000000b0 FE0A          ADDB      SP,#10                ; [CPU_U] 
    1046                      .dwcfi  cfa_offset, -12
    1047              $C$DW$60        .dwtag  DW_TAG_variable, DW_AT_name("base")
    1048                      .dwattr $C$DW$60, DW_AT_TI_symbol_name("_base")
    1049                      .dwattr $C$DW$60, DW_AT_type(*$C$DW$T$37)
    1050                      .dwattr $C$DW$60, DW_AT_location[DW_OP_breg20 -2]
    1051              $C$DW$61        .dwtag  DW_TAG_variable, DW_AT_name("buffer")
    1052                      .dwattr $C$DW$61, DW_AT_TI_symbol_name("_buffer")
    1053                      .dwattr $C$DW$61, DW_AT_type(*$C$DW$T$47)
    1054                      .dwattr $C$DW$61, DW_AT_location[DW_OP_breg20 -4]
    1055              $C$DW$62        .dwtag  DW_TAG_variable, DW_AT_name("temp")
    1056                      .dwattr $C$DW$62, DW_AT_TI_symbol_name("_temp")
    1057                      .dwattr $C$DW$62, DW_AT_type(*$C$DW$T$37)
    1058                      .dwattr $C$DW$62, DW_AT_location[DW_OP_breg20 -6]
    1059              $C$DW$63        .dwtag  DW_TAG_variable, DW_AT_name("i")
    1060                      .dwattr $C$DW$63, DW_AT_TI_symbol_name("_i")
    1061                      .dwattr $C$DW$63, DW_AT_type(*$C$DW$T$37)
    1062                      .dwattr $C$DW$63, DW_AT_location[DW_OP_breg20 -8]
    1063              $C$DW$64        .dwtag  DW_TAG_variable, DW_AT_name("num_rx_bytes")
    1064                      .dwattr $C$DW$64, DW_AT_TI_symbol_name("_num_rx_bytes")
    1065                      .dwattr $C$DW$64, DW_AT_type(*$C$DW$T$19)
    1066                      .dwattr $C$DW$64, DW_AT_location[DW_OP_breg20 -9]
    1067 000000b1 A844          MOVL      *-SP[4],XAR4          ; [CPU_] |261| 
    1068 000000b2 1E42          MOVL      *-SP[2],ACC           ; [CPU_] |261| 
    1069                      .dwpsn  file "C:/work/grepos/c2000_bootROM/f28004x_bootrom/F28004x_ROM_dev/F28004x_ROM/driverlib/pmbu
    1070 000000b3 0200          MOVB      ACC,#0                ; [CPU_] |263| 
    1071 000000b4 1E48          MOVL      *-SP[8],ACC           ; [CPU_] |263| 
    1072                      .dwpsn  file "C:/work/grepos/c2000_bootROM/f28004x_bootrom/F28004x_ROM_dev/F28004x_ROM/driverlib/pmbu
    1073 000000b5 2B49          MOV       *-SP[9],#0            ; [CPU_] |264| 
    1074                      .dwpsn  file "C:/work/grepos/c2000_bootROM/f28004x_bootrom/F28004x_ROM_dev/F28004x_ROM/driverlib/pmbu
    1075 000000b6 CC4E          AND       AL,*-SP[14],#0x0007   ; [CPU_] |273| 
         000000b7 0007 
    1076 000000b8 9649          MOV       *-SP[9],AL            ; [CPU_] |273| 
TMS320C2000 Assembler PC v6.2.9 Tue Apr 14 13:33:08 2015

Tools Copyright (c) 1996-2014 Texas Instruments Incorporated
C:\Users\a0272466\AppData\Local\Temp\0769210                         PAGE   21

    1077                      .dwpsn  file "C:/work/grepos/c2000_bootROM/f28004x_bootrom/F28004x_ROM_dev/F28004x_ROM/driverlib/pmbu
    1078 000000b9 ED03          BF        $C$L13,NEQ            ; [CPU_] |276| 
    1079                      ; branchcc occurs ; [] |276| 
    1080                      .dwpsn  file "C:/work/grepos/c2000_bootROM/f28004x_bootrom/F28004x_ROM_dev/F28004x_ROM/driverlib/pmbu
    1081 000000ba 9A00          MOVB      AL,#0                 ; [CPU_] |278| 
    1082 000000bb 6F1F          B         $C$L16,UNC            ; [CPU_] |278| 
    1083                      ; branch occurs ; [] |278| 
    1084 000000bc       $C$L13:    
    1085                      .dwpsn  file "C:/work/grepos/c2000_bootROM/f28004x_bootrom/F28004x_ROM_dev/F28004x_ROM/driverlib/pmbu
    1086 000000bc 0204          MOVB      ACC,#4                ; [CPU_] |282| 
    1087 000000bd 0742          ADDL      ACC,*-SP[2]           ; [CPU_] |282| 
    1088 000000be 8AA9          MOVL      XAR4,ACC              ; [CPU_] |282| 
    1089 000000bf 06C4          MOVL      ACC,*+XAR4[0]         ; [CPU_] |282| 
    1090 000000c0 1E46          MOVL      *-SP[6],ACC           ; [CPU_] |282| 
    1091                      .dwpsn  file "C:/work/grepos/c2000_bootROM/f28004x_bootrom/F28004x_ROM_dev/F28004x_ROM/driverlib/pmbu
    1092 000000c1 0200          MOVB      ACC,#0                ; [CPU_] |283| 
    1093 000000c2 1E48          MOVL      *-SP[8],ACC           ; [CPU_] |283| 
    1094                      .dwpsn  file "C:/work/grepos/c2000_bootROM/f28004x_bootrom/F28004x_ROM_dev/F28004x_ROM/driverlib/pmbu
    1095 000000c3 0E49          MOVU      ACC,*-SP[9]           ; [CPU_] |283| 
    1096 000000c4 0F48          CMPL      ACC,*-SP[8]           ; [CPU_] |283| 
    1097 000000c5 6914          B         $C$L15,LOS            ; [CPU_] |283| 
    1098                      ; branchcc occurs ; [] |283| 
    1099 000000c6       $C$L14:    
    1100                      .dwpsn  file "C:/work/grepos/c2000_bootROM/f28004x_bootrom/F28004x_ROM_dev/F28004x_ROM/driverlib/pmbu
    1101 000000c6 5603          MOV       ACC,*-SP[8] << #3     ; [CPU_] |285| 
         000000c7 0348 
    1102 000000c8 2DA9          MOV       T,AL                  ; [CPU_] |285| 
    1103 000000c9 0646          MOVL      ACC,*-SP[6]           ; [CPU_] |285| 
    1104 000000ca 5622          LSRL      ACC,T                 ; [CPU_] |285| 
    1105 000000cb 1EA6          MOVL      XAR6,ACC              ; [CPU_] |285| 
    1106 000000cc 92A6          MOV       AL,AR6                ; [CPU_] |285| 
    1107 000000cd 90FF          ANDB      AL,#0xff              ; [CPU_] |285| 
    1108 000000ce 88A9          MOVZ      AR6,AL                ; [CPU_] |285| 
    1109 000000cf 0644          MOVL      ACC,*-SP[4]           ; [CPU_] |285| 
    1110 000000d0 0748          ADDL      ACC,*-SP[8]           ; [CPU_] |285| 
    1111 000000d1 8AA9          MOVL      XAR4,ACC              ; [CPU_] |285| 
    1112 000000d2 7EC4          MOV       *+XAR4[0],AR6         ; [CPU_] |285| 
    1113                      .dwpsn  file "C:/work/grepos/c2000_bootROM/f28004x_bootrom/F28004x_ROM_dev/F28004x_ROM/driverlib/pmbu
    1114 000000d3 0201          MOVB      ACC,#1                ; [CPU_] |283| 
    1115 000000d4 0748          ADDL      ACC,*-SP[8]           ; [CPU_] |283| 
    1116 000000d5 1E48          MOVL      *-SP[8],ACC           ; [CPU_] |283| 
    1117                      .dwpsn  file "C:/work/grepos/c2000_bootROM/f28004x_bootrom/F28004x_ROM_dev/F28004x_ROM/driverlib/pmbu
    1118 000000d6 0E49          MOVU      ACC,*-SP[9]           ; [CPU_] |283| 
    1119 000000d7 0F48          CMPL      ACC,*-SP[8]           ; [CPU_] |283| 
    1120 000000d8 66EE          B         $C$L14,HI             ; [CPU_] |283| 
    1121                      ; branchcc occurs ; [] |283| 
    1122 000000d9       $C$L15:    
    1123                      .dwpsn  file "C:/work/grepos/c2000_bootROM/f28004x_bootrom/F28004x_ROM_dev/F28004x_ROM/driverlib/pmbu
    1124 000000d9 9A01          MOVB      AL,#1                 ; [CPU_] |289| 
    1125 000000da       $C$L16:    
    1126                      .dwpsn  file "C:/work/grepos/c2000_bootROM/f28004x_bootrom/F28004x_ROM_dev/F28004x_ROM/driverlib/pmbu
    1127 000000da FE8A          SUBB      SP,#10                ; [CPU_U] 
    1128                      .dwcfi  cfa_offset, -2
    1129              $C$DW$65        .dwtag  DW_TAG_TI_branch
    1130                      .dwattr $C$DW$65, DW_AT_low_pc(0x00)
TMS320C2000 Assembler PC v6.2.9 Tue Apr 14 13:33:08 2015

Tools Copyright (c) 1996-2014 Texas Instruments Incorporated
C:\Users\a0272466\AppData\Local\Temp\0769210                         PAGE   22

    1131                      .dwattr $C$DW$65, DW_AT_TI_return
    1132 000000db 0006          LRETR     ; [CPU_] 
    1133                      ; return occurs ; [] 
    1134                      .dwattr $C$DW$56, DW_AT_TI_end_file("C:/work/grepos/c2000_bootROM/f28004x_bootrom/F28004x_ROM_dev/F28
    1135                      .dwattr $C$DW$56, DW_AT_TI_end_line(0x122)
    1136                      .dwattr $C$DW$56, DW_AT_TI_end_column(0x01)
    1137                      .dwendentry
    1138                      .dwendtag $C$DW$56
    1139              
    1140 000000dc               .sect   ".text"
    1141                      .clink
    1142                      .global _PMBUS_putSlaveData
    1143              
    1144              $C$DW$66        .dwtag  DW_TAG_subprogram, DW_AT_name("PMBUS_putSlaveData")
    1145                      .dwattr $C$DW$66, DW_AT_low_pc(_PMBUS_putSlaveData)
    1146                      .dwattr $C$DW$66, DW_AT_high_pc(0x00)
    1147                      .dwattr $C$DW$66, DW_AT_TI_symbol_name("_PMBUS_putSlaveData")
    1148                      .dwattr $C$DW$66, DW_AT_external
    1149                      .dwattr $C$DW$66, DW_AT_type(*$C$DW$T$20)
    1150                      .dwattr $C$DW$66, DW_AT_TI_begin_file("C:/work/grepos/c2000_bootROM/f28004x_bootrom/F28004x_ROM_dev/F
    1151                      .dwattr $C$DW$66, DW_AT_TI_begin_line(0x12a)
    1152                      .dwattr $C$DW$66, DW_AT_TI_begin_column(0x01)
    1153                      .dwattr $C$DW$66, DW_AT_TI_max_frame_size(-10)
    1154                      .dwpsn  file "C:/work/grepos/c2000_bootROM/f28004x_bootrom/F28004x_ROM_dev/F28004x_ROM/driverlib/pmbu
    1155              
    1156                      .dwfde $C$DW$CIE, _PMBUS_putSlaveData
    1157              $C$DW$67        .dwtag  DW_TAG_formal_parameter, DW_AT_name("base")
    1158                      .dwattr $C$DW$67, DW_AT_TI_symbol_name("_base")
    1159                      .dwattr $C$DW$67, DW_AT_type(*$C$DW$T$37)
    1160                      .dwattr $C$DW$67, DW_AT_location[DW_OP_reg0]
    1161              $C$DW$68        .dwtag  DW_TAG_formal_parameter, DW_AT_name("buffer")
    1162                      .dwattr $C$DW$68, DW_AT_TI_symbol_name("_buffer")
    1163                      .dwattr $C$DW$68, DW_AT_type(*$C$DW$T$47)
    1164                      .dwattr $C$DW$68, DW_AT_location[DW_OP_reg12]
    1165              $C$DW$69        .dwtag  DW_TAG_formal_parameter, DW_AT_name("nBytes")
    1166                      .dwattr $C$DW$69, DW_AT_TI_symbol_name("_nBytes")
    1167                      .dwattr $C$DW$69, DW_AT_type(*$C$DW$T$19)
    1168                      .dwattr $C$DW$69, DW_AT_location[DW_OP_reg14]
    1169              $C$DW$70        .dwtag  DW_TAG_formal_parameter, DW_AT_name("txPEC")
    1170                      .dwattr $C$DW$70, DW_AT_TI_symbol_name("_txPEC")
    1171                      .dwattr $C$DW$70, DW_AT_type(*$C$DW$T$20)
    1172                      .dwattr $C$DW$70, DW_AT_location[DW_OP_breg20 -11]
    1173              
    1174              ;***************************************************************
    1175              ;* FNAME: _PMBUS_putSlaveData           FR SIZE:   8           *
    1176              ;*                                                             *
    1177              ;* FUNCTION ENVIRONMENT                                        *
    1178              ;*                                                             *
    1179              ;* FUNCTION PROPERTIES                                         *
    1180              ;*                            0 Parameter,  8 Auto,  0 SOE     *
    1181              ;***************************************************************
    1182              
    1183 000000dc       _PMBUS_putSlaveData:
    1184                      .dwcfi  cfa_offset, -2
    1185                      .dwcfi  save_reg_to_mem, 26, 0
TMS320C2000 Assembler PC v6.2.9 Tue Apr 14 13:33:08 2015

Tools Copyright (c) 1996-2014 Texas Instruments Incorporated
C:\Users\a0272466\AppData\Local\Temp\0769210                         PAGE   23

    1186                      .dwcfi  save_reg_to_reg, 78, 26
    1187 000000dc FE08          ADDB      SP,#8                 ; [CPU_U] 
    1188                      .dwcfi  cfa_offset, -10
    1189              $C$DW$71        .dwtag  DW_TAG_variable, DW_AT_name("base")
    1190                      .dwattr $C$DW$71, DW_AT_TI_symbol_name("_base")
    1191                      .dwattr $C$DW$71, DW_AT_type(*$C$DW$T$37)
    1192                      .dwattr $C$DW$71, DW_AT_location[DW_OP_breg20 -2]
    1193              $C$DW$72        .dwtag  DW_TAG_variable, DW_AT_name("buffer")
    1194                      .dwattr $C$DW$72, DW_AT_TI_symbol_name("_buffer")
    1195                      .dwattr $C$DW$72, DW_AT_type(*$C$DW$T$47)
    1196                      .dwattr $C$DW$72, DW_AT_location[DW_OP_breg20 -4]
    1197              $C$DW$73        .dwtag  DW_TAG_variable, DW_AT_name("nBytes")
    1198                      .dwattr $C$DW$73, DW_AT_TI_symbol_name("_nBytes")
    1199                      .dwattr $C$DW$73, DW_AT_type(*$C$DW$T$19)
    1200                      .dwattr $C$DW$73, DW_AT_location[DW_OP_breg20 -5]
    1201              $C$DW$74        .dwtag  DW_TAG_variable, DW_AT_name("i")
    1202                      .dwattr $C$DW$74, DW_AT_TI_symbol_name("_i")
    1203                      .dwattr $C$DW$74, DW_AT_type(*$C$DW$T$19)
    1204                      .dwattr $C$DW$74, DW_AT_location[DW_OP_breg20 -6]
    1205              $C$DW$75        .dwtag  DW_TAG_variable, DW_AT_name("tx_data")
    1206                      .dwattr $C$DW$75, DW_AT_TI_symbol_name("_tx_data")
    1207                      .dwattr $C$DW$75, DW_AT_type(*$C$DW$T$37)
    1208                      .dwattr $C$DW$75, DW_AT_location[DW_OP_breg20 -8]
    1209 000000dd 7D45          MOV       *-SP[5],AR5           ; [CPU_] |299| 
    1210 000000de A844          MOVL      *-SP[4],XAR4          ; [CPU_] |299| 
    1211 000000df 1E42          MOVL      *-SP[2],ACC           ; [CPU_] |299| 
    1212                      .dwpsn  file "C:/work/grepos/c2000_bootROM/f28004x_bootrom/F28004x_ROM_dev/F28004x_ROM/driverlib/pmbu
    1213 000000e0 2B46          MOV       *-SP[6],#0            ; [CPU_] |301| 
    1214                      .dwpsn  file "C:/work/grepos/c2000_bootROM/f28004x_bootrom/F28004x_ROM_dev/F28004x_ROM/driverlib/pmbu
    1215 000000e1 0200          MOVB      ACC,#0                ; [CPU_] |302| 
    1216 000000e2 1E48          MOVL      *-SP[8],ACC           ; [CPU_] |302| 
    1217                      .dwpsn  file "C:/work/grepos/c2000_bootROM/f28004x_bootrom/F28004x_ROM_dev/F28004x_ROM/driverlib/pmbu
    1218 000000e3 7622   EALLOW
    1219                      .dwpsn  file "C:/work/grepos/c2000_bootROM/f28004x_bootrom/F28004x_ROM_dev/F28004x_ROM/driverlib/pmbu
    1220 000000e4 8F07          MOVL      XAR4,#458752          ; [CPU_U] |314| 
         000000e5 0000 
    1221 000000e6 2901          CLRC      SXM                   ; [CPU_] 
    1222 000000e7 020C          MOVB      ACC,#12               ; [CPU_] |314| 
    1223 000000e8 A8AB          MOVL      P,XAR4                ; [CPU_] |314| 
    1224 000000e9 0742          ADDL      ACC,*-SP[2]           ; [CPU_] |314| 
    1225 000000ea 83A9          MOVL      XAR5,ACC              ; [CPU_] |314| 
    1226 000000eb 2545          MOV       ACC,*-SP[5] << 16     ; [CPU_] |314| 
    1227 000000ec CEAB          AND       AL,PL                 ; [CPU_] |314| 
    1228 000000ed CFAA          AND       AH,PH                 ; [CPU_] |314| 
    1229 000000ee 98C5          OR        *+XAR5[0],AL          ; [CPU_] |314| 
    1230 000000ef 99CD          OR        *+XAR5[1],AH          ; [CPU_] |314| 
    1231                      .dwpsn  file "C:/work/grepos/c2000_bootROM/f28004x_bootrom/F28004x_ROM_dev/F28004x_ROM/driverlib/pmbu
    1232 000000f0 924B          MOV       AL,*-SP[11]           ; [CPU_] |316| 
    1233 000000f1 5201          CMPB      AL,#1                 ; [CPU_] |316| 
    1234 000000f2 ED07          BF        $C$L17,NEQ            ; [CPU_] |316| 
    1235                      ; branchcc occurs ; [] |316| 
    1236                      .dwpsn  file "C:/work/grepos/c2000_bootROM/f28004x_bootrom/F28004x_ROM_dev/F28004x_ROM/driverlib/pmbu
    1237 000000f3 020C          MOVB      ACC,#12               ; [CPU_] |318| 
    1238 000000f4 0742          ADDL      ACC,*-SP[2]           ; [CPU_] |318| 
    1239 000000f5 8AA9          MOVL      XAR4,ACC              ; [CPU_] |318| 
TMS320C2000 Assembler PC v6.2.9 Tue Apr 14 13:33:08 2015

Tools Copyright (c) 1996-2014 Texas Instruments Incorporated
C:\Users\a0272466\AppData\Local\Temp\0769210                         PAGE   24

    1240 000000f6 1ACC          OR        *+XAR4[1],#8          ; [CPU_] |318| 
         000000f7 0008 
    1241                      .dwpsn  file "C:/work/grepos/c2000_bootROM/f28004x_bootrom/F28004x_ROM_dev/F28004x_ROM/driverlib/pmbu
    1242 000000f8 6F06          B         $C$L18,UNC            ; [CPU_] |319| 
    1243                      ; branch occurs ; [] |319| 
    1244 000000f9       $C$L17:    
    1245                      .dwpsn  file "C:/work/grepos/c2000_bootROM/f28004x_bootrom/F28004x_ROM_dev/F28004x_ROM/driverlib/pmbu
    1246 000000f9 020C          MOVB      ACC,#12               ; [CPU_] |322| 
    1247 000000fa 0742          ADDL      ACC,*-SP[2]           ; [CPU_] |322| 
    1248 000000fb 8AA9          MOVL      XAR4,ACC              ; [CPU_] |322| 
    1249 000000fc 18CC          AND       *+XAR4[1],#65527      ; [CPU_] |322| 
         000000fd FFF7 
    1250 000000fe       $C$L18:    
    1251                      .dwpsn  file "C:/work/grepos/c2000_bootROM/f28004x_bootrom/F28004x_ROM_dev/F28004x_ROM/driverlib/pmbu
    1252 000000fe 761A   EDIS
    1253                      .dwpsn  file "C:/work/grepos/c2000_bootROM/f28004x_bootrom/F28004x_ROM_dev/F28004x_ROM/driverlib/pmbu
    1254 000000ff 3B01          SETC      SXM                   ; [CPU_] 
    1255 00000100 FF69          SPM       #0                    ; [CPU_] 
    1256 00000101 6F13          B         $C$L20,UNC            ; [CPU_] |326| 
    1257                      ; branch occurs ; [] |326| 
    1258 00000102       $C$L19:    
    1259                      .dwpsn  file "C:/work/grepos/c2000_bootROM/f28004x_bootrom/F28004x_ROM_dev/F28004x_ROM/driverlib/pmbu
    1260 00000102 8A44          MOVL      XAR4,*-SP[4]          ; [CPU_] |328| 
    1261 00000103 8584          MOV       ACC,*XAR4++           ; [CPU_] |328| 
    1262 00000104 FF5A          MOVL      P,ACC                 ; [CPU_] |328| 
    1263 00000105 92AB          MOV       AL,PL                 ; [CPU_] |328| 
    1264 00000106 2BAA          MOV       PH,#0                 ; [CPU_] |328| 
    1265 00000107 90FF          ANDB      AL,#0xff              ; [CPU_] |328| 
    1266 00000108 A844          MOVL      *-SP[4],XAR4          ; [CPU_] |328| 
    1267 00000109 27A9          MOV       PL,AL                 ; [CPU_] |328| 
    1268 0000010a 5603          MOV       ACC,*-SP[6] << #3     ; [CPU_] |328| 
         0000010b 0346 
    1269 0000010c 16A9          MOVP      T,AL                  ; [CPU_] 
    1270 0000010d 563B          LSLL      ACC,T                 ; [CPU_] |328| 
    1271 0000010e FF5A          MOVL      P,ACC                 ; [CPU_] |328| 
    1272 0000010f 92AB          MOV       AL,PL                 ; [CPU_] |328| 
    1273 00000110 9848          OR        *-SP[8],AL            ; [CPU_] |328| 
    1274 00000111 92AA          MOV       AL,PH                 ; [CPU_] |328| 
    1275 00000112 9847          OR        *-SP[7],AL            ; [CPU_] |328| 
    1276                      .dwpsn  file "C:/work/grepos/c2000_bootROM/f28004x_bootrom/F28004x_ROM_dev/F28004x_ROM/driverlib/pmbu
    1277 00000113 0A46          INC       *-SP[6]               ; [CPU_] |329| 
    1278 00000114       $C$L20:    
    1279                      .dwpsn  file "C:/work/grepos/c2000_bootROM/f28004x_bootrom/F28004x_ROM_dev/F28004x_ROM/driverlib/pmbu
    1280 00000114 9245          MOV       AL,*-SP[5]            ; [CPU_] |326| 
    1281 00000115 5446          CMP       AL,*-SP[6]            ; [CPU_] |326| 
    1282 00000116 66EC          B         $C$L19,HI             ; [CPU_] |326| 
    1283                      ; branchcc occurs ; [] |326| 
    1284                      .dwpsn  file "C:/work/grepos/c2000_bootROM/f28004x_bootrom/F28004x_ROM_dev/F28004x_ROM/driverlib/pmbu
    1285 00000117 C448          MOVL      XAR6,*-SP[8]          ; [CPU_] |332| 
    1286 00000118 0202          MOVB      ACC,#2                ; [CPU_] |332| 
    1287 00000119 0742          ADDL      ACC,*-SP[2]           ; [CPU_] |332| 
    1288 0000011a 8AA9          MOVL      XAR4,ACC              ; [CPU_] |332| 
    1289 0000011b C2C4          MOVL      *+XAR4[0],XAR6        ; [CPU_] |332| 
    1290                      .dwpsn  file "C:/work/grepos/c2000_bootROM/f28004x_bootrom/F28004x_ROM_dev/F28004x_ROM/driverlib/pmbu
    1291 0000011c 9A01          MOVB      AL,#1                 ; [CPU_] |334| 
TMS320C2000 Assembler PC v6.2.9 Tue Apr 14 13:33:08 2015

Tools Copyright (c) 1996-2014 Texas Instruments Incorporated
C:\Users\a0272466\AppData\Local\Temp\0769210                         PAGE   25

    1292                      .dwpsn  file "C:/work/grepos/c2000_bootROM/f28004x_bootrom/F28004x_ROM_dev/F28004x_ROM/driverlib/pmbu
    1293 0000011d FF69          SPM       #0                    ; [CPU_] 
    1294 0000011e FE88          SUBB      SP,#8                 ; [CPU_U] 
    1295                      .dwcfi  cfa_offset, -2
    1296              $C$DW$76        .dwtag  DW_TAG_TI_branch
    1297                      .dwattr $C$DW$76, DW_AT_low_pc(0x00)
    1298                      .dwattr $C$DW$76, DW_AT_TI_return
    1299 0000011f 0006          LRETR     ; [CPU_] 
    1300                      ; return occurs ; [] 
    1301                      .dwattr $C$DW$66, DW_AT_TI_end_file("C:/work/grepos/c2000_bootROM/f28004x_bootrom/F28004x_ROM_dev/F28
    1302                      .dwattr $C$DW$66, DW_AT_TI_end_line(0x14f)
    1303                      .dwattr $C$DW$66, DW_AT_TI_end_column(0x01)
    1304                      .dwendentry
    1305                      .dwendtag $C$DW$66
    1306              
    1307 00000120               .sect   ".text"
    1308                      .clink
    1309                      .global _PMBUS_ackAddress
    1310              
    1311              $C$DW$77        .dwtag  DW_TAG_subprogram, DW_AT_name("PMBUS_ackAddress")
    1312                      .dwattr $C$DW$77, DW_AT_low_pc(_PMBUS_ackAddress)
    1313                      .dwattr $C$DW$77, DW_AT_high_pc(0x00)
    1314                      .dwattr $C$DW$77, DW_AT_TI_symbol_name("_PMBUS_ackAddress")
    1315                      .dwattr $C$DW$77, DW_AT_external
    1316                      .dwattr $C$DW$77, DW_AT_type(*$C$DW$T$20)
    1317                      .dwattr $C$DW$77, DW_AT_TI_begin_file("C:/work/grepos/c2000_bootROM/f28004x_bootrom/F28004x_ROM_dev/F
    1318                      .dwattr $C$DW$77, DW_AT_TI_begin_line(0x157)
    1319                      .dwattr $C$DW$77, DW_AT_TI_begin_column(0x01)
    1320                      .dwattr $C$DW$77, DW_AT_TI_max_frame_size(-10)
    1321                      .dwpsn  file "C:/work/grepos/c2000_bootROM/f28004x_bootrom/F28004x_ROM_dev/F28004x_ROM/driverlib/pmbu
    1322              
    1323                      .dwfde $C$DW$CIE, _PMBUS_ackAddress
    1324              $C$DW$78        .dwtag  DW_TAG_formal_parameter, DW_AT_name("base")
    1325                      .dwattr $C$DW$78, DW_AT_TI_symbol_name("_base")
    1326                      .dwattr $C$DW$78, DW_AT_type(*$C$DW$T$37)
    1327                      .dwattr $C$DW$78, DW_AT_location[DW_OP_reg0]
    1328              $C$DW$79        .dwtag  DW_TAG_formal_parameter, DW_AT_name("address")
    1329                      .dwattr $C$DW$79, DW_AT_TI_symbol_name("_address")
    1330                      .dwattr $C$DW$79, DW_AT_type(*$C$DW$T$37)
    1331                      .dwattr $C$DW$79, DW_AT_location[DW_OP_breg20 -12]
    1332              $C$DW$80        .dwtag  DW_TAG_formal_parameter, DW_AT_name("status")
    1333                      .dwattr $C$DW$80, DW_AT_TI_symbol_name("_status")
    1334                      .dwattr $C$DW$80, DW_AT_type(*$C$DW$T$37)
    1335                      .dwattr $C$DW$80, DW_AT_location[DW_OP_breg20 -14]
    1336              
    1337              ;***************************************************************
    1338              ;* FNAME: _PMBUS_ackAddress             FR SIZE:   8           *
    1339              ;*                                                             *
    1340              ;* FUNCTION ENVIRONMENT                                        *
    1341              ;*                                                             *
    1342              ;* FUNCTION PROPERTIES                                         *
    1343              ;*                            2 Parameter,  6 Auto,  0 SOE     *
    1344              ;***************************************************************
    1345              
    1346 00000120       _PMBUS_ackAddress:
TMS320C2000 Assembler PC v6.2.9 Tue Apr 14 13:33:08 2015

Tools Copyright (c) 1996-2014 Texas Instruments Incorporated
C:\Users\a0272466\AppData\Local\Temp\0769210                         PAGE   26

    1347                      .dwcfi  cfa_offset, -2
    1348                      .dwcfi  save_reg_to_mem, 26, 0
    1349                      .dwcfi  save_reg_to_reg, 78, 26
    1350 00000120 FE08          ADDB      SP,#8                 ; [CPU_U] 
    1351                      .dwcfi  cfa_offset, -10
    1352              $C$DW$81        .dwtag  DW_TAG_variable, DW_AT_name("base")
    1353                      .dwattr $C$DW$81, DW_AT_TI_symbol_name("_base")
    1354                      .dwattr $C$DW$81, DW_AT_type(*$C$DW$T$37)
    1355                      .dwattr $C$DW$81, DW_AT_location[DW_OP_breg20 -4]
    1356              $C$DW$82        .dwtag  DW_TAG_variable, DW_AT_name("buffer")
    1357                      .dwattr $C$DW$82, DW_AT_TI_symbol_name("_buffer")
    1358                      .dwattr $C$DW$82, DW_AT_type(*$C$DW$T$49)
    1359                      .dwattr $C$DW$82, DW_AT_location[DW_OP_breg20 -8]
    1360 00000121 1E44          MOVL      *-SP[4],ACC           ; [CPU_] |344| 
    1361                      .dwpsn  file "C:/work/grepos/c2000_bootROM/f28004x_bootrom/F28004x_ROM_dev/F28004x_ROM/driverlib/pmbu
    1362 00000122 020C          MOVB      ACC,#12               ; [CPU_] |354| 
    1363 00000123 0744          ADDL      ACC,*-SP[4]           ; [CPU_] |354| 
    1364 00000124 8AA9          MOVL      XAR4,ACC              ; [CPU_] |354| 
    1365 00000125 47C4          TBIT      *+XAR4[0],#7          ; [CPU_] |354| 
    1366 00000126 EE03          BF        $C$L21,TC             ; [CPU_] |354| 
    1367                      ; branchcc occurs ; [] |354| 
    1368                      .dwpsn  file "C:/work/grepos/c2000_bootROM/f28004x_bootrom/F28004x_ROM_dev/F28004x_ROM/driverlib/pmbu
    1369 00000127 9A00          MOVB      AL,#0                 ; [CPU_] |356| 
    1370 00000128 6F2A          B         $C$L25,UNC            ; [CPU_] |356| 
    1371                      ; branch occurs ; [] |356| 
    1372 00000129       $C$L21:    
    1373                      .dwpsn  file "C:/work/grepos/c2000_bootROM/f28004x_bootrom/F28004x_ROM_dev/F28004x_ROM/driverlib/pmbu
    1374 00000129 BE01          MOVB      XAR6,#1               ; [CPU_] |359| 
    1375 0000012a 064E          MOVL      ACC,*-SP[14]          ; [CPU_] |359| 
    1376 0000012b 9B00          MOVB      AH,#0                 ; [CPU_] |359| 
    1377 0000012c 18A9          AND       AL,#0x0400            ; [CPU_] |359| 
         0000012d 0400 
    1378 0000012e 0FA6          CMPL      ACC,XAR6              ; [CPU_] |359| 
    1379 0000012f ED22          BF        $C$L24,NEQ            ; [CPU_] |359| 
    1380                      ; branchcc occurs ; [] |359| 
    1381                      .dwpsn  file "C:/work/grepos/c2000_bootROM/f28004x_bootrom/F28004x_ROM_dev/F28004x_ROM/driverlib/pmbu
    1382 00000130 064E          MOVL      ACC,*-SP[14]          ; [CPU_] |362| 
    1383 00000131 1E42          MOVL      *-SP[2],ACC           ; [CPU_] |362| 
    1384 00000132 0644          MOVL      ACC,*-SP[4]           ; [CPU_] |362| 
    1385 00000133 5CAD          MOVZ      AR4,SP                ; [CPU_U] |362| 
    1386 00000134 DC88          SUBB      XAR4,#8               ; [CPU_U] |362| 
    1387              $C$DW$83        .dwtag  DW_TAG_TI_branch
    1388                      .dwattr $C$DW$83, DW_AT_low_pc(0x00)
    1389                      .dwattr $C$DW$83, DW_AT_name("_PMBUS_getSlaveData")
    1390                      .dwattr $C$DW$83, DW_AT_TI_call
    1391 00000135 7640'         LCR       #_PMBUS_getSlaveData  ; [CPU_] |362| 
         00000136 00B0 
    1392                      ; call occurs [#_PMBUS_getSlaveData] ; [] |362| 
    1393                      .dwpsn  file "C:/work/grepos/c2000_bootROM/f28004x_bootrom/F28004x_ROM_dev/F28004x_ROM/driverlib/pmbu
    1394 00000137 BE00          MOVB      XAR6,#0               ; [CPU_] |364| 
    1395 00000138 9248          MOV       AL,*-SP[8]            ; [CPU_] |364| 
    1396 00000139 EC03          BF        $C$L22,EQ             ; [CPU_] |364| 
    1397                      ; branchcc occurs ; [] |364| 
    1398 0000013a 0201          MOVB      ACC,#1                ; [CPU_] |364| 
    1399 0000013b 1EA6          MOVL      XAR6,ACC              ; [CPU_] |364| 
TMS320C2000 Assembler PC v6.2.9 Tue Apr 14 13:33:08 2015

Tools Copyright (c) 1996-2014 Texas Instruments Incorporated
C:\Users\a0272466\AppData\Local\Temp\0769210                         PAGE   27

    1400 0000013c       $C$L22:    
    1401 0000013c 06A6          MOVL      ACC,XAR6              ; [CPU_] |364| 
    1402 0000013d 0F4C          CMPL      ACC,*-SP[12]          ; [CPU_] |364| 
    1403 0000013e ED07          BF        $C$L23,NEQ            ; [CPU_] |364| 
    1404                      ; branchcc occurs ; [] |364| 
    1405                      .dwpsn  file "C:/work/grepos/c2000_bootROM/f28004x_bootrom/F28004x_ROM_dev/F28004x_ROM/driverlib/pmbu
    1406 0000013f 0206          MOVB      ACC,#6                ; [CPU_] |367| 
    1407 00000140 0744          ADDL      ACC,*-SP[4]           ; [CPU_] |367| 
    1408 00000141 8AA9          MOVL      XAR4,ACC              ; [CPU_] |367| 
    1409 00000142 1AC4          OR        *+XAR4[0],#1          ; [CPU_] |367| 
         00000143 0001 
    1410                      .dwpsn  file "C:/work/grepos/c2000_bootROM/f28004x_bootrom/F28004x_ROM_dev/F28004x_ROM/driverlib/pmbu
    1411 00000144 6F0D          B         $C$L24,UNC            ; [CPU_] |368| 
    1412                      ; branch occurs ; [] |368| 
    1413 00000145       $C$L23:    
    1414                      .dwpsn  file "C:/work/grepos/c2000_bootROM/f28004x_bootrom/F28004x_ROM_dev/F28004x_ROM/driverlib/pmbu
    1415 00000145 8F00          MOVL      XAR4,#65534           ; [CPU_U] |372| 
         00000146 FFFE 
    1416 00000147 0206          MOVB      ACC,#6                ; [CPU_] |372| 
    1417 00000148 A8AB          MOVL      P,XAR4                ; [CPU_] |372| 
    1418 00000149 0744          ADDL      ACC,*-SP[4]           ; [CPU_] |372| 
    1419 0000014a 83A9          MOVL      XAR5,ACC              ; [CPU_] |372| 
    1420 0000014b 93AB          MOV       AH,PL                 ; [CPU_] |372| 
    1421 0000014c 92AA          MOV       AL,PH                 ; [CPU_] |372| 
    1422 0000014d C1C5          AND       *+XAR5[0],AH          ; [CPU_] |372| 
    1423 0000014e C0CD          AND       *+XAR5[1],AL          ; [CPU_] |372| 
    1424                      .dwpsn  file "C:/work/grepos/c2000_bootROM/f28004x_bootrom/F28004x_ROM_dev/F28004x_ROM/driverlib/pmbu
    1425 0000014f 9A00          MOVB      AL,#0                 ; [CPU_] |373| 
    1426 00000150 6F02          B         $C$L25,UNC            ; [CPU_] |373| 
    1427                      ; branch occurs ; [] |373| 
    1428 00000151       $C$L24:    
    1429                      .dwpsn  file "C:/work/grepos/c2000_bootROM/f28004x_bootrom/F28004x_ROM_dev/F28004x_ROM/driverlib/pmbu
    1430 00000151 9A01          MOVB      AL,#1                 ; [CPU_] |376| 
    1431 00000152       $C$L25:    
    1432                      .dwpsn  file "C:/work/grepos/c2000_bootROM/f28004x_bootrom/F28004x_ROM_dev/F28004x_ROM/driverlib/pmbu
    1433 00000152 FE88          SUBB      SP,#8                 ; [CPU_U] 
    1434                      .dwcfi  cfa_offset, -2
    1435              $C$DW$84        .dwtag  DW_TAG_TI_branch
    1436                      .dwattr $C$DW$84, DW_AT_low_pc(0x00)
    1437                      .dwattr $C$DW$84, DW_AT_TI_return
    1438 00000153 0006          LRETR     ; [CPU_] 
    1439                      ; return occurs ; [] 
    1440                      .dwattr $C$DW$77, DW_AT_TI_end_file("C:/work/grepos/c2000_bootROM/f28004x_bootrom/F28004x_ROM_dev/F28
    1441                      .dwattr $C$DW$77, DW_AT_TI_end_line(0x179)
    1442                      .dwattr $C$DW$77, DW_AT_TI_end_column(0x01)
    1443                      .dwendentry
    1444                      .dwendtag $C$DW$77
    1445              
    1446 00000154               .sect   ".text"
    1447                      .clink
    1448                      .global _PMBUS_ackCommand
    1449              
    1450              $C$DW$85        .dwtag  DW_TAG_subprogram, DW_AT_name("PMBUS_ackCommand")
    1451                      .dwattr $C$DW$85, DW_AT_low_pc(_PMBUS_ackCommand)
    1452                      .dwattr $C$DW$85, DW_AT_high_pc(0x00)
TMS320C2000 Assembler PC v6.2.9 Tue Apr 14 13:33:08 2015

Tools Copyright (c) 1996-2014 Texas Instruments Incorporated
C:\Users\a0272466\AppData\Local\Temp\0769210                         PAGE   28

    1453                      .dwattr $C$DW$85, DW_AT_TI_symbol_name("_PMBUS_ackCommand")
    1454                      .dwattr $C$DW$85, DW_AT_external
    1455                      .dwattr $C$DW$85, DW_AT_type(*$C$DW$T$20)
    1456                      .dwattr $C$DW$85, DW_AT_TI_begin_file("C:/work/grepos/c2000_bootROM/f28004x_bootrom/F28004x_ROM_dev/F
    1457                      .dwattr $C$DW$85, DW_AT_TI_begin_line(0x181)
    1458                      .dwattr $C$DW$85, DW_AT_TI_begin_column(0x01)
    1459                      .dwattr $C$DW$85, DW_AT_TI_max_frame_size(-10)
    1460                      .dwpsn  file "C:/work/grepos/c2000_bootROM/f28004x_bootrom/F28004x_ROM_dev/F28004x_ROM/driverlib/pmbu
    1461              
    1462                      .dwfde $C$DW$CIE, _PMBUS_ackCommand
    1463              $C$DW$86        .dwtag  DW_TAG_formal_parameter, DW_AT_name("base")
    1464                      .dwattr $C$DW$86, DW_AT_TI_symbol_name("_base")
    1465                      .dwattr $C$DW$86, DW_AT_type(*$C$DW$T$37)
    1466                      .dwattr $C$DW$86, DW_AT_location[DW_OP_reg0]
    1467              $C$DW$87        .dwtag  DW_TAG_formal_parameter, DW_AT_name("command")
    1468                      .dwattr $C$DW$87, DW_AT_TI_symbol_name("_command")
    1469                      .dwattr $C$DW$87, DW_AT_type(*$C$DW$T$37)
    1470                      .dwattr $C$DW$87, DW_AT_location[DW_OP_breg20 -12]
    1471              $C$DW$88        .dwtag  DW_TAG_formal_parameter, DW_AT_name("status")
    1472                      .dwattr $C$DW$88, DW_AT_TI_symbol_name("_status")
    1473                      .dwattr $C$DW$88, DW_AT_type(*$C$DW$T$37)
    1474                      .dwattr $C$DW$88, DW_AT_location[DW_OP_breg20 -14]
    1475              
    1476              ;***************************************************************
    1477              ;* FNAME: _PMBUS_ackCommand             FR SIZE:   8           *
    1478              ;*                                                             *
    1479              ;* FUNCTION ENVIRONMENT                                        *
    1480              ;*                                                             *
    1481              ;* FUNCTION PROPERTIES                                         *
    1482              ;*                            2 Parameter,  6 Auto,  0 SOE     *
    1483              ;***************************************************************
    1484              
    1485 00000154       _PMBUS_ackCommand:
    1486                      .dwcfi  cfa_offset, -2
    1487                      .dwcfi  save_reg_to_mem, 26, 0
    1488                      .dwcfi  save_reg_to_reg, 78, 26
    1489 00000154 FE08          ADDB      SP,#8                 ; [CPU_U] 
    1490                      .dwcfi  cfa_offset, -10
    1491              $C$DW$89        .dwtag  DW_TAG_variable, DW_AT_name("base")
    1492                      .dwattr $C$DW$89, DW_AT_TI_symbol_name("_base")
    1493                      .dwattr $C$DW$89, DW_AT_type(*$C$DW$T$37)
    1494                      .dwattr $C$DW$89, DW_AT_location[DW_OP_breg20 -4]
    1495              $C$DW$90        .dwtag  DW_TAG_variable, DW_AT_name("buffer")
    1496                      .dwattr $C$DW$90, DW_AT_TI_symbol_name("_buffer")
    1497                      .dwattr $C$DW$90, DW_AT_type(*$C$DW$T$49)
    1498                      .dwattr $C$DW$90, DW_AT_location[DW_OP_breg20 -8]
    1499 00000155 1E44          MOVL      *-SP[4],ACC           ; [CPU_] |386| 
    1500                      .dwpsn  file "C:/work/grepos/c2000_bootROM/f28004x_bootrom/F28004x_ROM_dev/F28004x_ROM/driverlib/pmbu
    1501 00000156 020C          MOVB      ACC,#12               ; [CPU_] |396| 
    1502 00000157 0744          ADDL      ACC,*-SP[4]           ; [CPU_] |396| 
    1503 00000158 8AA9          MOVL      XAR4,ACC              ; [CPU_] |396| 
    1504 00000159 44CC          TBIT      *+XAR4[1],#4          ; [CPU_] |396| 
    1505 0000015a EE03          BF        $C$L26,TC             ; [CPU_] |396| 
    1506                      ; branchcc occurs ; [] |396| 
    1507                      .dwpsn  file "C:/work/grepos/c2000_bootROM/f28004x_bootrom/F28004x_ROM_dev/F28004x_ROM/driverlib/pmbu
TMS320C2000 Assembler PC v6.2.9 Tue Apr 14 13:33:08 2015

Tools Copyright (c) 1996-2014 Texas Instruments Incorporated
C:\Users\a0272466\AppData\Local\Temp\0769210                         PAGE   29

    1508 0000015b 9A00          MOVB      AL,#0                 ; [CPU_] |398| 
    1509 0000015c 6F29          B         $C$L30,UNC            ; [CPU_] |398| 
    1510                      ; branch occurs ; [] |398| 
    1511 0000015d       $C$L26:    
    1512                      .dwpsn  file "C:/work/grepos/c2000_bootROM/f28004x_bootrom/F28004x_ROM_dev/F28004x_ROM/driverlib/pmbu
    1513 0000015d BE01          MOVB      XAR6,#1               ; [CPU_] |401| 
    1514 0000015e 064E          MOVL      ACC,*-SP[14]          ; [CPU_] |401| 
    1515 0000015f 9B00          MOVB      AH,#0                 ; [CPU_] |401| 
    1516 00000160 9008          ANDB      AL,#0x08              ; [CPU_] |401| 
    1517 00000161 0FA6          CMPL      ACC,XAR6              ; [CPU_] |401| 
    1518 00000162 ED22          BF        $C$L29,NEQ            ; [CPU_] |401| 
    1519                      ; branchcc occurs ; [] |401| 
    1520                      .dwpsn  file "C:/work/grepos/c2000_bootROM/f28004x_bootrom/F28004x_ROM_dev/F28004x_ROM/driverlib/pmbu
    1521 00000163 064E          MOVL      ACC,*-SP[14]          ; [CPU_] |404| 
    1522 00000164 1E42          MOVL      *-SP[2],ACC           ; [CPU_] |404| 
    1523 00000165 0644          MOVL      ACC,*-SP[4]           ; [CPU_] |404| 
    1524 00000166 5CAD          MOVZ      AR4,SP                ; [CPU_U] |404| 
    1525 00000167 DC88          SUBB      XAR4,#8               ; [CPU_U] |404| 
    1526              $C$DW$91        .dwtag  DW_TAG_TI_branch
    1527                      .dwattr $C$DW$91, DW_AT_low_pc(0x00)
    1528                      .dwattr $C$DW$91, DW_AT_name("_PMBUS_getSlaveData")
    1529                      .dwattr $C$DW$91, DW_AT_TI_call
    1530 00000168 7640'         LCR       #_PMBUS_getSlaveData  ; [CPU_] |404| 
         00000169 00B0 
    1531                      ; call occurs [#_PMBUS_getSlaveData] ; [] |404| 
    1532                      .dwpsn  file "C:/work/grepos/c2000_bootROM/f28004x_bootrom/F28004x_ROM_dev/F28004x_ROM/driverlib/pmbu
    1533 0000016a BE00          MOVB      XAR6,#0               ; [CPU_] |406| 
    1534 0000016b 9248          MOV       AL,*-SP[8]            ; [CPU_] |406| 
    1535 0000016c EC03          BF        $C$L27,EQ             ; [CPU_] |406| 
    1536                      ; branchcc occurs ; [] |406| 
    1537 0000016d 0201          MOVB      ACC,#1                ; [CPU_] |406| 
    1538 0000016e 1EA6          MOVL      XAR6,ACC              ; [CPU_] |406| 
    1539 0000016f       $C$L27:    
    1540 0000016f 06A6          MOVL      ACC,XAR6              ; [CPU_] |406| 
    1541 00000170 0F4C          CMPL      ACC,*-SP[12]          ; [CPU_] |406| 
    1542 00000171 ED07          BF        $C$L28,NEQ            ; [CPU_] |406| 
    1543                      ; branchcc occurs ; [] |406| 
    1544                      .dwpsn  file "C:/work/grepos/c2000_bootROM/f28004x_bootrom/F28004x_ROM_dev/F28004x_ROM/driverlib/pmbu
    1545 00000172 0206          MOVB      ACC,#6                ; [CPU_] |409| 
    1546 00000173 0744          ADDL      ACC,*-SP[4]           ; [CPU_] |409| 
    1547 00000174 8AA9          MOVL      XAR4,ACC              ; [CPU_] |409| 
    1548 00000175 1AC4          OR        *+XAR4[0],#1          ; [CPU_] |409| 
         00000176 0001 
    1549                      .dwpsn  file "C:/work/grepos/c2000_bootROM/f28004x_bootrom/F28004x_ROM_dev/F28004x_ROM/driverlib/pmbu
    1550 00000177 6F0D          B         $C$L29,UNC            ; [CPU_] |410| 
    1551                      ; branch occurs ; [] |410| 
    1552 00000178       $C$L28:    
    1553                      .dwpsn  file "C:/work/grepos/c2000_bootROM/f28004x_bootrom/F28004x_ROM_dev/F28004x_ROM/driverlib/pmbu
    1554 00000178 8F00          MOVL      XAR4,#65534           ; [CPU_U] |414| 
         00000179 FFFE 
    1555 0000017a 0206          MOVB      ACC,#6                ; [CPU_] |414| 
    1556 0000017b A8AB          MOVL      P,XAR4                ; [CPU_] |414| 
    1557 0000017c 0744          ADDL      ACC,*-SP[4]           ; [CPU_] |414| 
    1558 0000017d 83A9          MOVL      XAR5,ACC              ; [CPU_] |414| 
    1559 0000017e 93AB          MOV       AH,PL                 ; [CPU_] |414| 
TMS320C2000 Assembler PC v6.2.9 Tue Apr 14 13:33:08 2015

Tools Copyright (c) 1996-2014 Texas Instruments Incorporated
C:\Users\a0272466\AppData\Local\Temp\0769210                         PAGE   30

    1560 0000017f 92AA          MOV       AL,PH                 ; [CPU_] |414| 
    1561 00000180 C1C5          AND       *+XAR5[0],AH          ; [CPU_] |414| 
    1562 00000181 C0CD          AND       *+XAR5[1],AL          ; [CPU_] |414| 
    1563                      .dwpsn  file "C:/work/grepos/c2000_bootROM/f28004x_bootrom/F28004x_ROM_dev/F28004x_ROM/driverlib/pmbu
    1564 00000182 9A00          MOVB      AL,#0                 ; [CPU_] |415| 
    1565 00000183 6F02          B         $C$L30,UNC            ; [CPU_] |415| 
    1566                      ; branch occurs ; [] |415| 
    1567 00000184       $C$L29:    
    1568                      .dwpsn  file "C:/work/grepos/c2000_bootROM/f28004x_bootrom/F28004x_ROM_dev/F28004x_ROM/driverlib/pmbu
    1569 00000184 9A01          MOVB      AL,#1                 ; [CPU_] |418| 
    1570 00000185       $C$L30:    
    1571                      .dwpsn  file "C:/work/grepos/c2000_bootROM/f28004x_bootrom/F28004x_ROM_dev/F28004x_ROM/driverlib/pmbu
    1572 00000185 FE88          SUBB      SP,#8                 ; [CPU_U] 
    1573                      .dwcfi  cfa_offset, -2
    1574              $C$DW$92        .dwtag  DW_TAG_TI_branch
    1575                      .dwattr $C$DW$92, DW_AT_low_pc(0x00)
    1576                      .dwattr $C$DW$92, DW_AT_TI_return
    1577 00000186 0006          LRETR     ; [CPU_] 
    1578                      ; return occurs ; [] 
    1579                      .dwattr $C$DW$85, DW_AT_TI_end_file("C:/work/grepos/c2000_bootROM/f28004x_bootrom/F28004x_ROM_dev/F28
    1580                      .dwattr $C$DW$85, DW_AT_TI_end_line(0x1a3)
    1581                      .dwattr $C$DW$85, DW_AT_TI_end_column(0x01)
    1582                      .dwendentry
    1583                      .dwendtag $C$DW$85
    1584              
    1585 00000187               .sect   ".text"
    1586                      .clink
    1587                      .global _PMBUS_verifyPEC
    1588              
    1589              $C$DW$93        .dwtag  DW_TAG_subprogram, DW_AT_name("PMBUS_verifyPEC")
    1590                      .dwattr $C$DW$93, DW_AT_low_pc(_PMBUS_verifyPEC)
    1591                      .dwattr $C$DW$93, DW_AT_high_pc(0x00)
    1592                      .dwattr $C$DW$93, DW_AT_TI_symbol_name("_PMBUS_verifyPEC")
    1593                      .dwattr $C$DW$93, DW_AT_external
    1594                      .dwattr $C$DW$93, DW_AT_type(*$C$DW$T$20)
    1595                      .dwattr $C$DW$93, DW_AT_TI_begin_file("C:/work/grepos/c2000_bootROM/f28004x_bootrom/F28004x_ROM_dev/F
    1596                      .dwattr $C$DW$93, DW_AT_TI_begin_line(0x1ab)
    1597                      .dwattr $C$DW$93, DW_AT_TI_begin_column(0x01)
    1598                      .dwattr $C$DW$93, DW_AT_TI_max_frame_size(-10)
    1599                      .dwpsn  file "C:/work/grepos/c2000_bootROM/f28004x_bootrom/F28004x_ROM_dev/F28004x_ROM/driverlib/pmbu
    1600              
    1601                      .dwfde $C$DW$CIE, _PMBUS_verifyPEC
    1602              $C$DW$94        .dwtag  DW_TAG_formal_parameter, DW_AT_name("base")
    1603                      .dwattr $C$DW$94, DW_AT_TI_symbol_name("_base")
    1604                      .dwattr $C$DW$94, DW_AT_type(*$C$DW$T$37)
    1605                      .dwattr $C$DW$94, DW_AT_location[DW_OP_reg0]
    1606              $C$DW$95        .dwtag  DW_TAG_formal_parameter, DW_AT_name("buffer")
    1607                      .dwattr $C$DW$95, DW_AT_TI_symbol_name("_buffer")
    1608                      .dwattr $C$DW$95, DW_AT_type(*$C$DW$T$47)
    1609                      .dwattr $C$DW$95, DW_AT_location[DW_OP_reg12]
    1610              $C$DW$96        .dwtag  DW_TAG_formal_parameter, DW_AT_name("byteCount")
    1611                      .dwattr $C$DW$96, DW_AT_TI_symbol_name("_byteCount")
    1612                      .dwattr $C$DW$96, DW_AT_type(*$C$DW$T$19)
    1613                      .dwattr $C$DW$96, DW_AT_location[DW_OP_reg14]
    1614              $C$DW$97        .dwtag  DW_TAG_formal_parameter, DW_AT_name("PEC")
TMS320C2000 Assembler PC v6.2.9 Tue Apr 14 13:33:08 2015

Tools Copyright (c) 1996-2014 Texas Instruments Incorporated
C:\Users\a0272466\AppData\Local\Temp\0769210                         PAGE   31

    1615                      .dwattr $C$DW$97, DW_AT_TI_symbol_name("_PEC")
    1616                      .dwattr $C$DW$97, DW_AT_type(*$C$DW$T$19)
    1617                      .dwattr $C$DW$97, DW_AT_location[DW_OP_breg20 -11]
    1618              
    1619              ;***************************************************************
    1620              ;* FNAME: _PMBUS_verifyPEC              FR SIZE:   8           *
    1621              ;*                                                             *
    1622              ;* FUNCTION ENVIRONMENT                                        *
    1623              ;*                                                             *
    1624              ;* FUNCTION PROPERTIES                                         *
    1625              ;*                            0 Parameter,  5 Auto,  2 SOE     *
    1626              ;***************************************************************
    1627              
    1628 00000187       _PMBUS_verifyPEC:
    1629                      .dwcfi  cfa_offset, -2
    1630                      .dwcfi  save_reg_to_mem, 26, 0
    1631                      .dwcfi  save_reg_to_reg, 78, 26
    1632 00000187 B2BD          MOVL      *SP++,XAR1            ; [CPU_] 
    1633                      .dwcfi  save_reg_to_mem, 7, 2
    1634                      .dwcfi  cfa_offset, -4
    1635 00000188 FE06          ADDB      SP,#6                 ; [CPU_U] 
    1636                      .dwcfi  cfa_offset, -10
    1637              $C$DW$98        .dwtag  DW_TAG_variable, DW_AT_name("base")
    1638                      .dwattr $C$DW$98, DW_AT_TI_symbol_name("_base")
    1639                      .dwattr $C$DW$98, DW_AT_type(*$C$DW$T$37)
    1640                      .dwattr $C$DW$98, DW_AT_location[DW_OP_breg20 -2]
    1641              $C$DW$99        .dwtag  DW_TAG_variable, DW_AT_name("buffer")
    1642                      .dwattr $C$DW$99, DW_AT_TI_symbol_name("_buffer")
    1643                      .dwattr $C$DW$99, DW_AT_type(*$C$DW$T$47)
    1644                      .dwattr $C$DW$99, DW_AT_location[DW_OP_breg20 -4]
    1645              $C$DW$100       .dwtag  DW_TAG_variable, DW_AT_name("byteCount")
    1646                      .dwattr $C$DW$100, DW_AT_TI_symbol_name("_byteCount")
    1647                      .dwattr $C$DW$100, DW_AT_type(*$C$DW$T$19)
    1648                      .dwattr $C$DW$100, DW_AT_location[DW_OP_breg20 -5]
    1649              ;* AH    assigned to _i
    1650              $C$DW$101       .dwtag  DW_TAG_variable, DW_AT_name("i")
    1651                      .dwattr $C$DW$101, DW_AT_TI_symbol_name("_i")
    1652                      .dwattr $C$DW$101, DW_AT_type(*$C$DW$T$19)
    1653                      .dwattr $C$DW$101, DW_AT_location[DW_OP_reg1]
    1654              ;* AR0   assigned to _parity
    1655              $C$DW$102       .dwtag  DW_TAG_variable, DW_AT_name("parity")
    1656                      .dwattr $C$DW$102, DW_AT_TI_symbol_name("_parity")
    1657                      .dwattr $C$DW$102, DW_AT_type(*$C$DW$T$19)
    1658                      .dwattr $C$DW$102, DW_AT_location[DW_OP_reg4]
    1659              ;* AR1   assigned to _tableIndex
    1660              $C$DW$103       .dwtag  DW_TAG_variable, DW_AT_name("tableIndex")
    1661                      .dwattr $C$DW$103, DW_AT_TI_symbol_name("_tableIndex")
    1662                      .dwattr $C$DW$103, DW_AT_type(*$C$DW$T$19)
    1663                      .dwattr $C$DW$103, DW_AT_location[DW_OP_reg6]
    1664              ;* AR6   assigned to _accumulator
    1665              $C$DW$104       .dwtag  DW_TAG_variable, DW_AT_name("accumulator")
    1666                      .dwattr $C$DW$104, DW_AT_TI_symbol_name("_accumulator")
    1667                      .dwattr $C$DW$104, DW_AT_type(*$C$DW$T$19)
    1668                      .dwattr $C$DW$104, DW_AT_location[DW_OP_reg16]
    1669 00000189 7D45          MOV       *-SP[5],AR5           ; [CPU_] |429| 
TMS320C2000 Assembler PC v6.2.9 Tue Apr 14 13:33:08 2015

Tools Copyright (c) 1996-2014 Texas Instruments Incorporated
C:\Users\a0272466\AppData\Local\Temp\0769210                         PAGE   32

    1670 0000018a A844          MOVL      *-SP[4],XAR4          ; [CPU_] |429| 
    1671 0000018b 1E42          MOVL      *-SP[2],ACC           ; [CPU_] |429| 
    1672                      .dwpsn  file "C:/work/grepos/c2000_bootROM/f28004x_bootrom/F28004x_ROM_dev/F28004x_ROM/driverlib/pmbu
    1673 0000018c D000          MOVB      XAR0,#0               ; [CPU_] |431| 
    1674                      .dwpsn  file "C:/work/grepos/c2000_bootROM/f28004x_bootrom/F28004x_ROM_dev/F28004x_ROM/driverlib/pmbu
    1675 0000018d BE00          MOVB      XAR6,#0               ; [CPU_] |433| 
    1676                      .dwpsn  file "C:/work/grepos/c2000_bootROM/f28004x_bootrom/F28004x_ROM_dev/F28004x_ROM/driverlib/pmbu
    1677 0000018e 9B00          MOVB      AH,#0                 ; [CPU_] |452| 
    1678 0000018f 6F0A          B         $C$L32,UNC            ; [CPU_] |452| 
    1679                      ; branch occurs ; [] |452| 
    1680 00000190       $C$L31:    
    1681                      .dwpsn  file "C:/work/grepos/c2000_bootROM/f28004x_bootrom/F28004x_ROM_dev/F28004x_ROM/driverlib/pmbu
    1682 00000190 8A44          MOVL      XAR4,*-SP[4]          ; [CPU_] |456| 
    1683 00000191 C694          MOVB      AL.LSB,*+XAR4[AR0]    ; [CPU_] |456| 
    1684 00000192 70A6          XOR       AL,AR6                ; [CPU_] |456| 
    1685 00000193 59A9          MOVZ      AR1,AL                ; [CPU_] |456| 
    1686                      .dwpsn  file "C:/work/grepos/c2000_bootROM/f28004x_bootrom/F28004x_ROM_dev/F28004x_ROM/driverlib/pmbu
    1687 00000194 8F00+         MOVL      XAR4,#_PMBUS_crc8Table ; [CPU_U] |457| 
         00000195 0000 
    1688 00000196 889C          MOVZ      AR6,*+XAR4[AR1]       ; [CPU_] |457| 
    1689                      .dwpsn  file "C:/work/grepos/c2000_bootROM/f28004x_bootrom/F28004x_ROM_dev/F28004x_ROM/driverlib/pmbu
    1690 00000197 9D01          ADDB      AH,#1                 ; [CPU_] |452| 
    1691 00000198 D801          ADDB      XAR0,#1               ; [CPU_] |452| 
    1692 00000199       $C$L32:    
    1693                      .dwpsn  file "C:/work/grepos/c2000_bootROM/f28004x_bootrom/F28004x_ROM_dev/F28004x_ROM/driverlib/pmbu
    1694 00000199 5545          CMP       AH,*-SP[5]            ; [CPU_] |452| 
    1695 0000019a 68F6          B         $C$L31,LO             ; [CPU_] |452| 
    1696                      ; branchcc occurs ; [] |452| 
    1697                      .dwpsn  file "C:/work/grepos/c2000_bootROM/f28004x_bootrom/F28004x_ROM_dev/F28004x_ROM/driverlib/pmbu
    1698 0000019b 88A6          MOVZ      AR6,AR6               ; [CPU_] |461| 
    1699 0000019c 0E4B          MOVU      ACC,*-SP[11]          ; [CPU_] |461| 
    1700 0000019d 0FA6          CMPL      ACC,XAR6              ; [CPU_] |461| 
    1701 0000019e ED03          BF        $C$L33,NEQ            ; [CPU_] |461| 
    1702                      ; branchcc occurs ; [] |461| 
    1703                      .dwpsn  file "C:/work/grepos/c2000_bootROM/f28004x_bootrom/F28004x_ROM_dev/F28004x_ROM/driverlib/pmbu
    1704 0000019f 9A01          MOVB      AL,#1                 ; [CPU_] |463| 
    1705 000001a0 6F02          B         $C$L34,UNC            ; [CPU_] |463| 
    1706                      ; branch occurs ; [] |463| 
    1707 000001a1       $C$L33:    
    1708                      .dwpsn  file "C:/work/grepos/c2000_bootROM/f28004x_bootrom/F28004x_ROM_dev/F28004x_ROM/driverlib/pmbu
    1709 000001a1 9A00          MOVB      AL,#0                 ; [CPU_] |467| 
    1710 000001a2       $C$L34:    
    1711                      .dwpsn  file "C:/work/grepos/c2000_bootROM/f28004x_bootrom/F28004x_ROM_dev/F28004x_ROM/driverlib/pmbu
    1712 000001a2 FE86          SUBB      SP,#6                 ; [CPU_U] 
    1713                      .dwcfi  cfa_offset, -4
    1714 000001a3 8BBE          MOVL      XAR1,*--SP            ; [CPU_] 
    1715                      .dwcfi  cfa_offset, -2
    1716                      .dwcfi  restore_reg, 7
    1717              $C$DW$105       .dwtag  DW_TAG_TI_branch
    1718                      .dwattr $C$DW$105, DW_AT_low_pc(0x00)
    1719                      .dwattr $C$DW$105, DW_AT_TI_return
    1720 000001a4 0006          LRETR     ; [CPU_] 
    1721                      ; return occurs ; [] 
    1722                      .dwattr $C$DW$93, DW_AT_TI_end_file("C:/work/grepos/c2000_bootROM/f28004x_bootrom/F28004x_ROM_dev/F28
    1723                      .dwattr $C$DW$93, DW_AT_TI_end_line(0x1d5)
TMS320C2000 Assembler PC v6.2.9 Tue Apr 14 13:33:08 2015

Tools Copyright (c) 1996-2014 Texas Instruments Incorporated
C:\Users\a0272466\AppData\Local\Temp\0769210                         PAGE   33

    1724                      .dwattr $C$DW$93, DW_AT_TI_end_column(0x01)
    1725                      .dwendentry
    1726                      .dwendtag $C$DW$93
    1727              
    1728 000001a5               .sect   ".text"
    1729                      .clink
    1730                      .global _PMBUS_configMaster
    1731              
    1732              $C$DW$106       .dwtag  DW_TAG_subprogram, DW_AT_name("PMBUS_configMaster")
    1733                      .dwattr $C$DW$106, DW_AT_low_pc(_PMBUS_configMaster)
    1734                      .dwattr $C$DW$106, DW_AT_high_pc(0x00)
    1735                      .dwattr $C$DW$106, DW_AT_TI_symbol_name("_PMBUS_configMaster")
    1736                      .dwattr $C$DW$106, DW_AT_external
    1737                      .dwattr $C$DW$106, DW_AT_TI_begin_file("C:/work/grepos/c2000_bootROM/f28004x_bootrom/F28004x_ROM_dev/
    1738                      .dwattr $C$DW$106, DW_AT_TI_begin_line(0x1dc)
    1739                      .dwattr $C$DW$106, DW_AT_TI_begin_column(0x06)
    1740                      .dwattr $C$DW$106, DW_AT_TI_max_frame_size(-10)
    1741                      .dwpsn  file "C:/work/grepos/c2000_bootROM/f28004x_bootrom/F28004x_ROM_dev/F28004x_ROM/driverlib/pmbu
    1742              
    1743                      .dwfde $C$DW$CIE, _PMBUS_configMaster
    1744              $C$DW$107       .dwtag  DW_TAG_formal_parameter, DW_AT_name("base")
    1745                      .dwattr $C$DW$107, DW_AT_TI_symbol_name("_base")
    1746                      .dwattr $C$DW$107, DW_AT_type(*$C$DW$T$37)
    1747                      .dwattr $C$DW$107, DW_AT_location[DW_OP_reg0]
    1748              $C$DW$108       .dwtag  DW_TAG_formal_parameter, DW_AT_name("slaveAddress")
    1749                      .dwattr $C$DW$108, DW_AT_TI_symbol_name("_slaveAddress")
    1750                      .dwattr $C$DW$108, DW_AT_type(*$C$DW$T$19)
    1751                      .dwattr $C$DW$108, DW_AT_location[DW_OP_reg12]
    1752              $C$DW$109       .dwtag  DW_TAG_formal_parameter, DW_AT_name("byteCount")
    1753                      .dwattr $C$DW$109, DW_AT_TI_symbol_name("_byteCount")
    1754                      .dwattr $C$DW$109, DW_AT_type(*$C$DW$T$19)
    1755                      .dwattr $C$DW$109, DW_AT_location[DW_OP_reg14]
    1756              $C$DW$110       .dwtag  DW_TAG_formal_parameter, DW_AT_name("configWord")
    1757                      .dwattr $C$DW$110, DW_AT_TI_symbol_name("_configWord")
    1758                      .dwattr $C$DW$110, DW_AT_type(*$C$DW$T$37)
    1759                      .dwattr $C$DW$110, DW_AT_location[DW_OP_breg20 -12]
    1760              
    1761              ;***************************************************************
    1762              ;* FNAME: _PMBUS_configMaster           FR SIZE:   8           *
    1763              ;*                                                             *
    1764              ;* FUNCTION ENVIRONMENT                                        *
    1765              ;*                                                             *
    1766              ;* FUNCTION PROPERTIES                                         *
    1767              ;*                            0 Parameter,  8 Auto,  0 SOE     *
    1768              ;***************************************************************
    1769              
    1770 000001a5       _PMBUS_configMaster:
    1771                      .dwcfi  cfa_offset, -2
    1772                      .dwcfi  save_reg_to_mem, 26, 0
    1773                      .dwcfi  save_reg_to_reg, 78, 26
    1774 000001a5 FE08          ADDB      SP,#8                 ; [CPU_U] 
    1775                      .dwcfi  cfa_offset, -10
    1776              $C$DW$111       .dwtag  DW_TAG_variable, DW_AT_name("base")
    1777                      .dwattr $C$DW$111, DW_AT_TI_symbol_name("_base")
    1778                      .dwattr $C$DW$111, DW_AT_type(*$C$DW$T$37)
TMS320C2000 Assembler PC v6.2.9 Tue Apr 14 13:33:08 2015

Tools Copyright (c) 1996-2014 Texas Instruments Incorporated
C:\Users\a0272466\AppData\Local\Temp\0769210                         PAGE   34

    1779                      .dwattr $C$DW$111, DW_AT_location[DW_OP_breg20 -2]
    1780              $C$DW$112       .dwtag  DW_TAG_variable, DW_AT_name("slaveAddress")
    1781                      .dwattr $C$DW$112, DW_AT_TI_symbol_name("_slaveAddress")
    1782                      .dwattr $C$DW$112, DW_AT_type(*$C$DW$T$19)
    1783                      .dwattr $C$DW$112, DW_AT_location[DW_OP_breg20 -3]
    1784              $C$DW$113       .dwtag  DW_TAG_variable, DW_AT_name("byteCount")
    1785                      .dwattr $C$DW$113, DW_AT_TI_symbol_name("_byteCount")
    1786                      .dwattr $C$DW$113, DW_AT_type(*$C$DW$T$19)
    1787                      .dwattr $C$DW$113, DW_AT_location[DW_OP_breg20 -4]
    1788              $C$DW$114       .dwtag  DW_TAG_variable, DW_AT_name("interruptState")
    1789                      .dwattr $C$DW$114, DW_AT_TI_symbol_name("_interruptState")
    1790                      .dwattr $C$DW$114, DW_AT_type(*$C$DW$T$37)
    1791                      .dwattr $C$DW$114, DW_AT_location[DW_OP_breg20 -6]
    1792              $C$DW$115       .dwtag  DW_TAG_variable, DW_AT_name("bitmask")
    1793                      .dwattr $C$DW$115, DW_AT_TI_symbol_name("_bitmask")
    1794                      .dwattr $C$DW$115, DW_AT_type(*$C$DW$T$37)
    1795                      .dwattr $C$DW$115, DW_AT_location[DW_OP_breg20 -8]
    1796 000001a6 7D44          MOV       *-SP[4],AR5           ; [CPU_] |478| 
    1797 000001a7 7C43          MOV       *-SP[3],AR4           ; [CPU_] |478| 
    1798 000001a8 1E42          MOVL      *-SP[2],ACC           ; [CPU_] |478| 
    1799                      .dwpsn  file "C:/work/grepos/c2000_bootROM/f28004x_bootrom/F28004x_ROM_dev/F28004x_ROM/driverlib/pmbu
    1800 000001a9 0200          MOVB      ACC,#0                ; [CPU_] |480| 
    1801 000001aa 1E46          MOVL      *-SP[6],ACC           ; [CPU_] |480| 
    1802                      .dwpsn  file "C:/work/grepos/c2000_bootROM/f28004x_bootrom/F28004x_ROM_dev/F28004x_ROM/driverlib/pmbu
    1803 000001ab 1E48          MOVL      *-SP[8],ACC           ; [CPU_] |480| 
    1804                      .dwpsn  file "C:/work/grepos/c2000_bootROM/f28004x_bootrom/F28004x_ROM_dev/F28004x_ROM/driverlib/pmbu
    1805 000001ac 7622   EALLOW
    1806                      .dwpsn  file "C:/work/grepos/c2000_bootROM/f28004x_bootrom/F28004x_ROM_dev/F28004x_ROM/driverlib/pmbu
    1807 000001ad 020A          MOVB      ACC,#10               ; [CPU_] |489| 
    1808 000001ae 0742          ADDL      ACC,*-SP[2]           ; [CPU_] |489| 
    1809 000001af 8AA9          MOVL      XAR4,ACC              ; [CPU_] |489| 
    1810 000001b0 06C4          MOVL      ACC,*+XAR4[0]         ; [CPU_] |489| 
    1811 000001b1 1E46          MOVL      *-SP[6],ACC           ; [CPU_] |489| 
    1812                      .dwpsn  file "C:/work/grepos/c2000_bootROM/f28004x_bootrom/F28004x_ROM_dev/F28004x_ROM/driverlib/pmbu
    1813 000001b2 8F40          MOVL      XAR5,#1023            ; [CPU_U] |490| 
         000001b3 03FF 
    1814 000001b4 020A          MOVB      ACC,#10               ; [CPU_] |490| 
    1815 000001b5 0742          ADDL      ACC,*-SP[2]           ; [CPU_] |490| 
    1816 000001b6 8AA9          MOVL      XAR4,ACC              ; [CPU_] |490| 
    1817 000001b7 A0C4          MOVL      *+XAR4[0],XAR5        ; [CPU_] |490| 
    1818                      .dwpsn  file "C:/work/grepos/c2000_bootROM/f28004x_bootrom/F28004x_ROM_dev/F28004x_ROM/driverlib/pmbu
    1819 000001b8 8F1F          MOVL      XAR4,#2031617         ; [CPU_U] |493| 
         000001b9 0001 
    1820 000001ba A848          MOVL      *-SP[8],XAR4          ; [CPU_] |493| 
    1821                      .dwpsn  file "C:/work/grepos/c2000_bootROM/f28004x_bootrom/F28004x_ROM_dev/F28004x_ROM/driverlib/pmbu
    1822 000001bb 8A42          MOVL      XAR4,*-SP[2]          ; [CPU_] |497| 
    1823 000001bc 0648          MOVL      ACC,*-SP[8]           ; [CPU_] |497| 
    1824 000001bd FF55          NOT       ACC                   ; [CPU_] |497| 
    1825 000001be C0C4          AND       *+XAR4[0],AL          ; [CPU_] |497| 
    1826 000001bf C1CC          AND       *+XAR4[1],AH          ; [CPU_] |497| 
    1827                      .dwpsn  file "C:/work/grepos/c2000_bootROM/f28004x_bootrom/F28004x_ROM_dev/F28004x_ROM/driverlib/pmbu
    1828 000001c0 A34C          MOVL      P,*-SP[12]            ; [CPU_] |500| 
    1829 000001c1 92AB          MOV       AL,PL                 ; [CPU_] |500| 
    1830 000001c2 8A42          MOVL      XAR4,*-SP[2]          ; [CPU_] |500| 
    1831 000001c3 CE48          AND       AL,*-SP[8]            ; [CPU_] |500| 
TMS320C2000 Assembler PC v6.2.9 Tue Apr 14 13:33:08 2015

Tools Copyright (c) 1996-2014 Texas Instruments Incorporated
C:\Users\a0272466\AppData\Local\Temp\0769210                         PAGE   35

    1832 000001c4 27A9          MOV       PL,AL                 ; [CPU_] |500| 
    1833 000001c5 92AA          MOV       AL,PH                 ; [CPU_] |500| 
    1834 000001c6 93AB          MOV       AH,PL                 ; [CPU_] |500| 
    1835 000001c7 CE47          AND       AL,*-SP[7]            ; [CPU_] |500| 
    1836 000001c8 CBC4          OR        AH,*+XAR4[0]          ; [CPU_] |500| 
    1837 000001c9 27A8          MOV       PL,AH                 ; [CPU_] |500| 
    1838 000001ca CACC          OR        AL,*+XAR4[1]          ; [CPU_] |500| 
    1839 000001cb 2FA9          MOV       PH,AL                 ; [CPU_] |500| 
    1840 000001cc 5603          MOV       ACC,*-SP[3] << #1     ; [CPU_] |500| 
         000001cd 0143 
    1841 000001ce 90FE          ANDB      AL,#0xfe              ; [CPU_] |500| 
    1842 000001cf 88A9          MOVZ      AR6,AL                ; [CPU_] |500| 
    1843 000001d0 A9A9          MOVL      ACC,P                 ; [CPU_] |500| 
    1844 000001d1 AFA6          OR        ACC,AR6               ; [CPU_] |500| 
    1845 000001d2 FF5A          MOVL      P,ACC                 ; [CPU_] |500| 
    1846 000001d3 5603          MOV       ACC,*-SP[4] << #8     ; [CPU_] |500| 
         000001d4 0844 
    1847 000001d5 88A9          MOVZ      AR6,AL                ; [CPU_] |500| 
    1848 000001d6 18A6          AND       AR6,#0xff00           ; [CPU_] |500| 
         000001d7 FF00 
    1849 000001d8 A9A9          MOVL      ACC,P                 ; [CPU_] |500| 
    1850 000001d9 AFA6          OR        ACC,AR6               ; [CPU_] |500| 
    1851 000001da 1EC4          MOVL      *+XAR4[0],ACC         ; [CPU_] |500| 
    1852                      .dwpsn  file "C:/work/grepos/c2000_bootROM/f28004x_bootrom/F28004x_ROM_dev/F28004x_ROM/driverlib/pmbu
    1853 000001db C446          MOVL      XAR6,*-SP[6]          ; [CPU_] |506| 
    1854 000001dc 020A          MOVB      ACC,#10               ; [CPU_] |506| 
    1855 000001dd 0742          ADDL      ACC,*-SP[2]           ; [CPU_] |506| 
    1856 000001de 8AA9          MOVL      XAR4,ACC              ; [CPU_] |506| 
    1857 000001df C2C4          MOVL      *+XAR4[0],XAR6        ; [CPU_] |506| 
    1858                      .dwpsn  file "C:/work/grepos/c2000_bootROM/f28004x_bootrom/F28004x_ROM_dev/F28004x_ROM/driverlib/pmbu
    1859 000001e0 761A   EDIS
    1860                      .dwpsn  file "C:/work/grepos/c2000_bootROM/f28004x_bootrom/F28004x_ROM_dev/F28004x_ROM/driverlib/pmbu
    1861 000001e1 FF69          SPM       #0                    ; [CPU_] 
    1862 000001e2 FE88          SUBB      SP,#8                 ; [CPU_U] 
    1863                      .dwcfi  cfa_offset, -2
    1864              $C$DW$116       .dwtag  DW_TAG_TI_branch
    1865                      .dwattr $C$DW$116, DW_AT_low_pc(0x00)
    1866                      .dwattr $C$DW$116, DW_AT_TI_return
    1867 000001e3 0006          LRETR     ; [CPU_] 
    1868                      ; return occurs ; [] 
    1869                      .dwattr $C$DW$106, DW_AT_TI_end_file("C:/work/grepos/c2000_bootROM/f28004x_bootrom/F28004x_ROM_dev/F2
    1870                      .dwattr $C$DW$106, DW_AT_TI_end_line(0x1fc)
    1871                      .dwattr $C$DW$106, DW_AT_TI_end_column(0x01)
    1872                      .dwendentry
    1873                      .dwendtag $C$DW$106
    1874              
    1875 000001e4               .sect   ".text"
    1876                      .clink
    1877                      .global _PMBUS_getMasterData
    1878              
    1879              $C$DW$117       .dwtag  DW_TAG_subprogram, DW_AT_name("PMBUS_getMasterData")
    1880                      .dwattr $C$DW$117, DW_AT_low_pc(_PMBUS_getMasterData)
    1881                      .dwattr $C$DW$117, DW_AT_high_pc(0x00)
    1882                      .dwattr $C$DW$117, DW_AT_TI_symbol_name("_PMBUS_getMasterData")
    1883                      .dwattr $C$DW$117, DW_AT_external
TMS320C2000 Assembler PC v6.2.9 Tue Apr 14 13:33:08 2015

Tools Copyright (c) 1996-2014 Texas Instruments Incorporated
C:\Users\a0272466\AppData\Local\Temp\0769210                         PAGE   36

    1884                      .dwattr $C$DW$117, DW_AT_type(*$C$DW$T$20)
    1885                      .dwattr $C$DW$117, DW_AT_TI_begin_file("C:/work/grepos/c2000_bootROM/f28004x_bootrom/F28004x_ROM_dev/
    1886                      .dwattr $C$DW$117, DW_AT_TI_begin_line(0x204)
    1887                      .dwattr $C$DW$117, DW_AT_TI_begin_column(0x01)
    1888                      .dwattr $C$DW$117, DW_AT_TI_max_frame_size(-12)
    1889                      .dwpsn  file "C:/work/grepos/c2000_bootROM/f28004x_bootrom/F28004x_ROM_dev/F28004x_ROM/driverlib/pmbu
    1890              
    1891                      .dwfde $C$DW$CIE, _PMBUS_getMasterData
    1892              $C$DW$118       .dwtag  DW_TAG_formal_parameter, DW_AT_name("base")
    1893                      .dwattr $C$DW$118, DW_AT_TI_symbol_name("_base")
    1894                      .dwattr $C$DW$118, DW_AT_type(*$C$DW$T$37)
    1895                      .dwattr $C$DW$118, DW_AT_location[DW_OP_reg0]
    1896              $C$DW$119       .dwtag  DW_TAG_formal_parameter, DW_AT_name("buffer")
    1897                      .dwattr $C$DW$119, DW_AT_TI_symbol_name("_buffer")
    1898                      .dwattr $C$DW$119, DW_AT_type(*$C$DW$T$47)
    1899                      .dwattr $C$DW$119, DW_AT_location[DW_OP_reg12]
    1900              $C$DW$120       .dwtag  DW_TAG_formal_parameter, DW_AT_name("status")
    1901                      .dwattr $C$DW$120, DW_AT_TI_symbol_name("_status")
    1902                      .dwattr $C$DW$120, DW_AT_type(*$C$DW$T$37)
    1903                      .dwattr $C$DW$120, DW_AT_location[DW_OP_breg20 -14]
    1904              
    1905              ;***************************************************************
    1906              ;* FNAME: _PMBUS_getMasterData          FR SIZE:  10           *
    1907              ;*                                                             *
    1908              ;* FUNCTION ENVIRONMENT                                        *
    1909              ;*                                                             *
    1910              ;* FUNCTION PROPERTIES                                         *
    1911              ;*                            0 Parameter,  9 Auto,  0 SOE     *
    1912              ;***************************************************************
    1913              
    1914 000001e4       _PMBUS_getMasterData:
    1915                      .dwcfi  cfa_offset, -2
    1916                      .dwcfi  save_reg_to_mem, 26, 0
    1917                      .dwcfi  save_reg_to_reg, 78, 26
    1918 000001e4 FE0A          ADDB      SP,#10                ; [CPU_U] 
    1919                      .dwcfi  cfa_offset, -12
    1920              $C$DW$121       .dwtag  DW_TAG_variable, DW_AT_name("base")
    1921                      .dwattr $C$DW$121, DW_AT_TI_symbol_name("_base")
    1922                      .dwattr $C$DW$121, DW_AT_type(*$C$DW$T$37)
    1923                      .dwattr $C$DW$121, DW_AT_location[DW_OP_breg20 -2]
    1924              $C$DW$122       .dwtag  DW_TAG_variable, DW_AT_name("buffer")
    1925                      .dwattr $C$DW$122, DW_AT_TI_symbol_name("_buffer")
    1926                      .dwattr $C$DW$122, DW_AT_type(*$C$DW$T$47)
    1927                      .dwattr $C$DW$122, DW_AT_location[DW_OP_breg20 -4]
    1928              $C$DW$123       .dwtag  DW_TAG_variable, DW_AT_name("temp")
    1929                      .dwattr $C$DW$123, DW_AT_TI_symbol_name("_temp")
    1930                      .dwattr $C$DW$123, DW_AT_type(*$C$DW$T$37)
    1931                      .dwattr $C$DW$123, DW_AT_location[DW_OP_breg20 -6]
    1932              $C$DW$124       .dwtag  DW_TAG_variable, DW_AT_name("i")
    1933                      .dwattr $C$DW$124, DW_AT_TI_symbol_name("_i")
    1934                      .dwattr $C$DW$124, DW_AT_type(*$C$DW$T$37)
    1935                      .dwattr $C$DW$124, DW_AT_location[DW_OP_breg20 -8]
    1936              $C$DW$125       .dwtag  DW_TAG_variable, DW_AT_name("num_rx_bytes")
    1937                      .dwattr $C$DW$125, DW_AT_TI_symbol_name("_num_rx_bytes")
    1938                      .dwattr $C$DW$125, DW_AT_type(*$C$DW$T$19)
TMS320C2000 Assembler PC v6.2.9 Tue Apr 14 13:33:08 2015

Tools Copyright (c) 1996-2014 Texas Instruments Incorporated
C:\Users\a0272466\AppData\Local\Temp\0769210                         PAGE   37

    1939                      .dwattr $C$DW$125, DW_AT_location[DW_OP_breg20 -9]
    1940 000001e5 A844          MOVL      *-SP[4],XAR4          ; [CPU_] |517| 
    1941 000001e6 1E42          MOVL      *-SP[2],ACC           ; [CPU_] |517| 
    1942                      .dwpsn  file "C:/work/grepos/c2000_bootROM/f28004x_bootrom/F28004x_ROM_dev/F28004x_ROM/driverlib/pmbu
    1943 000001e7 0200          MOVB      ACC,#0                ; [CPU_] |519| 
    1944 000001e8 1E48          MOVL      *-SP[8],ACC           ; [CPU_] |519| 
    1945                      .dwpsn  file "C:/work/grepos/c2000_bootROM/f28004x_bootrom/F28004x_ROM_dev/F28004x_ROM/driverlib/pmbu
    1946 000001e9 2B49          MOV       *-SP[9],#0            ; [CPU_] |520| 
    1947                      .dwpsn  file "C:/work/grepos/c2000_bootROM/f28004x_bootrom/F28004x_ROM_dev/F28004x_ROM/driverlib/pmbu
    1948 000001ea 924E          MOV       AL,*-SP[14]           ; [CPU_] |529| 
    1949 000001eb 5007          OR        AL,#0x0007            ; [CPU_] |529| 
    1950 000001ec 9649          MOV       *-SP[9],AL            ; [CPU_] |529| 
    1951                      .dwpsn  file "C:/work/grepos/c2000_bootROM/f28004x_bootrom/F28004x_ROM_dev/F28004x_ROM/driverlib/pmbu
    1952 000001ed ED03          BF        $C$L35,NEQ            ; [CPU_] |532| 
    1953                      ; branchcc occurs ; [] |532| 
    1954                      .dwpsn  file "C:/work/grepos/c2000_bootROM/f28004x_bootrom/F28004x_ROM_dev/F28004x_ROM/driverlib/pmbu
    1955 000001ee 9A00          MOVB      AL,#0                 ; [CPU_] |534| 
    1956 000001ef 6F1F          B         $C$L38,UNC            ; [CPU_] |534| 
    1957                      ; branch occurs ; [] |534| 
    1958 000001f0       $C$L35:    
    1959                      .dwpsn  file "C:/work/grepos/c2000_bootROM/f28004x_bootrom/F28004x_ROM_dev/F28004x_ROM/driverlib/pmbu
    1960 000001f0 0204          MOVB      ACC,#4                ; [CPU_] |537| 
    1961 000001f1 0742          ADDL      ACC,*-SP[2]           ; [CPU_] |537| 
    1962 000001f2 8AA9          MOVL      XAR4,ACC              ; [CPU_] |537| 
    1963 000001f3 06C4          MOVL      ACC,*+XAR4[0]         ; [CPU_] |537| 
    1964 000001f4 1E46          MOVL      *-SP[6],ACC           ; [CPU_] |537| 
    1965                      .dwpsn  file "C:/work/grepos/c2000_bootROM/f28004x_bootrom/F28004x_ROM_dev/F28004x_ROM/driverlib/pmbu
    1966 000001f5 0200          MOVB      ACC,#0                ; [CPU_] |538| 
    1967 000001f6 1E48          MOVL      *-SP[8],ACC           ; [CPU_] |538| 
    1968                      .dwpsn  file "C:/work/grepos/c2000_bootROM/f28004x_bootrom/F28004x_ROM_dev/F28004x_ROM/driverlib/pmbu
    1969 000001f7 0E49          MOVU      ACC,*-SP[9]           ; [CPU_] |538| 
    1970 000001f8 0F48          CMPL      ACC,*-SP[8]           ; [CPU_] |538| 
    1971 000001f9 6914          B         $C$L37,LOS            ; [CPU_] |538| 
    1972                      ; branchcc occurs ; [] |538| 
    1973 000001fa       $C$L36:    
    1974                      .dwpsn  file "C:/work/grepos/c2000_bootROM/f28004x_bootrom/F28004x_ROM_dev/F28004x_ROM/driverlib/pmbu
    1975 000001fa 5603          MOV       ACC,*-SP[8] << #3     ; [CPU_] |540| 
         000001fb 0348 
    1976 000001fc 2DA9          MOV       T,AL                  ; [CPU_] |540| 
    1977 000001fd 0646          MOVL      ACC,*-SP[6]           ; [CPU_] |540| 
    1978 000001fe 5622          LSRL      ACC,T                 ; [CPU_] |540| 
    1979 000001ff 1EA6          MOVL      XAR6,ACC              ; [CPU_] |540| 
    1980 00000200 92A6          MOV       AL,AR6                ; [CPU_] |540| 
    1981 00000201 90FF          ANDB      AL,#0xff              ; [CPU_] |540| 
    1982 00000202 88A9          MOVZ      AR6,AL                ; [CPU_] |540| 
    1983 00000203 0644          MOVL      ACC,*-SP[4]           ; [CPU_] |540| 
    1984 00000204 0748          ADDL      ACC,*-SP[8]           ; [CPU_] |540| 
    1985 00000205 8AA9          MOVL      XAR4,ACC              ; [CPU_] |540| 
    1986 00000206 7EC4          MOV       *+XAR4[0],AR6         ; [CPU_] |540| 
    1987                      .dwpsn  file "C:/work/grepos/c2000_bootROM/f28004x_bootrom/F28004x_ROM_dev/F28004x_ROM/driverlib/pmbu
    1988 00000207 0201          MOVB      ACC,#1                ; [CPU_] |538| 
    1989 00000208 0748          ADDL      ACC,*-SP[8]           ; [CPU_] |538| 
    1990 00000209 1E48          MOVL      *-SP[8],ACC           ; [CPU_] |538| 
    1991                      .dwpsn  file "C:/work/grepos/c2000_bootROM/f28004x_bootrom/F28004x_ROM_dev/F28004x_ROM/driverlib/pmbu
    1992 0000020a 0E49          MOVU      ACC,*-SP[9]           ; [CPU_] |538| 
TMS320C2000 Assembler PC v6.2.9 Tue Apr 14 13:33:08 2015

Tools Copyright (c) 1996-2014 Texas Instruments Incorporated
C:\Users\a0272466\AppData\Local\Temp\0769210                         PAGE   38

    1993 0000020b 0F48          CMPL      ACC,*-SP[8]           ; [CPU_] |538| 
    1994 0000020c 66EE          B         $C$L36,HI             ; [CPU_] |538| 
    1995                      ; branchcc occurs ; [] |538| 
    1996 0000020d       $C$L37:    
    1997                      .dwpsn  file "C:/work/grepos/c2000_bootROM/f28004x_bootrom/F28004x_ROM_dev/F28004x_ROM/driverlib/pmbu
    1998 0000020d 9A01          MOVB      AL,#1                 ; [CPU_] |543| 
    1999 0000020e       $C$L38:    
    2000                      .dwpsn  file "C:/work/grepos/c2000_bootROM/f28004x_bootrom/F28004x_ROM_dev/F28004x_ROM/driverlib/pmbu
    2001 0000020e FE8A          SUBB      SP,#10                ; [CPU_U] 
    2002                      .dwcfi  cfa_offset, -2
    2003              $C$DW$126       .dwtag  DW_TAG_TI_branch
    2004                      .dwattr $C$DW$126, DW_AT_low_pc(0x00)
    2005                      .dwattr $C$DW$126, DW_AT_TI_return
    2006 0000020f 0006          LRETR     ; [CPU_] 
    2007                      ; return occurs ; [] 
    2008                      .dwattr $C$DW$117, DW_AT_TI_end_file("C:/work/grepos/c2000_bootROM/f28004x_bootrom/F28004x_ROM_dev/F2
    2009                      .dwattr $C$DW$117, DW_AT_TI_end_line(0x220)
    2010                      .dwattr $C$DW$117, DW_AT_TI_end_column(0x01)
    2011                      .dwendentry
    2012                      .dwendtag $C$DW$117
    2013              
    2014 00000210               .sect   ".text"
    2015                      .clink
    2016                      .global _PMBUS_putMasterData
    2017              
    2018              $C$DW$127       .dwtag  DW_TAG_subprogram, DW_AT_name("PMBUS_putMasterData")
    2019                      .dwattr $C$DW$127, DW_AT_low_pc(_PMBUS_putMasterData)
    2020                      .dwattr $C$DW$127, DW_AT_high_pc(0x00)
    2021                      .dwattr $C$DW$127, DW_AT_TI_symbol_name("_PMBUS_putMasterData")
    2022                      .dwattr $C$DW$127, DW_AT_external
    2023                      .dwattr $C$DW$127, DW_AT_type(*$C$DW$T$19)
    2024                      .dwattr $C$DW$127, DW_AT_TI_begin_file("C:/work/grepos/c2000_bootROM/f28004x_bootrom/F28004x_ROM_dev/
    2025                      .dwattr $C$DW$127, DW_AT_TI_begin_line(0x228)
    2026                      .dwattr $C$DW$127, DW_AT_TI_begin_column(0x01)
    2027                      .dwattr $C$DW$127, DW_AT_TI_max_frame_size(-10)
    2028                      .dwpsn  file "C:/work/grepos/c2000_bootROM/f28004x_bootrom/F28004x_ROM_dev/F28004x_ROM/driverlib/pmbu
    2029              
    2030                      .dwfde $C$DW$CIE, _PMBUS_putMasterData
    2031              $C$DW$128       .dwtag  DW_TAG_formal_parameter, DW_AT_name("base")
    2032                      .dwattr $C$DW$128, DW_AT_TI_symbol_name("_base")
    2033                      .dwattr $C$DW$128, DW_AT_type(*$C$DW$T$37)
    2034                      .dwattr $C$DW$128, DW_AT_location[DW_OP_reg0]
    2035              $C$DW$129       .dwtag  DW_TAG_formal_parameter, DW_AT_name("buffer")
    2036                      .dwattr $C$DW$129, DW_AT_TI_symbol_name("_buffer")
    2037                      .dwattr $C$DW$129, DW_AT_type(*$C$DW$T$47)
    2038                      .dwattr $C$DW$129, DW_AT_location[DW_OP_reg12]
    2039              $C$DW$130       .dwtag  DW_TAG_formal_parameter, DW_AT_name("nBytes")
    2040                      .dwattr $C$DW$130, DW_AT_TI_symbol_name("_nBytes")
    2041                      .dwattr $C$DW$130, DW_AT_type(*$C$DW$T$19)
    2042                      .dwattr $C$DW$130, DW_AT_location[DW_OP_reg14]
    2043              $C$DW$131       .dwtag  DW_TAG_formal_parameter, DW_AT_name("timeout")
    2044                      .dwattr $C$DW$131, DW_AT_TI_symbol_name("_timeout")
    2045                      .dwattr $C$DW$131, DW_AT_type(*$C$DW$T$37)
    2046                      .dwattr $C$DW$131, DW_AT_location[DW_OP_breg20 -12]
    2047              
TMS320C2000 Assembler PC v6.2.9 Tue Apr 14 13:33:08 2015

Tools Copyright (c) 1996-2014 Texas Instruments Incorporated
C:\Users\a0272466\AppData\Local\Temp\0769210                         PAGE   39

    2048              ;***************************************************************
    2049              ;* FNAME: _PMBUS_putMasterData          FR SIZE:   8           *
    2050              ;*                                                             *
    2051              ;* FUNCTION ENVIRONMENT                                        *
    2052              ;*                                                             *
    2053              ;* FUNCTION PROPERTIES                                         *
    2054              ;*                            0 Parameter,  8 Auto,  0 SOE     *
    2055              ;***************************************************************
    2056              
    2057 00000210       _PMBUS_putMasterData:
    2058                      .dwcfi  cfa_offset, -2
    2059                      .dwcfi  save_reg_to_mem, 26, 0
    2060                      .dwcfi  save_reg_to_reg, 78, 26
    2061 00000210 FE08          ADDB      SP,#8                 ; [CPU_U] 
    2062                      .dwcfi  cfa_offset, -10
    2063              $C$DW$132       .dwtag  DW_TAG_variable, DW_AT_name("base")
    2064                      .dwattr $C$DW$132, DW_AT_TI_symbol_name("_base")
    2065                      .dwattr $C$DW$132, DW_AT_type(*$C$DW$T$37)
    2066                      .dwattr $C$DW$132, DW_AT_location[DW_OP_breg20 -2]
    2067              $C$DW$133       .dwtag  DW_TAG_variable, DW_AT_name("buffer")
    2068                      .dwattr $C$DW$133, DW_AT_TI_symbol_name("_buffer")
    2069                      .dwattr $C$DW$133, DW_AT_type(*$C$DW$T$47)
    2070                      .dwattr $C$DW$133, DW_AT_location[DW_OP_breg20 -4]
    2071              $C$DW$134       .dwtag  DW_TAG_variable, DW_AT_name("nBytes")
    2072                      .dwattr $C$DW$134, DW_AT_TI_symbol_name("_nBytes")
    2073                      .dwattr $C$DW$134, DW_AT_type(*$C$DW$T$19)
    2074                      .dwattr $C$DW$134, DW_AT_location[DW_OP_breg20 -5]
    2075              $C$DW$135       .dwtag  DW_TAG_variable, DW_AT_name("i")
    2076                      .dwattr $C$DW$135, DW_AT_TI_symbol_name("_i")
    2077                      .dwattr $C$DW$135, DW_AT_type(*$C$DW$T$19)
    2078                      .dwattr $C$DW$135, DW_AT_location[DW_OP_breg20 -6]
    2079              $C$DW$136       .dwtag  DW_TAG_variable, DW_AT_name("tx_data")
    2080                      .dwattr $C$DW$136, DW_AT_TI_symbol_name("_tx_data")
    2081                      .dwattr $C$DW$136, DW_AT_type(*$C$DW$T$37)
    2082                      .dwattr $C$DW$136, DW_AT_location[DW_OP_breg20 -8]
    2083 00000211 7D45          MOV       *-SP[5],AR5           ; [CPU_] |553| 
    2084 00000212 A844          MOVL      *-SP[4],XAR4          ; [CPU_] |553| 
    2085 00000213 1E42          MOVL      *-SP[2],ACC           ; [CPU_] |553| 
    2086                      .dwpsn  file "C:/work/grepos/c2000_bootROM/f28004x_bootrom/F28004x_ROM_dev/F28004x_ROM/driverlib/pmbu
    2087 00000214 2B46          MOV       *-SP[6],#0            ; [CPU_] |555| 
    2088                      .dwpsn  file "C:/work/grepos/c2000_bootROM/f28004x_bootrom/F28004x_ROM_dev/F28004x_ROM/driverlib/pmbu
    2089 00000215 0200          MOVB      ACC,#0                ; [CPU_] |556| 
    2090 00000216 1E48          MOVL      *-SP[8],ACC           ; [CPU_] |556| 
    2091                      .dwpsn  file "C:/work/grepos/c2000_bootROM/f28004x_bootrom/F28004x_ROM_dev/F28004x_ROM/driverlib/pmbu
    2092 00000217 7622   EALLOW
    2093                      .dwpsn  file "C:/work/grepos/c2000_bootROM/f28004x_bootrom/F28004x_ROM_dev/F28004x_ROM/driverlib/pmbu
    2094 00000218 2901          CLRC      SXM                   ; [CPU_] 
    2095 00000219 8A42          MOVL      XAR4,*-SP[2]          ; [CPU_] |567| 
    2096 0000021a 5603          MOV       ACC,*-SP[5] << 8      ; [CPU_] |567| 
         0000021b 0845 
    2097 0000021c 9B00          MOVB      AH,#0                 ; [CPU_] |567| 
    2098 0000021d 18A9          AND       AL,#0xff00            ; [CPU_] |567| 
         0000021e FF00 
    2099 0000021f 98C4          OR        *+XAR4[0],AL          ; [CPU_] |567| 
    2100 00000220 99CC          OR        *+XAR4[1],AH          ; [CPU_] |567| 
TMS320C2000 Assembler PC v6.2.9 Tue Apr 14 13:33:08 2015

Tools Copyright (c) 1996-2014 Texas Instruments Incorporated
C:\Users\a0272466\AppData\Local\Temp\0769210                         PAGE   40

    2101                      .dwpsn  file "C:/work/grepos/c2000_bootROM/f28004x_bootrom/F28004x_ROM_dev/F28004x_ROM/driverlib/pmbu
    2102 00000221 761A   EDIS
    2103                      .dwpsn  file "C:/work/grepos/c2000_bootROM/f28004x_bootrom/F28004x_ROM_dev/F28004x_ROM/driverlib/pmbu
    2104 00000222 FF69          SPM       #0                    ; [CPU_] 
    2105 00000223 3B01          SETC      SXM                   ; [CPU_] 
    2106 00000224 6F13          B         $C$L40,UNC            ; [CPU_] |571| 
    2107                      ; branch occurs ; [] |571| 
    2108 00000225       $C$L39:    
    2109                      .dwpsn  file "C:/work/grepos/c2000_bootROM/f28004x_bootrom/F28004x_ROM_dev/F28004x_ROM/driverlib/pmbu
    2110 00000225 8A44          MOVL      XAR4,*-SP[4]          ; [CPU_] |573| 
    2111 00000226 8584          MOV       ACC,*XAR4++           ; [CPU_] |573| 
    2112 00000227 FF5A          MOVL      P,ACC                 ; [CPU_] |573| 
    2113 00000228 92AB          MOV       AL,PL                 ; [CPU_] |573| 
    2114 00000229 2BAA          MOV       PH,#0                 ; [CPU_] |573| 
    2115 0000022a 90FF          ANDB      AL,#0xff              ; [CPU_] |573| 
    2116 0000022b A844          MOVL      *-SP[4],XAR4          ; [CPU_] |573| 
    2117 0000022c 27A9          MOV       PL,AL                 ; [CPU_] |573| 
    2118 0000022d 5603          MOV       ACC,*-SP[6] << #3     ; [CPU_] |573| 
         0000022e 0346 
    2119 0000022f 16A9          MOVP      T,AL                  ; [CPU_] 
    2120 00000230 563B          LSLL      ACC,T                 ; [CPU_] |573| 
    2121 00000231 FF5A          MOVL      P,ACC                 ; [CPU_] |573| 
    2122 00000232 92AB          MOV       AL,PL                 ; [CPU_] |573| 
    2123 00000233 9848          OR        *-SP[8],AL            ; [CPU_] |573| 
    2124 00000234 92AA          MOV       AL,PH                 ; [CPU_] |573| 
    2125 00000235 9847          OR        *-SP[7],AL            ; [CPU_] |573| 
    2126                      .dwpsn  file "C:/work/grepos/c2000_bootROM/f28004x_bootrom/F28004x_ROM_dev/F28004x_ROM/driverlib/pmbu
    2127 00000236 0A46          INC       *-SP[6]               ; [CPU_] |574| 
    2128 00000237       $C$L40:    
    2129                      .dwpsn  file "C:/work/grepos/c2000_bootROM/f28004x_bootrom/F28004x_ROM_dev/F28004x_ROM/driverlib/pmbu
    2130 00000237 9245          MOV       AL,*-SP[5]            ; [CPU_] |571| 
    2131 00000238 5446          CMP       AL,*-SP[6]            ; [CPU_] |571| 
    2132 00000239 66EC          B         $C$L39,HI             ; [CPU_] |571| 
    2133                      ; branchcc occurs ; [] |571| 
    2134                      .dwpsn  file "C:/work/grepos/c2000_bootROM/f28004x_bootrom/F28004x_ROM_dev/F28004x_ROM/driverlib/pmbu
    2135 0000023a C448          MOVL      XAR6,*-SP[8]          ; [CPU_] |577| 
    2136 0000023b 0202          MOVB      ACC,#2                ; [CPU_] |577| 
    2137 0000023c 0742          ADDL      ACC,*-SP[2]           ; [CPU_] |577| 
    2138 0000023d 8AA9          MOVL      XAR4,ACC              ; [CPU_] |577| 
    2139 0000023e C2C4          MOVL      *+XAR4[0],XAR6        ; [CPU_] |577| 
    2140                      .dwpsn  file "C:/work/grepos/c2000_bootROM/f28004x_bootrom/F28004x_ROM_dev/F28004x_ROM/driverlib/pmbu
    2141 0000023f 9246          MOV       AL,*-SP[6]            ; [CPU_] |580| 
    2142                      .dwpsn  file "C:/work/grepos/c2000_bootROM/f28004x_bootrom/F28004x_ROM_dev/F28004x_ROM/driverlib/pmbu
    2143 00000240 FF69          SPM       #0                    ; [CPU_] 
    2144 00000241 FE88          SUBB      SP,#8                 ; [CPU_U] 
    2145                      .dwcfi  cfa_offset, -2
    2146              $C$DW$137       .dwtag  DW_TAG_TI_branch
    2147                      .dwattr $C$DW$137, DW_AT_low_pc(0x00)
    2148                      .dwattr $C$DW$137, DW_AT_TI_return
    2149 00000242 0006          LRETR     ; [CPU_] 
    2150                      ; return occurs ; [] 
    2151                      .dwattr $C$DW$127, DW_AT_TI_end_file("C:/work/grepos/c2000_bootROM/f28004x_bootrom/F28004x_ROM_dev/F2
    2152                      .dwattr $C$DW$127, DW_AT_TI_end_line(0x245)
    2153                      .dwattr $C$DW$127, DW_AT_TI_end_column(0x01)
    2154                      .dwendentry
TMS320C2000 Assembler PC v6.2.9 Tue Apr 14 13:33:08 2015

Tools Copyright (c) 1996-2014 Texas Instruments Incorporated
C:\Users\a0272466\AppData\Local\Temp\0769210                         PAGE   41

    2155                      .dwendtag $C$DW$127
    2156              
    2157 00000243               .sect   ".text"
    2158                      .clink
    2159                      .global _PMBUS_configMasterTransfer
    2160              
    2161              $C$DW$138       .dwtag  DW_TAG_subprogram, DW_AT_name("PMBUS_configMasterTransfer")
    2162                      .dwattr $C$DW$138, DW_AT_low_pc(_PMBUS_configMasterTransfer)
    2163                      .dwattr $C$DW$138, DW_AT_high_pc(0x00)
    2164                      .dwattr $C$DW$138, DW_AT_TI_symbol_name("_PMBUS_configMasterTransfer")
    2165                      .dwattr $C$DW$138, DW_AT_external
    2166                      .dwattr $C$DW$138, DW_AT_type(*$C$DW$T$46)
    2167                      .dwattr $C$DW$138, DW_AT_TI_begin_file("C:/work/grepos/c2000_bootROM/f28004x_bootrom/F28004x_ROM_dev/
    2168                      .dwattr $C$DW$138, DW_AT_TI_begin_line(0x24c)
    2169                      .dwattr $C$DW$138, DW_AT_TI_begin_column(0x09)
    2170                      .dwattr $C$DW$138, DW_AT_TI_max_frame_size(-8)
    2171                      .dwpsn  file "C:/work/grepos/c2000_bootROM/f28004x_bootrom/F28004x_ROM_dev/F28004x_ROM/driverlib/pmbu
    2172              
    2173                      .dwfde $C$DW$CIE, _PMBUS_configMasterTransfer
    2174              $C$DW$139       .dwtag  DW_TAG_formal_parameter, DW_AT_name("base")
    2175                      .dwattr $C$DW$139, DW_AT_TI_symbol_name("_base")
    2176                      .dwattr $C$DW$139, DW_AT_type(*$C$DW$T$37)
    2177                      .dwattr $C$DW$139, DW_AT_location[DW_OP_reg0]
    2178              $C$DW$140       .dwtag  DW_TAG_formal_parameter, DW_AT_name("handle")
    2179                      .dwattr $C$DW$140, DW_AT_TI_symbol_name("_handle")
    2180                      .dwattr $C$DW$140, DW_AT_type(*$C$DW$T$34)
    2181                      .dwattr $C$DW$140, DW_AT_location[DW_OP_reg12]
    2182              
    2183              ;***************************************************************
    2184              ;* FNAME: _PMBUS_configMasterTransfer   FR SIZE:   6           *
    2185              ;*                                                             *
    2186              ;* FUNCTION ENVIRONMENT                                        *
    2187              ;*                                                             *
    2188              ;* FUNCTION PROPERTIES                                         *
    2189              ;*                            0 Parameter,  6 Auto,  0 SOE     *
    2190              ;***************************************************************
    2191              
    2192 00000243       _PMBUS_configMasterTransfer:
    2193                      .dwcfi  cfa_offset, -2
    2194                      .dwcfi  save_reg_to_mem, 26, 0
    2195                      .dwcfi  save_reg_to_reg, 78, 26
    2196 00000243 FE06          ADDB      SP,#6                 ; [CPU_U] 
    2197                      .dwcfi  cfa_offset, -8
    2198              $C$DW$141       .dwtag  DW_TAG_variable, DW_AT_name("base")
    2199                      .dwattr $C$DW$141, DW_AT_TI_symbol_name("_base")
    2200                      .dwattr $C$DW$141, DW_AT_type(*$C$DW$T$37)
    2201                      .dwattr $C$DW$141, DW_AT_location[DW_OP_breg20 -2]
    2202              $C$DW$142       .dwtag  DW_TAG_variable, DW_AT_name("handle")
    2203                      .dwattr $C$DW$142, DW_AT_TI_symbol_name("_handle")
    2204                      .dwattr $C$DW$142, DW_AT_type(*$C$DW$T$34)
    2205                      .dwattr $C$DW$142, DW_AT_location[DW_OP_breg20 -4]
    2206              $C$DW$143       .dwtag  DW_TAG_variable, DW_AT_name("interruptState")
    2207                      .dwattr $C$DW$143, DW_AT_TI_symbol_name("_interruptState")
    2208                      .dwattr $C$DW$143, DW_AT_type(*$C$DW$T$37)
    2209                      .dwattr $C$DW$143, DW_AT_location[DW_OP_breg20 -6]
TMS320C2000 Assembler PC v6.2.9 Tue Apr 14 13:33:08 2015

Tools Copyright (c) 1996-2014 Texas Instruments Incorporated
C:\Users\a0272466\AppData\Local\Temp\0769210                         PAGE   42

    2210 00000244 A844          MOVL      *-SP[4],XAR4          ; [CPU_] |589| 
    2211 00000245 1E42          MOVL      *-SP[2],ACC           ; [CPU_] |589| 
    2212                      .dwpsn  file "C:/work/grepos/c2000_bootROM/f28004x_bootrom/F28004x_ROM_dev/F28004x_ROM/driverlib/pmbu
    2213 00000246 0200          MOVB      ACC,#0                ; [CPU_] |591| 
    2214 00000247 1E46          MOVL      *-SP[6],ACC           ; [CPU_] |591| 
    2215                      .dwpsn  file "C:/work/grepos/c2000_bootROM/f28004x_bootrom/F28004x_ROM_dev/F28004x_ROM/driverlib/pmbu
    2216 00000248 7622   EALLOW
    2217                      .dwpsn  file "C:/work/grepos/c2000_bootROM/f28004x_bootrom/F28004x_ROM_dev/F28004x_ROM/driverlib/pmbu
    2218 00000249 020A          MOVB      ACC,#10               ; [CPU_] |602| 
    2219 0000024a 0742          ADDL      ACC,*-SP[2]           ; [CPU_] |602| 
    2220 0000024b 8AA9          MOVL      XAR4,ACC              ; [CPU_] |602| 
    2221 0000024c 06C4          MOVL      ACC,*+XAR4[0]         ; [CPU_] |602| 
    2222 0000024d 1E46          MOVL      *-SP[6],ACC           ; [CPU_] |602| 
    2223                      .dwpsn  file "C:/work/grepos/c2000_bootROM/f28004x_bootrom/F28004x_ROM_dev/F28004x_ROM/driverlib/pmbu
    2224 0000024e 8F40          MOVL      XAR5,#1023            ; [CPU_U] |603| 
         0000024f 03FF 
    2225 00000250 020A          MOVB      ACC,#10               ; [CPU_] |603| 
    2226 00000251 0742          ADDL      ACC,*-SP[2]           ; [CPU_] |603| 
    2227 00000252 8AA9          MOVL      XAR4,ACC              ; [CPU_] |603| 
    2228 00000253 A0C4          MOVL      *+XAR4[0],XAR5        ; [CPU_] |603| 
    2229                      .dwpsn  file "C:/work/grepos/c2000_bootROM/f28004x_bootrom/F28004x_ROM_dev/F28004x_ROM/driverlib/pmbu
    2230 00000254 8A42          MOVL      XAR4,*-SP[2]          ; [CPU_] |606| 
    2231 00000255 1ACC          OR        *+XAR4[1],#1          ; [CPU_] |606| 
         00000256 0001 
    2232                      .dwpsn  file "C:/work/grepos/c2000_bootROM/f28004x_bootrom/F28004x_ROM_dev/F28004x_ROM/driverlib/pmbu
    2233 00000257 8A44          MOVL      XAR4,*-SP[4]          ; [CPU_] |608| 
    2234 00000258 92CC          MOV       AL,*+XAR4[1]          ; [CPU_] |608| 
    2235 00000259 ED38          BF        $C$L48,NEQ            ; [CPU_] |608| 
    2236                      ; branchcc occurs ; [] |608| 
    2237                      .dwpsn  file "C:/work/grepos/c2000_bootROM/f28004x_bootrom/F28004x_ROM_dev/F28004x_ROM/driverlib/pmbu
    2238 0000025a 8A42          MOVL      XAR4,*-SP[2]          ; [CPU_] |611| 
    2239 0000025b 02FE          MOVB      ACC,#254              ; [CPU_] |611| 
    2240 0000025c C0C4          AND       *+XAR4[0],AL          ; [CPU_] |611| 
    2241 0000025d C1CC          AND       *+XAR4[1],AH          ; [CPU_] |611| 
    2242                      .dwpsn  file "C:/work/grepos/c2000_bootROM/f28004x_bootrom/F28004x_ROM_dev/F28004x_ROM/driverlib/pmbu
    2243 0000025e 6F16          B         $C$L45,UNC            ; [CPU_] |613| 
    2244                      ; branch occurs ; [] |613| 
    2245 0000025f       $C$L41:    
    2246                      .dwpsn  file "C:/work/grepos/c2000_bootROM/f28004x_bootrom/F28004x_ROM_dev/F28004x_ROM/driverlib/pmbu
    2247 0000025f 8A42          MOVL      XAR4,*-SP[2]          ; [CPU_] |618| 
    2248 00000260 1AC4          OR        *+XAR4[0],#256        ; [CPU_] |618| 
         00000261 0100 
    2249                      .dwpsn  file "C:/work/grepos/c2000_bootROM/f28004x_bootrom/F28004x_ROM_dev/F28004x_ROM/driverlib/pmbu
    2250 00000262 6F69          B         $C$L56,UNC            ; [CPU_] |620| 
    2251                      ; branch occurs ; [] |620| 
    2252 00000263       $C$L42:    
    2253                      .dwpsn  file "C:/work/grepos/c2000_bootROM/f28004x_bootrom/F28004x_ROM_dev/F28004x_ROM/driverlib/pmbu
    2254 00000263 8A42          MOVL      XAR4,*-SP[2]          ; [CPU_] |627| 
    2255 00000264 1AC4          OR        *+XAR4[0],#512        ; [CPU_] |627| 
         00000265 0200 
    2256                      .dwpsn  file "C:/work/grepos/c2000_bootROM/f28004x_bootrom/F28004x_ROM_dev/F28004x_ROM/driverlib/pmbu
    2257 00000266 6F65          B         $C$L56,UNC            ; [CPU_] |629| 
    2258                      ; branch occurs ; [] |629| 
    2259 00000267       $C$L43:    
    2260                      .dwpsn  file "C:/work/grepos/c2000_bootROM/f28004x_bootrom/F28004x_ROM_dev/F28004x_ROM/driverlib/pmbu
TMS320C2000 Assembler PC v6.2.9 Tue Apr 14 13:33:08 2015

Tools Copyright (c) 1996-2014 Texas Instruments Incorporated
C:\Users\a0272466\AppData\Local\Temp\0769210                         PAGE   43

    2261 00000267 8A44          MOVL      XAR4,*-SP[4]          ; [CPU_] |633| 
    2262 00000268 5603          MOV       ACC,*+XAR4[3] << #8   ; [CPU_] |633| 
         00000269 08DC 
    2263 0000026a 8A42          MOVL      XAR4,*-SP[2]          ; [CPU_] |633| 
    2264 0000026b 18A9          AND       AL,#0xff00            ; [CPU_] |633| 
         0000026c FF00 
    2265 0000026d 0EA9          MOVU      ACC,AL                ; [CPU_] |633| 
    2266 0000026e 98C4          OR        *+XAR4[0],AL          ; [CPU_] |633| 
    2267 0000026f 99CC          OR        *+XAR4[1],AH          ; [CPU_] |633| 
    2268                      .dwpsn  file "C:/work/grepos/c2000_bootROM/f28004x_bootrom/F28004x_ROM_dev/F28004x_ROM/driverlib/pmbu
    2269 00000270 6F5B          B         $C$L56,UNC            ; [CPU_] |635| 
    2270                      ; branch occurs ; [] |635| 
    2271 00000271       $C$L44:    
    2272                      .dwpsn  file "C:/work/grepos/c2000_bootROM/f28004x_bootrom/F28004x_ROM_dev/F28004x_ROM/driverlib/pmbu
    2273 00000271 28A9          MOV       AL,#-1                ; [CPU_] |649| 
         00000272 FFFF 
    2274 00000273 6F5F          B         $C$L57,UNC            ; [CPU_] |649| 
    2275                      ; branch occurs ; [] |649| 
    2276 00000274       $C$L45:    
    2277                      .dwpsn  file "C:/work/grepos/c2000_bootROM/f28004x_bootrom/F28004x_ROM_dev/F28004x_ROM/driverlib/pmbu
    2278 00000274 8A44          MOVL      XAR4,*-SP[4]          ; [CPU_] |613| 
    2279 00000275 92D4          MOV       AL,*+XAR4[2]          ; [CPU_] |613| 
    2280 00000276 5205          CMPB      AL,#5                 ; [CPU_] |613| 
    2281 00000277 6211          B         $C$L47,GT             ; [CPU_] |613| 
    2282                      ; branchcc occurs ; [] |613| 
    2283 00000278 5205          CMPB      AL,#5                 ; [CPU_] |613| 
    2284 00000279 ECEE          BF        $C$L43,EQ             ; [CPU_] |613| 
    2285                      ; branchcc occurs ; [] |613| 
    2286 0000027a 5202          CMPB      AL,#2                 ; [CPU_] |613| 
    2287 0000027b 6208          B         $C$L46,GT             ; [CPU_] |613| 
    2288                      ; branchcc occurs ; [] |613| 
    2289 0000027c 5202          CMPB      AL,#2                 ; [CPU_] |613| 
    2290 0000027d EC4E          BF        $C$L56,EQ             ; [CPU_] |613| 
    2291                      ; branchcc occurs ; [] |613| 
    2292 0000027e 5200          CMPB      AL,#0                 ; [CPU_] |613| 
    2293 0000027f EC4C          BF        $C$L56,EQ             ; [CPU_] |613| 
    2294                      ; branchcc occurs ; [] |613| 
    2295 00000280 5201          CMPB      AL,#1                 ; [CPU_] |613| 
    2296 00000281 ECDE          BF        $C$L41,EQ             ; [CPU_] |613| 
    2297                      ; branchcc occurs ; [] |613| 
    2298 00000282 6FEF          B         $C$L44,UNC            ; [CPU_] |613| 
    2299                      ; branch occurs ; [] |613| 
    2300 00000283       $C$L46:    
    2301 00000283 5203          CMPB      AL,#3                 ; [CPU_] |613| 
    2302 00000284 EC47          BF        $C$L56,EQ             ; [CPU_] |613| 
    2303                      ; branchcc occurs ; [] |613| 
    2304 00000285 5204          CMPB      AL,#4                 ; [CPU_] |613| 
    2305 00000286 ECEB          BF        $C$L44,EQ             ; [CPU_] |613| 
    2306                      ; branchcc occurs ; [] |613| 
    2307 00000287 6FEA          B         $C$L44,UNC            ; [CPU_] |613| 
    2308                      ; branch occurs ; [] |613| 
    2309 00000288       $C$L47:    
    2310 00000288 5206          CMPB      AL,#6                 ; [CPU_] |613| 
    2311 00000289 EC42          BF        $C$L56,EQ             ; [CPU_] |613| 
    2312                      ; branchcc occurs ; [] |613| 
TMS320C2000 Assembler PC v6.2.9 Tue Apr 14 13:33:08 2015

Tools Copyright (c) 1996-2014 Texas Instruments Incorporated
C:\Users\a0272466\AppData\Local\Temp\0769210                         PAGE   44

    2313 0000028a 5207          CMPB      AL,#7                 ; [CPU_] |613| 
    2314 0000028b ECD8          BF        $C$L42,EQ             ; [CPU_] |613| 
    2315                      ; branchcc occurs ; [] |613| 
    2316 0000028c 5208          CMPB      AL,#8                 ; [CPU_] |613| 
    2317 0000028d EC3E          BF        $C$L56,EQ             ; [CPU_] |613| 
    2318                      ; branchcc occurs ; [] |613| 
    2319 0000028e 5209          CMPB      AL,#9                 ; [CPU_] |613| 
    2320 0000028f ECD8          BF        $C$L43,EQ             ; [CPU_] |613| 
    2321                      ; branchcc occurs ; [] |613| 
    2322 00000290 6FE1          B         $C$L44,UNC            ; [CPU_] |613| 
    2323                      ; branch occurs ; [] |613| 
    2324 00000291       $C$L48:    
    2325                      .dwpsn  file "C:/work/grepos/c2000_bootROM/f28004x_bootrom/F28004x_ROM_dev/F28004x_ROM/driverlib/pmbu
    2326 00000291 8A42          MOVL      XAR4,*-SP[2]          ; [CPU_] |656| 
    2327 00000292 02FF          MOVB      ACC,#255              ; [CPU_] |656| 
    2328 00000293 C0C4          AND       *+XAR4[0],AL          ; [CPU_] |656| 
    2329 00000294 C1CC          AND       *+XAR4[1],AH          ; [CPU_] |656| 
    2330                      .dwpsn  file "C:/work/grepos/c2000_bootROM/f28004x_bootrom/F28004x_ROM_dev/F28004x_ROM/driverlib/pmbu
    2331 00000295 8A42          MOVL      XAR4,*-SP[2]          ; [CPU_] |657| 
    2332 00000296 1AC4          OR        *+XAR4[0],#1          ; [CPU_] |657| 
         00000297 0001 
    2333                      .dwpsn  file "C:/work/grepos/c2000_bootROM/f28004x_bootrom/F28004x_ROM_dev/F28004x_ROM/driverlib/pmbu
    2334 00000298 6F16          B         $C$L53,UNC            ; [CPU_] |658| 
    2335                      ; branch occurs ; [] |658| 
    2336 00000299       $C$L49:    
    2337                      .dwpsn  file "C:/work/grepos/c2000_bootROM/f28004x_bootrom/F28004x_ROM_dev/F28004x_ROM/driverlib/pmbu
    2338 00000299 8A42          MOVL      XAR4,*-SP[2]          ; [CPU_] |664| 
    2339 0000029a 1AC4          OR        *+XAR4[0],#256        ; [CPU_] |664| 
         0000029b 0100 
    2340                      .dwpsn  file "C:/work/grepos/c2000_bootROM/f28004x_bootrom/F28004x_ROM_dev/F28004x_ROM/driverlib/pmbu
    2341 0000029c 6F2F          B         $C$L56,UNC            ; [CPU_] |666| 
    2342                      ; branch occurs ; [] |666| 
    2343 0000029d       $C$L50:    
    2344                      .dwpsn  file "C:/work/grepos/c2000_bootROM/f28004x_bootrom/F28004x_ROM_dev/F28004x_ROM/driverlib/pmbu
    2345 0000029d 8A42          MOVL      XAR4,*-SP[2]          ; [CPU_] |669| 
    2346 0000029e 1AC4          OR        *+XAR4[0],#512        ; [CPU_] |669| 
         0000029f 0200 
    2347                      .dwpsn  file "C:/work/grepos/c2000_bootROM/f28004x_bootrom/F28004x_ROM_dev/F28004x_ROM/driverlib/pmbu
    2348 000002a0 6F2B          B         $C$L56,UNC            ; [CPU_] |671| 
    2349                      ; branch occurs ; [] |671| 
    2350 000002a1       $C$L51:    
    2351                      .dwpsn  file "C:/work/grepos/c2000_bootROM/f28004x_bootrom/F28004x_ROM_dev/F28004x_ROM/driverlib/pmbu
    2352 000002a1 8A44          MOVL      XAR4,*-SP[4]          ; [CPU_] |680| 
    2353 000002a2 5603          MOV       ACC,*+XAR4[3] << #8   ; [CPU_] |680| 
         000002a3 08DC 
    2354 000002a4 8A42          MOVL      XAR4,*-SP[2]          ; [CPU_] |680| 
    2355 000002a5 18A9          AND       AL,#0xff00            ; [CPU_] |680| 
         000002a6 FF00 
    2356 000002a7 0EA9          MOVU      ACC,AL                ; [CPU_] |680| 
    2357 000002a8 98C4          OR        *+XAR4[0],AL          ; [CPU_] |680| 
    2358 000002a9 99CC          OR        *+XAR4[1],AH          ; [CPU_] |680| 
    2359                      .dwpsn  file "C:/work/grepos/c2000_bootROM/f28004x_bootrom/F28004x_ROM_dev/F28004x_ROM/driverlib/pmbu
    2360 000002aa 6F21          B         $C$L56,UNC            ; [CPU_] |682| 
    2361                      ; branch occurs ; [] |682| 
    2362 000002ab       $C$L52:    
TMS320C2000 Assembler PC v6.2.9 Tue Apr 14 13:33:08 2015

Tools Copyright (c) 1996-2014 Texas Instruments Incorporated
C:\Users\a0272466\AppData\Local\Temp\0769210                         PAGE   45

    2363                      .dwpsn  file "C:/work/grepos/c2000_bootROM/f28004x_bootrom/F28004x_ROM_dev/F28004x_ROM/driverlib/pmbu
    2364 000002ab 28A9          MOV       AL,#-1                ; [CPU_] |699| 
         000002ac FFFF 
    2365 000002ad 6F25          B         $C$L57,UNC            ; [CPU_] |699| 
    2366                      ; branch occurs ; [] |699| 
    2367 000002ae       $C$L53:    
    2368                      .dwpsn  file "C:/work/grepos/c2000_bootROM/f28004x_bootrom/F28004x_ROM_dev/F28004x_ROM/driverlib/pmbu
    2369 000002ae 8A44          MOVL      XAR4,*-SP[4]          ; [CPU_] |658| 
    2370 000002af 92D4          MOV       AL,*+XAR4[2]          ; [CPU_] |658| 
    2371 000002b0 5205          CMPB      AL,#5                 ; [CPU_] |658| 
    2372 000002b1 6211          B         $C$L55,GT             ; [CPU_] |658| 
    2373                      ; branchcc occurs ; [] |658| 
    2374 000002b2 5205          CMPB      AL,#5                 ; [CPU_] |658| 
    2375 000002b3 ECF8          BF        $C$L52,EQ             ; [CPU_] |658| 
    2376                      ; branchcc occurs ; [] |658| 
    2377 000002b4 5202          CMPB      AL,#2                 ; [CPU_] |658| 
    2378 000002b5 6208          B         $C$L54,GT             ; [CPU_] |658| 
    2379                      ; branchcc occurs ; [] |658| 
    2380 000002b6 5202          CMPB      AL,#2                 ; [CPU_] |658| 
    2381 000002b7 ECE2          BF        $C$L49,EQ             ; [CPU_] |658| 
    2382                      ; branchcc occurs ; [] |658| 
    2383 000002b8 5200          CMPB      AL,#0                 ; [CPU_] |658| 
    2384 000002b9 EC12          BF        $C$L56,EQ             ; [CPU_] |658| 
    2385                      ; branchcc occurs ; [] |658| 
    2386 000002ba 5201          CMPB      AL,#1                 ; [CPU_] |658| 
    2387 000002bb ECF0          BF        $C$L52,EQ             ; [CPU_] |658| 
    2388                      ; branchcc occurs ; [] |658| 
    2389 000002bc 6FEF          B         $C$L52,UNC            ; [CPU_] |658| 
    2390                      ; branch occurs ; [] |658| 
    2391 000002bd       $C$L54:    
    2392 000002bd 5203          CMPB      AL,#3                 ; [CPU_] |658| 
    2393 000002be ECED          BF        $C$L52,EQ             ; [CPU_] |658| 
    2394                      ; branchcc occurs ; [] |658| 
    2395 000002bf 5204          CMPB      AL,#4                 ; [CPU_] |658| 
    2396 000002c0 EC0B          BF        $C$L56,EQ             ; [CPU_] |658| 
    2397                      ; branchcc occurs ; [] |658| 
    2398 000002c1 6FEA          B         $C$L52,UNC            ; [CPU_] |658| 
    2399                      ; branch occurs ; [] |658| 
    2400 000002c2       $C$L55:    
    2401 000002c2 5206          CMPB      AL,#6                 ; [CPU_] |658| 
    2402 000002c3 ECDE          BF        $C$L51,EQ             ; [CPU_] |658| 
    2403                      ; branchcc occurs ; [] |658| 
    2404 000002c4 5207          CMPB      AL,#7                 ; [CPU_] |658| 
    2405 000002c5 ECE6          BF        $C$L52,EQ             ; [CPU_] |658| 
    2406                      ; branchcc occurs ; [] |658| 
    2407 000002c6 5208          CMPB      AL,#8                 ; [CPU_] |658| 
    2408 000002c7 ECD6          BF        $C$L50,EQ             ; [CPU_] |658| 
    2409                      ; branchcc occurs ; [] |658| 
    2410 000002c8 5209          CMPB      AL,#9                 ; [CPU_] |658| 
    2411 000002c9 ECD8          BF        $C$L51,EQ             ; [CPU_] |658| 
    2412                      ; branchcc occurs ; [] |658| 
    2413 000002ca 6FE1          B         $C$L52,UNC            ; [CPU_] |658| 
    2414                      ; branch occurs ; [] |658| 
    2415 000002cb       $C$L56:    
    2416                      .dwpsn  file "C:/work/grepos/c2000_bootROM/f28004x_bootrom/F28004x_ROM_dev/F28004x_ROM/driverlib/pmbu
TMS320C2000 Assembler PC v6.2.9 Tue Apr 14 13:33:08 2015

Tools Copyright (c) 1996-2014 Texas Instruments Incorporated
C:\Users\a0272466\AppData\Local\Temp\0769210                         PAGE   46

    2417 000002cb C446          MOVL      XAR6,*-SP[6]          ; [CPU_] |706| 
    2418 000002cc 020A          MOVB      ACC,#10               ; [CPU_] |706| 
    2419 000002cd 0742          ADDL      ACC,*-SP[2]           ; [CPU_] |706| 
    2420 000002ce 8AA9          MOVL      XAR4,ACC              ; [CPU_] |706| 
    2421 000002cf C2C4          MOVL      *+XAR4[0],XAR6        ; [CPU_] |706| 
    2422                      .dwpsn  file "C:/work/grepos/c2000_bootROM/f28004x_bootrom/F28004x_ROM_dev/F28004x_ROM/driverlib/pmbu
    2423 000002d0 761A   EDIS
    2424                      .dwpsn  file "C:/work/grepos/c2000_bootROM/f28004x_bootrom/F28004x_ROM_dev/F28004x_ROM/driverlib/pmbu
    2425 000002d1 9A01          MOVB      AL,#1                 ; [CPU_] |709| 
    2426 000002d2       $C$L57:    
    2427                      .dwpsn  file "C:/work/grepos/c2000_bootROM/f28004x_bootrom/F28004x_ROM_dev/F28004x_ROM/driverlib/pmbu
    2428 000002d2 FE86          SUBB      SP,#6                 ; [CPU_U] 
    2429                      .dwcfi  cfa_offset, -2
    2430 000002d3 FF69          SPM       #0                    ; [CPU_] 
    2431              $C$DW$144       .dwtag  DW_TAG_TI_branch
    2432                      .dwattr $C$DW$144, DW_AT_low_pc(0x00)
    2433                      .dwattr $C$DW$144, DW_AT_TI_return
    2434 000002d4 0006          LRETR     ; [CPU_] 
    2435                      ; return occurs ; [] 
    2436                      .dwattr $C$DW$138, DW_AT_TI_end_file("C:/work/grepos/c2000_bootROM/f28004x_bootrom/F28004x_ROM_dev/F2
    2437                      .dwattr $C$DW$138, DW_AT_TI_end_line(0x2c6)
    2438                      .dwattr $C$DW$138, DW_AT_TI_end_column(0x02)
    2439                      .dwendentry
    2440                      .dwendtag $C$DW$138
    2441              
    2442 000002d5               .sect   ".text"
    2443                      .clink
    2444                      .global _PMBUS_configModuleClock
    2445              
    2446              $C$DW$145       .dwtag  DW_TAG_subprogram, DW_AT_name("PMBUS_configModuleClock")
    2447                      .dwattr $C$DW$145, DW_AT_low_pc(_PMBUS_configModuleClock)
    2448                      .dwattr $C$DW$145, DW_AT_high_pc(0x00)
    2449                      .dwattr $C$DW$145, DW_AT_TI_symbol_name("_PMBUS_configModuleClock")
    2450                      .dwattr $C$DW$145, DW_AT_external
    2451                      .dwattr $C$DW$145, DW_AT_type(*$C$DW$T$37)
    2452                      .dwattr $C$DW$145, DW_AT_TI_begin_file("C:/work/grepos/c2000_bootROM/f28004x_bootrom/F28004x_ROM_dev/
    2453                      .dwattr $C$DW$145, DW_AT_TI_begin_line(0x2cd)
    2454                      .dwattr $C$DW$145, DW_AT_TI_begin_column(0x0a)
    2455                      .dwattr $C$DW$145, DW_AT_TI_max_frame_size(-10)
    2456                      .dwpsn  file "C:/work/grepos/c2000_bootROM/f28004x_bootrom/F28004x_ROM_dev/F28004x_ROM/driverlib/pmbu
    2457              
    2458                      .dwfde $C$DW$CIE, _PMBUS_configModuleClock
    2459              $C$DW$146       .dwtag  DW_TAG_formal_parameter, DW_AT_name("base")
    2460                      .dwattr $C$DW$146, DW_AT_TI_symbol_name("_base")
    2461                      .dwattr $C$DW$146, DW_AT_type(*$C$DW$T$37)
    2462                      .dwattr $C$DW$146, DW_AT_location[DW_OP_reg0]
    2463              $C$DW$147       .dwtag  DW_TAG_formal_parameter, DW_AT_name("moduleFrequency")
    2464                      .dwattr $C$DW$147, DW_AT_TI_symbol_name("_moduleFrequency")
    2465                      .dwattr $C$DW$147, DW_AT_type(*$C$DW$T$37)
    2466                      .dwattr $C$DW$147, DW_AT_location[DW_OP_breg20 -12]
    2467              $C$DW$148       .dwtag  DW_TAG_formal_parameter, DW_AT_name("sysFrequency")
    2468                      .dwattr $C$DW$148, DW_AT_TI_symbol_name("_sysFrequency")
    2469                      .dwattr $C$DW$148, DW_AT_type(*$C$DW$T$37)
    2470                      .dwattr $C$DW$148, DW_AT_location[DW_OP_breg20 -14]
    2471              
TMS320C2000 Assembler PC v6.2.9 Tue Apr 14 13:33:08 2015

Tools Copyright (c) 1996-2014 Texas Instruments Incorporated
C:\Users\a0272466\AppData\Local\Temp\0769210                         PAGE   47

    2472              ;***************************************************************
    2473              ;* FNAME: _PMBUS_configModuleClock      FR SIZE:   8           *
    2474              ;*                                                             *
    2475              ;* FUNCTION ENVIRONMENT                                        *
    2476              ;*                                                             *
    2477              ;* FUNCTION PROPERTIES                                         *
    2478              ;*                            0 Parameter,  8 Auto,  0 SOE     *
    2479              ;***************************************************************
    2480              
    2481 000002d5       _PMBUS_configModuleClock:
    2482                      .dwcfi  cfa_offset, -2
    2483                      .dwcfi  save_reg_to_mem, 26, 0
    2484                      .dwcfi  save_reg_to_reg, 78, 26
    2485 000002d5 FE08          ADDB      SP,#8                 ; [CPU_U] 
    2486                      .dwcfi  cfa_offset, -10
    2487              $C$DW$149       .dwtag  DW_TAG_variable, DW_AT_name("base")
    2488                      .dwattr $C$DW$149, DW_AT_TI_symbol_name("_base")
    2489                      .dwattr $C$DW$149, DW_AT_type(*$C$DW$T$37)
    2490                      .dwattr $C$DW$149, DW_AT_location[DW_OP_breg20 -2]
    2491              $C$DW$150       .dwtag  DW_TAG_variable, DW_AT_name("interruptState")
    2492                      .dwattr $C$DW$150, DW_AT_TI_symbol_name("_interruptState")
    2493                      .dwattr $C$DW$150, DW_AT_type(*$C$DW$T$37)
    2494                      .dwattr $C$DW$150, DW_AT_location[DW_OP_breg20 -4]
    2495              $C$DW$151       .dwtag  DW_TAG_variable, DW_AT_name("clock_divider")
    2496                      .dwattr $C$DW$151, DW_AT_TI_symbol_name("_clock_divider")
    2497                      .dwattr $C$DW$151, DW_AT_type(*$C$DW$T$37)
    2498                      .dwattr $C$DW$151, DW_AT_location[DW_OP_breg20 -6]
    2499              $C$DW$152       .dwtag  DW_TAG_variable, DW_AT_name("calculated_module_freq")
    2500                      .dwattr $C$DW$152, DW_AT_TI_symbol_name("_calculated_module_freq")
    2501                      .dwattr $C$DW$152, DW_AT_type(*$C$DW$T$37)
    2502                      .dwattr $C$DW$152, DW_AT_location[DW_OP_breg20 -8]
    2503 000002d6 1E42          MOVL      *-SP[2],ACC           ; [CPU_] |718| 
    2504                      .dwpsn  file "C:/work/grepos/c2000_bootROM/f28004x_bootrom/F28004x_ROM_dev/F28004x_ROM/driverlib/pmbu
    2505 000002d7 0200          MOVB      ACC,#0                ; [CPU_] |720| 
    2506 000002d8 1E44          MOVL      *-SP[4],ACC           ; [CPU_] |720| 
    2507                      .dwpsn  file "C:/work/grepos/c2000_bootROM/f28004x_bootrom/F28004x_ROM_dev/F28004x_ROM/driverlib/pmbu
    2508 000002d9 1E46          MOVL      *-SP[6],ACC           ; [CPU_] |720| 
    2509                      .dwpsn  file "C:/work/grepos/c2000_bootROM/f28004x_bootrom/F28004x_ROM_dev/F28004x_ROM/driverlib/pmbu
    2510 000002da 1E48          MOVL      *-SP[8],ACC           ; [CPU_] |720| 
    2511                      .dwpsn  file "C:/work/grepos/c2000_bootROM/f28004x_bootrom/F28004x_ROM_dev/F28004x_ROM/driverlib/pmbu
    2512 000002db 7622   EALLOW
    2513                      .dwpsn  file "C:/work/grepos/c2000_bootROM/f28004x_bootrom/F28004x_ROM_dev/F28004x_ROM/driverlib/pmbu
    2514 000002dc 020A          MOVB      ACC,#10               ; [CPU_] |729| 
    2515 000002dd 0742          ADDL      ACC,*-SP[2]           ; [CPU_] |729| 
    2516 000002de 8AA9          MOVL      XAR4,ACC              ; [CPU_] |729| 
    2517 000002df 06C4          MOVL      ACC,*+XAR4[0]         ; [CPU_] |729| 
    2518 000002e0 1E44          MOVL      *-SP[4],ACC           ; [CPU_] |729| 
    2519                      .dwpsn  file "C:/work/grepos/c2000_bootROM/f28004x_bootrom/F28004x_ROM_dev/F28004x_ROM/driverlib/pmbu
    2520 000002e1 8F40          MOVL      XAR5,#1023            ; [CPU_U] |730| 
         000002e2 03FF 
    2521 000002e3 020A          MOVB      ACC,#10               ; [CPU_] |730| 
    2522 000002e4 0742          ADDL      ACC,*-SP[2]           ; [CPU_] |730| 
    2523 000002e5 8AA9          MOVL      XAR4,ACC              ; [CPU_] |730| 
    2524 000002e6 A0C4          MOVL      *+XAR4[0],XAR5        ; [CPU_] |730| 
    2525                      .dwpsn  file "C:/work/grepos/c2000_bootROM/f28004x_bootrom/F28004x_ROM_dev/F28004x_ROM/driverlib/pmbu
TMS320C2000 Assembler PC v6.2.9 Tue Apr 14 13:33:08 2015

Tools Copyright (c) 1996-2014 Texas Instruments Incorporated
C:\Users\a0272466\AppData\Local\Temp\0769210                         PAGE   48

    2526 000002e7 A34E          MOVL      P,*-SP[14]            ; [CPU_] |734| 
    2527 000002e8 5CAD          MOVZ      AR4,SP                ; [CPU_U] |734| 
    2528 000002e9 0200          MOVB      ACC,#0                ; [CPU_] |734| 
    2529 000002ea DC8C          SUBB      XAR4,#12              ; [CPU_U] |734| 
    2530 000002eb F61F          RPT       #31
    2531 000002ec 5617  ||     SUBCUL    ACC,*+XAR4[0]         ; [CPU_] |734| 
         000002ed 00C4 
    2532 000002ee A9A9          MOVL      ACC,P                 ; [CPU_] |734| 
    2533 000002ef 1901          SUBB      ACC,#1                ; [CPU_] |734| 
    2534 000002f0 1E46          MOVL      *-SP[6],ACC           ; [CPU_] |734| 
    2535                      .dwpsn  file "C:/work/grepos/c2000_bootROM/f28004x_bootrom/F28004x_ROM_dev/F28004x_ROM/driverlib/pmbu
    2536 000002f1 021F          MOVB      ACC,#31               ; [CPU_] |735| 
    2537 000002f2 0F46          CMPL      ACC,*-SP[6]           ; [CPU_] |735| 
    2538 000002f3 6702          B         $C$L58,HIS            ; [CPU_] |735| 
    2539                      ; branchcc occurs ; [] |735| 
    2540                      .dwpsn  file "C:/work/grepos/c2000_bootROM/f28004x_bootrom/F28004x_ROM_dev/F28004x_ROM/driverlib/pmbu
    2541 000002f4 1E46          MOVL      *-SP[6],ACC           ; [CPU_] |737| 
    2542 000002f5       $C$L58:    
    2543                      .dwpsn  file "C:/work/grepos/c2000_bootROM/f28004x_bootrom/F28004x_ROM_dev/F28004x_ROM/driverlib/pmbu
    2544 000002f5 0210          MOVB      ACC,#16               ; [CPU_] |740| 
    2545 000002f6 28AC          MOV       T,#23                 ; [CPU_] |740| 
         000002f7 0017 
    2546 000002f8 0742          ADDL      ACC,*-SP[2]           ; [CPU_] |740| 
    2547 000002f9 8AA9          MOVL      XAR4,ACC              ; [CPU_] |740| 
    2548 000002fa 0646          MOVL      ACC,*-SP[6]           ; [CPU_] |740| 
    2549 000002fb 563B          LSLL      ACC,T                 ; [CPU_] |740| 
    2550 000002fc 5608          AND       ACC,#3968 << 16       ; [CPU_] |740| 
         000002fd 0F80 
    2551 000002fe 98C4          OR        *+XAR4[0],AL          ; [CPU_] |740| 
    2552 000002ff 99CC          OR        *+XAR4[1],AH          ; [CPU_] |740| 
    2553                      .dwpsn  file "C:/work/grepos/c2000_bootROM/f28004x_bootrom/F28004x_ROM_dev/F28004x_ROM/driverlib/pmbu
    2554 00000300 0201          MOVB      ACC,#1                ; [CPU_] |744| 
    2555 00000301 A34E          MOVL      P,*-SP[14]            ; [CPU_] |744| 
    2556 00000302 0746          ADDL      ACC,*-SP[6]           ; [CPU_] |744| 
    2557 00000303 1EA6          MOVL      XAR6,ACC              ; [CPU_] |744| 
    2558 00000304 0200          MOVB      ACC,#0                ; [CPU_] |744| 
    2559 00000305 F61F          RPT       #31
    2560 00000306 5617  ||     SUBCUL    ACC,XAR6              ; [CPU_] |744| 
         00000307 00A6 
    2561 00000308 A948          MOVL      *-SP[8],P             ; [CPU_] |744| 
    2562                      .dwpsn  file "C:/work/grepos/c2000_bootROM/f28004x_bootrom/F28004x_ROM_dev/F28004x_ROM/driverlib/pmbu
    2563 00000309 C444          MOVL      XAR6,*-SP[4]          ; [CPU_] |747| 
    2564 0000030a 020A          MOVB      ACC,#10               ; [CPU_] |747| 
    2565 0000030b 0742          ADDL      ACC,*-SP[2]           ; [CPU_] |747| 
    2566 0000030c 8AA9          MOVL      XAR4,ACC              ; [CPU_] |747| 
    2567 0000030d C2C4          MOVL      *+XAR4[0],XAR6        ; [CPU_] |747| 
    2568                      .dwpsn  file "C:/work/grepos/c2000_bootROM/f28004x_bootrom/F28004x_ROM_dev/F28004x_ROM/driverlib/pmbu
    2569 0000030e 761A   EDIS
    2570                      .dwpsn  file "C:/work/grepos/c2000_bootROM/f28004x_bootrom/F28004x_ROM_dev/F28004x_ROM/driverlib/pmbu
    2571 0000030f 0648          MOVL      ACC,*-SP[8]           ; [CPU_] |749| 
    2572                      .dwpsn  file "C:/work/grepos/c2000_bootROM/f28004x_bootrom/F28004x_ROM_dev/F28004x_ROM/driverlib/pmbu
    2573 00000310 FF69          SPM       #0                    ; [CPU_] 
    2574 00000311 FE88          SUBB      SP,#8                 ; [CPU_U] 
    2575                      .dwcfi  cfa_offset, -2
    2576              $C$DW$153       .dwtag  DW_TAG_TI_branch
TMS320C2000 Assembler PC v6.2.9 Tue Apr 14 13:33:08 2015

Tools Copyright (c) 1996-2014 Texas Instruments Incorporated
C:\Users\a0272466\AppData\Local\Temp\0769210                         PAGE   49

    2577                      .dwattr $C$DW$153, DW_AT_low_pc(0x00)
    2578                      .dwattr $C$DW$153, DW_AT_TI_return
    2579 00000312 0006          LRETR     ; [CPU_] 
    2580                      ; return occurs ; [] 
    2581                      .dwattr $C$DW$145, DW_AT_TI_end_file("C:/work/grepos/c2000_bootROM/f28004x_bootrom/F28004x_ROM_dev/F2
    2582                      .dwattr $C$DW$145, DW_AT_TI_end_line(0x2ee)
    2583                      .dwattr $C$DW$145, DW_AT_TI_end_column(0x01)
    2584                      .dwendentry
    2585                      .dwendtag $C$DW$145
    2586              
    2587 00000313               .sect   ".text"
    2588                      .clink
    2589                      .global _PMBUS_configBusClock
    2590              
    2591              $C$DW$154       .dwtag  DW_TAG_subprogram, DW_AT_name("PMBUS_configBusClock")
    2592                      .dwattr $C$DW$154, DW_AT_low_pc(_PMBUS_configBusClock)
    2593                      .dwattr $C$DW$154, DW_AT_high_pc(0x00)
    2594                      .dwattr $C$DW$154, DW_AT_TI_symbol_name("_PMBUS_configBusClock")
    2595                      .dwattr $C$DW$154, DW_AT_external
    2596                      .dwattr $C$DW$154, DW_AT_type(*$C$DW$T$20)
    2597                      .dwattr $C$DW$154, DW_AT_TI_begin_file("C:/work/grepos/c2000_bootROM/f28004x_bootrom/F28004x_ROM_dev/
    2598                      .dwattr $C$DW$154, DW_AT_TI_begin_line(0x2f5)
    2599                      .dwattr $C$DW$154, DW_AT_TI_begin_column(0x06)
    2600                      .dwattr $C$DW$154, DW_AT_TI_max_frame_size(-26)
    2601                      .dwpsn  file "C:/work/grepos/c2000_bootROM/f28004x_bootrom/F28004x_ROM_dev/F28004x_ROM/driverlib/pmbu
    2602              
    2603                      .dwfde $C$DW$CIE, _PMBUS_configBusClock
    2604              $C$DW$155       .dwtag  DW_TAG_formal_parameter, DW_AT_name("base")
    2605                      .dwattr $C$DW$155, DW_AT_TI_symbol_name("_base")
    2606                      .dwattr $C$DW$155, DW_AT_type(*$C$DW$T$37)
    2607                      .dwattr $C$DW$155, DW_AT_location[DW_OP_reg0]
    2608              $C$DW$156       .dwtag  DW_TAG_formal_parameter, DW_AT_name("mode")
    2609                      .dwattr $C$DW$156, DW_AT_TI_symbol_name("_mode")
    2610                      .dwattr $C$DW$156, DW_AT_type(*$C$DW$T$25)
    2611                      .dwattr $C$DW$156, DW_AT_location[DW_OP_reg12]
    2612              $C$DW$157       .dwtag  DW_TAG_formal_parameter, DW_AT_name("moduleFrequency")
    2613                      .dwattr $C$DW$157, DW_AT_TI_symbol_name("_moduleFrequency")
    2614                      .dwattr $C$DW$157, DW_AT_type(*$C$DW$T$37)
    2615                      .dwattr $C$DW$157, DW_AT_location[DW_OP_breg20 -28]
    2616              
    2617              ;***************************************************************
    2618              ;* FNAME: _PMBUS_configBusClock         FR SIZE:  24           *
    2619              ;*                                                             *
    2620              ;* FUNCTION ENVIRONMENT                                        *
    2621              ;*                                                             *
    2622              ;* FUNCTION PROPERTIES                                         *
    2623              ;*                            0 Parameter, 24 Auto,  0 SOE     *
    2624              ;***************************************************************
    2625              
    2626 00000313       _PMBUS_configBusClock:
    2627                      .dwcfi  cfa_offset, -2
    2628                      .dwcfi  save_reg_to_mem, 26, 0
    2629                      .dwcfi  save_reg_to_reg, 78, 26
    2630 00000313 FE18          ADDB      SP,#24                ; [CPU_U] 
    2631                      .dwcfi  cfa_offset, -26
TMS320C2000 Assembler PC v6.2.9 Tue Apr 14 13:33:08 2015

Tools Copyright (c) 1996-2014 Texas Instruments Incorporated
C:\Users\a0272466\AppData\Local\Temp\0769210                         PAGE   50

    2632              $C$DW$158       .dwtag  DW_TAG_variable, DW_AT_name("base")
    2633                      .dwattr $C$DW$158, DW_AT_TI_symbol_name("_base")
    2634                      .dwattr $C$DW$158, DW_AT_type(*$C$DW$T$37)
    2635                      .dwattr $C$DW$158, DW_AT_location[DW_OP_breg20 -2]
    2636              $C$DW$159       .dwtag  DW_TAG_variable, DW_AT_name("mode")
    2637                      .dwattr $C$DW$159, DW_AT_TI_symbol_name("_mode")
    2638                      .dwattr $C$DW$159, DW_AT_type(*$C$DW$T$25)
    2639                      .dwattr $C$DW$159, DW_AT_location[DW_OP_breg20 -3]
    2640              $C$DW$160       .dwtag  DW_TAG_variable, DW_AT_name("interruptState")
    2641                      .dwattr $C$DW$160, DW_AT_TI_symbol_name("_interruptState")
    2642                      .dwattr $C$DW$160, DW_AT_type(*$C$DW$T$37)
    2643                      .dwattr $C$DW$160, DW_AT_location[DW_OP_breg20 -6]
    2644              $C$DW$161       .dwtag  DW_TAG_variable, DW_AT_name("clock_high_limit")
    2645                      .dwattr $C$DW$161, DW_AT_TI_symbol_name("_clock_high_limit")
    2646                      .dwattr $C$DW$161, DW_AT_type(*$C$DW$T$37)
    2647                      .dwattr $C$DW$161, DW_AT_location[DW_OP_breg20 -8]
    2648              $C$DW$162       .dwtag  DW_TAG_variable, DW_AT_name("clock_freq")
    2649                      .dwattr $C$DW$162, DW_AT_TI_symbol_name("_clock_freq")
    2650                      .dwattr $C$DW$162, DW_AT_type(*$C$DW$T$37)
    2651                      .dwattr $C$DW$162, DW_AT_location[DW_OP_breg20 -10]
    2652              $C$DW$163       .dwtag  DW_TAG_variable, DW_AT_name("clock_low_timeout")
    2653                      .dwattr $C$DW$163, DW_AT_TI_symbol_name("_clock_low_timeout")
    2654                      .dwattr $C$DW$163, DW_AT_type(*$C$DW$T$37)
    2655                      .dwattr $C$DW$163, DW_AT_location[DW_OP_breg20 -12]
    2656              $C$DW$164       .dwtag  DW_TAG_variable, DW_AT_name("clock_high_timeout")
    2657                      .dwattr $C$DW$164, DW_AT_TI_symbol_name("_clock_high_timeout")
    2658                      .dwattr $C$DW$164, DW_AT_type(*$C$DW$T$37)
    2659                      .dwattr $C$DW$164, DW_AT_location[DW_OP_breg20 -14]
    2660              $C$DW$165       .dwtag  DW_TAG_variable, DW_AT_name("time_period")
    2661                      .dwattr $C$DW$165, DW_AT_TI_symbol_name("_time_period")
    2662                      .dwattr $C$DW$165, DW_AT_type(*$C$DW$T$37)
    2663                      .dwattr $C$DW$165, DW_AT_location[DW_OP_breg20 -16]
    2664              $C$DW$166       .dwtag  DW_TAG_variable, DW_AT_name("bus_idle")
    2665                      .dwattr $C$DW$166, DW_AT_TI_symbol_name("_bus_idle")
    2666                      .dwattr $C$DW$166, DW_AT_type(*$C$DW$T$37)
    2667                      .dwattr $C$DW$166, DW_AT_location[DW_OP_breg20 -18]
    2668              $C$DW$167       .dwtag  DW_TAG_variable, DW_AT_name("setup_time")
    2669                      .dwattr $C$DW$167, DW_AT_TI_symbol_name("_setup_time")
    2670                      .dwattr $C$DW$167, DW_AT_type(*$C$DW$T$37)
    2671                      .dwattr $C$DW$167, DW_AT_location[DW_OP_breg20 -20]
    2672              $C$DW$168       .dwtag  DW_TAG_variable, DW_AT_name("bitmask")
    2673                      .dwattr $C$DW$168, DW_AT_TI_symbol_name("_bitmask")
    2674                      .dwattr $C$DW$168, DW_AT_type(*$C$DW$T$37)
    2675                      .dwattr $C$DW$168, DW_AT_location[DW_OP_breg20 -22]
    2676 00000314 7C43          MOV       *-SP[3],AR4           ; [CPU_] |758| 
    2677 00000315 1E42          MOVL      *-SP[2],ACC           ; [CPU_] |758| 
    2678                      .dwpsn  file "C:/work/grepos/c2000_bootROM/f28004x_bootrom/F28004x_ROM_dev/F28004x_ROM/driverlib/pmbu
    2679 00000316 0200          MOVB      ACC,#0                ; [CPU_] |760| 
    2680 00000317 1E46          MOVL      *-SP[6],ACC           ; [CPU_] |760| 
    2681                      .dwpsn  file "C:/work/grepos/c2000_bootROM/f28004x_bootrom/F28004x_ROM_dev/F28004x_ROM/driverlib/pmbu
    2682 00000318 1E48          MOVL      *-SP[8],ACC           ; [CPU_] |760| 
    2683                      .dwpsn  file "C:/work/grepos/c2000_bootROM/f28004x_bootrom/F28004x_ROM_dev/F28004x_ROM/driverlib/pmbu
    2684 00000319 1E4A          MOVL      *-SP[10],ACC          ; [CPU_] |760| 
    2685                      .dwpsn  file "C:/work/grepos/c2000_bootROM/f28004x_bootrom/F28004x_ROM_dev/F28004x_ROM/driverlib/pmbu
    2686 0000031a 1E4C          MOVL      *-SP[12],ACC          ; [CPU_] |761| 
TMS320C2000 Assembler PC v6.2.9 Tue Apr 14 13:33:08 2015

Tools Copyright (c) 1996-2014 Texas Instruments Incorporated
C:\Users\a0272466\AppData\Local\Temp\0769210                         PAGE   51

    2687                      .dwpsn  file "C:/work/grepos/c2000_bootROM/f28004x_bootrom/F28004x_ROM_dev/F28004x_ROM/driverlib/pmbu
    2688 0000031b 1E4E          MOVL      *-SP[14],ACC          ; [CPU_] |761| 
    2689                      .dwpsn  file "C:/work/grepos/c2000_bootROM/f28004x_bootrom/F28004x_ROM_dev/F28004x_ROM/driverlib/pmbu
    2690 0000031c 1E50          MOVL      *-SP[16],ACC          ; [CPU_] |761| 
    2691                      .dwpsn  file "C:/work/grepos/c2000_bootROM/f28004x_bootrom/F28004x_ROM_dev/F28004x_ROM/driverlib/pmbu
    2692 0000031d 1E52          MOVL      *-SP[18],ACC          ; [CPU_] |762| 
    2693                      .dwpsn  file "C:/work/grepos/c2000_bootROM/f28004x_bootrom/F28004x_ROM_dev/F28004x_ROM/driverlib/pmbu
    2694 0000031e 1E54          MOVL      *-SP[20],ACC          ; [CPU_] |762| 
    2695                      .dwpsn  file "C:/work/grepos/c2000_bootROM/f28004x_bootrom/F28004x_ROM_dev/F28004x_ROM/driverlib/pmbu
    2696 0000031f 1E56          MOVL      *-SP[22],ACC          ; [CPU_] |762| 
    2697                      .dwpsn  file "C:/work/grepos/c2000_bootROM/f28004x_bootrom/F28004x_ROM_dev/F28004x_ROM/driverlib/pmbu
    2698 00000320 7622   EALLOW
    2699                      .dwpsn  file "C:/work/grepos/c2000_bootROM/f28004x_bootrom/F28004x_ROM_dev/F28004x_ROM/driverlib/pmbu
    2700 00000321 0212          MOVB      ACC,#18               ; [CPU_] |770| 
    2701 00000322 0742          ADDL      ACC,*-SP[2]           ; [CPU_] |770| 
    2702 00000323 8AA9          MOVL      XAR4,ACC              ; [CPU_] |770| 
    2703 00000324 1AC4          OR        *+XAR4[0],#1          ; [CPU_] |770| 
         00000325 0001 
    2704                      .dwpsn  file "C:/work/grepos/c2000_bootROM/f28004x_bootrom/F28004x_ROM_dev/F28004x_ROM/driverlib/pmbu
    2705 00000326 28A9          MOV       AL,#51712             ; [CPU_] |772| 
         00000327 CA00 
    2706 00000328 28A8          MOV       AH,#15258             ; [CPU_] |772| 
         00000329 3B9A 
    2707 0000032a 5CAD          MOVZ      AR4,SP                ; [CPU_U] |772| 
    2708 0000032b FF5A          MOVL      P,ACC                 ; [CPU_] |772| 
    2709 0000032c DC9C          SUBB      XAR4,#28              ; [CPU_U] |772| 
    2710 0000032d 0200          MOVB      ACC,#0                ; [CPU_] |772| 
    2711 0000032e F61F          RPT       #31
    2712 0000032f 5617  ||     SUBCUL    ACC,*+XAR4[0]         ; [CPU_] |772| 
         00000330 00C4 
    2713 00000331 A950          MOVL      *-SP[16],P            ; [CPU_] |772| 
    2714                      .dwpsn  file "C:/work/grepos/c2000_bootROM/f28004x_bootrom/F28004x_ROM_dev/F28004x_ROM/driverlib/pmbu
    2715 00000332 0218          MOVB      ACC,#24               ; [CPU_] |774| 
    2716 00000333 1E56          MOVL      *-SP[22],ACC          ; [CPU_] |774| 
    2717                      .dwpsn  file "C:/work/grepos/c2000_bootROM/f28004x_bootrom/F28004x_ROM_dev/F28004x_ROM/driverlib/pmbu
    2718 00000334 0210          MOVB      ACC,#16               ; [CPU_] |776| 
    2719 00000335 0742          ADDL      ACC,*-SP[2]           ; [CPU_] |776| 
    2720 00000336 8AA9          MOVL      XAR4,ACC              ; [CPU_] |776| 
    2721 00000337 0656          MOVL      ACC,*-SP[22]          ; [CPU_] |776| 
    2722 00000338 FF55          NOT       ACC                   ; [CPU_] |776| 
    2723 00000339 C0C4          AND       *+XAR4[0],AL          ; [CPU_] |776| 
    2724 0000033a C1CC          AND       *+XAR4[1],AH          ; [CPU_] |776| 
    2725                      .dwpsn  file "C:/work/grepos/c2000_bootROM/f28004x_bootrom/F28004x_ROM_dev/F28004x_ROM/driverlib/pmbu
    2726 0000033b FFEF          B         $C$L63,UNC            ; [CPU_] |778| 
         0000033c 00C4 
    2727                      ; branch occurs ; [] |778| 
    2728 0000033d       $C$L59:    
    2729                      .dwpsn  file "C:/work/grepos/c2000_bootROM/f28004x_bootrom/F28004x_ROM_dev/F28004x_ROM/driverlib/pmbu
    2730 0000033d 8F00          MOVL      XAR4,#5000            ; [CPU_U] |791| 
         0000033e 1388 
    2731 0000033f 0200          MOVB      ACC,#0                ; [CPU_] |791| 
    2732 00000340 A8AB          MOVL      P,XAR4                ; [CPU_] |791| 
    2733 00000341 F61F          RPT       #31
    2734 00000342 5617  ||     SUBCUL    ACC,*-SP[16]          ; [CPU_] |791| 
         00000343 0050 
TMS320C2000 Assembler PC v6.2.9 Tue Apr 14 13:33:08 2015

Tools Copyright (c) 1996-2014 Texas Instruments Incorporated
C:\Users\a0272466\AppData\Local\Temp\0769210                         PAGE   52

    2735 00000344 A9A9          MOVL      ACC,P                 ; [CPU_] |791| 
    2736 00000345 1903          SUBB      ACC,#3                ; [CPU_] |791| 
    2737 00000346 1E48          MOVL      *-SP[8],ACC           ; [CPU_] |791| 
    2738                      .dwpsn  file "C:/work/grepos/c2000_bootROM/f28004x_bootrom/F28004x_ROM_dev/F28004x_ROM/driverlib/pmbu
    2739 00000347 8F00          MOVL      XAR4,#10000           ; [CPU_U] |792| 
         00000348 2710 
    2740 00000349 0200          MOVB      ACC,#0                ; [CPU_] |792| 
    2741 0000034a A8AB          MOVL      P,XAR4                ; [CPU_] |792| 
    2742 0000034b F61F          RPT       #31
    2743 0000034c 5617  ||     SUBCUL    ACC,*-SP[16]          ; [CPU_] |792| 
         0000034d 0050 
    2744 0000034e A9A9          MOVL      ACC,P                 ; [CPU_] |792| 
    2745 0000034f 1904          SUBB      ACC,#4                ; [CPU_] |792| 
    2746 00000350 1E4A          MOVL      *-SP[10],ACC          ; [CPU_] |792| 
    2747                      .dwpsn  file "C:/work/grepos/c2000_bootROM/f28004x_bootrom/F28004x_ROM_dev/F28004x_ROM/driverlib/pmbu
    2748 00000351 28A9          MOV       AL,#3776              ; [CPU_] |793| 
         00000352 0EC0 
    2749 00000353 28A8          MOV       AH,#534               ; [CPU_] |793| 
         00000354 0216 
    2750 00000355 FF5A          MOVL      P,ACC                 ; [CPU_] |793| 
    2751 00000356 0200          MOVB      ACC,#0                ; [CPU_] |793| 
    2752 00000357 F61F          RPT       #31
    2753 00000358 5617  ||     SUBCUL    ACC,*-SP[16]          ; [CPU_] |793| 
         00000359 0050 
    2754 0000035a A9A9          MOVL      ACC,P                 ; [CPU_] |793| 
    2755 0000035b 1901          SUBB      ACC,#1                ; [CPU_] |793| 
    2756 0000035c 1E4C          MOVL      *-SP[12],ACC          ; [CPU_] |793| 
    2757                      .dwpsn  file "C:/work/grepos/c2000_bootROM/f28004x_bootrom/F28004x_ROM_dev/F28004x_ROM/driverlib/pmbu
    2758 0000035d 8F00          MOVL      XAR4,#50000           ; [CPU_U] |794| 
         0000035e C350 
    2759 0000035f 0200          MOVB      ACC,#0                ; [CPU_] |794| 
    2760 00000360 A8AB          MOVL      P,XAR4                ; [CPU_] |794| 
    2761 00000361 F61F          RPT       #31
    2762 00000362 5617  ||     SUBCUL    ACC,*-SP[16]          ; [CPU_] |794| 
         00000363 0050 
    2763 00000364 A9A9          MOVL      ACC,P                 ; [CPU_] |794| 
    2764 00000365 1901          SUBB      ACC,#1                ; [CPU_] |794| 
    2765 00000366 1E4E          MOVL      *-SP[14],ACC          ; [CPU_] |794| 
    2766                      .dwpsn  file "C:/work/grepos/c2000_bootROM/f28004x_bootrom/F28004x_ROM_dev/F28004x_ROM/driverlib/pmbu
    2767 00000367 0200          MOVB      ACC,#0                ; [CPU_] |795| 
    2768 00000368 A8AB          MOVL      P,XAR4                ; [CPU_] |795| 
    2769 00000369 F61F          RPT       #31
    2770 0000036a 5617  ||     SUBCUL    ACC,*-SP[16]          ; [CPU_] |795| 
         0000036b 0050 
    2771 0000036c A9A9          MOVL      ACC,P                 ; [CPU_] |795| 
    2772 0000036d 1901          SUBB      ACC,#1                ; [CPU_] |795| 
    2773 0000036e 1E52          MOVL      *-SP[18],ACC          ; [CPU_] |795| 
    2774                      .dwpsn  file "C:/work/grepos/c2000_bootROM/f28004x_bootrom/F28004x_ROM_dev/F28004x_ROM/driverlib/pmbu
    2775 0000036f 0200          MOVB      ACC,#0                ; [CPU_] |796| 
    2776 00000370 8F00          MOVL      XAR4,#4700            ; [CPU_U] |796| 
         00000371 125C 
    2777 00000372 A8AB          MOVL      P,XAR4                ; [CPU_] |796| 
    2778 00000373 F61F          RPT       #31
    2779 00000374 5617  ||     SUBCUL    ACC,*-SP[16]          ; [CPU_] |796| 
         00000375 0050 
TMS320C2000 Assembler PC v6.2.9 Tue Apr 14 13:33:08 2015

Tools Copyright (c) 1996-2014 Texas Instruments Incorporated
C:\Users\a0272466\AppData\Local\Temp\0769210                         PAGE   53

    2780 00000376 A954          MOVL      *-SP[20],P            ; [CPU_] |796| 
    2781                      .dwpsn  file "C:/work/grepos/c2000_bootROM/f28004x_bootrom/F28004x_ROM_dev/F28004x_ROM/driverlib/pmbu
    2782 00000377 FFEF          B         $C$L64,UNC            ; [CPU_] |797| 
         00000378 0091 
    2783                      ; branch occurs ; [] |797| 
    2784 00000379       $C$L60:    
    2785                      .dwpsn  file "C:/work/grepos/c2000_bootROM/f28004x_bootrom/F28004x_ROM_dev/F28004x_ROM/driverlib/pmbu
    2786 00000379 8F00          MOVL      XAR4,#1250            ; [CPU_U] |810| 
         0000037a 04E2 
    2787 0000037b 0200          MOVB      ACC,#0                ; [CPU_] |810| 
    2788 0000037c A8AB          MOVL      P,XAR4                ; [CPU_] |810| 
    2789 0000037d F61F          RPT       #31
    2790 0000037e 5617  ||     SUBCUL    ACC,*-SP[16]          ; [CPU_] |810| 
         0000037f 0050 
    2791 00000380 A9A9          MOVL      ACC,P                 ; [CPU_] |810| 
    2792 00000381 1903          SUBB      ACC,#3                ; [CPU_] |810| 
    2793 00000382 1E48          MOVL      *-SP[8],ACC           ; [CPU_] |810| 
    2794                      .dwpsn  file "C:/work/grepos/c2000_bootROM/f28004x_bootrom/F28004x_ROM_dev/F28004x_ROM/driverlib/pmbu
    2795 00000383 8F00          MOVL      XAR4,#2500            ; [CPU_U] |811| 
         00000384 09C4 
    2796 00000385 0200          MOVB      ACC,#0                ; [CPU_] |811| 
    2797 00000386 A8AB          MOVL      P,XAR4                ; [CPU_] |811| 
    2798 00000387 F61F          RPT       #31
    2799 00000388 5617  ||     SUBCUL    ACC,*-SP[16]          ; [CPU_] |811| 
         00000389 0050 
    2800 0000038a A9A9          MOVL      ACC,P                 ; [CPU_] |811| 
    2801 0000038b 1904          SUBB      ACC,#4                ; [CPU_] |811| 
    2802 0000038c 1E4A          MOVL      *-SP[10],ACC          ; [CPU_] |811| 
    2803                      .dwpsn  file "C:/work/grepos/c2000_bootROM/f28004x_bootrom/F28004x_ROM_dev/F28004x_ROM/driverlib/pmbu
    2804 0000038d 28A9          MOV       AL,#3776              ; [CPU_] |812| 
         0000038e 0EC0 
    2805 0000038f 28A8          MOV       AH,#534               ; [CPU_] |812| 
         00000390 0216 
    2806 00000391 FF5A          MOVL      P,ACC                 ; [CPU_] |812| 
    2807 00000392 0200          MOVB      ACC,#0                ; [CPU_] |812| 
    2808 00000393 F61F          RPT       #31
    2809 00000394 5617  ||     SUBCUL    ACC,*-SP[16]          ; [CPU_] |812| 
         00000395 0050 
    2810 00000396 A9A9          MOVL      ACC,P                 ; [CPU_] |812| 
    2811 00000397 1901          SUBB      ACC,#1                ; [CPU_] |812| 
    2812 00000398 1E4C          MOVL      *-SP[12],ACC          ; [CPU_] |812| 
    2813                      .dwpsn  file "C:/work/grepos/c2000_bootROM/f28004x_bootrom/F28004x_ROM_dev/F28004x_ROM/driverlib/pmbu
    2814 00000399 8F00          MOVL      XAR4,#50000           ; [CPU_U] |813| 
         0000039a C350 
    2815 0000039b 0200          MOVB      ACC,#0                ; [CPU_] |813| 
    2816 0000039c A8AB          MOVL      P,XAR4                ; [CPU_] |813| 
    2817 0000039d F61F          RPT       #31
    2818 0000039e 5617  ||     SUBCUL    ACC,*-SP[16]          ; [CPU_] |813| 
         0000039f 0050 
    2819 000003a0 A9A9          MOVL      ACC,P                 ; [CPU_] |813| 
    2820 000003a1 1901          SUBB      ACC,#1                ; [CPU_] |813| 
    2821 000003a2 1E4E          MOVL      *-SP[14],ACC          ; [CPU_] |813| 
    2822                      .dwpsn  file "C:/work/grepos/c2000_bootROM/f28004x_bootrom/F28004x_ROM_dev/F28004x_ROM/driverlib/pmbu
    2823 000003a3 8F00          MOVL      XAR4,#12500           ; [CPU_U] |814| 
         000003a4 30D4 
TMS320C2000 Assembler PC v6.2.9 Tue Apr 14 13:33:08 2015

Tools Copyright (c) 1996-2014 Texas Instruments Incorporated
C:\Users\a0272466\AppData\Local\Temp\0769210                         PAGE   54

    2824 000003a5 0200          MOVB      ACC,#0                ; [CPU_] |814| 
    2825 000003a6 A8AB          MOVL      P,XAR4                ; [CPU_] |814| 
    2826 000003a7 F61F          RPT       #31
    2827 000003a8 5617  ||     SUBCUL    ACC,*-SP[16]          ; [CPU_] |814| 
         000003a9 0050 
    2828 000003aa A9A9          MOVL      ACC,P                 ; [CPU_] |814| 
    2829 000003ab 1901          SUBB      ACC,#1                ; [CPU_] |814| 
    2830 000003ac 1E52          MOVL      *-SP[18],ACC          ; [CPU_] |814| 
    2831                      .dwpsn  file "C:/work/grepos/c2000_bootROM/f28004x_bootrom/F28004x_ROM_dev/F28004x_ROM/driverlib/pmbu
    2832 000003ad 8F00          MOVL      XAR4,#600             ; [CPU_U] |815| 
         000003ae 0258 
    2833 000003af 0200          MOVB      ACC,#0                ; [CPU_] |815| 
    2834 000003b0 A8AB          MOVL      P,XAR4                ; [CPU_] |815| 
    2835 000003b1 F61F          RPT       #31
    2836 000003b2 5617  ||     SUBCUL    ACC,*-SP[16]          ; [CPU_] |815| 
         000003b3 0050 
    2837 000003b4 A954          MOVL      *-SP[20],P            ; [CPU_] |815| 
    2838                      .dwpsn  file "C:/work/grepos/c2000_bootROM/f28004x_bootrom/F28004x_ROM_dev/F28004x_ROM/driverlib/pmbu
    2839 000003b5 0210          MOVB      ACC,#16               ; [CPU_] |816| 
    2840 000003b6 0742          ADDL      ACC,*-SP[2]           ; [CPU_] |816| 
    2841 000003b7 8AA9          MOVL      XAR4,ACC              ; [CPU_] |816| 
    2842 000003b8 1AC4          OR        *+XAR4[0],#8          ; [CPU_] |816| 
         000003b9 0008 
    2843                      .dwpsn  file "C:/work/grepos/c2000_bootROM/f28004x_bootrom/F28004x_ROM_dev/F28004x_ROM/driverlib/pmbu
    2844 000003ba 6F4E          B         $C$L64,UNC            ; [CPU_] |817| 
    2845                      ; branch occurs ; [] |817| 
    2846 000003bb       $C$L61:    
    2847                      .dwpsn  file "C:/work/grepos/c2000_bootROM/f28004x_bootrom/F28004x_ROM_dev/F28004x_ROM/driverlib/pmbu
    2848 000003bb 8F00          MOVL      XAR4,#500             ; [CPU_U] |830| 
         000003bc 01F4 
    2849 000003bd 0200          MOVB      ACC,#0                ; [CPU_] |830| 
    2850 000003be A8AB          MOVL      P,XAR4                ; [CPU_] |830| 
    2851 000003bf F61F          RPT       #31
    2852 000003c0 5617  ||     SUBCUL    ACC,*-SP[16]          ; [CPU_] |830| 
         000003c1 0050 
    2853 000003c2 A9A9          MOVL      ACC,P                 ; [CPU_] |830| 
    2854 000003c3 1903          SUBB      ACC,#3                ; [CPU_] |830| 
    2855 000003c4 1E48          MOVL      *-SP[8],ACC           ; [CPU_] |830| 
    2856                      .dwpsn  file "C:/work/grepos/c2000_bootROM/f28004x_bootrom/F28004x_ROM_dev/F28004x_ROM/driverlib/pmbu
    2857 000003c5 8F00          MOVL      XAR4,#1000            ; [CPU_U] |831| 
         000003c6 03E8 
    2858 000003c7 0200          MOVB      ACC,#0                ; [CPU_] |831| 
    2859 000003c8 A8AB          MOVL      P,XAR4                ; [CPU_] |831| 
    2860 000003c9 F61F          RPT       #31
    2861 000003ca 5617  ||     SUBCUL    ACC,*-SP[16]          ; [CPU_] |831| 
         000003cb 0050 
    2862 000003cc A9A9          MOVL      ACC,P                 ; [CPU_] |831| 
    2863 000003cd 1904          SUBB      ACC,#4                ; [CPU_] |831| 
    2864 000003ce 1E4A          MOVL      *-SP[10],ACC          ; [CPU_] |831| 
    2865                      .dwpsn  file "C:/work/grepos/c2000_bootROM/f28004x_bootrom/F28004x_ROM_dev/F28004x_ROM/driverlib/pmbu
    2866 000003cf 28A9          MOV       AL,#3776              ; [CPU_] |832| 
         000003d0 0EC0 
    2867 000003d1 28A8          MOV       AH,#534               ; [CPU_] |832| 
         000003d2 0216 
    2868 000003d3 FF5A          MOVL      P,ACC                 ; [CPU_] |832| 
TMS320C2000 Assembler PC v6.2.9 Tue Apr 14 13:33:08 2015

Tools Copyright (c) 1996-2014 Texas Instruments Incorporated
C:\Users\a0272466\AppData\Local\Temp\0769210                         PAGE   55

    2869 000003d4 0200          MOVB      ACC,#0                ; [CPU_] |832| 
    2870 000003d5 F61F          RPT       #31
    2871 000003d6 5617  ||     SUBCUL    ACC,*-SP[16]          ; [CPU_] |832| 
         000003d7 0050 
    2872 000003d8 A9A9          MOVL      ACC,P                 ; [CPU_] |832| 
    2873 000003d9 1901          SUBB      ACC,#1                ; [CPU_] |832| 
    2874 000003da 1E4C          MOVL      *-SP[12],ACC          ; [CPU_] |832| 
    2875                      .dwpsn  file "C:/work/grepos/c2000_bootROM/f28004x_bootrom/F28004x_ROM_dev/F28004x_ROM/driverlib/pmbu
    2876 000003db 8F00          MOVL      XAR4,#50000           ; [CPU_U] |833| 
         000003dc C350 
    2877 000003dd 0200          MOVB      ACC,#0                ; [CPU_] |833| 
    2878 000003de A8AB          MOVL      P,XAR4                ; [CPU_] |833| 
    2879 000003df F61F          RPT       #31
    2880 000003e0 5617  ||     SUBCUL    ACC,*-SP[16]          ; [CPU_] |833| 
         000003e1 0050 
    2881 000003e2 A9A9          MOVL      ACC,P                 ; [CPU_] |833| 
    2882 000003e3 1901          SUBB      ACC,#1                ; [CPU_] |833| 
    2883 000003e4 1E4E          MOVL      *-SP[14],ACC          ; [CPU_] |833| 
    2884                      .dwpsn  file "C:/work/grepos/c2000_bootROM/f28004x_bootrom/F28004x_ROM_dev/F28004x_ROM/driverlib/pmbu
    2885 000003e5 8F00          MOVL      XAR4,#5000            ; [CPU_U] |834| 
         000003e6 1388 
    2886 000003e7 0200          MOVB      ACC,#0                ; [CPU_] |834| 
    2887 000003e8 A8AB          MOVL      P,XAR4                ; [CPU_] |834| 
    2888 000003e9 F61F          RPT       #31
    2889 000003ea 5617  ||     SUBCUL    ACC,*-SP[16]          ; [CPU_] |834| 
         000003eb 0050 
    2890 000003ec A9A9          MOVL      ACC,P                 ; [CPU_] |834| 
    2891 000003ed 1901          SUBB      ACC,#1                ; [CPU_] |834| 
    2892 000003ee 1E52          MOVL      *-SP[18],ACC          ; [CPU_] |834| 
    2893                      .dwpsn  file "C:/work/grepos/c2000_bootROM/f28004x_bootrom/F28004x_ROM_dev/F28004x_ROM/driverlib/pmbu
    2894 000003ef 8F00          MOVL      XAR4,#300             ; [CPU_U] |835| 
         000003f0 012C 
    2895 000003f1 0200          MOVB      ACC,#0                ; [CPU_] |835| 
    2896 000003f2 A8AB          MOVL      P,XAR4                ; [CPU_] |835| 
    2897 000003f3 F61F          RPT       #31
    2898 000003f4 5617  ||     SUBCUL    ACC,*-SP[16]          ; [CPU_] |835| 
         000003f5 0050 
    2899 000003f6 A954          MOVL      *-SP[20],P            ; [CPU_] |835| 
    2900                      .dwpsn  file "C:/work/grepos/c2000_bootROM/f28004x_bootrom/F28004x_ROM_dev/F28004x_ROM/driverlib/pmbu
    2901 000003f7 0210          MOVB      ACC,#16               ; [CPU_] |836| 
    2902 000003f8 0742          ADDL      ACC,*-SP[2]           ; [CPU_] |836| 
    2903 000003f9 8AA9          MOVL      XAR4,ACC              ; [CPU_] |836| 
    2904 000003fa 1AC4          OR        *+XAR4[0],#16         ; [CPU_] |836| 
         000003fb 0010 
    2905                      .dwpsn  file "C:/work/grepos/c2000_bootROM/f28004x_bootrom/F28004x_ROM_dev/F28004x_ROM/driverlib/pmbu
    2906 000003fc 6F0C          B         $C$L64,UNC            ; [CPU_] |837| 
    2907                      ; branch occurs ; [] |837| 
    2908 000003fd       $C$L62:    
    2909                      .dwpsn  file "C:/work/grepos/c2000_bootROM/f28004x_bootrom/F28004x_ROM_dev/F28004x_ROM/driverlib/pmbu
    2910 000003fd 9A00          MOVB      AL,#0                 ; [CPU_] |840| 
    2911 000003fe 6F53          B         $C$L65,UNC            ; [CPU_] |840| 
    2912                      ; branch occurs ; [] |840| 
    2913 000003ff       $C$L63:    
    2914                      .dwpsn  file "C:/work/grepos/c2000_bootROM/f28004x_bootrom/F28004x_ROM_dev/F28004x_ROM/driverlib/pmbu
    2915 000003ff 9243          MOV       AL,*-SP[3]            ; [CPU_] |778| 
TMS320C2000 Assembler PC v6.2.9 Tue Apr 14 13:33:08 2015

Tools Copyright (c) 1996-2014 Texas Instruments Incorporated
C:\Users\a0272466\AppData\Local\Temp\0769210                         PAGE   56

    2916 00000400 56C1          BF        $C$L59,EQ             ; [CPU_] |778| 
         00000401 FF3D 
    2917                      ; branchcc occurs ; [] |778| 
    2918 00000402 5201          CMPB      AL,#1                 ; [CPU_] |778| 
    2919 00000403 56C1          BF        $C$L60,EQ             ; [CPU_] |778| 
         00000404 FF76 
    2920                      ; branchcc occurs ; [] |778| 
    2921 00000405 5202          CMPB      AL,#2                 ; [CPU_] |778| 
    2922 00000406 ECB5          BF        $C$L61,EQ             ; [CPU_] |778| 
    2923                      ; branchcc occurs ; [] |778| 
    2924 00000407 6FF6          B         $C$L62,UNC            ; [CPU_] |778| 
    2925                      ; branch occurs ; [] |778| 
    2926 00000408       $C$L64:    
    2927                      .dwpsn  file "C:/work/grepos/c2000_bootROM/f28004x_bootrom/F28004x_ROM_dev/F28004x_ROM/driverlib/pmbu
    2928 00000408 064A          MOVL      ACC,*-SP[10]          ; [CPU_] |844| 
    2929 00000409 FF3F          LSL       ACC,16                ; [CPU_] |844| 
    2930 0000040a FF5A          MOVL      P,ACC                 ; [CPU_] |844| 
    2931 0000040b 0648          MOVL      ACC,*-SP[8]           ; [CPU_] |844| 
    2932 0000040c 18AB          AND       PL,#0                 ; [CPU_] |844| 
         0000040d 0000 
    2933 0000040e 1E58          MOVL      *-SP[24],ACC          ; [CPU_] |844| 
    2934 0000040f 18AA          AND       PH,#255               ; [CPU_] |844| 
         00000410 00FF 
    2935 00000411 9258          MOV       AL,*-SP[24]           ; [CPU_] |844| 
    2936 00000412 90FF          ANDB      AL,#0xff              ; [CPU_] |844| 
    2937 00000413 9658          MOV       *-SP[24],AL           ; [CPU_] |844| 
    2938 00000414 2B57          MOV       *-SP[23],#0           ; [CPU_] |844| 
    2939 00000415 9258          MOV       AL,*-SP[24]           ; [CPU_] |844| 
    2940 00000416 CAAB          OR        AL,PL                 ; [CPU_] |844| 
    2941 00000417 9658          MOV       *-SP[24],AL           ; [CPU_] |844| 
    2942 00000418 9257          MOV       AL,*-SP[23]           ; [CPU_] |844| 
    2943 00000419 CAAA          OR        AL,PH                 ; [CPU_] |844| 
    2944 0000041a 9657          MOV       *-SP[23],AL           ; [CPU_] |844| 
    2945 0000041b 0214          MOVB      ACC,#20               ; [CPU_] |844| 
    2946 0000041c 0742          ADDL      ACC,*-SP[2]           ; [CPU_] |844| 
    2947 0000041d 8AA9          MOVL      XAR4,ACC              ; [CPU_] |844| 
    2948 0000041e 0658          MOVL      ACC,*-SP[24]          ; [CPU_] |844| 
    2949 0000041f 1EC4          MOVL      *+XAR4[0],ACC         ; [CPU_] |844| 
    2950                      .dwpsn  file "C:/work/grepos/c2000_bootROM/f28004x_bootrom/F28004x_ROM_dev/F28004x_ROM/driverlib/pmbu
    2951 00000420 021A          MOVB      ACC,#26               ; [CPU_] |848| 
    2952 00000421 A34C          MOVL      P,*-SP[12]            ; [CPU_] |848| 
    2953 00000422 18AA          AND       PH,#15                ; [CPU_] |848| 
         00000423 000F 
    2954 00000424 0742          ADDL      ACC,*-SP[2]           ; [CPU_] |848| 
    2955 00000425 8AA9          MOVL      XAR4,ACC              ; [CPU_] |848| 
    2956 00000426 A9C4          MOVL      *+XAR4[0],P           ; [CPU_] |848| 
    2957                      .dwpsn  file "C:/work/grepos/c2000_bootROM/f28004x_bootrom/F28004x_ROM_dev/F28004x_ROM/driverlib/pmbu
    2958 00000427 8F00          MOVL      XAR4,#1023            ; [CPU_U] |850| 
         00000428 03FF 
