TMS320C2000 Assembler PC v6.4.4 Tue Feb 14 14:43:15 2017

Tools Copyright (c) 1996-2015 Texas Instruments Incorporated
C:\Users\a0221343\AppData\Local\Temp\0049210                         PAGE    1

       1              ;***************************************************************
       2              ;* TMS320C2000 C/C++ Codegen                         PC v6.4.4 *
       3              ;* Date/Time created: Tue Feb 14 14:43:15 2017                 *
       4              ;***************************************************************
       5                      .compiler_opts --cla_support=cla0 --float_support=fpu32 --hll_source=on --mem_model:code=flat --mem_m
       6        0002  FP      .set    XAR2
       7              
       8              $C$DW$CU        .dwtag  DW_TAG_compile_unit
       9                      .dwattr $C$DW$CU, DW_AT_name("C:/Users/a0221343/Git/bootROM/f28004x_bootrom/F28004x_ROM_dev_PG2.0/F28
      10                      .dwattr $C$DW$CU, DW_AT_producer("TI TMS320C2000 C/C++ Codegen PC v6.4.4 Copyright (c) 1996-2015 Texa
      11                      .dwattr $C$DW$CU, DW_AT_TI_version(0x01)
      12                      .dwattr $C$DW$CU, DW_AT_comp_dir("C:\Users\a0221343\Git\bootROM\f28004x_bootrom\F28004x_ROM_dev_PG2.0
      13              
      14              $C$DW$1 .dwtag  DW_TAG_subprogram, DW_AT_name("Interrupt_disable")
      15                      .dwattr $C$DW$1, DW_AT_TI_symbol_name("_Interrupt_disable")
      16                      .dwattr $C$DW$1, DW_AT_declaration
      17                      .dwattr $C$DW$1, DW_AT_external
      18              $C$DW$2 .dwtag  DW_TAG_formal_parameter
      19                      .dwattr $C$DW$2, DW_AT_type(*$C$DW$T$21)
      20                      .dwendtag $C$DW$1
      21              
      22              
      23              $C$DW$3 .dwtag  DW_TAG_subprogram, DW_AT_name("Interrupt_enable")
      24                      .dwattr $C$DW$3, DW_AT_TI_symbol_name("_Interrupt_enable")
      25                      .dwattr $C$DW$3, DW_AT_declaration
      26                      .dwattr $C$DW$3, DW_AT_external
      27              $C$DW$4 .dwtag  DW_TAG_formal_parameter
      28                      .dwattr $C$DW$4, DW_AT_type(*$C$DW$T$21)
      29                      .dwendtag $C$DW$3
      30              
      31              ;       C:\ti\ccsv6\tools\compiler\ti-cgt-c2000_6.4.4\bin\ac2000.exe -@C:\\Users\\a0221343\\AppData\\Local\\T
      32 00000000               .sect   ".text:_Interrupt_defaultHandler"
      33                      .clink
      34              
      35              $C$DW$5 .dwtag  DW_TAG_subprogram, DW_AT_name("Interrupt_defaultHandler")
      36                      .dwattr $C$DW$5, DW_AT_low_pc(_Interrupt_defaultHandler)
      37                      .dwattr $C$DW$5, DW_AT_high_pc(0x00)
      38                      .dwattr $C$DW$5, DW_AT_TI_symbol_name("_Interrupt_defaultHandler")
      39                      .dwattr $C$DW$5, DW_AT_TI_begin_file("C:\Users\a0221343\Git\bootROM\f28004x_bootrom\F28004x_ROM_dev_P
      40                      .dwattr $C$DW$5, DW_AT_TI_begin_line(0x69)
      41                      .dwattr $C$DW$5, DW_AT_TI_begin_column(0x0d)
      42                      .dwattr $C$DW$5, DW_AT_TI_max_frame_size(-4)
      43                      .dwpsn  file "C:\Users\a0221343\Git\bootROM\f28004x_bootrom\F28004x_ROM_dev_PG2.0\F28004x_ROM\driverl
      44              
      45                      .dwfde $C$DW$CIE, _Interrupt_defaultHandler
      46              
      47              ;***************************************************************
      48              ;* FNAME: _Interrupt_defaultHandler     FR SIZE:   2           *
      49              ;*                                                             *
      50              ;* FUNCTION ENVIRONMENT                                        *
      51              ;*                                                             *
      52              ;* FUNCTION PROPERTIES                                         *
      53              ;*                            0 Parameter,  1 Auto,  0 SOE     *
      54              ;***************************************************************
      55              
TMS320C2000 Assembler PC v6.4.4 Tue Feb 14 14:43:15 2017

Tools Copyright (c) 1996-2015 Texas Instruments Incorporated
C:\Users\a0221343\AppData\Local\Temp\0049210                         PAGE    2

      56 00000000       _Interrupt_defaultHandler:
      57                      .dwcfi  cfa_offset, -2
      58                      .dwcfi  save_reg_to_mem, 26, 0
      59 00000000 FE02          ADDB      SP,#2                 ; [CPU_U] 
      60                      .dwcfi  cfa_offset, -4
      61              $C$DW$6 .dwtag  DW_TAG_variable, DW_AT_name("vectID")
      62                      .dwattr $C$DW$6, DW_AT_TI_symbol_name("_vectID")
      63                      .dwattr $C$DW$6, DW_AT_type(*$C$DW$T$35)
      64                      .dwattr $C$DW$6, DW_AT_location[DW_OP_breg20 -1]
      65                      .dwpsn  file "C:\Users\a0221343\Git\bootROM\f28004x_bootrom\F28004x_ROM_dev_PG2.0\F28004x_ROM\driverl
      66 00000001 F5A9          MOV       AL,*(0:0x0ce0)        ; [CPU_] |111| 
         00000002 0CE0 
      67 00000003 90FE          ANDB      AL,#0xfe              ; [CPU_] |111| 
      68 00000004 FFC0          LSR       AL,1                  ; [CPU_] |111| 
      69 00000005 9641          MOV       *-SP[1],AL            ; [CPU_] |111| 
      70                      .dwpsn  file "C:\Users\a0221343\Git\bootROM\f28004x_bootrom\F28004x_ROM_dev_PG2.0\F28004x_ROM\driverl
      71                      .dwpsn  file "C:\Users\a0221343\Git\bootROM\f28004x_bootrom\F28004x_ROM_dev_PG2.0\F28004x_ROM\driverl
      72 00000006 7625   ESTOP0
      73 00000007       $C$L1:    
      74                      .dwpsn  file "C:\Users\a0221343\Git\bootROM\f28004x_bootrom\F28004x_ROM_dev_PG2.0\F28004x_ROM\driverl
      75 00000007 6F00          B         $C$L1,UNC             ; [CPU_] |120| 
      76                      ; branch occurs ; [] |120| 
      77                      .dwattr $C$DW$5, DW_AT_TI_end_file("C:\Users\a0221343\Git\bootROM\f28004x_bootrom\F28004x_ROM_dev_PG2
      78                      .dwattr $C$DW$5, DW_AT_TI_end_line(0x79)
      79                      .dwattr $C$DW$5, DW_AT_TI_end_column(0x01)
      80                      .dwendentry
      81                      .dwendtag $C$DW$5
      82              
      83 00000000               .sect   ".text:_Interrupt_register"
      84                      .clink
      85              
      86              $C$DW$7 .dwtag  DW_TAG_subprogram, DW_AT_name("Interrupt_register")
      87                      .dwattr $C$DW$7, DW_AT_low_pc(_Interrupt_register)
      88                      .dwattr $C$DW$7, DW_AT_high_pc(0x00)
      89                      .dwattr $C$DW$7, DW_AT_TI_symbol_name("_Interrupt_register")
      90                      .dwattr $C$DW$7, DW_AT_TI_begin_file("C:\Users\a0221343\Git\bootROM\f28004x_bootrom\F28004x_ROM_dev_P
      91                      .dwattr $C$DW$7, DW_AT_TI_begin_line(0xe6)
      92                      .dwattr $C$DW$7, DW_AT_TI_begin_column(0x01)
      93                      .dwattr $C$DW$7, DW_AT_TI_max_frame_size(-6)
      94                      .dwpsn  file "C:\Users\a0221343\Git\bootROM\f28004x_bootrom\F28004x_ROM_dev_PG2.0\F28004x_ROM\driverl
      95              
      96                      .dwfde $C$DW$CIE, _Interrupt_register
      97              $C$DW$8 .dwtag  DW_TAG_formal_parameter, DW_AT_name("interruptNumber")
      98                      .dwattr $C$DW$8, DW_AT_TI_symbol_name("_interruptNumber")
      99                      .dwattr $C$DW$8, DW_AT_type(*$C$DW$T$21)
     100                      .dwattr $C$DW$8, DW_AT_location[DW_OP_reg0]
     101              $C$DW$9 .dwtag  DW_TAG_formal_parameter, DW_AT_name("handler")
     102                      .dwattr $C$DW$9, DW_AT_TI_symbol_name("_handler")
     103                      .dwattr $C$DW$9, DW_AT_type(*$C$DW$T$29)
     104                      .dwattr $C$DW$9, DW_AT_location[DW_OP_reg12]
     105              
     106              ;***************************************************************
     107              ;* FNAME: _Interrupt_register           FR SIZE:   4           *
     108              ;*                                                             *
     109              ;* FUNCTION ENVIRONMENT                                        *
TMS320C2000 Assembler PC v6.4.4 Tue Feb 14 14:43:15 2017

Tools Copyright (c) 1996-2015 Texas Instruments Incorporated
C:\Users\a0221343\AppData\Local\Temp\0049210                         PAGE    3

     110              ;*                                                             *
     111              ;* FUNCTION PROPERTIES                                         *
     112              ;*                            0 Parameter,  4 Auto,  0 SOE     *
     113              ;***************************************************************
     114              
     115 00000000       _Interrupt_register:
     116                      .dwcfi  cfa_offset, -2
     117                      .dwcfi  save_reg_to_mem, 26, 0
     118 00000000 FE04          ADDB      SP,#4                 ; [CPU_U] 
     119                      .dwcfi  cfa_offset, -6
     120              $C$DW$10        .dwtag  DW_TAG_variable, DW_AT_name("interruptNumber")
     121                      .dwattr $C$DW$10, DW_AT_TI_symbol_name("_interruptNumber")
     122                      .dwattr $C$DW$10, DW_AT_type(*$C$DW$T$21)
     123                      .dwattr $C$DW$10, DW_AT_location[DW_OP_breg20 -2]
     124              $C$DW$11        .dwtag  DW_TAG_variable, DW_AT_name("handler")
     125                      .dwattr $C$DW$11, DW_AT_TI_symbol_name("_handler")
     126                      .dwattr $C$DW$11, DW_AT_type(*$C$DW$T$29)
     127                      .dwattr $C$DW$11, DW_AT_location[DW_OP_breg20 -4]
     128 00000001 A844          MOVL      *-SP[4],XAR4          ; [CPU_] |231| 
     129 00000002 1E42          MOVL      *-SP[2],ACC           ; [CPU_] |231| 
     130                      .dwpsn  file "C:\Users\a0221343\Git\bootROM\f28004x_bootrom\F28004x_ROM_dev_PG2.0\F28004x_ROM\driverl
     131 00000003 7622   EALLOW
     132                      .dwpsn  file "C:\Users\a0221343\Git\bootROM\f28004x_bootrom\F28004x_ROM_dev_PG2.0\F28004x_ROM\driverl
     133 00000004 0EA8          MOVU      ACC,AH                ; [CPU_] |234| 
     134 00000005 C444          MOVL      XAR6,*-SP[4]          ; [CPU_] |234| 
     135 00000006 FF30          LSL       ACC,1                 ; [CPU_] |234| 
     136 00000007 FF18          ADD       ACC,#13 << 8          ; [CPU_] |234| 
         00000008 000D 
     137 00000009 8AA9          MOVL      XAR4,ACC              ; [CPU_] |234| 
     138 0000000a C2C4          MOVL      *+XAR4[0],XAR6        ; [CPU_] |234| 
     139                      .dwpsn  file "C:\Users\a0221343\Git\bootROM\f28004x_bootrom\F28004x_ROM_dev_PG2.0\F28004x_ROM\driverl
     140 0000000b 761A   EDIS
     141                      .dwpsn  file "C:\Users\a0221343\Git\bootROM\f28004x_bootrom\F28004x_ROM_dev_PG2.0\F28004x_ROM\driverl
     142 0000000c FF69          SPM       #0                    ; [CPU_] 
     143 0000000d FE84          SUBB      SP,#4                 ; [CPU_U] 
     144                      .dwcfi  cfa_offset, -2
     145              $C$DW$12        .dwtag  DW_TAG_TI_branch
     146                      .dwattr $C$DW$12, DW_AT_low_pc(0x00)
     147                      .dwattr $C$DW$12, DW_AT_TI_return
     148 0000000e 0006          LRETR     ; [CPU_] 
     149                      ; return occurs ; [] 
     150                      .dwattr $C$DW$7, DW_AT_TI_end_file("C:\Users\a0221343\Git\bootROM\f28004x_bootrom\F28004x_ROM_dev_PG2
     151                      .dwattr $C$DW$7, DW_AT_TI_end_line(0xed)
     152                      .dwattr $C$DW$7, DW_AT_TI_end_column(0x01)
     153                      .dwendentry
     154                      .dwendtag $C$DW$7
     155              
     156 00000000               .sect   ".text:_Interrupt_unregister"
     157                      .clink
     158              
     159              $C$DW$13        .dwtag  DW_TAG_subprogram, DW_AT_name("Interrupt_unregister")
     160                      .dwattr $C$DW$13, DW_AT_low_pc(_Interrupt_unregister)
     161                      .dwattr $C$DW$13, DW_AT_high_pc(0x00)
     162                      .dwattr $C$DW$13, DW_AT_TI_symbol_name("_Interrupt_unregister")
     163                      .dwattr $C$DW$13, DW_AT_TI_begin_file("C:\Users\a0221343\Git\bootROM\f28004x_bootrom\F28004x_ROM_dev_
TMS320C2000 Assembler PC v6.4.4 Tue Feb 14 14:43:15 2017

Tools Copyright (c) 1996-2015 Texas Instruments Incorporated
C:\Users\a0221343\AppData\Local\Temp\0049210                         PAGE    4

     164                      .dwattr $C$DW$13, DW_AT_TI_begin_line(0x104)
     165                      .dwattr $C$DW$13, DW_AT_TI_begin_column(0x01)
     166                      .dwattr $C$DW$13, DW_AT_TI_max_frame_size(-4)
     167                      .dwpsn  file "C:\Users\a0221343\Git\bootROM\f28004x_bootrom\F28004x_ROM_dev_PG2.0\F28004x_ROM\driverl
     168              
     169                      .dwfde $C$DW$CIE, _Interrupt_unregister
     170              $C$DW$14        .dwtag  DW_TAG_formal_parameter, DW_AT_name("interruptNumber")
     171                      .dwattr $C$DW$14, DW_AT_TI_symbol_name("_interruptNumber")
     172                      .dwattr $C$DW$14, DW_AT_type(*$C$DW$T$21)
     173                      .dwattr $C$DW$14, DW_AT_location[DW_OP_reg0]
     174              
     175              ;***************************************************************
     176              ;* FNAME: _Interrupt_unregister         FR SIZE:   2           *
     177              ;*                                                             *
     178              ;* FUNCTION ENVIRONMENT                                        *
     179              ;*                                                             *
     180              ;* FUNCTION PROPERTIES                                         *
     181              ;*                            0 Parameter,  2 Auto,  0 SOE     *
     182              ;***************************************************************
     183              
     184 00000000       _Interrupt_unregister:
     185                      .dwcfi  cfa_offset, -2
     186                      .dwcfi  save_reg_to_mem, 26, 0
     187 00000000 FE02          ADDB      SP,#2                 ; [CPU_U] 
     188                      .dwcfi  cfa_offset, -4
     189              $C$DW$15        .dwtag  DW_TAG_variable, DW_AT_name("interruptNumber")
     190                      .dwattr $C$DW$15, DW_AT_TI_symbol_name("_interruptNumber")
     191                      .dwattr $C$DW$15, DW_AT_type(*$C$DW$T$21)
     192                      .dwattr $C$DW$15, DW_AT_location[DW_OP_breg20 -2]
     193 00000001 1E42          MOVL      *-SP[2],ACC           ; [CPU_] |261| 
     194                      .dwpsn  file "C:\Users\a0221343\Git\bootROM\f28004x_bootrom\F28004x_ROM_dev_PG2.0\F28004x_ROM\driverl
     195 00000002 7622   EALLOW
     196                      .dwpsn  file "C:\Users\a0221343\Git\bootROM\f28004x_bootrom\F28004x_ROM_dev_PG2.0\F28004x_ROM\driverl
     197 00000003 0EA8          MOVU      ACC,AH                ; [CPU_] |264| 
     198 00000004 FF30          LSL       ACC,1                 ; [CPU_] |264| 
     199 00000005 FF18          ADD       ACC,#13 << 8          ; [CPU_] |264| 
         00000006 000D 
     200 00000007 8AA9          MOVL      XAR4,ACC              ; [CPU_] |264| 
     201 00000008 8F40+         MOVL      XAR5,#_Interrupt_defaultHandler ; [CPU_U] |264| 
         00000009 0000 
     202 0000000a A0C4          MOVL      *+XAR4[0],XAR5        ; [CPU_] |264| 
     203                      .dwpsn  file "C:\Users\a0221343\Git\bootROM\f28004x_bootrom\F28004x_ROM_dev_PG2.0\F28004x_ROM\driverl
     204 0000000b 761A   EDIS
     205                      .dwpsn  file "C:\Users\a0221343\Git\bootROM\f28004x_bootrom\F28004x_ROM_dev_PG2.0\F28004x_ROM\driverl
     206 0000000c FF69          SPM       #0                    ; [CPU_] 
     207 0000000d FE82          SUBB      SP,#2                 ; [CPU_U] 
     208                      .dwcfi  cfa_offset, -2
     209              $C$DW$16        .dwtag  DW_TAG_TI_branch
     210                      .dwattr $C$DW$16, DW_AT_low_pc(0x00)
     211                      .dwattr $C$DW$16, DW_AT_TI_return
     212 0000000e 0006          LRETR     ; [CPU_] 
     213                      ; return occurs ; [] 
     214                      .dwattr $C$DW$13, DW_AT_TI_end_file("C:\Users\a0221343\Git\bootROM\f28004x_bootrom\F28004x_ROM_dev_PG
     215                      .dwattr $C$DW$13, DW_AT_TI_end_line(0x10b)
     216                      .dwattr $C$DW$13, DW_AT_TI_end_column(0x01)
TMS320C2000 Assembler PC v6.4.4 Tue Feb 14 14:43:15 2017

Tools Copyright (c) 1996-2015 Texas Instruments Incorporated
C:\Users\a0221343\AppData\Local\Temp\0049210                         PAGE    5

     217                      .dwendentry
     218                      .dwendtag $C$DW$13
     219              
     220 00000000               .sect   ".text:_SCI_enableModule"
     221                      .clink
     222              
     223              $C$DW$17        .dwtag  DW_TAG_subprogram, DW_AT_name("SCI_enableModule")
     224                      .dwattr $C$DW$17, DW_AT_low_pc(_SCI_enableModule)
     225                      .dwattr $C$DW$17, DW_AT_high_pc(0x00)
     226                      .dwattr $C$DW$17, DW_AT_TI_symbol_name("_SCI_enableModule")
     227                      .dwattr $C$DW$17, DW_AT_TI_begin_file("C:\Users\a0221343\Git\bootROM\f28004x_bootrom\F28004x_ROM_dev_
     228                      .dwattr $C$DW$17, DW_AT_TI_begin_line(0x17d)
     229                      .dwattr $C$DW$17, DW_AT_TI_begin_column(0x01)
     230                      .dwattr $C$DW$17, DW_AT_TI_max_frame_size(-4)
     231                      .dwpsn  file "C:\Users\a0221343\Git\bootROM\f28004x_bootrom\F28004x_ROM_dev_PG2.0\F28004x_ROM\driverl
     232              
     233                      .dwfde $C$DW$CIE, _SCI_enableModule
     234              $C$DW$18        .dwtag  DW_TAG_formal_parameter, DW_AT_name("base")
     235                      .dwattr $C$DW$18, DW_AT_TI_symbol_name("_base")
     236                      .dwattr $C$DW$18, DW_AT_type(*$C$DW$T$21)
     237                      .dwattr $C$DW$18, DW_AT_location[DW_OP_reg0]
     238              
     239              ;***************************************************************
     240              ;* FNAME: _SCI_enableModule             FR SIZE:   2           *
     241              ;*                                                             *
     242              ;* FUNCTION ENVIRONMENT                                        *
     243              ;*                                                             *
     244              ;* FUNCTION PROPERTIES                                         *
     245              ;*                            0 Parameter,  2 Auto,  0 SOE     *
     246              ;***************************************************************
     247              
     248 00000000       _SCI_enableModule:
     249                      .dwcfi  cfa_offset, -2
     250                      .dwcfi  save_reg_to_mem, 26, 0
     251 00000000 FE02          ADDB      SP,#2                 ; [CPU_U] 
     252                      .dwcfi  cfa_offset, -4
     253              $C$DW$19        .dwtag  DW_TAG_variable, DW_AT_name("base")
     254                      .dwattr $C$DW$19, DW_AT_TI_symbol_name("_base")
     255                      .dwattr $C$DW$19, DW_AT_type(*$C$DW$T$21)
     256                      .dwattr $C$DW$19, DW_AT_location[DW_OP_breg20 -2]
     257 00000001 1E42          MOVL      *-SP[2],ACC           ; [CPU_] |382| 
     258                      .dwpsn  file "C:\Users\a0221343\Git\bootROM\f28004x_bootrom\F28004x_ROM_dev_PG2.0\F28004x_ROM\driverl
     259 00000002 0201          MOVB      ACC,#1                ; [CPU_] |391| 
     260 00000003 0742          ADDL      ACC,*-SP[2]           ; [CPU_] |391| 
     261 00000004 8AA9          MOVL      XAR4,ACC              ; [CPU_] |391| 
     262 00000005 1AC4          OR        *+XAR4[0],#0x0023     ; [CPU_] |391| 
         00000006 0023 
     263                      .dwpsn  file "C:\Users\a0221343\Git\bootROM\f28004x_bootrom\F28004x_ROM_dev_PG2.0\F28004x_ROM\driverl
     264 00000007 FE82          SUBB      SP,#2                 ; [CPU_U] 
     265                      .dwcfi  cfa_offset, -2
     266              $C$DW$20        .dwtag  DW_TAG_TI_branch
     267                      .dwattr $C$DW$20, DW_AT_low_pc(0x00)
     268                      .dwattr $C$DW$20, DW_AT_TI_return
     269 00000008 0006          LRETR     ; [CPU_] 
     270                      ; return occurs ; [] 
TMS320C2000 Assembler PC v6.4.4 Tue Feb 14 14:43:15 2017

Tools Copyright (c) 1996-2015 Texas Instruments Incorporated
C:\Users\a0221343\AppData\Local\Temp\0049210                         PAGE    6

     271                      .dwattr $C$DW$17, DW_AT_TI_end_file("C:\Users\a0221343\Git\bootROM\f28004x_bootrom\F28004x_ROM_dev_PG
     272                      .dwattr $C$DW$17, DW_AT_TI_end_line(0x189)
     273                      .dwattr $C$DW$17, DW_AT_TI_end_column(0x01)
     274                      .dwendentry
     275                      .dwendtag $C$DW$17
     276              
     277 00000000               .sect   ".text:_SCI_disableModule"
     278                      .clink
     279              
     280              $C$DW$21        .dwtag  DW_TAG_subprogram, DW_AT_name("SCI_disableModule")
     281                      .dwattr $C$DW$21, DW_AT_low_pc(_SCI_disableModule)
     282                      .dwattr $C$DW$21, DW_AT_high_pc(0x00)
     283                      .dwattr $C$DW$21, DW_AT_TI_symbol_name("_SCI_disableModule")
     284                      .dwattr $C$DW$21, DW_AT_TI_begin_file("C:\Users\a0221343\Git\bootROM\f28004x_bootrom\F28004x_ROM_dev_
     285                      .dwattr $C$DW$21, DW_AT_TI_begin_line(0x198)
     286                      .dwattr $C$DW$21, DW_AT_TI_begin_column(0x01)
     287                      .dwattr $C$DW$21, DW_AT_TI_max_frame_size(-4)
     288                      .dwpsn  file "C:\Users\a0221343\Git\bootROM\f28004x_bootrom\F28004x_ROM_dev_PG2.0\F28004x_ROM\driverl
     289              
     290                      .dwfde $C$DW$CIE, _SCI_disableModule
     291              $C$DW$22        .dwtag  DW_TAG_formal_parameter, DW_AT_name("base")
     292                      .dwattr $C$DW$22, DW_AT_TI_symbol_name("_base")
     293                      .dwattr $C$DW$22, DW_AT_type(*$C$DW$T$21)
     294                      .dwattr $C$DW$22, DW_AT_location[DW_OP_reg0]
     295              
     296              ;***************************************************************
     297              ;* FNAME: _SCI_disableModule            FR SIZE:   2           *
     298              ;*                                                             *
     299              ;* FUNCTION ENVIRONMENT                                        *
     300              ;*                                                             *
     301              ;* FUNCTION PROPERTIES                                         *
     302              ;*                            0 Parameter,  2 Auto,  0 SOE     *
     303              ;***************************************************************
     304              
     305 00000000       _SCI_disableModule:
     306                      .dwcfi  cfa_offset, -2
     307                      .dwcfi  save_reg_to_mem, 26, 0
     308 00000000 FE02          ADDB      SP,#2                 ; [CPU_U] 
     309                      .dwcfi  cfa_offset, -4
     310              $C$DW$23        .dwtag  DW_TAG_variable, DW_AT_name("base")
     311                      .dwattr $C$DW$23, DW_AT_TI_symbol_name("_base")
     312                      .dwattr $C$DW$23, DW_AT_type(*$C$DW$T$21)
     313                      .dwattr $C$DW$23, DW_AT_location[DW_OP_breg20 -2]
     314 00000001 1E42          MOVL      *-SP[2],ACC           ; [CPU_] |409| 
     315                      .dwpsn  file "C:\Users\a0221343\Git\bootROM\f28004x_bootrom\F28004x_ROM_dev_PG2.0\F28004x_ROM\driverl
     316 00000002 020A          MOVB      ACC,#10               ; [CPU_] |418| 
     317 00000003 0742          ADDL      ACC,*-SP[2]           ; [CPU_] |418| 
     318 00000004 8AA9          MOVL      XAR4,ACC              ; [CPU_] |418| 
     319 00000005 18C4          AND       *+XAR4[0],#0xbfff     ; [CPU_] |418| 
         00000006 BFFF 
     320                      .dwpsn  file "C:\Users\a0221343\Git\bootROM\f28004x_bootrom\F28004x_ROM_dev_PG2.0\F28004x_ROM\driverl
     321 00000007 0201          MOVB      ACC,#1                ; [CPU_] |423| 
     322 00000008 0742          ADDL      ACC,*-SP[2]           ; [CPU_] |423| 
     323 00000009 8AA9          MOVL      XAR4,ACC              ; [CPU_] |423| 
     324 0000000a 18C4          AND       *+XAR4[0],#0xfffc     ; [CPU_] |423| 
TMS320C2000 Assembler PC v6.4.4 Tue Feb 14 14:43:15 2017

Tools Copyright (c) 1996-2015 Texas Instruments Incorporated
C:\Users\a0221343\AppData\Local\Temp\0049210                         PAGE    7

         0000000b FFFC 
     325                      .dwpsn  file "C:\Users\a0221343\Git\bootROM\f28004x_bootrom\F28004x_ROM_dev_PG2.0\F28004x_ROM\driverl
     326 0000000c FE82          SUBB      SP,#2                 ; [CPU_U] 
     327                      .dwcfi  cfa_offset, -2
     328              $C$DW$24        .dwtag  DW_TAG_TI_branch
     329                      .dwattr $C$DW$24, DW_AT_low_pc(0x00)
     330                      .dwattr $C$DW$24, DW_AT_TI_return
     331 0000000d 0006          LRETR     ; [CPU_] 
     332                      ; return occurs ; [] 
     333                      .dwattr $C$DW$21, DW_AT_TI_end_file("C:\Users\a0221343\Git\bootROM\f28004x_bootrom\F28004x_ROM_dev_PG
     334                      .dwattr $C$DW$21, DW_AT_TI_end_line(0x1a8)
     335                      .dwattr $C$DW$21, DW_AT_TI_end_column(0x01)
     336                      .dwendentry
     337                      .dwendtag $C$DW$21
     338              
     339 00000000               .sect   ".text:_SCI_isFIFOEnabled"
     340                      .clink
     341              
     342              $C$DW$25        .dwtag  DW_TAG_subprogram, DW_AT_name("SCI_isFIFOEnabled")
     343                      .dwattr $C$DW$25, DW_AT_low_pc(_SCI_isFIFOEnabled)
     344                      .dwattr $C$DW$25, DW_AT_high_pc(0x00)
     345                      .dwattr $C$DW$25, DW_AT_TI_symbol_name("_SCI_isFIFOEnabled")
     346                      .dwattr $C$DW$25, DW_AT_type(*$C$DW$T$45)
     347                      .dwattr $C$DW$25, DW_AT_TI_begin_file("C:\Users\a0221343\Git\bootROM\f28004x_bootrom\F28004x_ROM_dev_
     348                      .dwattr $C$DW$25, DW_AT_TI_begin_line(0x1eb)
     349                      .dwattr $C$DW$25, DW_AT_TI_begin_column(0x01)
     350                      .dwattr $C$DW$25, DW_AT_TI_max_frame_size(-4)
     351                      .dwpsn  file "C:\Users\a0221343\Git\bootROM\f28004x_bootrom\F28004x_ROM_dev_PG2.0\F28004x_ROM\driverl
     352              
     353                      .dwfde $C$DW$CIE, _SCI_isFIFOEnabled
     354              $C$DW$26        .dwtag  DW_TAG_formal_parameter, DW_AT_name("base")
     355                      .dwattr $C$DW$26, DW_AT_TI_symbol_name("_base")
     356                      .dwattr $C$DW$26, DW_AT_type(*$C$DW$T$21)
     357                      .dwattr $C$DW$26, DW_AT_location[DW_OP_reg0]
     358              
     359              ;***************************************************************
     360              ;* FNAME: _SCI_isFIFOEnabled            FR SIZE:   2           *
     361              ;*                                                             *
     362              ;* FUNCTION ENVIRONMENT                                        *
     363              ;*                                                             *
     364              ;* FUNCTION PROPERTIES                                         *
     365              ;*                            0 Parameter,  2 Auto,  0 SOE     *
     366              ;***************************************************************
     367              
     368 00000000       _SCI_isFIFOEnabled:
     369                      .dwcfi  cfa_offset, -2
     370                      .dwcfi  save_reg_to_mem, 26, 0
     371 00000000 FE02          ADDB      SP,#2                 ; [CPU_U] 
     372                      .dwcfi  cfa_offset, -4
     373              $C$DW$27        .dwtag  DW_TAG_variable, DW_AT_name("base")
     374                      .dwattr $C$DW$27, DW_AT_TI_symbol_name("_base")
     375                      .dwattr $C$DW$27, DW_AT_type(*$C$DW$T$21)
     376                      .dwattr $C$DW$27, DW_AT_location[DW_OP_breg20 -2]
     377 00000001 1E42          MOVL      *-SP[2],ACC           ; [CPU_] |492| 
     378                      .dwpsn  file "C:\Users\a0221343\Git\bootROM\f28004x_bootrom\F28004x_ROM_dev_PG2.0\F28004x_ROM\driverl
TMS320C2000 Assembler PC v6.4.4 Tue Feb 14 14:43:15 2017

Tools Copyright (c) 1996-2015 Texas Instruments Incorporated
C:\Users\a0221343\AppData\Local\Temp\0049210                         PAGE    8

     379 00000002 020A          MOVB      ACC,#10               ; [CPU_] |501| 
     380 00000003 0742          ADDL      ACC,*-SP[2]           ; [CPU_] |501| 
     381 00000004 83A9          MOVL      XAR5,ACC              ; [CPU_] |501| 
     382 00000005 CCC5          AND       AL,*+XAR5[0],#0x4000  ; [CPU_] |501| 
         00000006 4000 
     383 00000007 80A9          MOVZ      AR7,AL                ; [CPU_] |501| 
     384 00000008 BE00          MOVB      XAR6,#0               ; [CPU_] |501| 
     385 00000009 8F00          MOVL      XAR4,#16384           ; [CPU_U] |501| 
         0000000a 4000 
     386 0000000b A8A9          MOVL      ACC,XAR4              ; [CPU_] |501| 
     387 0000000c 0FA7          CMPL      ACC,XAR7              ; [CPU_] |501| 
     388 0000000d ED03          BF        $C$L2,NEQ             ; [CPU_] |501| 
     389                      ; branchcc occurs ; [] |501| 
     390 0000000e 9B01          MOVB      AH,#1                 ; [CPU_] |501| 
     391 0000000f 6F02          B         $C$L3,UNC             ; [CPU_] |501| 
     392                      ; branch occurs ; [] |501| 
     393 00000010       $C$L2:    
     394 00000010 9B00          MOVB      AH,#0                 ; [CPU_] |501| 
     395 00000011       $C$L3:    
     396 00000011 5300          CMPB      AH,#0                 ; [CPU_] |501| 
     397 00000012 EC02          BF        $C$L4,EQ              ; [CPU_] |501| 
     398                      ; branchcc occurs ; [] |501| 
     399 00000013 BE01          MOVB      XAR6,#1               ; [CPU_] |501| 
     400 00000014       $C$L4:    
     401 00000014 92A6          MOV       AL,AR6                ; [CPU_] |501| 
     402                      .dwpsn  file "C:\Users\a0221343\Git\bootROM\f28004x_bootrom\F28004x_ROM_dev_PG2.0\F28004x_ROM\driverl
     403 00000015 FE82          SUBB      SP,#2                 ; [CPU_U] 
     404                      .dwcfi  cfa_offset, -2
     405              $C$DW$28        .dwtag  DW_TAG_TI_branch
     406                      .dwattr $C$DW$28, DW_AT_low_pc(0x00)
     407                      .dwattr $C$DW$28, DW_AT_TI_return
     408 00000016 0006          LRETR     ; [CPU_] 
     409                      ; return occurs ; [] 
     410                      .dwattr $C$DW$25, DW_AT_TI_end_file("C:\Users\a0221343\Git\bootROM\f28004x_bootrom\F28004x_ROM_dev_PG
     411                      .dwattr $C$DW$25, DW_AT_TI_end_line(0x1f7)
     412                      .dwattr $C$DW$25, DW_AT_TI_end_column(0x01)
     413                      .dwendentry
     414                      .dwendtag $C$DW$25
     415              
     416 00000000               .sect   ".text:_SCI_isDataAvailableNonFIFO"
     417                      .clink
     418              
     419              $C$DW$29        .dwtag  DW_TAG_subprogram, DW_AT_name("SCI_isDataAvailableNonFIFO")
     420                      .dwattr $C$DW$29, DW_AT_low_pc(_SCI_isDataAvailableNonFIFO)
     421                      .dwattr $C$DW$29, DW_AT_high_pc(0x00)
     422                      .dwattr $C$DW$29, DW_AT_TI_symbol_name("_SCI_isDataAvailableNonFIFO")
     423                      .dwattr $C$DW$29, DW_AT_type(*$C$DW$T$45)
     424                      .dwattr $C$DW$29, DW_AT_TI_begin_file("C:\Users\a0221343\Git\bootROM\f28004x_bootrom\F28004x_ROM_dev_
     425                      .dwattr $C$DW$29, DW_AT_TI_begin_line(0x255)
     426                      .dwattr $C$DW$29, DW_AT_TI_begin_column(0x01)
     427                      .dwattr $C$DW$29, DW_AT_TI_max_frame_size(-4)
     428                      .dwpsn  file "C:\Users\a0221343\Git\bootROM\f28004x_bootrom\F28004x_ROM_dev_PG2.0\F28004x_ROM\driverl
     429              
     430                      .dwfde $C$DW$CIE, _SCI_isDataAvailableNonFIFO
     431              $C$DW$30        .dwtag  DW_TAG_formal_parameter, DW_AT_name("base")
TMS320C2000 Assembler PC v6.4.4 Tue Feb 14 14:43:15 2017

Tools Copyright (c) 1996-2015 Texas Instruments Incorporated
C:\Users\a0221343\AppData\Local\Temp\0049210                         PAGE    9

     432                      .dwattr $C$DW$30, DW_AT_TI_symbol_name("_base")
     433                      .dwattr $C$DW$30, DW_AT_type(*$C$DW$T$21)
     434                      .dwattr $C$DW$30, DW_AT_location[DW_OP_reg0]
     435              
     436              ;***************************************************************
     437              ;* FNAME: _SCI_isDataAvailableNonFIFO   FR SIZE:   2           *
     438              ;*                                                             *
     439              ;* FUNCTION ENVIRONMENT                                        *
     440              ;*                                                             *
     441              ;* FUNCTION PROPERTIES                                         *
     442              ;*                            0 Parameter,  2 Auto,  0 SOE     *
     443              ;***************************************************************
     444              
     445 00000000       _SCI_isDataAvailableNonFIFO:
     446                      .dwcfi  cfa_offset, -2
     447                      .dwcfi  save_reg_to_mem, 26, 0
     448 00000000 FE02          ADDB      SP,#2                 ; [CPU_U] 
     449                      .dwcfi  cfa_offset, -4
     450              $C$DW$31        .dwtag  DW_TAG_variable, DW_AT_name("base")
     451                      .dwattr $C$DW$31, DW_AT_TI_symbol_name("_base")
     452                      .dwattr $C$DW$31, DW_AT_type(*$C$DW$T$21)
     453                      .dwattr $C$DW$31, DW_AT_location[DW_OP_breg20 -2]
     454 00000001 1E42          MOVL      *-SP[2],ACC           ; [CPU_] |598| 
     455                      .dwpsn  file "C:\Users\a0221343\Git\bootROM\f28004x_bootrom\F28004x_ROM_dev_PG2.0\F28004x_ROM\driverl
     456 00000002 8A42          MOVL      XAR4,*-SP[2]          ; [CPU_] |607| 
     457 00000003 9A00          MOVB      AL,#0                 ; [CPU_] |607| 
     458 00000004 93EC          MOV       AH,*+XAR4[5]          ; [CPU_] |607| 
     459 00000005 9140          ANDB      AH,#0x40              ; [CPU_] |607| 
     460 00000006 5340          CMPB      AH,#64                ; [CPU_] |607| 
     461 00000007 ED03          BF        $C$L5,NEQ             ; [CPU_] |607| 
     462                      ; branchcc occurs ; [] |607| 
     463 00000008 9B01          MOVB      AH,#1                 ; [CPU_] |607| 
     464 00000009 6F02          B         $C$L6,UNC             ; [CPU_] |607| 
     465                      ; branch occurs ; [] |607| 
     466 0000000a       $C$L5:    
     467 0000000a 9B00          MOVB      AH,#0                 ; [CPU_] |607| 
     468 0000000b       $C$L6:    
     469 0000000b 5300          CMPB      AH,#0                 ; [CPU_] |607| 
     470 0000000c EC02          BF        $C$L7,EQ              ; [CPU_] |607| 
     471                      ; branchcc occurs ; [] |607| 
     472 0000000d 9A01          MOVB      AL,#1                 ; [CPU_] |607| 
     473 0000000e       $C$L7:    
     474                      .dwpsn  file "C:\Users\a0221343\Git\bootROM\f28004x_bootrom\F28004x_ROM_dev_PG2.0\F28004x_ROM\driverl
     475 0000000e FE82          SUBB      SP,#2                 ; [CPU_U] 
     476                      .dwcfi  cfa_offset, -2
     477              $C$DW$32        .dwtag  DW_TAG_TI_branch
     478                      .dwattr $C$DW$32, DW_AT_low_pc(0x00)
     479                      .dwattr $C$DW$32, DW_AT_TI_return
     480 0000000f 0006          LRETR     ; [CPU_] 
     481                      ; return occurs ; [] 
     482                      .dwattr $C$DW$29, DW_AT_TI_end_file("C:\Users\a0221343\Git\bootROM\f28004x_bootrom\F28004x_ROM_dev_PG
     483                      .dwattr $C$DW$29, DW_AT_TI_end_line(0x261)
     484                      .dwattr $C$DW$29, DW_AT_TI_end_column(0x01)
     485                      .dwendentry
     486                      .dwendtag $C$DW$29
TMS320C2000 Assembler PC v6.4.4 Tue Feb 14 14:43:15 2017

Tools Copyright (c) 1996-2015 Texas Instruments Incorporated
C:\Users\a0221343\AppData\Local\Temp\0049210                         PAGE   10

     487              
     488 00000000               .sect   ".text:_SCI_isSpaceAvailableNonFIFO"
     489                      .clink
     490              
     491              $C$DW$33        .dwtag  DW_TAG_subprogram, DW_AT_name("SCI_isSpaceAvailableNonFIFO")
     492                      .dwattr $C$DW$33, DW_AT_low_pc(_SCI_isSpaceAvailableNonFIFO)
     493                      .dwattr $C$DW$33, DW_AT_high_pc(0x00)
     494                      .dwattr $C$DW$33, DW_AT_TI_symbol_name("_SCI_isSpaceAvailableNonFIFO")
     495                      .dwattr $C$DW$33, DW_AT_type(*$C$DW$T$45)
     496                      .dwattr $C$DW$33, DW_AT_TI_begin_file("C:\Users\a0221343\Git\bootROM\f28004x_bootrom\F28004x_ROM_dev_
     497                      .dwattr $C$DW$33, DW_AT_TI_begin_line(0x272)
     498                      .dwattr $C$DW$33, DW_AT_TI_begin_column(0x01)
     499                      .dwattr $C$DW$33, DW_AT_TI_max_frame_size(-4)
     500                      .dwpsn  file "C:\Users\a0221343\Git\bootROM\f28004x_bootrom\F28004x_ROM_dev_PG2.0\F28004x_ROM\driverl
     501              
     502                      .dwfde $C$DW$CIE, _SCI_isSpaceAvailableNonFIFO
     503              $C$DW$34        .dwtag  DW_TAG_formal_parameter, DW_AT_name("base")
     504                      .dwattr $C$DW$34, DW_AT_TI_symbol_name("_base")
     505                      .dwattr $C$DW$34, DW_AT_type(*$C$DW$T$21)
     506                      .dwattr $C$DW$34, DW_AT_location[DW_OP_reg0]
     507              
     508              ;***************************************************************
     509              ;* FNAME: _SCI_isSpaceAvailableNonFIFO  FR SIZE:   2           *
     510              ;*                                                             *
     511              ;* FUNCTION ENVIRONMENT                                        *
     512              ;*                                                             *
     513              ;* FUNCTION PROPERTIES                                         *
     514              ;*                            0 Parameter,  2 Auto,  0 SOE     *
     515              ;***************************************************************
     516              
     517 00000000       _SCI_isSpaceAvailableNonFIFO:
     518                      .dwcfi  cfa_offset, -2
     519                      .dwcfi  save_reg_to_mem, 26, 0
     520 00000000 FE02          ADDB      SP,#2                 ; [CPU_U] 
     521                      .dwcfi  cfa_offset, -4
     522              $C$DW$35        .dwtag  DW_TAG_variable, DW_AT_name("base")
     523                      .dwattr $C$DW$35, DW_AT_TI_symbol_name("_base")
     524                      .dwattr $C$DW$35, DW_AT_type(*$C$DW$T$21)
     525                      .dwattr $C$DW$35, DW_AT_location[DW_OP_breg20 -2]
     526 00000001 1E42          MOVL      *-SP[2],ACC           ; [CPU_] |627| 
     527                      .dwpsn  file "C:\Users\a0221343\Git\bootROM\f28004x_bootrom\F28004x_ROM_dev_PG2.0\F28004x_ROM\driverl
     528 00000002 8A42          MOVL      XAR4,*-SP[2]          ; [CPU_] |636| 
     529 00000003 9A00          MOVB      AL,#0                 ; [CPU_] |636| 
     530 00000004 93E4          MOV       AH,*+XAR4[4]          ; [CPU_] |636| 
     531 00000005 9180          ANDB      AH,#0x80              ; [CPU_] |636| 
     532 00000006 5380          CMPB      AH,#128               ; [CPU_] |636| 
     533 00000007 ED03          BF        $C$L8,NEQ             ; [CPU_] |636| 
     534                      ; branchcc occurs ; [] |636| 
     535 00000008 9B01          MOVB      AH,#1                 ; [CPU_] |636| 
     536 00000009 6F02          B         $C$L9,UNC             ; [CPU_] |636| 
     537                      ; branch occurs ; [] |636| 
     538 0000000a       $C$L8:    
     539 0000000a 9B00          MOVB      AH,#0                 ; [CPU_] |636| 
     540 0000000b       $C$L9:    
     541 0000000b 5300          CMPB      AH,#0                 ; [CPU_] |636| 
TMS320C2000 Assembler PC v6.4.4 Tue Feb 14 14:43:15 2017

Tools Copyright (c) 1996-2015 Texas Instruments Incorporated
C:\Users\a0221343\AppData\Local\Temp\0049210                         PAGE   11

     542 0000000c EC02          BF        $C$L10,EQ             ; [CPU_] |636| 
     543                      ; branchcc occurs ; [] |636| 
     544 0000000d 9A01          MOVB      AL,#1                 ; [CPU_] |636| 
     545 0000000e       $C$L10:    
     546                      .dwpsn  file "C:\Users\a0221343\Git\bootROM\f28004x_bootrom\F28004x_ROM_dev_PG2.0\F28004x_ROM\driverl
     547 0000000e FE82          SUBB      SP,#2                 ; [CPU_U] 
     548                      .dwcfi  cfa_offset, -2
     549              $C$DW$36        .dwtag  DW_TAG_TI_branch
     550                      .dwattr $C$DW$36, DW_AT_low_pc(0x00)
     551                      .dwattr $C$DW$36, DW_AT_TI_return
     552 0000000f 0006          LRETR     ; [CPU_] 
     553                      ; return occurs ; [] 
     554                      .dwattr $C$DW$33, DW_AT_TI_end_file("C:\Users\a0221343\Git\bootROM\f28004x_bootrom\F28004x_ROM_dev_PG
     555                      .dwattr $C$DW$33, DW_AT_TI_end_line(0x27e)
     556                      .dwattr $C$DW$33, DW_AT_TI_end_column(0x01)
     557                      .dwendentry
     558                      .dwendtag $C$DW$33
     559              
     560 00000000               .sect   ".text:_SCI_getTxFIFOStatus"
     561                      .clink
     562              
     563              $C$DW$37        .dwtag  DW_TAG_subprogram, DW_AT_name("SCI_getTxFIFOStatus")
     564                      .dwattr $C$DW$37, DW_AT_low_pc(_SCI_getTxFIFOStatus)
     565                      .dwattr $C$DW$37, DW_AT_high_pc(0x00)
     566                      .dwattr $C$DW$37, DW_AT_TI_symbol_name("_SCI_getTxFIFOStatus")
     567                      .dwattr $C$DW$37, DW_AT_type(*$C$DW$T$20)
     568                      .dwattr $C$DW$37, DW_AT_TI_begin_file("C:\Users\a0221343\Git\bootROM\f28004x_bootrom\F28004x_ROM_dev_
     569                      .dwattr $C$DW$37, DW_AT_TI_begin_line(0x28f)
     570                      .dwattr $C$DW$37, DW_AT_TI_begin_column(0x01)
     571                      .dwattr $C$DW$37, DW_AT_TI_max_frame_size(-4)
     572                      .dwpsn  file "C:\Users\a0221343\Git\bootROM\f28004x_bootrom\F28004x_ROM_dev_PG2.0\F28004x_ROM\driverl
     573              
     574                      .dwfde $C$DW$CIE, _SCI_getTxFIFOStatus
     575              $C$DW$38        .dwtag  DW_TAG_formal_parameter, DW_AT_name("base")
     576                      .dwattr $C$DW$38, DW_AT_TI_symbol_name("_base")
     577                      .dwattr $C$DW$38, DW_AT_type(*$C$DW$T$21)
     578                      .dwattr $C$DW$38, DW_AT_location[DW_OP_reg0]
     579              
     580              ;***************************************************************
     581              ;* FNAME: _SCI_getTxFIFOStatus          FR SIZE:   2           *
     582              ;*                                                             *
     583              ;* FUNCTION ENVIRONMENT                                        *
     584              ;*                                                             *
     585              ;* FUNCTION PROPERTIES                                         *
     586              ;*                            0 Parameter,  2 Auto,  0 SOE     *
     587              ;***************************************************************
     588              
     589 00000000       _SCI_getTxFIFOStatus:
     590                      .dwcfi  cfa_offset, -2
     591                      .dwcfi  save_reg_to_mem, 26, 0
     592 00000000 FE02          ADDB      SP,#2                 ; [CPU_U] 
     593                      .dwcfi  cfa_offset, -4
     594              $C$DW$39        .dwtag  DW_TAG_variable, DW_AT_name("base")
     595                      .dwattr $C$DW$39, DW_AT_TI_symbol_name("_base")
     596                      .dwattr $C$DW$39, DW_AT_type(*$C$DW$T$21)
TMS320C2000 Assembler PC v6.4.4 Tue Feb 14 14:43:15 2017

Tools Copyright (c) 1996-2015 Texas Instruments Incorporated
C:\Users\a0221343\AppData\Local\Temp\0049210                         PAGE   12

     597                      .dwattr $C$DW$39, DW_AT_location[DW_OP_breg20 -2]
     598 00000001 1E42          MOVL      *-SP[2],ACC           ; [CPU_] |656| 
     599                      .dwpsn  file "C:\Users\a0221343\Git\bootROM\f28004x_bootrom\F28004x_ROM_dev_PG2.0\F28004x_ROM\driverl
     600 00000002 020A          MOVB      ACC,#10               ; [CPU_] |665| 
     601 00000003 0742          ADDL      ACC,*-SP[2]           ; [CPU_] |665| 
     602 00000004 8AA9          MOVL      XAR4,ACC              ; [CPU_] |665| 
     603 00000005 CCC4          AND       AL,*+XAR4[0],#0x1f00  ; [CPU_] |665| 
         00000006 1F00 
     604 00000007 FFC7          LSR       AL,8                  ; [CPU_] |665| 
     605                      .dwpsn  file "C:\Users\a0221343\Git\bootROM\f28004x_bootrom\F28004x_ROM_dev_PG2.0\F28004x_ROM\driverl
     606 00000008 FE82          SUBB      SP,#2                 ; [CPU_U] 
     607                      .dwcfi  cfa_offset, -2
     608              $C$DW$40        .dwtag  DW_TAG_TI_branch
     609                      .dwattr $C$DW$40, DW_AT_low_pc(0x00)
     610                      .dwattr $C$DW$40, DW_AT_TI_return
     611 00000009 0006          LRETR     ; [CPU_] 
     612                      ; return occurs ; [] 
     613                      .dwattr $C$DW$37, DW_AT_TI_end_file("C:\Users\a0221343\Git\bootROM\f28004x_bootrom\F28004x_ROM_dev_PG
     614                      .dwattr $C$DW$37, DW_AT_TI_end_line(0x29b)
     615                      .dwattr $C$DW$37, DW_AT_TI_end_column(0x01)
     616                      .dwendentry
     617                      .dwendtag $C$DW$37
     618              
     619 00000000               .sect   ".text:_SCI_getRxFIFOStatus"
     620                      .clink
     621              
     622              $C$DW$41        .dwtag  DW_TAG_subprogram, DW_AT_name("SCI_getRxFIFOStatus")
     623                      .dwattr $C$DW$41, DW_AT_low_pc(_SCI_getRxFIFOStatus)
     624                      .dwattr $C$DW$41, DW_AT_high_pc(0x00)
     625                      .dwattr $C$DW$41, DW_AT_TI_symbol_name("_SCI_getRxFIFOStatus")
     626                      .dwattr $C$DW$41, DW_AT_type(*$C$DW$T$25)
     627                      .dwattr $C$DW$41, DW_AT_TI_begin_file("C:\Users\a0221343\Git\bootROM\f28004x_bootrom\F28004x_ROM_dev_
     628                      .dwattr $C$DW$41, DW_AT_TI_begin_line(0x2ac)
     629                      .dwattr $C$DW$41, DW_AT_TI_begin_column(0x01)
     630                      .dwattr $C$DW$41, DW_AT_TI_max_frame_size(-4)
     631                      .dwpsn  file "C:\Users\a0221343\Git\bootROM\f28004x_bootrom\F28004x_ROM_dev_PG2.0\F28004x_ROM\driverl
     632              
     633                      .dwfde $C$DW$CIE, _SCI_getRxFIFOStatus
     634              $C$DW$42        .dwtag  DW_TAG_formal_parameter, DW_AT_name("base")
     635                      .dwattr $C$DW$42, DW_AT_TI_symbol_name("_base")
     636                      .dwattr $C$DW$42, DW_AT_type(*$C$DW$T$21)
     637                      .dwattr $C$DW$42, DW_AT_location[DW_OP_reg0]
     638              
     639              ;***************************************************************
     640              ;* FNAME: _SCI_getRxFIFOStatus          FR SIZE:   2           *
     641              ;*                                                             *
     642              ;* FUNCTION ENVIRONMENT                                        *
     643              ;*                                                             *
     644              ;* FUNCTION PROPERTIES                                         *
     645              ;*                            0 Parameter,  2 Auto,  0 SOE     *
     646              ;***************************************************************
     647              
     648 00000000       _SCI_getRxFIFOStatus:
     649                      .dwcfi  cfa_offset, -2
     650                      .dwcfi  save_reg_to_mem, 26, 0
TMS320C2000 Assembler PC v6.4.4 Tue Feb 14 14:43:15 2017

Tools Copyright (c) 1996-2015 Texas Instruments Incorporated
C:\Users\a0221343\AppData\Local\Temp\0049210                         PAGE   13

     651 00000000 FE02          ADDB      SP,#2                 ; [CPU_U] 
     652                      .dwcfi  cfa_offset, -4
     653              $C$DW$43        .dwtag  DW_TAG_variable, DW_AT_name("base")
     654                      .dwattr $C$DW$43, DW_AT_TI_symbol_name("_base")
     655                      .dwattr $C$DW$43, DW_AT_type(*$C$DW$T$21)
     656                      .dwattr $C$DW$43, DW_AT_location[DW_OP_breg20 -2]
     657 00000001 1E42          MOVL      *-SP[2],ACC           ; [CPU_] |685| 
     658                      .dwpsn  file "C:\Users\a0221343\Git\bootROM\f28004x_bootrom\F28004x_ROM_dev_PG2.0\F28004x_ROM\driverl
     659 00000002 020B          MOVB      ACC,#11               ; [CPU_] |694| 
     660 00000003 0742          ADDL      ACC,*-SP[2]           ; [CPU_] |694| 
     661 00000004 8AA9          MOVL      XAR4,ACC              ; [CPU_] |694| 
     662 00000005 CCC4          AND       AL,*+XAR4[0],#0x1f00  ; [CPU_] |694| 
         00000006 1F00 
     663 00000007 FFC7          LSR       AL,8                  ; [CPU_] |694| 
     664                      .dwpsn  file "C:\Users\a0221343\Git\bootROM\f28004x_bootrom\F28004x_ROM_dev_PG2.0\F28004x_ROM\driverl
     665 00000008 FE82          SUBB      SP,#2                 ; [CPU_U] 
     666                      .dwcfi  cfa_offset, -2
     667              $C$DW$44        .dwtag  DW_TAG_TI_branch
     668                      .dwattr $C$DW$44, DW_AT_low_pc(0x00)
     669                      .dwattr $C$DW$44, DW_AT_TI_return
     670 00000009 0006          LRETR     ; [CPU_] 
     671                      ; return occurs ; [] 
     672                      .dwattr $C$DW$41, DW_AT_TI_end_file("C:\Users\a0221343\Git\bootROM\f28004x_bootrom\F28004x_ROM_dev_PG
     673                      .dwattr $C$DW$41, DW_AT_TI_end_line(0x2b8)
     674                      .dwattr $C$DW$41, DW_AT_TI_end_column(0x01)
     675                      .dwendentry
     676                      .dwendtag $C$DW$41
     677              
     678 00000000               .sect   ".text:_SCI_performSoftwareReset"
     679                      .clink
     680              
     681              $C$DW$45        .dwtag  DW_TAG_subprogram, DW_AT_name("SCI_performSoftwareReset")
     682                      .dwattr $C$DW$45, DW_AT_low_pc(_SCI_performSoftwareReset)
     683                      .dwattr $C$DW$45, DW_AT_high_pc(0x00)
     684                      .dwattr $C$DW$45, DW_AT_TI_symbol_name("_SCI_performSoftwareReset")
     685                      .dwattr $C$DW$45, DW_AT_TI_begin_file("C:\Users\a0221343\Git\bootROM\f28004x_bootrom\F28004x_ROM_dev_
     686                      .dwattr $C$DW$45, DW_AT_TI_begin_line(0x3f1)
     687                      .dwattr $C$DW$45, DW_AT_TI_begin_column(0x01)
     688                      .dwattr $C$DW$45, DW_AT_TI_max_frame_size(-4)
     689                      .dwpsn  file "C:\Users\a0221343\Git\bootROM\f28004x_bootrom\F28004x_ROM_dev_PG2.0\F28004x_ROM\driverl
     690              
     691                      .dwfde $C$DW$CIE, _SCI_performSoftwareReset
     692              $C$DW$46        .dwtag  DW_TAG_formal_parameter, DW_AT_name("base")
     693                      .dwattr $C$DW$46, DW_AT_TI_symbol_name("_base")
     694                      .dwattr $C$DW$46, DW_AT_type(*$C$DW$T$21)
     695                      .dwattr $C$DW$46, DW_AT_location[DW_OP_reg0]
     696              
     697              ;***************************************************************
     698              ;* FNAME: _SCI_performSoftwareReset     FR SIZE:   2           *
     699              ;*                                                             *
     700              ;* FUNCTION ENVIRONMENT                                        *
     701              ;*                                                             *
     702              ;* FUNCTION PROPERTIES                                         *
     703              ;*                            0 Parameter,  2 Auto,  0 SOE     *
     704              ;***************************************************************
TMS320C2000 Assembler PC v6.4.4 Tue Feb 14 14:43:15 2017

Tools Copyright (c) 1996-2015 Texas Instruments Incorporated
C:\Users\a0221343\AppData\Local\Temp\0049210                         PAGE   14

     705              
     706 00000000       _SCI_performSoftwareReset:
     707                      .dwcfi  cfa_offset, -2
     708                      .dwcfi  save_reg_to_mem, 26, 0
     709 00000000 FE02          ADDB      SP,#2                 ; [CPU_U] 
     710                      .dwcfi  cfa_offset, -4
     711              $C$DW$47        .dwtag  DW_TAG_variable, DW_AT_name("base")
     712                      .dwattr $C$DW$47, DW_AT_TI_symbol_name("_base")
     713                      .dwattr $C$DW$47, DW_AT_type(*$C$DW$T$21)
     714                      .dwattr $C$DW$47, DW_AT_location[DW_OP_breg20 -2]
     715 00000001 1E42          MOVL      *-SP[2],ACC           ; [CPU_] |1010| 
     716                      .dwpsn  file "C:\Users\a0221343\Git\bootROM\f28004x_bootrom\F28004x_ROM_dev_PG2.0\F28004x_ROM\driverl
     717 00000002 0201          MOVB      ACC,#1                ; [CPU_] |1019| 
     718 00000003 0742          ADDL      ACC,*-SP[2]           ; [CPU_] |1019| 
     719 00000004 8AA9          MOVL      XAR4,ACC              ; [CPU_] |1019| 
     720 00000005 18C4          AND       *+XAR4[0],#0xffdf     ; [CPU_] |1019| 
         00000006 FFDF 
     721                      .dwpsn  file "C:\Users\a0221343\Git\bootROM\f28004x_bootrom\F28004x_ROM_dev_PG2.0\F28004x_ROM\driverl
     722 00000007 0201          MOVB      ACC,#1                ; [CPU_] |1020| 
     723 00000008 0742          ADDL      ACC,*-SP[2]           ; [CPU_] |1020| 
     724 00000009 8AA9          MOVL      XAR4,ACC              ; [CPU_] |1020| 
     725 0000000a 1AC4          OR        *+XAR4[0],#0x0020     ; [CPU_] |1020| 
         0000000b 0020 
     726                      .dwpsn  file "C:\Users\a0221343\Git\bootROM\f28004x_bootrom\F28004x_ROM_dev_PG2.0\F28004x_ROM\driverl
     727 0000000c FE82          SUBB      SP,#2                 ; [CPU_U] 
     728                      .dwcfi  cfa_offset, -2
     729              $C$DW$48        .dwtag  DW_TAG_TI_branch
     730                      .dwattr $C$DW$48, DW_AT_low_pc(0x00)
     731                      .dwattr $C$DW$48, DW_AT_TI_return
     732 0000000d 0006          LRETR     ; [CPU_] 
     733                      ; return occurs ; [] 
     734                      .dwattr $C$DW$45, DW_AT_TI_end_file("C:\Users\a0221343\Git\bootROM\f28004x_bootrom\F28004x_ROM_dev_PG
     735                      .dwattr $C$DW$45, DW_AT_TI_end_line(0x3fd)
     736                      .dwattr $C$DW$45, DW_AT_TI_end_column(0x01)
     737                      .dwendentry
     738                      .dwendtag $C$DW$45
     739              
     740 00000000               .sect   ".text:_SCI_setConfig"
     741                      .clink
     742                      .global _SCI_setConfig
     743              
     744              $C$DW$49        .dwtag  DW_TAG_subprogram, DW_AT_name("SCI_setConfig")
     745                      .dwattr $C$DW$49, DW_AT_low_pc(_SCI_setConfig)
     746                      .dwattr $C$DW$49, DW_AT_high_pc(0x00)
     747                      .dwattr $C$DW$49, DW_AT_TI_symbol_name("_SCI_setConfig")
     748                      .dwattr $C$DW$49, DW_AT_external
     749                      .dwattr $C$DW$49, DW_AT_TI_begin_file("C:/Users/a0221343/Git/bootROM/f28004x_bootrom/F28004x_ROM_dev_
     750                      .dwattr $C$DW$49, DW_AT_TI_begin_line(0x15)
     751                      .dwattr $C$DW$49, DW_AT_TI_begin_column(0x01)
     752                      .dwattr $C$DW$49, DW_AT_TI_max_frame_size(-6)
     753                      .dwpsn  file "C:/Users/a0221343/Git/bootROM/f28004x_bootrom/F28004x_ROM_dev_PG2.0/F28004x_ROM/driverl
     754              
     755                      .dwfde $C$DW$CIE, _SCI_setConfig
     756              $C$DW$50        .dwtag  DW_TAG_formal_parameter, DW_AT_name("base")
     757                      .dwattr $C$DW$50, DW_AT_TI_symbol_name("_base")
TMS320C2000 Assembler PC v6.4.4 Tue Feb 14 14:43:15 2017

Tools Copyright (c) 1996-2015 Texas Instruments Incorporated
C:\Users\a0221343\AppData\Local\Temp\0049210                         PAGE   15

     758                      .dwattr $C$DW$50, DW_AT_type(*$C$DW$T$21)
     759                      .dwattr $C$DW$50, DW_AT_location[DW_OP_reg0]
     760              $C$DW$51        .dwtag  DW_TAG_formal_parameter, DW_AT_name("lspclkHz")
     761                      .dwattr $C$DW$51, DW_AT_TI_symbol_name("_lspclkHz")
     762                      .dwattr $C$DW$51, DW_AT_type(*$C$DW$T$21)
     763                      .dwattr $C$DW$51, DW_AT_location[DW_OP_breg20 -8]
     764              $C$DW$52        .dwtag  DW_TAG_formal_parameter, DW_AT_name("baud")
     765                      .dwattr $C$DW$52, DW_AT_TI_symbol_name("_baud")
     766                      .dwattr $C$DW$52, DW_AT_type(*$C$DW$T$21)
     767                      .dwattr $C$DW$52, DW_AT_location[DW_OP_breg20 -10]
     768              $C$DW$53        .dwtag  DW_TAG_formal_parameter, DW_AT_name("config")
     769                      .dwattr $C$DW$53, DW_AT_TI_symbol_name("_config")
     770                      .dwattr $C$DW$53, DW_AT_type(*$C$DW$T$21)
     771                      .dwattr $C$DW$53, DW_AT_location[DW_OP_breg20 -12]
     772              
     773              ;***************************************************************
     774              ;* FNAME: _SCI_setConfig                FR SIZE:   4           *
     775              ;*                                                             *
     776              ;* FUNCTION ENVIRONMENT                                        *
     777              ;*                                                             *
     778              ;* FUNCTION PROPERTIES                                         *
     779              ;*                            0 Parameter,  4 Auto,  0 SOE     *
     780              ;***************************************************************
     781              
     782 00000000       _SCI_setConfig:
     783                      .dwcfi  cfa_offset, -2
     784                      .dwcfi  save_reg_to_mem, 26, 0
     785 00000000 FE04          ADDB      SP,#4                 ; [CPU_U] 
     786                      .dwcfi  cfa_offset, -6
     787              $C$DW$54        .dwtag  DW_TAG_variable, DW_AT_name("base")
     788                      .dwattr $C$DW$54, DW_AT_TI_symbol_name("_base")
     789                      .dwattr $C$DW$54, DW_AT_type(*$C$DW$T$21)
     790                      .dwattr $C$DW$54, DW_AT_location[DW_OP_breg20 -2]
     791              $C$DW$55        .dwtag  DW_TAG_variable, DW_AT_name("divider")
     792                      .dwattr $C$DW$55, DW_AT_TI_symbol_name("_divider")
     793                      .dwattr $C$DW$55, DW_AT_type(*$C$DW$T$21)
     794                      .dwattr $C$DW$55, DW_AT_location[DW_OP_breg20 -4]
     795 00000001 1E42          MOVL      *-SP[2],ACC           ; [CPU_] |22| 
     796                      .dwpsn  file "C:/Users/a0221343/Git/bootROM/f28004x_bootrom/F28004x_ROM_dev_PG2.0/F28004x_ROM/driverl
     797              $C$DW$56        .dwtag  DW_TAG_TI_branch
     798                      .dwattr $C$DW$56, DW_AT_low_pc(0x00)
     799                      .dwattr $C$DW$56, DW_AT_name("_SCI_disableModule")
     800                      .dwattr $C$DW$56, DW_AT_TI_call
     801 00000002 7640+         LCR       #_SCI_disableModule   ; [CPU_] |36| 
         00000003 0000 
     802                      ; call occurs [#_SCI_disableModule] ; [] |36| 
     803                      .dwpsn  file "C:/Users/a0221343/Git/bootROM/f28004x_bootrom/F28004x_ROM_dev_PG2.0/F28004x_ROM/driverl
     804 00000004 064A          MOVL      ACC,*-SP[10]          ; [CPU_] |41| 
     805 00000005 FF32          LSL       ACC,3                 ; [CPU_] |41| 
     806 00000006 1EA6          MOVL      XAR6,ACC              ; [CPU_] |41| 
     807 00000007 A348          MOVL      P,*-SP[8]             ; [CPU_] |41| 
     808 00000008 0200          MOVB      ACC,#0                ; [CPU_] |41| 
     809 00000009 F61F          RPT       #31
     810 0000000a 5617  ||     SUBCUL    ACC,XAR6              ; [CPU_] |41| 
         0000000b 00A6 
TMS320C2000 Assembler PC v6.4.4 Tue Feb 14 14:43:15 2017

Tools Copyright (c) 1996-2015 Texas Instruments Incorporated
C:\Users\a0221343\AppData\Local\Temp\0049210                         PAGE   16

     811 0000000c A9A9          MOVL      ACC,P                 ; [CPU_] |41| 
     812 0000000d 1901          SUBB      ACC,#1                ; [CPU_] |41| 
     813 0000000e 1E44          MOVL      *-SP[4],ACC           ; [CPU_] |41| 
     814                      .dwpsn  file "C:/Users/a0221343/Git/bootROM/f28004x_bootrom/F28004x_ROM_dev_PG2.0/F28004x_ROM/driverl
     815 0000000f 8F00          MOVL      XAR4,#65280           ; [CPU_U] |46| 
         00000010 FF00 
     816 00000011 2901          CLRC      SXM                   ; [CPU_] 
     817 00000012 A8A9          MOVL      ACC,XAR4              ; [CPU_] |46| 
     818 00000013 8A42          MOVL      XAR4,*-SP[2]          ; [CPU_] |46| 
     819 00000014 CE44          AND       AL,*-SP[4]            ; [CPU_] |46| 
     820 00000015 CF43          AND       AH,*-SP[3]            ; [CPU_] |46| 
     821 00000016 FF47          SFR       ACC,8                 ; [CPU_] |46| 
     822 00000017 96D4          MOV       *+XAR4[2],AL          ; [CPU_] |46| 
     823                      .dwpsn  file "C:/Users/a0221343/Git/bootROM/f28004x_bootrom/F28004x_ROM_dev_PG2.0/F28004x_ROM/driverl
     824 00000018 8A42          MOVL      XAR4,*-SP[2]          ; [CPU_] |47| 
     825 00000019 9244          MOV       AL,*-SP[4]            ; [CPU_] |47| 
     826 0000001a 90FF          ANDB      AL,#0xff              ; [CPU_] |47| 
     827 0000001b 96DC          MOV       *+XAR4[3],AL          ; [CPU_] |47| 
     828                      .dwpsn  file "C:/Users/a0221343/Git/bootROM/f28004x_bootrom/F28004x_ROM_dev_PG2.0/F28004x_ROM/driverl
     829 0000001c 8A42          MOVL      XAR4,*-SP[2]          ; [CPU_] |52| 
     830 0000001d CCC4          AND       AL,*+XAR4[0],#0xff18  ; [CPU_] |52| 
         0000001e FF18 
     831 0000001f CA4C          OR        AL,*-SP[12]           ; [CPU_] |52| 
     832 00000020 96C4          MOV       *+XAR4[0],AL          ; [CPU_] |52| 
     833                      .dwpsn  file "C:/Users/a0221343/Git/bootROM/f28004x_bootrom/F28004x_ROM_dev_PG2.0/F28004x_ROM/driverl
     834 00000021 0642          MOVL      ACC,*-SP[2]           ; [CPU_] |60| 
     835              $C$DW$57        .dwtag  DW_TAG_TI_branch
     836                      .dwattr $C$DW$57, DW_AT_low_pc(0x00)
     837                      .dwattr $C$DW$57, DW_AT_name("_SCI_enableModule")
     838                      .dwattr $C$DW$57, DW_AT_TI_call
     839 00000022 7640+         LCR       #_SCI_enableModule    ; [CPU_] |60| 
         00000023 0000 
     840                      ; call occurs [#_SCI_enableModule] ; [] |60| 
     841                      .dwpsn  file "C:/Users/a0221343/Git/bootROM/f28004x_bootrom/F28004x_ROM_dev_PG2.0/F28004x_ROM/driverl
     842 00000024 FE84          SUBB      SP,#4                 ; [CPU_U] 
     843                      .dwcfi  cfa_offset, -2
     844              $C$DW$58        .dwtag  DW_TAG_TI_branch
     845                      .dwattr $C$DW$58, DW_AT_low_pc(0x00)
     846                      .dwattr $C$DW$58, DW_AT_TI_return
     847 00000025 0006          LRETR     ; [CPU_] 
     848                      ; return occurs ; [] 
     849                      .dwattr $C$DW$49, DW_AT_TI_end_file("C:/Users/a0221343/Git/bootROM/f28004x_bootrom/F28004x_ROM_dev_PG
     850                      .dwattr $C$DW$49, DW_AT_TI_end_line(0x3d)
     851                      .dwattr $C$DW$49, DW_AT_TI_end_column(0x01)
     852                      .dwendentry
     853                      .dwendtag $C$DW$49
     854              
     855 00000000               .sect   ".text:_SCI_writeCharArray"
     856                      .clink
     857                      .global _SCI_writeCharArray
     858              
     859              $C$DW$59        .dwtag  DW_TAG_subprogram, DW_AT_name("SCI_writeCharArray")
     860                      .dwattr $C$DW$59, DW_AT_low_pc(_SCI_writeCharArray)
     861                      .dwattr $C$DW$59, DW_AT_high_pc(0x00)
     862                      .dwattr $C$DW$59, DW_AT_TI_symbol_name("_SCI_writeCharArray")
TMS320C2000 Assembler PC v6.4.4 Tue Feb 14 14:43:15 2017

Tools Copyright (c) 1996-2015 Texas Instruments Incorporated
C:\Users\a0221343\AppData\Local\Temp\0049210                         PAGE   17

     863                      .dwattr $C$DW$59, DW_AT_external
     864                      .dwattr $C$DW$59, DW_AT_TI_begin_file("C:/Users/a0221343/Git/bootROM/f28004x_bootrom/F28004x_ROM_dev_
     865                      .dwattr $C$DW$59, DW_AT_TI_begin_line(0x45)
     866                      .dwattr $C$DW$59, DW_AT_TI_begin_column(0x01)
     867                      .dwattr $C$DW$59, DW_AT_TI_max_frame_size(-8)
     868                      .dwpsn  file "C:/Users/a0221343/Git/bootROM/f28004x_bootrom/F28004x_ROM_dev_PG2.0/F28004x_ROM/driverl
     869              
     870                      .dwfde $C$DW$CIE, _SCI_writeCharArray
     871              $C$DW$60        .dwtag  DW_TAG_formal_parameter, DW_AT_name("base")
     872                      .dwattr $C$DW$60, DW_AT_TI_symbol_name("_base")
     873                      .dwattr $C$DW$60, DW_AT_type(*$C$DW$T$21)
     874                      .dwattr $C$DW$60, DW_AT_location[DW_OP_reg0]
     875              $C$DW$61        .dwtag  DW_TAG_formal_parameter, DW_AT_name("array")
     876                      .dwattr $C$DW$61, DW_AT_TI_symbol_name("_array")
     877                      .dwattr $C$DW$61, DW_AT_type(*$C$DW$T$36)
     878                      .dwattr $C$DW$61, DW_AT_location[DW_OP_reg12]
     879              $C$DW$62        .dwtag  DW_TAG_formal_parameter, DW_AT_name("length")
     880                      .dwattr $C$DW$62, DW_AT_TI_symbol_name("_length")
     881                      .dwattr $C$DW$62, DW_AT_type(*$C$DW$T$35)
     882                      .dwattr $C$DW$62, DW_AT_location[DW_OP_reg14]
     883              
     884              ;***************************************************************
     885              ;* FNAME: _SCI_writeCharArray           FR SIZE:   6           *
     886              ;*                                                             *
     887              ;* FUNCTION ENVIRONMENT                                        *
     888              ;*                                                             *
     889              ;* FUNCTION PROPERTIES                                         *
     890              ;*                            0 Parameter,  6 Auto,  0 SOE     *
     891              ;***************************************************************
     892              
     893 00000000       _SCI_writeCharArray:
     894                      .dwcfi  cfa_offset, -2
     895                      .dwcfi  save_reg_to_mem, 26, 0
     896 00000000 FE06          ADDB      SP,#6                 ; [CPU_U] 
     897                      .dwcfi  cfa_offset, -8
     898              $C$DW$63        .dwtag  DW_TAG_variable, DW_AT_name("base")
     899                      .dwattr $C$DW$63, DW_AT_TI_symbol_name("_base")
     900                      .dwattr $C$DW$63, DW_AT_type(*$C$DW$T$21)
     901                      .dwattr $C$DW$63, DW_AT_location[DW_OP_breg20 -2]
     902              $C$DW$64        .dwtag  DW_TAG_variable, DW_AT_name("array")
     903                      .dwattr $C$DW$64, DW_AT_TI_symbol_name("_array")
     904                      .dwattr $C$DW$64, DW_AT_type(*$C$DW$T$36)
     905                      .dwattr $C$DW$64, DW_AT_location[DW_OP_breg20 -4]
     906              $C$DW$65        .dwtag  DW_TAG_variable, DW_AT_name("length")
     907                      .dwattr $C$DW$65, DW_AT_TI_symbol_name("_length")
     908                      .dwattr $C$DW$65, DW_AT_type(*$C$DW$T$35)
     909                      .dwattr $C$DW$65, DW_AT_location[DW_OP_breg20 -5]
     910              $C$DW$66        .dwtag  DW_TAG_variable, DW_AT_name("i")
     911                      .dwattr $C$DW$66, DW_AT_TI_symbol_name("_i")
     912                      .dwattr $C$DW$66, DW_AT_type(*$C$DW$T$35)
     913                      .dwattr $C$DW$66, DW_AT_location[DW_OP_breg20 -6]
     914 00000001 7D45          MOV       *-SP[5],AR5           ; [CPU_] |70| 
     915 00000002 A844          MOVL      *-SP[4],XAR4          ; [CPU_] |70| 
     916 00000003 1E42          MOVL      *-SP[2],ACC           ; [CPU_] |70| 
     917                      .dwpsn  file "C:/Users/a0221343/Git/bootROM/f28004x_bootrom/F28004x_ROM_dev_PG2.0/F28004x_ROM/driverl
TMS320C2000 Assembler PC v6.4.4 Tue Feb 14 14:43:15 2017

Tools Copyright (c) 1996-2015 Texas Instruments Incorporated
C:\Users\a0221343\AppData\Local\Temp\0049210                         PAGE   18

     918              $C$DW$67        .dwtag  DW_TAG_TI_branch
     919                      .dwattr $C$DW$67, DW_AT_low_pc(0x00)
     920                      .dwattr $C$DW$67, DW_AT_name("_SCI_isFIFOEnabled")
     921                      .dwattr $C$DW$67, DW_AT_TI_call
     922 00000004 7640+         LCR       #_SCI_isFIFOEnabled   ; [CPU_] |80| 
         00000005 0000 
     923                      ; call occurs [#_SCI_isFIFOEnabled] ; [] |80| 
     924 00000006 5200          CMPB      AL,#0                 ; [CPU_] |80| 
     925 00000007 EC18          BF        $C$L12,EQ             ; [CPU_] |80| 
     926                      ; branchcc occurs ; [] |80| 
     927                      .dwpsn  file "C:/Users/a0221343/Git/bootROM/f28004x_bootrom/F28004x_ROM_dev_PG2.0/F28004x_ROM/driverl
     928 00000008 2B46          MOV       *-SP[6],#0            ; [CPU_] |86| 
     929                      .dwpsn  file "C:/Users/a0221343/Git/bootROM/f28004x_bootrom/F28004x_ROM_dev_PG2.0/F28004x_ROM/driverl
     930 00000009 9245          MOV       AL,*-SP[5]            ; [CPU_] |86| 
     931 0000000a 5446          CMP       AL,*-SP[6]            ; [CPU_] |86| 
     932 0000000b 56C9          BF        $C$L14,LOS            ; [CPU_] |86| 
         0000000c 002A 
     933                      ; branchcc occurs ; [] |86| 
     934                      .dwpsn  file "C:/Users/a0221343/Git/bootROM/f28004x_bootrom/F28004x_ROM_dev_PG2.0/F28004x_ROM/driverl
     935 0000000d       $C$L11:    
     936                      .dwpsn  file "C:/Users/a0221343/Git/bootROM/f28004x_bootrom/F28004x_ROM_dev_PG2.0/F28004x_ROM/driverl
     937 0000000d 0642          MOVL      ACC,*-SP[2]           ; [CPU_] |91| 
     938              $C$DW$68        .dwtag  DW_TAG_TI_branch
     939                      .dwattr $C$DW$68, DW_AT_low_pc(0x00)
     940                      .dwattr $C$DW$68, DW_AT_name("_SCI_getTxFIFOStatus")
     941                      .dwattr $C$DW$68, DW_AT_TI_call
     942 0000000e 7640+         LCR       #_SCI_getTxFIFOStatus ; [CPU_] |91| 
         0000000f 0000 
     943                      ; call occurs [#_SCI_getTxFIFOStatus] ; [] |91| 
     944 00000010 520F          CMPB      AL,#15                ; [CPU_] |91| 
     945 00000011 ECFC          BF        $C$L11,EQ             ; [CPU_] |91| 
     946                      ; branchcc occurs ; [] |91| 
     947                      .dwpsn  file "C:/Users/a0221343/Git/bootROM/f28004x_bootrom/F28004x_ROM_dev_PG2.0/F28004x_ROM/driverl
     948 00000012 8344          MOVL      XAR5,*-SP[4]          ; [CPU_] |98| 
     949 00000013 5846          MOVZ      AR0,*-SP[6]           ; [CPU_] |98| 
     950 00000014 0209          MOVB      ACC,#9                ; [CPU_] |98| 
     951 00000015 0742          ADDL      ACC,*-SP[2]           ; [CPU_] |98| 
     952 00000016 8AA9          MOVL      XAR4,ACC              ; [CPU_] |98| 
     953 00000017 8895          MOVZ      AR6,*+XAR5[AR0]       ; [CPU_] |98| 
     954 00000018 7EC4          MOV       *+XAR4[0],AR6         ; [CPU_] |98| 
     955                      .dwpsn  file "C:/Users/a0221343/Git/bootROM/f28004x_bootrom/F28004x_ROM_dev_PG2.0/F28004x_ROM/driverl
     956 00000019 0A46          INC       *-SP[6]               ; [CPU_] |86| 
     957                      .dwpsn  file "C:/Users/a0221343/Git/bootROM/f28004x_bootrom/F28004x_ROM_dev_PG2.0/F28004x_ROM/driverl
     958 0000001a 9245          MOV       AL,*-SP[5]            ; [CPU_] |86| 
     959 0000001b 5446          CMP       AL,*-SP[6]            ; [CPU_] |86| 
     960 0000001c 56C6          BF        $C$L11,HI             ; [CPU_] |86| 
         0000001d FFF1 
     961                      ; branchcc occurs ; [] |86| 
     962                      .dwpsn  file "C:/Users/a0221343/Git/bootROM/f28004x_bootrom/F28004x_ROM_dev_PG2.0/F28004x_ROM/driverl
     963 0000001e 6F17          B         $C$L14,UNC            ; [CPU_] |100| 
     964                      ; branch occurs ; [] |100| 
     965 0000001f       $C$L12:    
     966                      .dwpsn  file "C:/Users/a0221343/Git/bootROM/f28004x_bootrom/F28004x_ROM_dev_PG2.0/F28004x_ROM/driverl
     967 0000001f 2B46          MOV       *-SP[6],#0            ; [CPU_] |107| 
     968                      .dwpsn  file "C:/Users/a0221343/Git/bootROM/f28004x_bootrom/F28004x_ROM_dev_PG2.0/F28004x_ROM/driverl
TMS320C2000 Assembler PC v6.4.4 Tue Feb 14 14:43:15 2017

Tools Copyright (c) 1996-2015 Texas Instruments Incorporated
C:\Users\a0221343\AppData\Local\Temp\0049210                         PAGE   19

     969 00000020 9245          MOV       AL,*-SP[5]            ; [CPU_] |107| 
     970 00000021 5446          CMP       AL,*-SP[6]            ; [CPU_] |107| 
     971 00000022 56C9          BF        $C$L14,LOS            ; [CPU_] |107| 
         00000023 0013 
     972                      ; branchcc occurs ; [] |107| 
     973                      .dwpsn  file "C:/Users/a0221343/Git/bootROM/f28004x_bootrom/F28004x_ROM_dev_PG2.0/F28004x_ROM/driverl
     974 00000024       $C$L13:    
     975                      .dwpsn  file "C:/Users/a0221343/Git/bootROM/f28004x_bootrom/F28004x_ROM_dev_PG2.0/F28004x_ROM/driverl
     976 00000024 0642          MOVL      ACC,*-SP[2]           ; [CPU_] |112| 
     977              $C$DW$69        .dwtag  DW_TAG_TI_branch
     978                      .dwattr $C$DW$69, DW_AT_low_pc(0x00)
     979                      .dwattr $C$DW$69, DW_AT_name("_SCI_isSpaceAvailableNonFIFO")
     980                      .dwattr $C$DW$69, DW_AT_TI_call
     981 00000025 7640+         LCR       #_SCI_isSpaceAvailableNonFIFO ; [CPU_] |112| 
         00000026 0000 
     982                      ; call occurs [#_SCI_isSpaceAvailableNonFIFO] ; [] |112| 
     983 00000027 5200          CMPB      AL,#0                 ; [CPU_] |112| 
     984 00000028 ECFC          BF        $C$L13,EQ             ; [CPU_] |112| 
     985                      ; branchcc occurs ; [] |112| 
     986                      .dwpsn  file "C:/Users/a0221343/Git/bootROM/f28004x_bootrom/F28004x_ROM_dev_PG2.0/F28004x_ROM/driverl
     987 00000029 8344          MOVL      XAR5,*-SP[4]          ; [CPU_] |119| 
     988 0000002a 5846          MOVZ      AR0,*-SP[6]           ; [CPU_] |119| 
     989 0000002b 0209          MOVB      ACC,#9                ; [CPU_] |119| 
     990 0000002c 0742          ADDL      ACC,*-SP[2]           ; [CPU_] |119| 
     991 0000002d 8AA9          MOVL      XAR4,ACC              ; [CPU_] |119| 
     992 0000002e 8895          MOVZ      AR6,*+XAR5[AR0]       ; [CPU_] |119| 
     993 0000002f 7EC4          MOV       *+XAR4[0],AR6         ; [CPU_] |119| 
     994                      .dwpsn  file "C:/Users/a0221343/Git/bootROM/f28004x_bootrom/F28004x_ROM_dev_PG2.0/F28004x_ROM/driverl
     995 00000030 0A46          INC       *-SP[6]               ; [CPU_] |107| 
     996                      .dwpsn  file "C:/Users/a0221343/Git/bootROM/f28004x_bootrom/F28004x_ROM_dev_PG2.0/F28004x_ROM/driverl
     997 00000031 9245          MOV       AL,*-SP[5]            ; [CPU_] |107| 
     998 00000032 5446          CMP       AL,*-SP[6]            ; [CPU_] |107| 
     999 00000033 56C6          BF        $C$L13,HI             ; [CPU_] |107| 
         00000034 FFF1 
    1000                      ; branchcc occurs ; [] |107| 
    1001                      .dwpsn  file "C:/Users/a0221343/Git/bootROM/f28004x_bootrom/F28004x_ROM_dev_PG2.0/F28004x_ROM/driverl
    1002 00000035       $C$L14:    
    1003 00000035 FE86          SUBB      SP,#6                 ; [CPU_U] 
    1004                      .dwcfi  cfa_offset, -2
    1005              $C$DW$70        .dwtag  DW_TAG_TI_branch
    1006                      .dwattr $C$DW$70, DW_AT_low_pc(0x00)
    1007                      .dwattr $C$DW$70, DW_AT_TI_return
    1008 00000036 0006          LRETR     ; [CPU_] 
    1009                      ; return occurs ; [] 
    1010                      .dwattr $C$DW$59, DW_AT_TI_end_file("C:/Users/a0221343/Git/bootROM/f28004x_bootrom/F28004x_ROM_dev_PG
    1011                      .dwattr $C$DW$59, DW_AT_TI_end_line(0x7a)
    1012                      .dwattr $C$DW$59, DW_AT_TI_end_column(0x01)
    1013                      .dwendentry
    1014                      .dwendtag $C$DW$59
    1015              
    1016 00000000               .sect   ".text:_SCI_readCharArray"
    1017                      .clink
    1018                      .global _SCI_readCharArray
    1019              
    1020              $C$DW$71        .dwtag  DW_TAG_subprogram, DW_AT_name("SCI_readCharArray")
TMS320C2000 Assembler PC v6.4.4 Tue Feb 14 14:43:15 2017

Tools Copyright (c) 1996-2015 Texas Instruments Incorporated
C:\Users\a0221343\AppData\Local\Temp\0049210                         PAGE   20

    1021                      .dwattr $C$DW$71, DW_AT_low_pc(_SCI_readCharArray)
    1022                      .dwattr $C$DW$71, DW_AT_high_pc(0x00)
    1023                      .dwattr $C$DW$71, DW_AT_TI_symbol_name("_SCI_readCharArray")
    1024                      .dwattr $C$DW$71, DW_AT_external
    1025                      .dwattr $C$DW$71, DW_AT_TI_begin_file("C:/Users/a0221343/Git/bootROM/f28004x_bootrom/F28004x_ROM_dev_
    1026                      .dwattr $C$DW$71, DW_AT_TI_begin_line(0x82)
    1027                      .dwattr $C$DW$71, DW_AT_TI_begin_column(0x01)
    1028                      .dwattr $C$DW$71, DW_AT_TI_max_frame_size(-8)
    1029                      .dwpsn  file "C:/Users/a0221343/Git/bootROM/f28004x_bootrom/F28004x_ROM_dev_PG2.0/F28004x_ROM/driverl
    1030              
    1031                      .dwfde $C$DW$CIE, _SCI_readCharArray
    1032              $C$DW$72        .dwtag  DW_TAG_formal_parameter, DW_AT_name("base")
    1033                      .dwattr $C$DW$72, DW_AT_TI_symbol_name("_base")
    1034                      .dwattr $C$DW$72, DW_AT_type(*$C$DW$T$21)
    1035                      .dwattr $C$DW$72, DW_AT_location[DW_OP_reg0]
    1036              $C$DW$73        .dwtag  DW_TAG_formal_parameter, DW_AT_name("array")
    1037                      .dwattr $C$DW$73, DW_AT_TI_symbol_name("_array")
    1038                      .dwattr $C$DW$73, DW_AT_type(*$C$DW$T$36)
    1039                      .dwattr $C$DW$73, DW_AT_location[DW_OP_reg12]
    1040              $C$DW$74        .dwtag  DW_TAG_formal_parameter, DW_AT_name("length")
    1041                      .dwattr $C$DW$74, DW_AT_TI_symbol_name("_length")
    1042                      .dwattr $C$DW$74, DW_AT_type(*$C$DW$T$35)
    1043                      .dwattr $C$DW$74, DW_AT_location[DW_OP_reg14]
    1044              
    1045              ;***************************************************************
    1046              ;* FNAME: _SCI_readCharArray            FR SIZE:   6           *
    1047              ;*                                                             *
    1048              ;* FUNCTION ENVIRONMENT                                        *
    1049              ;*                                                             *
    1050              ;* FUNCTION PROPERTIES                                         *
    1051              ;*                            0 Parameter,  6 Auto,  0 SOE     *
    1052              ;***************************************************************
    1053              
    1054 00000000       _SCI_readCharArray:
    1055                      .dwcfi  cfa_offset, -2
    1056                      .dwcfi  save_reg_to_mem, 26, 0
    1057 00000000 FE06          ADDB      SP,#6                 ; [CPU_U] 
    1058                      .dwcfi  cfa_offset, -8
    1059              $C$DW$75        .dwtag  DW_TAG_variable, DW_AT_name("base")
    1060                      .dwattr $C$DW$75, DW_AT_TI_symbol_name("_base")
    1061                      .dwattr $C$DW$75, DW_AT_type(*$C$DW$T$21)
    1062                      .dwattr $C$DW$75, DW_AT_location[DW_OP_breg20 -2]
    1063              $C$DW$76        .dwtag  DW_TAG_variable, DW_AT_name("array")
    1064                      .dwattr $C$DW$76, DW_AT_TI_symbol_name("_array")
    1065                      .dwattr $C$DW$76, DW_AT_type(*$C$DW$T$36)
    1066                      .dwattr $C$DW$76, DW_AT_location[DW_OP_breg20 -4]
    1067              $C$DW$77        .dwtag  DW_TAG_variable, DW_AT_name("length")
    1068                      .dwattr $C$DW$77, DW_AT_TI_symbol_name("_length")
    1069                      .dwattr $C$DW$77, DW_AT_type(*$C$DW$T$35)
    1070                      .dwattr $C$DW$77, DW_AT_location[DW_OP_breg20 -5]
    1071              $C$DW$78        .dwtag  DW_TAG_variable, DW_AT_name("i")
    1072                      .dwattr $C$DW$78, DW_AT_TI_symbol_name("_i")
    1073                      .dwattr $C$DW$78, DW_AT_type(*$C$DW$T$35)
    1074                      .dwattr $C$DW$78, DW_AT_location[DW_OP_breg20 -6]
    1075 00000001 7D45          MOV       *-SP[5],AR5           ; [CPU_] |131| 
TMS320C2000 Assembler PC v6.4.4 Tue Feb 14 14:43:15 2017

Tools Copyright (c) 1996-2015 Texas Instruments Incorporated
C:\Users\a0221343\AppData\Local\Temp\0049210                         PAGE   21

    1076 00000002 A844          MOVL      *-SP[4],XAR4          ; [CPU_] |131| 
    1077 00000003 1E42          MOVL      *-SP[2],ACC           ; [CPU_] |131| 
    1078                      .dwpsn  file "C:/Users/a0221343/Git/bootROM/f28004x_bootrom/F28004x_ROM_dev_PG2.0/F28004x_ROM/driverl
    1079              $C$DW$79        .dwtag  DW_TAG_TI_branch
    1080                      .dwattr $C$DW$79, DW_AT_low_pc(0x00)
    1081                      .dwattr $C$DW$79, DW_AT_name("_SCI_isFIFOEnabled")
    1082                      .dwattr $C$DW$79, DW_AT_TI_call
    1083 00000004 7640+         LCR       #_SCI_isFIFOEnabled   ; [CPU_] |141| 
         00000005 0000 
    1084                      ; call occurs [#_SCI_isFIFOEnabled] ; [] |141| 
    1085 00000006 5200          CMPB      AL,#0                 ; [CPU_] |141| 
    1086 00000007 EC17          BF        $C$L16,EQ             ; [CPU_] |141| 
    1087                      ; branchcc occurs ; [] |141| 
    1088                      .dwpsn  file "C:/Users/a0221343/Git/bootROM/f28004x_bootrom/F28004x_ROM_dev_PG2.0/F28004x_ROM/driverl
    1089 00000008 2B46          MOV       *-SP[6],#0            ; [CPU_] |147| 
    1090                      .dwpsn  file "C:/Users/a0221343/Git/bootROM/f28004x_bootrom/F28004x_ROM_dev_PG2.0/F28004x_ROM/driverl
    1091 00000009 9245          MOV       AL,*-SP[5]            ; [CPU_] |147| 
    1092 0000000a 5446          CMP       AL,*-SP[6]            ; [CPU_] |147| 
    1093 0000000b 56C9          BF        $C$L18,LOS            ; [CPU_] |147| 
         0000000c 0028 
    1094                      ; branchcc occurs ; [] |147| 
    1095                      .dwpsn  file "C:/Users/a0221343/Git/bootROM/f28004x_bootrom/F28004x_ROM_dev_PG2.0/F28004x_ROM/driverl
    1096 0000000d       $C$L15:    
    1097                      .dwpsn  file "C:/Users/a0221343/Git/bootROM/f28004x_bootrom/F28004x_ROM_dev_PG2.0/F28004x_ROM/driverl
    1098 0000000d 0642          MOVL      ACC,*-SP[2]           ; [CPU_] |152| 
    1099              $C$DW$80        .dwtag  DW_TAG_TI_branch
    1100                      .dwattr $C$DW$80, DW_AT_low_pc(0x00)
    1101                      .dwattr $C$DW$80, DW_AT_name("_SCI_getRxFIFOStatus")
    1102                      .dwattr $C$DW$80, DW_AT_TI_call
    1103 0000000e 7640+         LCR       #_SCI_getRxFIFOStatus ; [CPU_] |152| 
         0000000f 0000 
    1104                      ; call occurs [#_SCI_getRxFIFOStatus] ; [] |152| 
    1105 00000010 5200          CMPB      AL,#0                 ; [CPU_] |152| 
    1106 00000011 ECFC          BF        $C$L15,EQ             ; [CPU_] |152| 
    1107                      ; branchcc occurs ; [] |152| 
    1108                      .dwpsn  file "C:/Users/a0221343/Git/bootROM/f28004x_bootrom/F28004x_ROM_dev_PG2.0/F28004x_ROM/driverl
    1109 00000012 8A42          MOVL      XAR4,*-SP[2]          ; [CPU_] |159| 
    1110 00000013 5846          MOVZ      AR0,*-SP[6]           ; [CPU_] |159| 
    1111 00000014 92FC          MOV       AL,*+XAR4[7]          ; [CPU_] |159| 
    1112 00000015 8A44          MOVL      XAR4,*-SP[4]          ; [CPU_] |159| 
    1113 00000016 90FF          ANDB      AL,#0xff              ; [CPU_] |159| 
    1114 00000017 9694          MOV       *+XAR4[AR0],AL        ; [CPU_] |159| 
    1115                      .dwpsn  file "C:/Users/a0221343/Git/bootROM/f28004x_bootrom/F28004x_ROM_dev_PG2.0/F28004x_ROM/driverl
    1116 00000018 0A46          INC       *-SP[6]               ; [CPU_] |147| 
    1117                      .dwpsn  file "C:/Users/a0221343/Git/bootROM/f28004x_bootrom/F28004x_ROM_dev_PG2.0/F28004x_ROM/driverl
    1118 00000019 9245          MOV       AL,*-SP[5]            ; [CPU_] |147| 
    1119 0000001a 5446          CMP       AL,*-SP[6]            ; [CPU_] |147| 
    1120 0000001b 56C6          BF        $C$L15,HI             ; [CPU_] |147| 
         0000001c FFF2 
    1121                      ; branchcc occurs ; [] |147| 
    1122                      .dwpsn  file "C:/Users/a0221343/Git/bootROM/f28004x_bootrom/F28004x_ROM_dev_PG2.0/F28004x_ROM/driverl
    1123 0000001d 6F16          B         $C$L18,UNC            ; [CPU_] |162| 
    1124                      ; branch occurs ; [] |162| 
    1125 0000001e       $C$L16:    
    1126                      .dwpsn  file "C:/Users/a0221343/Git/bootROM/f28004x_bootrom/F28004x_ROM_dev_PG2.0/F28004x_ROM/driverl
TMS320C2000 Assembler PC v6.4.4 Tue Feb 14 14:43:15 2017

Tools Copyright (c) 1996-2015 Texas Instruments Incorporated
C:\Users\a0221343\AppData\Local\Temp\0049210                         PAGE   22

    1127 0000001e 2B46          MOV       *-SP[6],#0            ; [CPU_] |169| 
    1128                      .dwpsn  file "C:/Users/a0221343/Git/bootROM/f28004x_bootrom/F28004x_ROM_dev_PG2.0/F28004x_ROM/driverl
    1129 0000001f 9245          MOV       AL,*-SP[5]            ; [CPU_] |169| 
    1130 00000020 5446          CMP       AL,*-SP[6]            ; [CPU_] |169| 
    1131 00000021 56C9          BF        $C$L18,LOS            ; [CPU_] |169| 
         00000022 0012 
    1132                      ; branchcc occurs ; [] |169| 
    1133                      .dwpsn  file "C:/Users/a0221343/Git/bootROM/f28004x_bootrom/F28004x_ROM_dev_PG2.0/F28004x_ROM/driverl
    1134 00000023       $C$L17:    
    1135                      .dwpsn  file "C:/Users/a0221343/Git/bootROM/f28004x_bootrom/F28004x_ROM_dev_PG2.0/F28004x_ROM/driverl
    1136 00000023 0642          MOVL      ACC,*-SP[2]           ; [CPU_] |174| 
    1137              $C$DW$81        .dwtag  DW_TAG_TI_branch
    1138                      .dwattr $C$DW$81, DW_AT_low_pc(0x00)
    1139                      .dwattr $C$DW$81, DW_AT_name("_SCI_isDataAvailableNonFIFO")
    1140                      .dwattr $C$DW$81, DW_AT_TI_call
    1141 00000024 7640+         LCR       #_SCI_isDataAvailableNonFIFO ; [CPU_] |174| 
         00000025 0000 
    1142                      ; call occurs [#_SCI_isDataAvailableNonFIFO] ; [] |174| 
    1143 00000026 5200          CMPB      AL,#0                 ; [CPU_] |174| 
    1144 00000027 ECFC          BF        $C$L17,EQ             ; [CPU_] |174| 
    1145                      ; branchcc occurs ; [] |174| 
    1146                      .dwpsn  file "C:/Users/a0221343/Git/bootROM/f28004x_bootrom/F28004x_ROM_dev_PG2.0/F28004x_ROM/driverl
    1147 00000028 8A42          MOVL      XAR4,*-SP[2]          ; [CPU_] |181| 
    1148 00000029 5846          MOVZ      AR0,*-SP[6]           ; [CPU_] |181| 
    1149 0000002a 92FC          MOV       AL,*+XAR4[7]          ; [CPU_] |181| 
    1150 0000002b 8A44          MOVL      XAR4,*-SP[4]          ; [CPU_] |181| 
    1151 0000002c 90FF          ANDB      AL,#0xff              ; [CPU_] |181| 
    1152 0000002d 9694          MOV       *+XAR4[AR0],AL        ; [CPU_] |181| 
    1153                      .dwpsn  file "C:/Users/a0221343/Git/bootROM/f28004x_bootrom/F28004x_ROM_dev_PG2.0/F28004x_ROM/driverl
    1154 0000002e 0A46          INC       *-SP[6]               ; [CPU_] |169| 
    1155                      .dwpsn  file "C:/Users/a0221343/Git/bootROM/f28004x_bootrom/F28004x_ROM_dev_PG2.0/F28004x_ROM/driverl
    1156 0000002f 9245          MOV       AL,*-SP[5]            ; [CPU_] |169| 
    1157 00000030 5446          CMP       AL,*-SP[6]            ; [CPU_] |169| 
    1158 00000031 56C6          BF        $C$L17,HI             ; [CPU_] |169| 
         00000032 FFF2 
    1159                      ; branchcc occurs ; [] |169| 
    1160                      .dwpsn  file "C:/Users/a0221343/Git/bootROM/f28004x_bootrom/F28004x_ROM_dev_PG2.0/F28004x_ROM/driverl
    1161 00000033       $C$L18:    
    1162 00000033 FE86          SUBB      SP,#6                 ; [CPU_U] 
    1163                      .dwcfi  cfa_offset, -2
    1164              $C$DW$82        .dwtag  DW_TAG_TI_branch
    1165                      .dwattr $C$DW$82, DW_AT_low_pc(0x00)
    1166                      .dwattr $C$DW$82, DW_AT_TI_return
    1167 00000034 0006          LRETR     ; [CPU_] 
    1168                      ; return occurs ; [] 
    1169                      .dwattr $C$DW$71, DW_AT_TI_end_file("C:/Users/a0221343/Git/bootROM/f28004x_bootrom/F28004x_ROM_dev_PG
    1170                      .dwattr $C$DW$71, DW_AT_TI_end_line(0xb9)
    1171                      .dwattr $C$DW$71, DW_AT_TI_end_column(0x01)
    1172                      .dwendentry
    1173                      .dwendtag $C$DW$71
    1174              
    1175 00000000               .sect   ".text:_SCI_getRxInterruptNumber"
    1176                      .clink
    1177                      .global _SCI_getRxInterruptNumber
    1178              
TMS320C2000 Assembler PC v6.4.4 Tue Feb 14 14:43:15 2017

Tools Copyright (c) 1996-2015 Texas Instruments Incorporated
C:\Users\a0221343\AppData\Local\Temp\0049210                         PAGE   23

    1179              $C$DW$83        .dwtag  DW_TAG_subprogram, DW_AT_name("SCI_getRxInterruptNumber")
    1180                      .dwattr $C$DW$83, DW_AT_low_pc(_SCI_getRxInterruptNumber)
    1181                      .dwattr $C$DW$83, DW_AT_high_pc(0x00)
    1182                      .dwattr $C$DW$83, DW_AT_TI_symbol_name("_SCI_getRxInterruptNumber")
    1183                      .dwattr $C$DW$83, DW_AT_external
    1184                      .dwattr $C$DW$83, DW_AT_type(*$C$DW$T$21)
    1185                      .dwattr $C$DW$83, DW_AT_TI_begin_file("C:/Users/a0221343/Git/bootROM/f28004x_bootrom/F28004x_ROM_dev_
    1186                      .dwattr $C$DW$83, DW_AT_TI_begin_line(0xc1)
    1187                      .dwattr $C$DW$83, DW_AT_TI_begin_column(0x01)
    1188                      .dwattr $C$DW$83, DW_AT_TI_max_frame_size(-4)
    1189                      .dwpsn  file "C:/Users/a0221343/Git/bootROM/f28004x_bootrom/F28004x_ROM_dev_PG2.0/F28004x_ROM/driverl
    1190              
    1191                      .dwfde $C$DW$CIE, _SCI_getRxInterruptNumber
    1192              $C$DW$84        .dwtag  DW_TAG_formal_parameter, DW_AT_name("base")
    1193                      .dwattr $C$DW$84, DW_AT_TI_symbol_name("_base")
    1194                      .dwattr $C$DW$84, DW_AT_type(*$C$DW$T$21)
    1195                      .dwattr $C$DW$84, DW_AT_location[DW_OP_reg0]
    1196              
    1197              ;***************************************************************
    1198              ;* FNAME: _SCI_getRxInterruptNumber     FR SIZE:   2           *
    1199              ;*                                                             *
    1200              ;* FUNCTION ENVIRONMENT                                        *
    1201              ;*                                                             *
    1202              ;* FUNCTION PROPERTIES                                         *
    1203              ;*                            0 Parameter,  2 Auto,  0 SOE     *
    1204              ;***************************************************************
    1205              
    1206 00000000       _SCI_getRxInterruptNumber:
    1207                      .dwcfi  cfa_offset, -2
    1208                      .dwcfi  save_reg_to_mem, 26, 0
    1209 00000000 FE02          ADDB      SP,#2                 ; [CPU_U] 
    1210                      .dwcfi  cfa_offset, -4
    1211              $C$DW$85        .dwtag  DW_TAG_variable, DW_AT_name("base")
    1212                      .dwattr $C$DW$85, DW_AT_TI_symbol_name("_base")
    1213                      .dwattr $C$DW$85, DW_AT_type(*$C$DW$T$21)
    1214                      .dwattr $C$DW$85, DW_AT_location[DW_OP_breg20 -2]
    1215 00000001 1E42          MOVL      *-SP[2],ACC           ; [CPU_] |194| 
    1216                      .dwpsn  file "C:/Users/a0221343/Git/bootROM/f28004x_bootrom/F28004x_ROM_dev_PG2.0/F28004x_ROM/driverl
    1217 00000002 8F00          MOVL      XAR4,#29184           ; [CPU_U] |200| 
         00000003 7200 
    1218 00000004 A8A9          MOVL      ACC,XAR4              ; [CPU_] |200| 
    1219 00000005 0F42          CMPL      ACC,*-SP[2]           ; [CPU_] |200| 
    1220 00000006 ED05          BF        $C$L19,NEQ            ; [CPU_] |200| 
    1221                      ; branchcc occurs ; [] |200| 
    1222                      .dwpsn  file "C:/Users/a0221343/Git/bootROM/f28004x_bootrom/F28004x_ROM_dev_PG2.0/F28004x_ROM/driverl
    1223 00000007 28A9          MOV       AL,#2305              ; [CPU_] |202| 
         00000008 0901 
    1224 00000009 9B60          MOV       AH,#96                ; [CPU_] |202| 
    1225 0000000a 6F04          B         $C$L20,UNC            ; [CPU_] |202| 
    1226                      ; branch occurs ; [] |202| 
    1227 0000000b       $C$L19:    
    1228                      .dwpsn  file "C:/Users/a0221343/Git/bootROM/f28004x_bootrom/F28004x_ROM_dev_PG2.0/F28004x_ROM/driverl
    1229 0000000b 28A9          MOV       AL,#2307              ; [CPU_] |216| 
         0000000c 0903 
    1230 0000000d 9B62          MOV       AH,#98                ; [CPU_] |216| 
TMS320C2000 Assembler PC v6.4.4 Tue Feb 14 14:43:15 2017

Tools Copyright (c) 1996-2015 Texas Instruments Incorporated
C:\Users\a0221343\AppData\Local\Temp\0049210                         PAGE   24

    1231 0000000e       $C$L20:    
    1232                      .dwpsn  file "C:/Users/a0221343/Git/bootROM/f28004x_bootrom/F28004x_ROM_dev_PG2.0/F28004x_ROM/driverl
    1233 0000000e FE82          SUBB      SP,#2                 ; [CPU_U] 
    1234                      .dwcfi  cfa_offset, -2
    1235              $C$DW$86        .dwtag  DW_TAG_TI_branch
    1236                      .dwattr $C$DW$86, DW_AT_low_pc(0x00)
    1237                      .dwattr $C$DW$86, DW_AT_TI_return
    1238 0000000f 0006          LRETR     ; [CPU_] 
    1239                      ; return occurs ; [] 
    1240                      .dwattr $C$DW$83, DW_AT_TI_end_file("C:/Users/a0221343/Git/bootROM/f28004x_bootrom/F28004x_ROM_dev_PG
    1241                      .dwattr $C$DW$83, DW_AT_TI_end_line(0xda)
    1242                      .dwattr $C$DW$83, DW_AT_TI_end_column(0x01)
    1243                      .dwendentry
    1244                      .dwendtag $C$DW$83
    1245              
    1246 00000000               .sect   ".text:_SCI_getTxInterruptNumber"
    1247                      .clink
    1248                      .global _SCI_getTxInterruptNumber
    1249              
    1250              $C$DW$87        .dwtag  DW_TAG_subprogram, DW_AT_name("SCI_getTxInterruptNumber")
    1251                      .dwattr $C$DW$87, DW_AT_low_pc(_SCI_getTxInterruptNumber)
    1252                      .dwattr $C$DW$87, DW_AT_high_pc(0x00)
    1253                      .dwattr $C$DW$87, DW_AT_TI_symbol_name("_SCI_getTxInterruptNumber")
    1254                      .dwattr $C$DW$87, DW_AT_external
    1255                      .dwattr $C$DW$87, DW_AT_type(*$C$DW$T$21)
    1256                      .dwattr $C$DW$87, DW_AT_TI_begin_file("C:/Users/a0221343/Git/bootROM/f28004x_bootrom/F28004x_ROM_dev_
    1257                      .dwattr $C$DW$87, DW_AT_TI_begin_line(0xe2)
    1258                      .dwattr $C$DW$87, DW_AT_TI_begin_column(0x01)
    1259                      .dwattr $C$DW$87, DW_AT_TI_max_frame_size(-4)
    1260                      .dwpsn  file "C:/Users/a0221343/Git/bootROM/f28004x_bootrom/F28004x_ROM_dev_PG2.0/F28004x_ROM/driverl
    1261              
    1262                      .dwfde $C$DW$CIE, _SCI_getTxInterruptNumber
    1263              $C$DW$88        .dwtag  DW_TAG_formal_parameter, DW_AT_name("base")
    1264                      .dwattr $C$DW$88, DW_AT_TI_symbol_name("_base")
    1265                      .dwattr $C$DW$88, DW_AT_type(*$C$DW$T$21)
    1266                      .dwattr $C$DW$88, DW_AT_location[DW_OP_reg0]
    1267              
    1268              ;***************************************************************
    1269              ;* FNAME: _SCI_getTxInterruptNumber     FR SIZE:   2           *
    1270              ;*                                                             *
    1271              ;* FUNCTION ENVIRONMENT                                        *
    1272              ;*                                                             *
    1273              ;* FUNCTION PROPERTIES                                         *
    1274              ;*                            0 Parameter,  2 Auto,  0 SOE     *
    1275              ;***************************************************************
    1276              
    1277 00000000       _SCI_getTxInterruptNumber:
    1278                      .dwcfi  cfa_offset, -2
    1279                      .dwcfi  save_reg_to_mem, 26, 0
    1280 00000000 FE02          ADDB      SP,#2                 ; [CPU_U] 
    1281                      .dwcfi  cfa_offset, -4
    1282              $C$DW$89        .dwtag  DW_TAG_variable, DW_AT_name("base")
    1283                      .dwattr $C$DW$89, DW_AT_TI_symbol_name("_base")
    1284                      .dwattr $C$DW$89, DW_AT_type(*$C$DW$T$21)
    1285                      .dwattr $C$DW$89, DW_AT_location[DW_OP_breg20 -2]
TMS320C2000 Assembler PC v6.4.4 Tue Feb 14 14:43:15 2017

Tools Copyright (c) 1996-2015 Texas Instruments Incorporated
C:\Users\a0221343\AppData\Local\Temp\0049210                         PAGE   25

    1286 00000001 1E42          MOVL      *-SP[2],ACC           ; [CPU_] |227| 
    1287                      .dwpsn  file "C:/Users/a0221343/Git/bootROM/f28004x_bootrom/F28004x_ROM_dev_PG2.0/F28004x_ROM/driverl
    1288 00000002 8F00          MOVL      XAR4,#29184           ; [CPU_U] |233| 
         00000003 7200 
    1289 00000004 A8A9          MOVL      ACC,XAR4              ; [CPU_] |233| 
    1290 00000005 0F42          CMPL      ACC,*-SP[2]           ; [CPU_] |233| 
    1291 00000006 ED05          BF        $C$L21,NEQ            ; [CPU_] |233| 
    1292                      ; branchcc occurs ; [] |233| 
    1293                      .dwpsn  file "C:/Users/a0221343/Git/bootROM/f28004x_bootrom/F28004x_ROM_dev_PG2.0/F28004x_ROM/driverl
    1294 00000007 28A9          MOV       AL,#2306              ; [CPU_] |235| 
         00000008 0902 
    1295 00000009 9B61          MOV       AH,#97                ; [CPU_] |235| 
    1296 0000000a 6F04          B         $C$L22,UNC            ; [CPU_] |235| 
    1297                      ; branch occurs ; [] |235| 
    1298 0000000b       $C$L21:    
    1299                      .dwpsn  file "C:/Users/a0221343/Git/bootROM/f28004x_bootrom/F28004x_ROM_dev_PG2.0/F28004x_ROM/driverl
    1300 0000000b 28A9          MOV       AL,#2308              ; [CPU_] |249| 
         0000000c 0904 
    1301 0000000d 9B63          MOV       AH,#99                ; [CPU_] |249| 
    1302 0000000e       $C$L22:    
    1303                      .dwpsn  file "C:/Users/a0221343/Git/bootROM/f28004x_bootrom/F28004x_ROM_dev_PG2.0/F28004x_ROM/driverl
    1304 0000000e FE82          SUBB      SP,#2                 ; [CPU_U] 
    1305                      .dwcfi  cfa_offset, -2
    1306              $C$DW$90        .dwtag  DW_TAG_TI_branch
    1307                      .dwattr $C$DW$90, DW_AT_low_pc(0x00)
    1308                      .dwattr $C$DW$90, DW_AT_TI_return
    1309 0000000f 0006          LRETR     ; [CPU_] 
    1310                      ; return occurs ; [] 
    1311                      .dwattr $C$DW$87, DW_AT_TI_end_file("C:/Users/a0221343/Git/bootROM/f28004x_bootrom/F28004x_ROM_dev_PG
    1312                      .dwattr $C$DW$87, DW_AT_TI_end_line(0xfb)
    1313                      .dwattr $C$DW$87, DW_AT_TI_end_column(0x01)
    1314                      .dwendentry
    1315                      .dwendtag $C$DW$87
    1316              
    1317 00000000               .sect   ".text:_SCI_registerRxInterrupt"
    1318                      .clink
    1319                      .global _SCI_registerRxInterrupt
    1320              
    1321              $C$DW$91        .dwtag  DW_TAG_subprogram, DW_AT_name("SCI_registerRxInterrupt")
    1322                      .dwattr $C$DW$91, DW_AT_low_pc(_SCI_registerRxInterrupt)
    1323                      .dwattr $C$DW$91, DW_AT_high_pc(0x00)
    1324                      .dwattr $C$DW$91, DW_AT_TI_symbol_name("_SCI_registerRxInterrupt")
    1325                      .dwattr $C$DW$91, DW_AT_external
    1326                      .dwattr $C$DW$91, DW_AT_TI_begin_file("C:/Users/a0221343/Git/bootROM/f28004x_bootrom/F28004x_ROM_dev_
    1327                      .dwattr $C$DW$91, DW_AT_TI_begin_line(0x103)
    1328                      .dwattr $C$DW$91, DW_AT_TI_begin_column(0x01)
    1329                      .dwattr $C$DW$91, DW_AT_TI_max_frame_size(-8)
    1330                      .dwpsn  file "C:/Users/a0221343/Git/bootROM/f28004x_bootrom/F28004x_ROM_dev_PG2.0/F28004x_ROM/driverl
    1331              
    1332                      .dwfde $C$DW$CIE, _SCI_registerRxInterrupt
    1333              $C$DW$92        .dwtag  DW_TAG_formal_parameter, DW_AT_name("base")
    1334                      .dwattr $C$DW$92, DW_AT_TI_symbol_name("_base")
    1335                      .dwattr $C$DW$92, DW_AT_type(*$C$DW$T$21)
    1336                      .dwattr $C$DW$92, DW_AT_location[DW_OP_reg0]
    1337              $C$DW$93        .dwtag  DW_TAG_formal_parameter, DW_AT_name("handler")
TMS320C2000 Assembler PC v6.4.4 Tue Feb 14 14:43:15 2017

Tools Copyright (c) 1996-2015 Texas Instruments Incorporated
C:\Users\a0221343\AppData\Local\Temp\0049210                         PAGE   26

    1338                      .dwattr $C$DW$93, DW_AT_TI_symbol_name("_handler")
    1339                      .dwattr $C$DW$93, DW_AT_type(*$C$DW$T$29)
    1340                      .dwattr $C$DW$93, DW_AT_location[DW_OP_reg12]
    1341              
    1342              ;***************************************************************
    1343              ;* FNAME: _SCI_registerRxInterrupt      FR SIZE:   6           *
    1344              ;*                                                             *
    1345              ;* FUNCTION ENVIRONMENT                                        *
    1346              ;*                                                             *
    1347              ;* FUNCTION PROPERTIES                                         *
    1348              ;*                            0 Parameter,  6 Auto,  0 SOE     *
    1349              ;***************************************************************
    1350              
    1351 00000000       _SCI_registerRxInterrupt:
    1352                      .dwcfi  cfa_offset, -2
    1353                      .dwcfi  save_reg_to_mem, 26, 0
    1354 00000000 FE06          ADDB      SP,#6                 ; [CPU_U] 
    1355                      .dwcfi  cfa_offset, -8
    1356              $C$DW$94        .dwtag  DW_TAG_variable, DW_AT_name("base")
    1357                      .dwattr $C$DW$94, DW_AT_TI_symbol_name("_base")
    1358                      .dwattr $C$DW$94, DW_AT_type(*$C$DW$T$21)
    1359                      .dwattr $C$DW$94, DW_AT_location[DW_OP_breg20 -2]
    1360              $C$DW$95        .dwtag  DW_TAG_variable, DW_AT_name("handler")
    1361                      .dwattr $C$DW$95, DW_AT_TI_symbol_name("_handler")
    1362                      .dwattr $C$DW$95, DW_AT_type(*$C$DW$T$29)
    1363                      .dwattr $C$DW$95, DW_AT_location[DW_OP_breg20 -4]
    1364              $C$DW$96        .dwtag  DW_TAG_variable, DW_AT_name("intNum")
    1365                      .dwattr $C$DW$96, DW_AT_TI_symbol_name("_intNum")
    1366                      .dwattr $C$DW$96, DW_AT_type(*$C$DW$T$21)
    1367                      .dwattr $C$DW$96, DW_AT_location[DW_OP_breg20 -6]
    1368 00000001 A844          MOVL      *-SP[4],XAR4          ; [CPU_] |260| 
    1369 00000002 1E42          MOVL      *-SP[2],ACC           ; [CPU_] |260| 
    1370                      .dwpsn  file "C:/Users/a0221343/Git/bootROM/f28004x_bootrom/F28004x_ROM_dev_PG2.0/F28004x_ROM/driverl
    1371              $C$DW$97        .dwtag  DW_TAG_TI_branch
    1372                      .dwattr $C$DW$97, DW_AT_low_pc(0x00)
    1373                      .dwattr $C$DW$97, DW_AT_name("_SCI_getRxInterruptNumber")
    1374                      .dwattr $C$DW$97, DW_AT_TI_call
    1375 00000003 7640+         LCR       #_SCI_getRxInterruptNumber ; [CPU_] |271| 
         00000004 0000 
    1376                      ; call occurs [#_SCI_getRxInterruptNumber] ; [] |271| 
    1377 00000005 1E46          MOVL      *-SP[6],ACC           ; [CPU_] |271| 
    1378                      .dwpsn  file "C:/Users/a0221343/Git/bootROM/f28004x_bootrom/F28004x_ROM_dev_PG2.0/F28004x_ROM/driverl
    1379 00000006 8A44          MOVL      XAR4,*-SP[4]          ; [CPU_] |276| 
    1380              $C$DW$98        .dwtag  DW_TAG_TI_branch
    1381                      .dwattr $C$DW$98, DW_AT_low_pc(0x00)
    1382                      .dwattr $C$DW$98, DW_AT_name("_Interrupt_register")
    1383                      .dwattr $C$DW$98, DW_AT_TI_call
    1384 00000007 7640+         LCR       #_Interrupt_register  ; [CPU_] |276| 
         00000008 0000 
    1385                      ; call occurs [#_Interrupt_register] ; [] |276| 
    1386                      .dwpsn  file "C:/Users/a0221343/Git/bootROM/f28004x_bootrom/F28004x_ROM_dev_PG2.0/F28004x_ROM/driverl
    1387 00000009 0646          MOVL      ACC,*-SP[6]           ; [CPU_] |281| 
    1388              $C$DW$99        .dwtag  DW_TAG_TI_branch
    1389                      .dwattr $C$DW$99, DW_AT_low_pc(0x00)
    1390                      .dwattr $C$DW$99, DW_AT_name("_Interrupt_enable")
TMS320C2000 Assembler PC v6.4.4 Tue Feb 14 14:43:15 2017

Tools Copyright (c) 1996-2015 Texas Instruments Incorporated
C:\Users\a0221343\AppData\Local\Temp\0049210                         PAGE   27

    1391                      .dwattr $C$DW$99, DW_AT_TI_call
    1392 0000000a 7640!         LCR       #_Interrupt_enable    ; [CPU_] |281| 
         0000000b 0000 
    1393                      ; call occurs [#_Interrupt_enable] ; [] |281| 
    1394                      .dwpsn  file "C:/Users/a0221343/Git/bootROM/f28004x_bootrom/F28004x_ROM_dev_PG2.0/F28004x_ROM/driverl
    1395 0000000c FE86          SUBB      SP,#6                 ; [CPU_U] 
    1396                      .dwcfi  cfa_offset, -2
    1397              $C$DW$100       .dwtag  DW_TAG_TI_branch
    1398                      .dwattr $C$DW$100, DW_AT_low_pc(0x00)
    1399                      .dwattr $C$DW$100, DW_AT_TI_return
    1400 0000000d 0006          LRETR     ; [CPU_] 
    1401                      ; return occurs ; [] 
    1402                      .dwattr $C$DW$91, DW_AT_TI_end_file("C:/Users/a0221343/Git/bootROM/f28004x_bootrom/F28004x_ROM_dev_PG
    1403                      .dwattr $C$DW$91, DW_AT_TI_end_line(0x11a)
    1404                      .dwattr $C$DW$91, DW_AT_TI_end_column(0x01)
    1405                      .dwendentry
    1406                      .dwendtag $C$DW$91
    1407              
    1408 00000000               .sect   ".text:_SCI_registerTxInterrupt"
    1409                      .clink
    1410                      .global _SCI_registerTxInterrupt
    1411              
    1412              $C$DW$101       .dwtag  DW_TAG_subprogram, DW_AT_name("SCI_registerTxInterrupt")
    1413                      .dwattr $C$DW$101, DW_AT_low_pc(_SCI_registerTxInterrupt)
    1414                      .dwattr $C$DW$101, DW_AT_high_pc(0x00)
    1415                      .dwattr $C$DW$101, DW_AT_TI_symbol_name("_SCI_registerTxInterrupt")
    1416                      .dwattr $C$DW$101, DW_AT_external
    1417                      .dwattr $C$DW$101, DW_AT_TI_begin_file("C:/Users/a0221343/Git/bootROM/f28004x_bootrom/F28004x_ROM_dev
    1418                      .dwattr $C$DW$101, DW_AT_TI_begin_line(0x122)
    1419                      .dwattr $C$DW$101, DW_AT_TI_begin_column(0x01)
    1420                      .dwattr $C$DW$101, DW_AT_TI_max_frame_size(-8)
    1421                      .dwpsn  file "C:/Users/a0221343/Git/bootROM/f28004x_bootrom/F28004x_ROM_dev_PG2.0/F28004x_ROM/driverl
    1422              
    1423                      .dwfde $C$DW$CIE, _SCI_registerTxInterrupt
    1424              $C$DW$102       .dwtag  DW_TAG_formal_parameter, DW_AT_name("base")
    1425                      .dwattr $C$DW$102, DW_AT_TI_symbol_name("_base")
    1426                      .dwattr $C$DW$102, DW_AT_type(*$C$DW$T$21)
    1427                      .dwattr $C$DW$102, DW_AT_location[DW_OP_reg0]
    1428              $C$DW$103       .dwtag  DW_TAG_formal_parameter, DW_AT_name("handler")
    1429                      .dwattr $C$DW$103, DW_AT_TI_symbol_name("_handler")
    1430                      .dwattr $C$DW$103, DW_AT_type(*$C$DW$T$29)
    1431                      .dwattr $C$DW$103, DW_AT_location[DW_OP_reg12]
    1432              
    1433              ;***************************************************************
    1434              ;* FNAME: _SCI_registerTxInterrupt      FR SIZE:   6           *
    1435              ;*                                                             *
    1436              ;* FUNCTION ENVIRONMENT                                        *
    1437              ;*                                                             *
    1438              ;* FUNCTION PROPERTIES                                         *
    1439              ;*                            0 Parameter,  6 Auto,  0 SOE     *
    1440              ;***************************************************************
    1441              
    1442 00000000       _SCI_registerTxInterrupt:
    1443                      .dwcfi  cfa_offset, -2
    1444                      .dwcfi  save_reg_to_mem, 26, 0
TMS320C2000 Assembler PC v6.4.4 Tue Feb 14 14:43:15 2017

Tools Copyright (c) 1996-2015 Texas Instruments Incorporated
C:\Users\a0221343\AppData\Local\Temp\0049210                         PAGE   28

    1445 00000000 FE06          ADDB      SP,#6                 ; [CPU_U] 
    1446                      .dwcfi  cfa_offset, -8
    1447              $C$DW$104       .dwtag  DW_TAG_variable, DW_AT_name("base")
    1448                      .dwattr $C$DW$104, DW_AT_TI_symbol_name("_base")
    1449                      .dwattr $C$DW$104, DW_AT_type(*$C$DW$T$21)
    1450                      .dwattr $C$DW$104, DW_AT_location[DW_OP_breg20 -2]
    1451              $C$DW$105       .dwtag  DW_TAG_variable, DW_AT_name("handler")
    1452                      .dwattr $C$DW$105, DW_AT_TI_symbol_name("_handler")
    1453                      .dwattr $C$DW$105, DW_AT_type(*$C$DW$T$29)
    1454                      .dwattr $C$DW$105, DW_AT_location[DW_OP_breg20 -4]
    1455              $C$DW$106       .dwtag  DW_TAG_variable, DW_AT_name("intNum")
    1456                      .dwattr $C$DW$106, DW_AT_TI_symbol_name("_intNum")
    1457                      .dwattr $C$DW$106, DW_AT_type(*$C$DW$T$21)
    1458                      .dwattr $C$DW$106, DW_AT_location[DW_OP_breg20 -6]
    1459 00000001 A844          MOVL      *-SP[4],XAR4          ; [CPU_] |291| 
    1460 00000002 1E42          MOVL      *-SP[2],ACC           ; [CPU_] |291| 
    1461                      .dwpsn  file "C:/Users/a0221343/Git/bootROM/f28004x_bootrom/F28004x_ROM_dev_PG2.0/F28004x_ROM/driverl
    1462              $C$DW$107       .dwtag  DW_TAG_TI_branch
    1463                      .dwattr $C$DW$107, DW_AT_low_pc(0x00)
    1464                      .dwattr $C$DW$107, DW_AT_name("_SCI_getTxInterruptNumber")
    1465                      .dwattr $C$DW$107, DW_AT_TI_call
    1466 00000003 7640+         LCR       #_SCI_getTxInterruptNumber ; [CPU_] |302| 
         00000004 0000 
    1467                      ; call occurs [#_SCI_getTxInterruptNumber] ; [] |302| 
    1468 00000005 1E46          MOVL      *-SP[6],ACC           ; [CPU_] |302| 
    1469                      .dwpsn  file "C:/Users/a0221343/Git/bootROM/f28004x_bootrom/F28004x_ROM_dev_PG2.0/F28004x_ROM/driverl
    1470 00000006 8A44          MOVL      XAR4,*-SP[4]          ; [CPU_] |307| 
    1471              $C$DW$108       .dwtag  DW_TAG_TI_branch
    1472                      .dwattr $C$DW$108, DW_AT_low_pc(0x00)
    1473                      .dwattr $C$DW$108, DW_AT_name("_Interrupt_register")
    1474                      .dwattr $C$DW$108, DW_AT_TI_call
    1475 00000007 7640+         LCR       #_Interrupt_register  ; [CPU_] |307| 
         00000008 0000 
    1476                      ; call occurs [#_Interrupt_register] ; [] |307| 
    1477                      .dwpsn  file "C:/Users/a0221343/Git/bootROM/f28004x_bootrom/F28004x_ROM_dev_PG2.0/F28004x_ROM/driverl
    1478 00000009 0646          MOVL      ACC,*-SP[6]           ; [CPU_] |312| 
    1479              $C$DW$109       .dwtag  DW_TAG_TI_branch
    1480                      .dwattr $C$DW$109, DW_AT_low_pc(0x00)
    1481                      .dwattr $C$DW$109, DW_AT_name("_Interrupt_enable")
    1482                      .dwattr $C$DW$109, DW_AT_TI_call
    1483 0000000a 7640!         LCR       #_Interrupt_enable    ; [CPU_] |312| 
         0000000b 0000 
    1484                      ; call occurs [#_Interrupt_enable] ; [] |312| 
    1485                      .dwpsn  file "C:/Users/a0221343/Git/bootROM/f28004x_bootrom/F28004x_ROM_dev_PG2.0/F28004x_ROM/driverl
    1486 0000000c FE86          SUBB      SP,#6                 ; [CPU_U] 
    1487                      .dwcfi  cfa_offset, -2
    1488              $C$DW$110       .dwtag  DW_TAG_TI_branch
    1489                      .dwattr $C$DW$110, DW_AT_low_pc(0x00)
    1490                      .dwattr $C$DW$110, DW_AT_TI_return
    1491 0000000d 0006          LRETR     ; [CPU_] 
    1492                      ; return occurs ; [] 
    1493                      .dwattr $C$DW$101, DW_AT_TI_end_file("C:/Users/a0221343/Git/bootROM/f28004x_bootrom/F28004x_ROM_dev_P
    1494                      .dwattr $C$DW$101, DW_AT_TI_end_line(0x139)
    1495                      .dwattr $C$DW$101, DW_AT_TI_end_column(0x01)
    1496                      .dwendentry
TMS320C2000 Assembler PC v6.4.4 Tue Feb 14 14:43:15 2017

Tools Copyright (c) 1996-2015 Texas Instruments Incorporated
C:\Users\a0221343\AppData\Local\Temp\0049210                         PAGE   29

    1497                      .dwendtag $C$DW$101
    1498              
    1499 00000000               .sect   ".text:_SCI_unregisterRxInterrupt"
    1500                      .clink
    1501                      .global _SCI_unregisterRxInterrupt
    1502              
    1503              $C$DW$111       .dwtag  DW_TAG_subprogram, DW_AT_name("SCI_unregisterRxInterrupt")
    1504                      .dwattr $C$DW$111, DW_AT_low_pc(_SCI_unregisterRxInterrupt)
    1505                      .dwattr $C$DW$111, DW_AT_high_pc(0x00)
    1506                      .dwattr $C$DW$111, DW_AT_TI_symbol_name("_SCI_unregisterRxInterrupt")
    1507                      .dwattr $C$DW$111, DW_AT_external
    1508                      .dwattr $C$DW$111, DW_AT_TI_begin_file("C:/Users/a0221343/Git/bootROM/f28004x_bootrom/F28004x_ROM_dev
    1509                      .dwattr $C$DW$111, DW_AT_TI_begin_line(0x141)
    1510                      .dwattr $C$DW$111, DW_AT_TI_begin_column(0x01)
    1511                      .dwattr $C$DW$111, DW_AT_TI_max_frame_size(-6)
    1512                      .dwpsn  file "C:/Users/a0221343/Git/bootROM/f28004x_bootrom/F28004x_ROM_dev_PG2.0/F28004x_ROM/driverl
    1513              
    1514                      .dwfde $C$DW$CIE, _SCI_unregisterRxInterrupt
    1515              $C$DW$112       .dwtag  DW_TAG_formal_parameter, DW_AT_name("base")
    1516                      .dwattr $C$DW$112, DW_AT_TI_symbol_name("_base")
    1517                      .dwattr $C$DW$112, DW_AT_type(*$C$DW$T$21)
    1518                      .dwattr $C$DW$112, DW_AT_location[DW_OP_reg0]
    1519              
    1520              ;***************************************************************
    1521              ;* FNAME: _SCI_unregisterRxInterrupt    FR SIZE:   4           *
    1522              ;*                                                             *
    1523              ;* FUNCTION ENVIRONMENT                                        *
    1524              ;*                                                             *
    1525              ;* FUNCTION PROPERTIES                                         *
    1526              ;*                            0 Parameter,  4 Auto,  0 SOE     *
    1527              ;***************************************************************
    1528              
    1529 00000000       _SCI_unregisterRxInterrupt:
    1530                      .dwcfi  cfa_offset, -2
    1531                      .dwcfi  save_reg_to_mem, 26, 0
    1532 00000000 FE04          ADDB      SP,#4                 ; [CPU_U] 
    1533                      .dwcfi  cfa_offset, -6
    1534              $C$DW$113       .dwtag  DW_TAG_variable, DW_AT_name("base")
    1535                      .dwattr $C$DW$113, DW_AT_TI_symbol_name("_base")
    1536                      .dwattr $C$DW$113, DW_AT_type(*$C$DW$T$21)
    1537                      .dwattr $C$DW$113, DW_AT_location[DW_OP_breg20 -2]
    1538              $C$DW$114       .dwtag  DW_TAG_variable, DW_AT_name("intNum")
    1539                      .dwattr $C$DW$114, DW_AT_TI_symbol_name("_intNum")
    1540                      .dwattr $C$DW$114, DW_AT_type(*$C$DW$T$21)
    1541                      .dwattr $C$DW$114, DW_AT_location[DW_OP_breg20 -4]
    1542 00000001 1E42          MOVL      *-SP[2],ACC           ; [CPU_] |322| 
    1543                      .dwpsn  file "C:/Users/a0221343/Git/bootROM/f28004x_bootrom/F28004x_ROM_dev_PG2.0/F28004x_ROM/driverl
    1544              $C$DW$115       .dwtag  DW_TAG_TI_branch
    1545                      .dwattr $C$DW$115, DW_AT_low_pc(0x00)
    1546                      .dwattr $C$DW$115, DW_AT_name("_SCI_getRxInterruptNumber")
    1547                      .dwattr $C$DW$115, DW_AT_TI_call
    1548 00000002 7640+         LCR       #_SCI_getRxInterruptNumber ; [CPU_] |333| 
         00000003 0000 
    1549                      ; call occurs [#_SCI_getRxInterruptNumber] ; [] |333| 
    1550 00000004 1E44          MOVL      *-SP[4],ACC           ; [CPU_] |333| 
TMS320C2000 Assembler PC v6.4.4 Tue Feb 14 14:43:15 2017

Tools Copyright (c) 1996-2015 Texas Instruments Incorporated
C:\Users\a0221343\AppData\Local\Temp\0049210                         PAGE   30

    1551                      .dwpsn  file "C:/Users/a0221343/Git/bootROM/f28004x_bootrom/F28004x_ROM_dev_PG2.0/F28004x_ROM/driverl
    1552              $C$DW$116       .dwtag  DW_TAG_TI_branch
    1553                      .dwattr $C$DW$116, DW_AT_low_pc(0x00)
    1554                      .dwattr $C$DW$116, DW_AT_name("_Interrupt_disable")
    1555                      .dwattr $C$DW$116, DW_AT_TI_call
    1556 00000005 7640!         LCR       #_Interrupt_disable   ; [CPU_] |338| 
         00000006 0000 
    1557                      ; call occurs [#_Interrupt_disable] ; [] |338| 
    1558                      .dwpsn  file "C:/Users/a0221343/Git/bootROM/f28004x_bootrom/F28004x_ROM_dev_PG2.0/F28004x_ROM/driverl
    1559 00000007 0644          MOVL      ACC,*-SP[4]           ; [CPU_] |343| 
    1560              $C$DW$117       .dwtag  DW_TAG_TI_branch
    1561                      .dwattr $C$DW$117, DW_AT_low_pc(0x00)
    1562                      .dwattr $C$DW$117, DW_AT_name("_Interrupt_unregister")
    1563                      .dwattr $C$DW$117, DW_AT_TI_call
    1564 00000008 7640+         LCR       #_Interrupt_unregister ; [CPU_] |343| 
         00000009 0000 
    1565                      ; call occurs [#_Interrupt_unregister] ; [] |343| 
    1566                      .dwpsn  file "C:/Users/a0221343/Git/bootROM/f28004x_bootrom/F28004x_ROM_dev_PG2.0/F28004x_ROM/driverl
    1567 0000000a FE84          SUBB      SP,#4                 ; [CPU_U] 
    1568                      .dwcfi  cfa_offset, -2
    1569              $C$DW$118       .dwtag  DW_TAG_TI_branch
    1570                      .dwattr $C$DW$118, DW_AT_low_pc(0x00)
    1571                      .dwattr $C$DW$118, DW_AT_TI_return
    1572 0000000b 0006          LRETR     ; [CPU_] 
    1573                      ; return occurs ; [] 
    1574                      .dwattr $C$DW$111, DW_AT_TI_end_file("C:/Users/a0221343/Git/bootROM/f28004x_bootrom/F28004x_ROM_dev_P
    1575                      .dwattr $C$DW$111, DW_AT_TI_end_line(0x158)
    1576                      .dwattr $C$DW$111, DW_AT_TI_end_column(0x01)
    1577                      .dwendentry
    1578                      .dwendtag $C$DW$111
    1579              
    1580 00000000               .sect   ".text:_SCI_unregisterTXInterrupt"
    1581                      .clink
    1582                      .global _SCI_unregisterTXInterrupt
    1583              
    1584              $C$DW$119       .dwtag  DW_TAG_subprogram, DW_AT_name("SCI_unregisterTXInterrupt")
    1585                      .dwattr $C$DW$119, DW_AT_low_pc(_SCI_unregisterTXInterrupt)
    1586                      .dwattr $C$DW$119, DW_AT_high_pc(0x00)
    1587                      .dwattr $C$DW$119, DW_AT_TI_symbol_name("_SCI_unregisterTXInterrupt")
    1588                      .dwattr $C$DW$119, DW_AT_external
    1589                      .dwattr $C$DW$119, DW_AT_TI_begin_file("C:/Users/a0221343/Git/bootROM/f28004x_bootrom/F28004x_ROM_dev
    1590                      .dwattr $C$DW$119, DW_AT_TI_begin_line(0x160)
    1591                      .dwattr $C$DW$119, DW_AT_TI_begin_column(0x01)
    1592                      .dwattr $C$DW$119, DW_AT_TI_max_frame_size(-6)
    1593                      .dwpsn  file "C:/Users/a0221343/Git/bootROM/f28004x_bootrom/F28004x_ROM_dev_PG2.0/F28004x_ROM/driverl
    1594              
    1595                      .dwfde $C$DW$CIE, _SCI_unregisterTXInterrupt
    1596              $C$DW$120       .dwtag  DW_TAG_formal_parameter, DW_AT_name("base")
    1597                      .dwattr $C$DW$120, DW_AT_TI_symbol_name("_base")
    1598                      .dwattr $C$DW$120, DW_AT_type(*$C$DW$T$21)
    1599                      .dwattr $C$DW$120, DW_AT_location[DW_OP_reg0]
    1600              
    1601              ;***************************************************************
    1602              ;* FNAME: _SCI_unregisterTXInterrupt    FR SIZE:   4           *
    1603              ;*                                                             *
TMS320C2000 Assembler PC v6.4.4 Tue Feb 14 14:43:15 2017

Tools Copyright (c) 1996-2015 Texas Instruments Incorporated
C:\Users\a0221343\AppData\Local\Temp\0049210                         PAGE   31

    1604              ;* FUNCTION ENVIRONMENT                                        *
    1605              ;*                                                             *
    1606              ;* FUNCTION PROPERTIES                                         *
    1607              ;*                            0 Parameter,  4 Auto,  0 SOE     *
    1608              ;***************************************************************
    1609              
    1610 00000000       _SCI_unregisterTXInterrupt:
    1611                      .dwcfi  cfa_offset, -2
    1612                      .dwcfi  save_reg_to_mem, 26, 0
    1613 00000000 FE04          ADDB      SP,#4                 ; [CPU_U] 
    1614                      .dwcfi  cfa_offset, -6
    1615              $C$DW$121       .dwtag  DW_TAG_variable, DW_AT_name("base")
    1616                      .dwattr $C$DW$121, DW_AT_TI_symbol_name("_base")
    1617                      .dwattr $C$DW$121, DW_AT_type(*$C$DW$T$21)
    1618                      .dwattr $C$DW$121, DW_AT_location[DW_OP_breg20 -2]
    1619              $C$DW$122       .dwtag  DW_TAG_variable, DW_AT_name("intNum")
    1620                      .dwattr $C$DW$122, DW_AT_TI_symbol_name("_intNum")
    1621                      .dwattr $C$DW$122, DW_AT_type(*$C$DW$T$21)
    1622                      .dwattr $C$DW$122, DW_AT_location[DW_OP_breg20 -4]
    1623 00000001 1E42          MOVL      *-SP[2],ACC           ; [CPU_] |353| 
    1624                      .dwpsn  file "C:/Users/a0221343/Git/bootROM/f28004x_bootrom/F28004x_ROM_dev_PG2.0/F28004x_ROM/driverl
    1625              $C$DW$123       .dwtag  DW_TAG_TI_branch
    1626                      .dwattr $C$DW$123, DW_AT_low_pc(0x00)
    1627                      .dwattr $C$DW$123, DW_AT_name("_SCI_getTxInterruptNumber")
    1628                      .dwattr $C$DW$123, DW_AT_TI_call
    1629 00000002 7640+         LCR       #_SCI_getTxInterruptNumber ; [CPU_] |364| 
         00000003 0000 
    1630                      ; call occurs [#_SCI_getTxInterruptNumber] ; [] |364| 
    1631 00000004 1E44          MOVL      *-SP[4],ACC           ; [CPU_] |364| 
    1632                      .dwpsn  file "C:/Users/a0221343/Git/bootROM/f28004x_bootrom/F28004x_ROM_dev_PG2.0/F28004x_ROM/driverl
    1633              $C$DW$124       .dwtag  DW_TAG_TI_branch
    1634                      .dwattr $C$DW$124, DW_AT_low_pc(0x00)
    1635                      .dwattr $C$DW$124, DW_AT_name("_Interrupt_disable")
    1636                      .dwattr $C$DW$124, DW_AT_TI_call
    1637 00000005 7640!         LCR       #_Interrupt_disable   ; [CPU_] |369| 
         00000006 0000 
    1638                      ; call occurs [#_Interrupt_disable] ; [] |369| 
    1639                      .dwpsn  file "C:/Users/a0221343/Git/bootROM/f28004x_bootrom/F28004x_ROM_dev_PG2.0/F28004x_ROM/driverl
    1640 00000007 0644          MOVL      ACC,*-SP[4]           ; [CPU_] |374| 
    1641              $C$DW$125       .dwtag  DW_TAG_TI_branch
    1642                      .dwattr $C$DW$125, DW_AT_low_pc(0x00)
    1643                      .dwattr $C$DW$125, DW_AT_name("_Interrupt_unregister")
    1644                      .dwattr $C$DW$125, DW_AT_TI_call
    1645 00000008 7640+         LCR       #_Interrupt_unregister ; [CPU_] |374| 
         00000009 0000 
    1646                      ; call occurs [#_Interrupt_unregister] ; [] |374| 
    1647                      .dwpsn  file "C:/Users/a0221343/Git/bootROM/f28004x_bootrom/F28004x_ROM_dev_PG2.0/F28004x_ROM/driverl
    1648 0000000a FE84          SUBB      SP,#4                 ; [CPU_U] 
    1649                      .dwcfi  cfa_offset, -2
    1650              $C$DW$126       .dwtag  DW_TAG_TI_branch
    1651                      .dwattr $C$DW$126, DW_AT_low_pc(0x00)
    1652                      .dwattr $C$DW$126, DW_AT_TI_return
    1653 0000000b 0006          LRETR     ; [CPU_] 
    1654                      ; return occurs ; [] 
    1655                      .dwattr $C$DW$119, DW_AT_TI_end_file("C:/Users/a0221343/Git/bootROM/f28004x_bootrom/F28004x_ROM_dev_P
TMS320C2000 Assembler PC v6.4.4 Tue Feb 14 14:43:15 2017

Tools Copyright (c) 1996-2015 Texas Instruments Incorporated
C:\Users\a0221343\AppData\Local\Temp\0049210                         PAGE   32

    1656                      .dwattr $C$DW$119, DW_AT_TI_end_line(0x177)
    1657                      .dwattr $C$DW$119, DW_AT_TI_end_column(0x01)
    1658                      .dwendentry
    1659                      .dwendtag $C$DW$119
    1660              
    1661 00000000               .sect   ".text:_SCI_enableInterrupt"
    1662                      .clink
    1663                      .global _SCI_enableInterrupt
    1664              
    1665              $C$DW$127       .dwtag  DW_TAG_subprogram, DW_AT_name("SCI_enableInterrupt")
    1666                      .dwattr $C$DW$127, DW_AT_low_pc(_SCI_enableInterrupt)
    1667                      .dwattr $C$DW$127, DW_AT_high_pc(0x00)
    1668                      .dwattr $C$DW$127, DW_AT_TI_symbol_name("_SCI_enableInterrupt")
    1669                      .dwattr $C$DW$127, DW_AT_external
    1670                      .dwattr $C$DW$127, DW_AT_TI_begin_file("C:/Users/a0221343/Git/bootROM/f28004x_bootrom/F28004x_ROM_dev
    1671                      .dwattr $C$DW$127, DW_AT_TI_begin_line(0x17f)
    1672                      .dwattr $C$DW$127, DW_AT_TI_begin_column(0x01)
    1673                      .dwattr $C$DW$127, DW_AT_TI_max_frame_size(-4)
    1674                      .dwpsn  file "C:/Users/a0221343/Git/bootROM/f28004x_bootrom/F28004x_ROM_dev_PG2.0/F28004x_ROM/driverl
    1675              
    1676                      .dwfde $C$DW$CIE, _SCI_enableInterrupt
    1677              $C$DW$128       .dwtag  DW_TAG_formal_parameter, DW_AT_name("base")
    1678                      .dwattr $C$DW$128, DW_AT_TI_symbol_name("_base")
    1679                      .dwattr $C$DW$128, DW_AT_type(*$C$DW$T$21)
    1680                      .dwattr $C$DW$128, DW_AT_location[DW_OP_reg0]
    1681              $C$DW$129       .dwtag  DW_TAG_formal_parameter, DW_AT_name("intFlags")
    1682                      .dwattr $C$DW$129, DW_AT_TI_symbol_name("_intFlags")
    1683                      .dwattr $C$DW$129, DW_AT_type(*$C$DW$T$21)
    1684                      .dwattr $C$DW$129, DW_AT_location[DW_OP_breg20 -6]
    1685              
    1686              ;***************************************************************
    1687              ;* FNAME: _SCI_enableInterrupt          FR SIZE:   2           *
    1688              ;*                                                             *
    1689              ;* FUNCTION ENVIRONMENT                                        *
    1690              ;*                                                             *
    1691              ;* FUNCTION PROPERTIES                                         *
    1692              ;*                            0 Parameter,  2 Auto,  0 SOE     *
    1693              ;***************************************************************
    1694              
    1695 00000000       _SCI_enableInterrupt:
    1696                      .dwcfi  cfa_offset, -2
    1697                      .dwcfi  save_reg_to_mem, 26, 0
    1698 00000000 FE02          ADDB      SP,#2                 ; [CPU_U] 
    1699                      .dwcfi  cfa_offset, -4
    1700              $C$DW$130       .dwtag  DW_TAG_variable, DW_AT_name("base")
    1701                      .dwattr $C$DW$130, DW_AT_TI_symbol_name("_base")
    1702                      .dwattr $C$DW$130, DW_AT_type(*$C$DW$T$21)
    1703                      .dwattr $C$DW$130, DW_AT_location[DW_OP_breg20 -2]
    1704 00000001 1E42          MOVL      *-SP[2],ACC           ; [CPU_] |384| 
    1705                      .dwpsn  file "C:/Users/a0221343/Git/bootROM/f28004x_bootrom/F28004x_ROM_dev_PG2.0/F28004x_ROM/driverl
    1706 00000002 BE01          MOVB      XAR6,#1               ; [CPU_] |393| 
    1707 00000003 0646          MOVL      ACC,*-SP[6]           ; [CPU_] |393| 
    1708 00000004 9B00          MOVB      AH,#0                 ; [CPU_] |393| 
    1709 00000005 9001          ANDB      AL,#0x01              ; [CPU_] |393| 
    1710 00000006 0FA6          CMPL      ACC,XAR6              ; [CPU_] |393| 
TMS320C2000 Assembler PC v6.4.4 Tue Feb 14 14:43:15 2017

Tools Copyright (c) 1996-2015 Texas Instruments Incorporated
C:\Users\a0221343\AppData\Local\Temp\0049210                         PAGE   33

    1711 00000007 ED06          BF        $C$L23,NEQ            ; [CPU_] |393| 
    1712                      ; branchcc occurs ; [] |393| 
    1713                      .dwpsn  file "C:/Users/a0221343/Git/bootROM/f28004x_bootrom/F28004x_ROM_dev_PG2.0/F28004x_ROM/driverl
    1714 00000008 0201          MOVB      ACC,#1                ; [CPU_] |395| 
    1715 00000009 0742          ADDL      ACC,*-SP[2]           ; [CPU_] |395| 
    1716 0000000a 8AA9          MOVL      XAR4,ACC              ; [CPU_] |395| 
    1717 0000000b 1AC4          OR        *+XAR4[0],#0x0040     ; [CPU_] |395| 
         0000000c 0040 
    1718 0000000d       $C$L23:    
    1719                      .dwpsn  file "C:/Users/a0221343/Git/bootROM/f28004x_bootrom/F28004x_ROM_dev_PG2.0/F28004x_ROM/driverl
    1720 0000000d BE02          MOVB      XAR6,#2               ; [CPU_] |397| 
    1721 0000000e 0646          MOVL      ACC,*-SP[6]           ; [CPU_] |397| 
    1722 0000000f 9B00          MOVB      AH,#0                 ; [CPU_] |397| 
    1723 00000010 9002          ANDB      AL,#0x02              ; [CPU_] |397| 
    1724 00000011 0FA6          CMPL      ACC,XAR6              ; [CPU_] |397| 
    1725 00000012 ED06          BF        $C$L24,NEQ            ; [CPU_] |397| 
    1726                      ; branchcc occurs ; [] |397| 
    1727                      .dwpsn  file "C:/Users/a0221343/Git/bootROM/f28004x_bootrom/F28004x_ROM_dev_PG2.0/F28004x_ROM/driverl
    1728 00000013 0204          MOVB      ACC,#4                ; [CPU_] |399| 
    1729 00000014 0742          ADDL      ACC,*-SP[2]           ; [CPU_] |399| 
    1730 00000015 8AA9          MOVL      XAR4,ACC              ; [CPU_] |399| 
    1731 00000016 1AC4          OR        *+XAR4[0],#0x0002     ; [CPU_] |399| 
         00000017 0002 
    1732 00000018       $C$L24:    
    1733                      .dwpsn  file "C:/Users/a0221343/Git/bootROM/f28004x_bootrom/F28004x_ROM_dev_PG2.0/F28004x_ROM/driverl
    1734 00000018 BE04          MOVB      XAR6,#4               ; [CPU_] |401| 
    1735 00000019 0646          MOVL      ACC,*-SP[6]           ; [CPU_] |401| 
    1736 0000001a 9B00          MOVB      AH,#0                 ; [CPU_] |401| 
    1737 0000001b 9004          ANDB      AL,#0x04              ; [CPU_] |401| 
    1738 0000001c 0FA6          CMPL      ACC,XAR6              ; [CPU_] |401| 
    1739 0000001d ED06          BF        $C$L25,NEQ            ; [CPU_] |401| 
    1740                      ; branchcc occurs ; [] |401| 
    1741                      .dwpsn  file "C:/Users/a0221343/Git/bootROM/f28004x_bootrom/F28004x_ROM_dev_PG2.0/F28004x_ROM/driverl
    1742 0000001e 0204          MOVB      ACC,#4                ; [CPU_] |403| 
    1743 0000001f 0742          ADDL      ACC,*-SP[2]           ; [CPU_] |403| 
    1744 00000020 8AA9          MOVL      XAR4,ACC              ; [CPU_] |403| 
    1745 00000021 1AC4          OR        *+XAR4[0],#0x0001     ; [CPU_] |403| 
         00000022 0001 
    1746 00000023       $C$L25:    
    1747                      .dwpsn  file "C:/Users/a0221343/Git/bootROM/f28004x_bootrom/F28004x_ROM_dev_PG2.0/F28004x_ROM/driverl
    1748 00000023 BE08          MOVB      XAR6,#8               ; [CPU_] |405| 
    1749 00000024 0646          MOVL      ACC,*-SP[6]           ; [CPU_] |405| 
    1750 00000025 9B00          MOVB      AH,#0                 ; [CPU_] |405| 
    1751 00000026 9008          ANDB      AL,#0x08              ; [CPU_] |405| 
    1752 00000027 0FA6          CMPL      ACC,XAR6              ; [CPU_] |405| 
    1753 00000028 ED06          BF        $C$L26,NEQ            ; [CPU_] |405| 
    1754                      ; branchcc occurs ; [] |405| 
    1755                      .dwpsn  file "C:/Users/a0221343/Git/bootROM/f28004x_bootrom/F28004x_ROM_dev_PG2.0/F28004x_ROM/driverl
    1756 00000029 020A          MOVB      ACC,#10               ; [CPU_] |407| 
    1757 0000002a 0742          ADDL      ACC,*-SP[2]           ; [CPU_] |407| 
    1758 0000002b 8AA9          MOVL      XAR4,ACC              ; [CPU_] |407| 
    1759 0000002c 1AC4          OR        *+XAR4[0],#0x0020     ; [CPU_] |407| 
         0000002d 0020 
    1760 0000002e       $C$L26:    
    1761                      .dwpsn  file "C:/Users/a0221343/Git/bootROM/f28004x_bootrom/F28004x_ROM_dev_PG2.0/F28004x_ROM/driverl
TMS320C2000 Assembler PC v6.4.4 Tue Feb 14 14:43:15 2017

Tools Copyright (c) 1996-2015 Texas Instruments Incorporated
C:\Users\a0221343\AppData\Local\Temp\0049210                         PAGE   34

    1762 0000002e BE10          MOVB      XAR6,#16              ; [CPU_] |409| 
    1763 0000002f 0646          MOVL      ACC,*-SP[6]           ; [CPU_] |409| 
    1764 00000030 9B00          MOVB      AH,#0                 ; [CPU_] |409| 
    1765 00000031 9010          ANDB      AL,#0x10              ; [CPU_] |409| 
    1766 00000032 0FA6          CMPL      ACC,XAR6              ; [CPU_] |409| 
    1767 00000033 ED06          BF        $C$L27,NEQ            ; [CPU_] |409| 
    1768                      ; branchcc occurs ; [] |409| 
    1769                      .dwpsn  file "C:/Users/a0221343/Git/bootROM/f28004x_bootrom/F28004x_ROM_dev_PG2.0/F28004x_ROM/driverl
    1770 00000034 020B          MOVB      ACC,#11               ; [CPU_] |411| 
    1771 00000035 0742          ADDL      ACC,*-SP[2]           ; [CPU_] |411| 
    1772 00000036 8AA9          MOVL      XAR4,ACC              ; [CPU_] |411| 
    1773 00000037 1AC4          OR        *+XAR4[0],#0x0020     ; [CPU_] |411| 
         00000038 0020 
    1774                      .dwpsn  file "C:/Users/a0221343/Git/bootROM/f28004x_bootrom/F28004x_ROM_dev_PG2.0/F28004x_ROM/driverl
    1775 00000039       $C$L27:    
    1776 00000039 FE82          SUBB      SP,#2                 ; [CPU_U] 
    1777                      .dwcfi  cfa_offset, -2
    1778              $C$DW$131       .dwtag  DW_TAG_TI_branch
    1779                      .dwattr $C$DW$131, DW_AT_low_pc(0x00)
    1780                      .dwattr $C$DW$131, DW_AT_TI_return
    1781 0000003a 0006          LRETR     ; [CPU_] 
    1782                      ; return occurs ; [] 
    1783                      .dwattr $C$DW$127, DW_AT_TI_end_file("C:/Users/a0221343/Git/bootROM/f28004x_bootrom/F28004x_ROM_dev_P
    1784                      .dwattr $C$DW$127, DW_AT_TI_end_line(0x19d)
    1785                      .dwattr $C$DW$127, DW_AT_TI_end_column(0x01)
    1786                      .dwendentry
    1787                      .dwendtag $C$DW$127
    1788              
    1789 00000000               .sect   ".text:_SCI_disableInterrupt"
    1790                      .clink
    1791                      .global _SCI_disableInterrupt
    1792              
    1793              $C$DW$132       .dwtag  DW_TAG_subprogram, DW_AT_name("SCI_disableInterrupt")
    1794                      .dwattr $C$DW$132, DW_AT_low_pc(_SCI_disableInterrupt)
    1795                      .dwattr $C$DW$132, DW_AT_high_pc(0x00)
    1796                      .dwattr $C$DW$132, DW_AT_TI_symbol_name("_SCI_disableInterrupt")
    1797                      .dwattr $C$DW$132, DW_AT_external
    1798                      .dwattr $C$DW$132, DW_AT_TI_begin_file("C:/Users/a0221343/Git/bootROM/f28004x_bootrom/F28004x_ROM_dev
    1799                      .dwattr $C$DW$132, DW_AT_TI_begin_line(0x1a5)
    1800                      .dwattr $C$DW$132, DW_AT_TI_begin_column(0x01)
    1801                      .dwattr $C$DW$132, DW_AT_TI_max_frame_size(-4)
    1802                      .dwpsn  file "C:/Users/a0221343/Git/bootROM/f28004x_bootrom/F28004x_ROM_dev_PG2.0/F28004x_ROM/driverl
    1803              
    1804                      .dwfde $C$DW$CIE, _SCI_disableInterrupt
    1805              $C$DW$133       .dwtag  DW_TAG_formal_parameter, DW_AT_name("base")
    1806                      .dwattr $C$DW$133, DW_AT_TI_symbol_name("_base")
    1807                      .dwattr $C$DW$133, DW_AT_type(*$C$DW$T$21)
    1808                      .dwattr $C$DW$133, DW_AT_location[DW_OP_reg0]
    1809              $C$DW$134       .dwtag  DW_TAG_formal_parameter, DW_AT_name("intFlags")
    1810                      .dwattr $C$DW$134, DW_AT_TI_symbol_name("_intFlags")
    1811                      .dwattr $C$DW$134, DW_AT_type(*$C$DW$T$21)
    1812                      .dwattr $C$DW$134, DW_AT_location[DW_OP_breg20 -6]
    1813              
    1814              ;***************************************************************
    1815              ;* FNAME: _SCI_disableInterrupt         FR SIZE:   2           *
TMS320C2000 Assembler PC v6.4.4 Tue Feb 14 14:43:15 2017

Tools Copyright (c) 1996-2015 Texas Instruments Incorporated
C:\Users\a0221343\AppData\Local\Temp\0049210                         PAGE   35

    1816              ;*                                                             *
    1817              ;* FUNCTION ENVIRONMENT                                        *
    1818              ;*                                                             *
    1819              ;* FUNCTION PROPERTIES                                         *
    1820              ;*                            0 Parameter,  2 Auto,  0 SOE     *
    1821              ;***************************************************************
    1822              
    1823 00000000       _SCI_disableInterrupt:
    1824                      .dwcfi  cfa_offset, -2
    1825                      .dwcfi  save_reg_to_mem, 26, 0
    1826 00000000 FE02          ADDB      SP,#2                 ; [CPU_U] 
    1827                      .dwcfi  cfa_offset, -4
    1828              $C$DW$135       .dwtag  DW_TAG_variable, DW_AT_name("base")
    1829                      .dwattr $C$DW$135, DW_AT_TI_symbol_name("_base")
    1830                      .dwattr $C$DW$135, DW_AT_type(*$C$DW$T$21)
    1831                      .dwattr $C$DW$135, DW_AT_location[DW_OP_breg20 -2]
    1832 00000001 1E42          MOVL      *-SP[2],ACC           ; [CPU_] |422| 
    1833                      .dwpsn  file "C:/Users/a0221343/Git/bootROM/f28004x_bootrom/F28004x_ROM_dev_PG2.0/F28004x_ROM/driverl
    1834 00000002 BE01          MOVB      XAR6,#1               ; [CPU_] |431| 
    1835 00000003 0646          MOVL      ACC,*-SP[6]           ; [CPU_] |431| 
    1836 00000004 9B00          MOVB      AH,#0                 ; [CPU_] |431| 
    1837 00000005 9001          ANDB      AL,#0x01              ; [CPU_] |431| 
    1838 00000006 0FA6          CMPL      ACC,XAR6              ; [CPU_] |431| 
    1839 00000007 ED06          BF        $C$L28,NEQ            ; [CPU_] |431| 
    1840                      ; branchcc occurs ; [] |431| 
    1841                      .dwpsn  file "C:/Users/a0221343/Git/bootROM/f28004x_bootrom/F28004x_ROM_dev_PG2.0/F28004x_ROM/driverl
    1842 00000008 0201          MOVB      ACC,#1                ; [CPU_] |433| 
    1843 00000009 0742          ADDL      ACC,*-SP[2]           ; [CPU_] |433| 
    1844 0000000a 8AA9          MOVL      XAR4,ACC              ; [CPU_] |433| 
    1845 0000000b 18C4          AND       *+XAR4[0],#0xffbf     ; [CPU_] |433| 
         0000000c FFBF 
    1846 0000000d       $C$L28:    
    1847                      .dwpsn  file "C:/Users/a0221343/Git/bootROM/f28004x_bootrom/F28004x_ROM_dev_PG2.0/F28004x_ROM/driverl
    1848 0000000d BE02          MOVB      XAR6,#2               ; [CPU_] |435| 
    1849 0000000e 0646          MOVL      ACC,*-SP[6]           ; [CPU_] |435| 
    1850 0000000f 9B00          MOVB      AH,#0                 ; [CPU_] |435| 
    1851 00000010 9002          ANDB      AL,#0x02              ; [CPU_] |435| 
    1852 00000011 0FA6          CMPL      ACC,XAR6              ; [CPU_] |435| 
    1853 00000012 ED06          BF        $C$L29,NEQ            ; [CPU_] |435| 
    1854                      ; branchcc occurs ; [] |435| 
    1855                      .dwpsn  file "C:/Users/a0221343/Git/bootROM/f28004x_bootrom/F28004x_ROM_dev_PG2.0/F28004x_ROM/driverl
    1856 00000013 0204          MOVB      ACC,#4                ; [CPU_] |437| 
    1857 00000014 0742          ADDL      ACC,*-SP[2]           ; [CPU_] |437| 
    1858 00000015 8AA9          MOVL      XAR4,ACC              ; [CPU_] |437| 
    1859 00000016 18C4          AND       *+XAR4[0],#0xfffd     ; [CPU_] |437| 
         00000017 FFFD 
    1860 00000018       $C$L29:    
    1861                      .dwpsn  file "C:/Users/a0221343/Git/bootROM/f28004x_bootrom/F28004x_ROM_dev_PG2.0/F28004x_ROM/driverl
    1862 00000018 BE04          MOVB      XAR6,#4               ; [CPU_] |439| 
    1863 00000019 0646          MOVL      ACC,*-SP[6]           ; [CPU_] |439| 
    1864 0000001a 9B00          MOVB      AH,#0                 ; [CPU_] |439| 
    1865 0000001b 9004          ANDB      AL,#0x04              ; [CPU_] |439| 
    1866 0000001c 0FA6          CMPL      ACC,XAR6              ; [CPU_] |439| 
    1867 0000001d ED06          BF        $C$L30,NEQ            ; [CPU_] |439| 
    1868                      ; branchcc occurs ; [] |439| 
TMS320C2000 Assembler PC v6.4.4 Tue Feb 14 14:43:15 2017

Tools Copyright (c) 1996-2015 Texas Instruments Incorporated
C:\Users\a0221343\AppData\Local\Temp\0049210                         PAGE   36

    1869                      .dwpsn  file "C:/Users/a0221343/Git/bootROM/f28004x_bootrom/F28004x_ROM_dev_PG2.0/F28004x_ROM/driverl
    1870 0000001e 0204          MOVB      ACC,#4                ; [CPU_] |441| 
    1871 0000001f 0742          ADDL      ACC,*-SP[2]           ; [CPU_] |441| 
    1872 00000020 8AA9          MOVL      XAR4,ACC              ; [CPU_] |441| 
    1873 00000021 18C4          AND       *+XAR4[0],#0xfffe     ; [CPU_] |441| 
         00000022 FFFE 
    1874 00000023       $C$L30:    
    1875                      .dwpsn  file "C:/Users/a0221343/Git/bootROM/f28004x_bootrom/F28004x_ROM_dev_PG2.0/F28004x_ROM/driverl
    1876 00000023 BE08          MOVB      XAR6,#8               ; [CPU_] |443| 
    1877 00000024 0646          MOVL      ACC,*-SP[6]           ; [CPU_] |443| 
    1878 00000025 9B00          MOVB      AH,#0                 ; [CPU_] |443| 
    1879 00000026 9008          ANDB      AL,#0x08              ; [CPU_] |443| 
    1880 00000027 0FA6          CMPL      ACC,XAR6              ; [CPU_] |443| 
    1881 00000028 ED06          BF        $C$L31,NEQ            ; [CPU_] |443| 
    1882                      ; branchcc occurs ; [] |443| 
    1883                      .dwpsn  file "C:/Users/a0221343/Git/bootROM/f28004x_bootrom/F28004x_ROM_dev_PG2.0/F28004x_ROM/driverl
    1884 00000029 020A          MOVB      ACC,#10               ; [CPU_] |445| 
    1885 0000002a 0742          ADDL      ACC,*-SP[2]           ; [CPU_] |445| 
    1886 0000002b 8AA9          MOVL      XAR4,ACC              ; [CPU_] |445| 
    1887 0000002c 18C4          AND       *+XAR4[0],#0xffdf     ; [CPU_] |445| 
         0000002d FFDF 
    1888 0000002e       $C$L31:    
    1889                      .dwpsn  file "C:/Users/a0221343/Git/bootROM/f28004x_bootrom/F28004x_ROM_dev_PG2.0/F28004x_ROM/driverl
    1890 0000002e BE10          MOVB      XAR6,#16              ; [CPU_] |447| 
    1891 0000002f 0646          MOVL      ACC,*-SP[6]           ; [CPU_] |447| 
    1892 00000030 9B00          MOVB      AH,#0                 ; [CPU_] |447| 
    1893 00000031 9010          ANDB      AL,#0x10              ; [CPU_] |447| 
    1894 00000032 0FA6          CMPL      ACC,XAR6              ; [CPU_] |447| 
    1895 00000033 ED06          BF        $C$L32,NEQ            ; [CPU_] |447| 
    1896                      ; branchcc occurs ; [] |447| 
    1897                      .dwpsn  file "C:/Users/a0221343/Git/bootROM/f28004x_bootrom/F28004x_ROM_dev_PG2.0/F28004x_ROM/driverl
    1898 00000034 020B          MOVB      ACC,#11               ; [CPU_] |449| 
    1899 00000035 0742          ADDL      ACC,*-SP[2]           ; [CPU_] |449| 
    1900 00000036 8AA9          MOVL      XAR4,ACC              ; [CPU_] |449| 
    1901 00000037 18C4          AND       *+XAR4[0],#0xffdf     ; [CPU_] |449| 
         00000038 FFDF 
    1902                      .dwpsn  file "C:/Users/a0221343/Git/bootROM/f28004x_bootrom/F28004x_ROM_dev_PG2.0/F28004x_ROM/driverl
    1903 00000039       $C$L32:    
    1904 00000039 FE82          SUBB      SP,#2                 ; [CPU_U] 
    1905                      .dwcfi  cfa_offset, -2
    1906              $C$DW$136       .dwtag  DW_TAG_TI_branch
    1907                      .dwattr $C$DW$136, DW_AT_low_pc(0x00)
    1908                      .dwattr $C$DW$136, DW_AT_TI_return
    1909 0000003a 0006          LRETR     ; [CPU_] 
    1910                      ; return occurs ; [] 
    1911                      .dwattr $C$DW$132, DW_AT_TI_end_file("C:/Users/a0221343/Git/bootROM/f28004x_bootrom/F28004x_ROM_dev_P
    1912                      .dwattr $C$DW$132, DW_AT_TI_end_line(0x1c3)
    1913                      .dwattr $C$DW$132, DW_AT_TI_end_column(0x01)
    1914                      .dwendentry
    1915                      .dwendtag $C$DW$132
    1916              
    1917 00000000               .sect   ".text:_SCI_getInterruptStatus"
    1918                      .clink
    1919                      .global _SCI_getInterruptStatus
    1920              
TMS320C2000 Assembler PC v6.4.4 Tue Feb 14 14:43:15 2017

Tools Copyright (c) 1996-2015 Texas Instruments Incorporated
C:\Users\a0221343\AppData\Local\Temp\0049210                         PAGE   37

    1921              $C$DW$137       .dwtag  DW_TAG_subprogram, DW_AT_name("SCI_getInterruptStatus")
    1922                      .dwattr $C$DW$137, DW_AT_low_pc(_SCI_getInterruptStatus)
    1923                      .dwattr $C$DW$137, DW_AT_high_pc(0x00)
    1924                      .dwattr $C$DW$137, DW_AT_TI_symbol_name("_SCI_getInterruptStatus")
    1925                      .dwattr $C$DW$137, DW_AT_external
    1926                      .dwattr $C$DW$137, DW_AT_type(*$C$DW$T$21)
    1927                      .dwattr $C$DW$137, DW_AT_TI_begin_file("C:/Users/a0221343/Git/bootROM/f28004x_bootrom/F28004x_ROM_dev
    1928                      .dwattr $C$DW$137, DW_AT_TI_begin_line(0x1cb)
    1929                      .dwattr $C$DW$137, DW_AT_TI_begin_column(0x01)
    1930                      .dwattr $C$DW$137, DW_AT_TI_max_frame_size(-6)
    1931                      .dwpsn  file "C:/Users/a0221343/Git/bootROM/f28004x_bootrom/F28004x_ROM_dev_PG2.0/F28004x_ROM/driverl
    1932              
    1933                      .dwfde $C$DW$CIE, _SCI_getInterruptStatus
    1934              $C$DW$138       .dwtag  DW_TAG_formal_parameter, DW_AT_name("base")
    1935                      .dwattr $C$DW$138, DW_AT_TI_symbol_name("_base")
    1936                      .dwattr $C$DW$138, DW_AT_type(*$C$DW$T$21)
    1937                      .dwattr $C$DW$138, DW_AT_location[DW_OP_reg0]
    1938              
    1939              ;***************************************************************
    1940              ;* FNAME: _SCI_getInterruptStatus       FR SIZE:   4           *
    1941              ;*                                                             *
    1942              ;* FUNCTION ENVIRONMENT                                        *
    1943              ;*                                                             *
    1944              ;* FUNCTION PROPERTIES                                         *
    1945              ;*                            0 Parameter,  4 Auto,  0 SOE     *
    1946              ;***************************************************************
    1947              
    1948 00000000       _SCI_getInterruptStatus:
    1949                      .dwcfi  cfa_offset, -2
    1950                      .dwcfi  save_reg_to_mem, 26, 0
    1951 00000000 FE04          ADDB      SP,#4                 ; [CPU_U] 
    1952                      .dwcfi  cfa_offset, -6
    1953              $C$DW$139       .dwtag  DW_TAG_variable, DW_AT_name("base")
    1954                      .dwattr $C$DW$139, DW_AT_TI_symbol_name("_base")
    1955                      .dwattr $C$DW$139, DW_AT_type(*$C$DW$T$21)
    1956                      .dwattr $C$DW$139, DW_AT_location[DW_OP_breg20 -2]
    1957              $C$DW$140       .dwtag  DW_TAG_variable, DW_AT_name("interruptStatus")
    1958                      .dwattr $C$DW$140, DW_AT_TI_symbol_name("_interruptStatus")
    1959                      .dwattr $C$DW$140, DW_AT_type(*$C$DW$T$21)
    1960                      .dwattr $C$DW$140, DW_AT_location[DW_OP_breg20 -4]
    1961 00000001 1E42          MOVL      *-SP[2],ACC           ; [CPU_] |460| 
    1962                      .dwpsn  file "C:/Users/a0221343/Git/bootROM/f28004x_bootrom/F28004x_ROM_dev_PG2.0/F28004x_ROM/driverl
    1963 00000002 0200          MOVB      ACC,#0                ; [CPU_] |461| 
    1964 00000003 1E44          MOVL      *-SP[4],ACC           ; [CPU_] |461| 
    1965                      .dwpsn  file "C:/Users/a0221343/Git/bootROM/f28004x_bootrom/F28004x_ROM_dev_PG2.0/F28004x_ROM/driverl
    1966 00000004 8A42          MOVL      XAR4,*-SP[2]          ; [CPU_] |471| 
    1967 00000005 92E4          MOV       AL,*+XAR4[4]          ; [CPU_] |471| 
    1968 00000006 9080          ANDB      AL,#0x80              ; [CPU_] |471| 
    1969 00000007 5280          CMPB      AL,#128               ; [CPU_] |471| 
    1970 00000008 ED03          BF        $C$L33,NEQ            ; [CPU_] |471| 
    1971                      ; branchcc occurs ; [] |471| 
    1972                      .dwpsn  file "C:/Users/a0221343/Git/bootROM/f28004x_bootrom/F28004x_ROM_dev_PG2.0/F28004x_ROM/driverl
    1973 00000009 1A44          OR        *-SP[4],#4            ; [CPU_] |473| 
         0000000a 0004 
    1974 0000000b       $C$L33:    
TMS320C2000 Assembler PC v6.4.4 Tue Feb 14 14:43:15 2017

Tools Copyright (c) 1996-2015 Texas Instruments Incorporated
C:\Users\a0221343\AppData\Local\Temp\0049210                         PAGE   38

    1975                      .dwpsn  file "C:/Users/a0221343/Git/bootROM/f28004x_bootrom/F28004x_ROM_dev_PG2.0/F28004x_ROM/driverl
    1976 0000000b 92EC          MOV       AL,*+XAR4[5]          ; [CPU_] |475| 
    1977 0000000c 9080          ANDB      AL,#0x80              ; [CPU_] |475| 
    1978 0000000d 5280          CMPB      AL,#128               ; [CPU_] |475| 
    1979 0000000e ED03          BF        $C$L34,NEQ            ; [CPU_] |475| 
    1980                      ; branchcc occurs ; [] |475| 
    1981                      .dwpsn  file "C:/Users/a0221343/Git/bootROM/f28004x_bootrom/F28004x_ROM_dev_PG2.0/F28004x_ROM/driverl
    1982 0000000f 1A44          OR        *-SP[4],#1            ; [CPU_] |477| 
         00000010 0001 
    1983 00000011       $C$L34:    
    1984                      .dwpsn  file "C:/Users/a0221343/Git/bootROM/f28004x_bootrom/F28004x_ROM_dev_PG2.0/F28004x_ROM/driverl
    1985 00000011 92EC          MOV       AL,*+XAR4[5]          ; [CPU_] |479| 
    1986 00000012 9060          ANDB      AL,#0x60              ; [CPU_] |479| 
    1987 00000013 5260          CMPB      AL,#96                ; [CPU_] |479| 
    1988 00000014 ED03          BF        $C$L35,NEQ            ; [CPU_] |479| 
    1989                      ; branchcc occurs ; [] |479| 
    1990                      .dwpsn  file "C:/Users/a0221343/Git/bootROM/f28004x_bootrom/F28004x_ROM_dev_PG2.0/F28004x_ROM/driverl
    1991 00000015 1A44          OR        *-SP[4],#2            ; [CPU_] |482| 
         00000016 0002 
    1992 00000017       $C$L35:    
    1993                      .dwpsn  file "C:/Users/a0221343/Git/bootROM/f28004x_bootrom/F28004x_ROM_dev_PG2.0/F28004x_ROM/driverl
    1994 00000017 020A          MOVB      ACC,#10               ; [CPU_] |484| 
    1995 00000018 0742          ADDL      ACC,*-SP[2]           ; [CPU_] |484| 
    1996 00000019 8AA9          MOVL      XAR4,ACC              ; [CPU_] |484| 
    1997 0000001a 92C4          MOV       AL,*+XAR4[0]          ; [CPU_] |484| 
    1998 0000001b 9080          ANDB      AL,#0x80              ; [CPU_] |484| 
    1999 0000001c 5280          CMPB      AL,#128               ; [CPU_] |484| 
    2000 0000001d ED03          BF        $C$L36,NEQ            ; [CPU_] |484| 
    2001                      ; branchcc occurs ; [] |484| 
    2002                      .dwpsn  file "C:/Users/a0221343/Git/bootROM/f28004x_bootrom/F28004x_ROM_dev_PG2.0/F28004x_ROM/driverl
    2003 0000001e 1A44          OR        *-SP[4],#8            ; [CPU_] |486| 
         0000001f 0008 
    2004 00000020       $C$L36:    
    2005                      .dwpsn  file "C:/Users/a0221343/Git/bootROM/f28004x_bootrom/F28004x_ROM_dev_PG2.0/F28004x_ROM/driverl
    2006 00000020 020B          MOVB      ACC,#11               ; [CPU_] |488| 
    2007 00000021 0742          ADDL      ACC,*-SP[2]           ; [CPU_] |488| 
    2008 00000022 8AA9          MOVL      XAR4,ACC              ; [CPU_] |488| 
    2009 00000023 92C4          MOV       AL,*+XAR4[0]          ; [CPU_] |488| 
    2010 00000024 9080          ANDB      AL,#0x80              ; [CPU_] |488| 
    2011 00000025 5280          CMPB      AL,#128               ; [CPU_] |488| 
    2012 00000026 ED03          BF        $C$L37,NEQ            ; [CPU_] |488| 
    2013                      ; branchcc occurs ; [] |488| 
    2014                      .dwpsn  file "C:/Users/a0221343/Git/bootROM/f28004x_bootrom/F28004x_ROM_dev_PG2.0/F28004x_ROM/driverl
    2015 00000027 1A44          OR        *-SP[4],#16           ; [CPU_] |490| 
         00000028 0010 
    2016 00000029       $C$L37:    
    2017                      .dwpsn  file "C:/Users/a0221343/Git/bootROM/f28004x_bootrom/F28004x_ROM_dev_PG2.0/F28004x_ROM/driverl
    2018 00000029 0644          MOVL      ACC,*-SP[4]           ; [CPU_] |493| 
    2019                      .dwpsn  file "C:/Users/a0221343/Git/bootROM/f28004x_bootrom/F28004x_ROM_dev_PG2.0/F28004x_ROM/driverl
    2020 0000002a FE84          SUBB      SP,#4                 ; [CPU_U] 
    2021                      .dwcfi  cfa_offset, -2
    2022              $C$DW$141       .dwtag  DW_TAG_TI_branch
    2023                      .dwattr $C$DW$141, DW_AT_low_pc(0x00)
    2024                      .dwattr $C$DW$141, DW_AT_TI_return
    2025 0000002b 0006          LRETR     ; [CPU_] 
TMS320C2000 Assembler PC v6.4.4 Tue Feb 14 14:43:15 2017

Tools Copyright (c) 1996-2015 Texas Instruments Incorporated
C:\Users\a0221343\AppData\Local\Temp\0049210                         PAGE   39

    2026                      ; return occurs ; [] 
    2027                      .dwattr $C$DW$137, DW_AT_TI_end_file("C:/Users/a0221343/Git/bootROM/f28004x_bootrom/F28004x_ROM_dev_P
    2028                      .dwattr $C$DW$137, DW_AT_TI_end_line(0x1ee)
    2029                      .dwattr $C$DW$137, DW_AT_TI_end_column(0x01)
    2030                      .dwendentry
    2031                      .dwendtag $C$DW$137
    2032              
    2033 00000000               .sect   ".text:_SCI_clearInterruptStatus"
    2034                      .clink
    2035                      .global _SCI_clearInterruptStatus
    2036              
    2037              $C$DW$142       .dwtag  DW_TAG_subprogram, DW_AT_name("SCI_clearInterruptStatus")
    2038                      .dwattr $C$DW$142, DW_AT_low_pc(_SCI_clearInterruptStatus)
    2039                      .dwattr $C$DW$142, DW_AT_high_pc(0x00)
    2040                      .dwattr $C$DW$142, DW_AT_TI_symbol_name("_SCI_clearInterruptStatus")
    2041                      .dwattr $C$DW$142, DW_AT_external
    2042                      .dwattr $C$DW$142, DW_AT_TI_begin_file("C:/Users/a0221343/Git/bootROM/f28004x_bootrom/F28004x_ROM_dev
    2043                      .dwattr $C$DW$142, DW_AT_TI_begin_line(0x1f6)
    2044                      .dwattr $C$DW$142, DW_AT_TI_begin_column(0x01)
    2045                      .dwattr $C$DW$142, DW_AT_TI_max_frame_size(-4)
    2046                      .dwpsn  file "C:/Users/a0221343/Git/bootROM/f28004x_bootrom/F28004x_ROM_dev_PG2.0/F28004x_ROM/driverl
    2047              
    2048                      .dwfde $C$DW$CIE, _SCI_clearInterruptStatus
    2049              $C$DW$143       .dwtag  DW_TAG_formal_parameter, DW_AT_name("base")
    2050                      .dwattr $C$DW$143, DW_AT_TI_symbol_name("_base")
    2051                      .dwattr $C$DW$143, DW_AT_type(*$C$DW$T$21)
    2052                      .dwattr $C$DW$143, DW_AT_location[DW_OP_reg0]
    2053              $C$DW$144       .dwtag  DW_TAG_formal_parameter, DW_AT_name("intFlags")
    2054                      .dwattr $C$DW$144, DW_AT_TI_symbol_name("_intFlags")
    2055                      .dwattr $C$DW$144, DW_AT_type(*$C$DW$T$21)
    2056                      .dwattr $C$DW$144, DW_AT_location[DW_OP_breg20 -6]
    2057              
    2058              ;***************************************************************
    2059              ;* FNAME: _SCI_clearInterruptStatus     FR SIZE:   2           *
    2060              ;*                                                             *
    2061              ;* FUNCTION ENVIRONMENT                                        *
    2062              ;*                                                             *
    2063              ;* FUNCTION PROPERTIES                                         *
    2064              ;*                            0 Parameter,  2 Auto,  0 SOE     *
    2065              ;***************************************************************
    2066              
    2067 00000000       _SCI_clearInterruptStatus:
    2068                      .dwcfi  cfa_offset, -2
    2069                      .dwcfi  save_reg_to_mem, 26, 0
    2070 00000000 FE02          ADDB      SP,#2                 ; [CPU_U] 
    2071                      .dwcfi  cfa_offset, -4
    2072              $C$DW$145       .dwtag  DW_TAG_variable, DW_AT_name("base")
    2073                      .dwattr $C$DW$145, DW_AT_TI_symbol_name("_base")
    2074                      .dwattr $C$DW$145, DW_AT_type(*$C$DW$T$21)
    2075                      .dwattr $C$DW$145, DW_AT_location[DW_OP_breg20 -2]
    2076 00000001 1E42          MOVL      *-SP[2],ACC           ; [CPU_] |503| 
    2077                      .dwpsn  file "C:/Users/a0221343/Git/bootROM/f28004x_bootrom/F28004x_ROM_dev_PG2.0/F28004x_ROM/driverl
    2078 00000002 BE03          MOVB      XAR6,#3               ; [CPU_] |512| 
    2079 00000003 0646          MOVL      ACC,*-SP[6]           ; [CPU_] |512| 
    2080 00000004 9B00          MOVB      AH,#0                 ; [CPU_] |512| 
TMS320C2000 Assembler PC v6.4.4 Tue Feb 14 14:43:15 2017

Tools Copyright (c) 1996-2015 Texas Instruments Incorporated
C:\Users\a0221343\AppData\Local\Temp\0049210                         PAGE   40

    2081 00000005 9003          ANDB      AL,#0x03              ; [CPU_] |512| 
    2082 00000006 0FA6          CMPL      ACC,XAR6              ; [CPU_] |512| 
    2083 00000007 ED04          BF        $C$L38,NEQ            ; [CPU_] |512| 
    2084                      ; branchcc occurs ; [] |512| 
    2085                      .dwpsn  file "C:/Users/a0221343/Git/bootROM/f28004x_bootrom/F28004x_ROM_dev_PG2.0/F28004x_ROM/driverl
    2086 00000008 0642          MOVL      ACC,*-SP[2]           ; [CPU_] |515| 
    2087              $C$DW$146       .dwtag  DW_TAG_TI_branch
    2088                      .dwattr $C$DW$146, DW_AT_low_pc(0x00)
    2089                      .dwattr $C$DW$146, DW_AT_name("_SCI_performSoftwareReset")
    2090                      .dwattr $C$DW$146, DW_AT_TI_call
    2091 00000009 7640+         LCR       #_SCI_performSoftwareReset ; [CPU_] |515| 
         0000000a 0000 
    2092                      ; call occurs [#_SCI_performSoftwareReset] ; [] |515| 
    2093 0000000b       $C$L38:    
    2094                      .dwpsn  file "C:/Users/a0221343/Git/bootROM/f28004x_bootrom/F28004x_ROM_dev_PG2.0/F28004x_ROM/driverl
    2095 0000000b BE08          MOVB      XAR6,#8               ; [CPU_] |518| 
    2096 0000000c 0646          MOVL      ACC,*-SP[6]           ; [CPU_] |518| 
    2097 0000000d 9B00          MOVB      AH,#0                 ; [CPU_] |518| 
    2098 0000000e 9008          ANDB      AL,#0x08              ; [CPU_] |518| 
    2099 0000000f 0FA6          CMPL      ACC,XAR6              ; [CPU_] |518| 
    2100 00000010 ED06          BF        $C$L39,NEQ            ; [CPU_] |518| 
    2101                      ; branchcc occurs ; [] |518| 
    2102                      .dwpsn  file "C:/Users/a0221343/Git/bootROM/f28004x_bootrom/F28004x_ROM_dev_PG2.0/F28004x_ROM/driverl
    2103 00000011 020A          MOVB      ACC,#10               ; [CPU_] |520| 
    2104 00000012 0742          ADDL      ACC,*-SP[2]           ; [CPU_] |520| 
    2105 00000013 8AA9          MOVL      XAR4,ACC              ; [CPU_] |520| 
    2106 00000014 1AC4          OR        *+XAR4[0],#0x0040     ; [CPU_] |520| 
         00000015 0040 
    2107 00000016       $C$L39:    
    2108                      .dwpsn  file "C:/Users/a0221343/Git/bootROM/f28004x_bootrom/F28004x_ROM_dev_PG2.0/F28004x_ROM/driverl
    2109 00000016 BE10          MOVB      XAR6,#16              ; [CPU_] |523| 
    2110 00000017 0646          MOVL      ACC,*-SP[6]           ; [CPU_] |523| 
    2111 00000018 9B00          MOVB      AH,#0                 ; [CPU_] |523| 
    2112 00000019 9010          ANDB      AL,#0x10              ; [CPU_] |523| 
    2113 0000001a 0FA6          CMPL      ACC,XAR6              ; [CPU_] |523| 
    2114 0000001b ED06          BF        $C$L40,NEQ            ; [CPU_] |523| 
    2115                      ; branchcc occurs ; [] |523| 
    2116                      .dwpsn  file "C:/Users/a0221343/Git/bootROM/f28004x_bootrom/F28004x_ROM_dev_PG2.0/F28004x_ROM/driverl
    2117 0000001c 020B          MOVB      ACC,#11               ; [CPU_] |525| 
    2118 0000001d 0742          ADDL      ACC,*-SP[2]           ; [CPU_] |525| 
    2119 0000001e 8AA9          MOVL      XAR4,ACC              ; [CPU_] |525| 
    2120 0000001f 1AC4          OR        *+XAR4[0],#0x0040     ; [CPU_] |525| 
         00000020 0040 
    2121                      .dwpsn  file "C:/Users/a0221343/Git/bootROM/f28004x_bootrom/F28004x_ROM_dev_PG2.0/F28004x_ROM/driverl
    2122 00000021       $C$L40:    
    2123 00000021 FE82          SUBB      SP,#2                 ; [CPU_U] 
    2124                      .dwcfi  cfa_offset, -2
    2125              $C$DW$147       .dwtag  DW_TAG_TI_branch
    2126                      .dwattr $C$DW$147, DW_AT_low_pc(0x00)
    2127                      .dwattr $C$DW$147, DW_AT_TI_return
    2128 00000022 0006          LRETR     ; [CPU_] 
    2129                      ; return occurs ; [] 
    2130                      .dwattr $C$DW$142, DW_AT_TI_end_file("C:/Users/a0221343/Git/bootROM/f28004x_bootrom/F28004x_ROM_dev_P
    2131                      .dwattr $C$DW$142, DW_AT_TI_end_line(0x20f)
    2132                      .dwattr $C$DW$142, DW_AT_TI_end_column(0x01)
TMS320C2000 Assembler PC v6.4.4 Tue Feb 14 14:43:15 2017

Tools Copyright (c) 1996-2015 Texas Instruments Incorporated
C:\Users\a0221343\AppData\Local\Temp\0049210                         PAGE   41

    2133                      .dwendentry
    2134                      .dwendtag $C$DW$142
    2135              
    2136              ;**************************************************************
    2137              ;* UNDEFINED EXTERNAL REFERENCES                              *
    2138              ;**************************************************************
    2139                      .global _Interrupt_disable
    2140                      .global _Interrupt_enable
    2141              
    2142              ;***************************************************************
    2143              ;* TYPE INFORMATION                                            *
    2144              ;***************************************************************
    2145              
    2146              $C$DW$T$19      .dwtag  DW_TAG_enumeration_type
    2147                      .dwattr $C$DW$T$19, DW_AT_byte_size(0x01)
    2148              $C$DW$148       .dwtag  DW_TAG_enumerator, DW_AT_name("SCI_FIFO_TX0"), DW_AT_const_value(0x00)
    2149              $C$DW$149       .dwtag  DW_TAG_enumerator, DW_AT_name("SCI_FIFO_TX1"), DW_AT_const_value(0x01)
    2150              $C$DW$150       .dwtag  DW_TAG_enumerator, DW_AT_name("SCI_FIFO_TX2"), DW_AT_const_value(0x02)
    2151              $C$DW$151       .dwtag  DW_TAG_enumerator, DW_AT_name("SCI_FIFO_TX3"), DW_AT_const_value(0x03)
    2152              $C$DW$152       .dwtag  DW_TAG_enumerator, DW_AT_name("SCI_FIFO_TX4"), DW_AT_const_value(0x04)
    2153              $C$DW$153       .dwtag  DW_TAG_enumerator, DW_AT_name("SCI_FIFO_TX5"), DW_AT_const_value(0x05)
    2154              $C$DW$154       .dwtag  DW_TAG_enumerator, DW_AT_name("SCI_FIFO_TX6"), DW_AT_const_value(0x06)
    2155              $C$DW$155       .dwtag  DW_TAG_enumerator, DW_AT_name("SCI_FIFO_TX7"), DW_AT_const_value(0x07)
    2156              $C$DW$156       .dwtag  DW_TAG_enumerator, DW_AT_name("SCI_FIFO_TX8"), DW_AT_const_value(0x08)
    2157              $C$DW$157       .dwtag  DW_TAG_enumerator, DW_AT_name("SCI_FIFO_TX9"), DW_AT_const_value(0x09)
    2158              $C$DW$158       .dwtag  DW_TAG_enumerator, DW_AT_name("SCI_FIFO_TX10"), DW_AT_const_value(0x0a)
    2159              $C$DW$159       .dwtag  DW_TAG_enumerator, DW_AT_name("SCI_FIFO_TX11"), DW_AT_const_value(0x0b)
    2160              $C$DW$160       .dwtag  DW_TAG_enumerator, DW_AT_name("SCI_FIFO_TX12"), DW_AT_const_value(0x0c)
    2161              $C$DW$161       .dwtag  DW_TAG_enumerator, DW_AT_name("SCI_FIFO_TX13"), DW_AT_const_value(0x0d)
    2162              $C$DW$162       .dwtag  DW_TAG_enumerator, DW_AT_name("SCI_FIFO_TX14"), DW_AT_const_value(0x0e)
    2163              $C$DW$163       .dwtag  DW_TAG_enumerator, DW_AT_name("SCI_FIFO_TX15"), DW_AT_const_value(0x0f)
    2164                      .dwendtag $C$DW$T$19
    2165              
    2166              $C$DW$T$20      .dwtag  DW_TAG_typedef, DW_AT_name("SCI_TxFIFOLevel")
    2167                      .dwattr $C$DW$T$20, DW_AT_type(*$C$DW$T$19)
    2168                      .dwattr $C$DW$T$20, DW_AT_language(DW_LANG_C)
    2169              
    2170              $C$DW$T$24      .dwtag  DW_TAG_enumeration_type
    2171                      .dwattr $C$DW$T$24, DW_AT_byte_size(0x01)
    2172              $C$DW$164       .dwtag  DW_TAG_enumerator, DW_AT_name("SCI_FIFO_RX0"), DW_AT_const_value(0x00)
    2173              $C$DW$165       .dwtag  DW_TAG_enumerator, DW_AT_name("SCI_FIFO_RX1"), DW_AT_const_value(0x01)
    2174              $C$DW$166       .dwtag  DW_TAG_enumerator, DW_AT_name("SCI_FIFO_RX2"), DW_AT_const_value(0x02)
    2175              $C$DW$167       .dwtag  DW_TAG_enumerator, DW_AT_name("SCI_FIFO_RX3"), DW_AT_const_value(0x03)
    2176              $C$DW$168       .dwtag  DW_TAG_enumerator, DW_AT_name("SCI_FIFO_RX4"), DW_AT_const_value(0x04)
    2177              $C$DW$169       .dwtag  DW_TAG_enumerator, DW_AT_name("SCI_FIFO_RX5"), DW_AT_const_value(0x05)
    2178              $C$DW$170       .dwtag  DW_TAG_enumerator, DW_AT_name("SCI_FIFO_RX6"), DW_AT_const_value(0x06)
    2179              $C$DW$171       .dwtag  DW_TAG_enumerator, DW_AT_name("SCI_FIFO_RX7"), DW_AT_const_value(0x07)
    2180              $C$DW$172       .dwtag  DW_TAG_enumerator, DW_AT_name("SCI_FIFO_RX8"), DW_AT_const_value(0x08)
    2181              $C$DW$173       .dwtag  DW_TAG_enumerator, DW_AT_name("SCI_FIFO_RX9"), DW_AT_const_value(0x09)
    2182              $C$DW$174       .dwtag  DW_TAG_enumerator, DW_AT_name("SCI_FIFO_RX10"), DW_AT_const_value(0x0a)
    2183              $C$DW$175       .dwtag  DW_TAG_enumerator, DW_AT_name("SCI_FIFO_RX11"), DW_AT_const_value(0x0b)
    2184              $C$DW$176       .dwtag  DW_TAG_enumerator, DW_AT_name("SCI_FIFO_RX12"), DW_AT_const_value(0x0c)
    2185              $C$DW$177       .dwtag  DW_TAG_enumerator, DW_AT_name("SCI_FIFO_RX13"), DW_AT_const_value(0x0d)
    2186              $C$DW$178       .dwtag  DW_TAG_enumerator, DW_AT_name("SCI_FIFO_RX14"), DW_AT_const_value(0x0e)
    2187              $C$DW$179       .dwtag  DW_TAG_enumerator, DW_AT_name("SCI_FIFO_RX15"), DW_AT_const_value(0x0f)
TMS320C2000 Assembler PC v6.4.4 Tue Feb 14 14:43:15 2017

Tools Copyright (c) 1996-2015 Texas Instruments Incorporated
C:\Users\a0221343\AppData\Local\Temp\0049210                         PAGE   42

    2188                      .dwendtag $C$DW$T$24
    2189              
    2190              $C$DW$T$25      .dwtag  DW_TAG_typedef, DW_AT_name("SCI_RxFIFOLevel")
    2191                      .dwattr $C$DW$T$25, DW_AT_type(*$C$DW$T$24)
    2192                      .dwattr $C$DW$T$25, DW_AT_language(DW_LANG_C)
    2193              $C$DW$T$2       .dwtag  DW_TAG_unspecified_type
    2194                      .dwattr $C$DW$T$2, DW_AT_name("void")
    2195              
    2196              $C$DW$T$28      .dwtag  DW_TAG_subroutine_type
    2197                      .dwattr $C$DW$T$28, DW_AT_language(DW_LANG_C)
    2198              $C$DW$T$29      .dwtag  DW_TAG_pointer_type
    2199                      .dwattr $C$DW$T$29, DW_AT_type(*$C$DW$T$28)
    2200                      .dwattr $C$DW$T$29, DW_AT_address_class(0x20)
    2201              $C$DW$T$4       .dwtag  DW_TAG_base_type
    2202                      .dwattr $C$DW$T$4, DW_AT_encoding(DW_ATE_boolean)
    2203                      .dwattr $C$DW$T$4, DW_AT_name("bool")
    2204                      .dwattr $C$DW$T$4, DW_AT_byte_size(0x01)
    2205              $C$DW$T$5       .dwtag  DW_TAG_base_type
    2206                      .dwattr $C$DW$T$5, DW_AT_encoding(DW_ATE_signed_char)
    2207                      .dwattr $C$DW$T$5, DW_AT_name("signed char")
    2208                      .dwattr $C$DW$T$5, DW_AT_byte_size(0x01)
    2209              $C$DW$T$6       .dwtag  DW_TAG_base_type
    2210                      .dwattr $C$DW$T$6, DW_AT_encoding(DW_ATE_unsigned_char)
    2211                      .dwattr $C$DW$T$6, DW_AT_name("unsigned char")
    2212                      .dwattr $C$DW$T$6, DW_AT_byte_size(0x01)
    2213              $C$DW$T$7       .dwtag  DW_TAG_base_type
    2214                      .dwattr $C$DW$T$7, DW_AT_encoding(DW_ATE_signed_char)
    2215                      .dwattr $C$DW$T$7, DW_AT_name("wchar_t")
    2216                      .dwattr $C$DW$T$7, DW_AT_byte_size(0x01)
    2217              $C$DW$T$8       .dwtag  DW_TAG_base_type
    2218                      .dwattr $C$DW$T$8, DW_AT_encoding(DW_ATE_signed)
    2219                      .dwattr $C$DW$T$8, DW_AT_name("short")
    2220                      .dwattr $C$DW$T$8, DW_AT_byte_size(0x01)
    2221              $C$DW$T$9       .dwtag  DW_TAG_base_type
    2222                      .dwattr $C$DW$T$9, DW_AT_encoding(DW_ATE_unsigned)
    2223                      .dwattr $C$DW$T$9, DW_AT_name("unsigned short")
    2224                      .dwattr $C$DW$T$9, DW_AT_byte_size(0x01)
    2225              $C$DW$T$10      .dwtag  DW_TAG_base_type
    2226                      .dwattr $C$DW$T$10, DW_AT_encoding(DW_ATE_signed)
    2227                      .dwattr $C$DW$T$10, DW_AT_name("int")
    2228                      .dwattr $C$DW$T$10, DW_AT_byte_size(0x01)
    2229              $C$DW$T$11      .dwtag  DW_TAG_base_type
    2230                      .dwattr $C$DW$T$11, DW_AT_encoding(DW_ATE_unsigned)
    2231                      .dwattr $C$DW$T$11, DW_AT_name("unsigned int")
    2232                      .dwattr $C$DW$T$11, DW_AT_byte_size(0x01)
    2233              $C$DW$T$35      .dwtag  DW_TAG_typedef, DW_AT_name("uint16_t")
    2234                      .dwattr $C$DW$T$35, DW_AT_type(*$C$DW$T$11)
    2235                      .dwattr $C$DW$T$35, DW_AT_language(DW_LANG_C)
    2236              $C$DW$T$36      .dwtag  DW_TAG_pointer_type
    2237                      .dwattr $C$DW$T$36, DW_AT_type(*$C$DW$T$35)
    2238                      .dwattr $C$DW$T$36, DW_AT_address_class(0x20)
    2239              $C$DW$T$12      .dwtag  DW_TAG_base_type
    2240                      .dwattr $C$DW$T$12, DW_AT_encoding(DW_ATE_signed)
    2241                      .dwattr $C$DW$T$12, DW_AT_name("long")
    2242                      .dwattr $C$DW$T$12, DW_AT_byte_size(0x02)
TMS320C2000 Assembler PC v6.4.4 Tue Feb 14 14:43:15 2017

Tools Copyright (c) 1996-2015 Texas Instruments Incorporated
C:\Users\a0221343\AppData\Local\Temp\0049210                         PAGE   43

    2243              $C$DW$T$13      .dwtag  DW_TAG_base_type
    2244                      .dwattr $C$DW$T$13, DW_AT_encoding(DW_ATE_unsigned)
    2245                      .dwattr $C$DW$T$13, DW_AT_name("unsigned long")
    2246                      .dwattr $C$DW$T$13, DW_AT_byte_size(0x02)
    2247              $C$DW$T$21      .dwtag  DW_TAG_typedef, DW_AT_name("uint32_t")
    2248                      .dwattr $C$DW$T$21, DW_AT_type(*$C$DW$T$13)
    2249                      .dwattr $C$DW$T$21, DW_AT_language(DW_LANG_C)
    2250              $C$DW$T$14      .dwtag  DW_TAG_base_type
    2251                      .dwattr $C$DW$T$14, DW_AT_encoding(DW_ATE_signed)
    2252                      .dwattr $C$DW$T$14, DW_AT_name("long long")
    2253                      .dwattr $C$DW$T$14, DW_AT_byte_size(0x04)
    2254              $C$DW$T$15      .dwtag  DW_TAG_base_type
    2255                      .dwattr $C$DW$T$15, DW_AT_encoding(DW_ATE_unsigned)
    2256                      .dwattr $C$DW$T$15, DW_AT_name("unsigned long long")
    2257                      .dwattr $C$DW$T$15, DW_AT_byte_size(0x04)
    2258              $C$DW$T$16      .dwtag  DW_TAG_base_type
    2259                      .dwattr $C$DW$T$16, DW_AT_encoding(DW_ATE_float)
    2260                      .dwattr $C$DW$T$16, DW_AT_name("float")
    2261                      .dwattr $C$DW$T$16, DW_AT_byte_size(0x02)
    2262              $C$DW$T$17      .dwtag  DW_TAG_base_type
    2263                      .dwattr $C$DW$T$17, DW_AT_encoding(DW_ATE_float)
    2264                      .dwattr $C$DW$T$17, DW_AT_name("double")
    2265                      .dwattr $C$DW$T$17, DW_AT_byte_size(0x02)
    2266              $C$DW$T$18      .dwtag  DW_TAG_base_type
    2267                      .dwattr $C$DW$T$18, DW_AT_encoding(DW_ATE_float)
    2268                      .dwattr $C$DW$T$18, DW_AT_name("long double")
    2269                      .dwattr $C$DW$T$18, DW_AT_byte_size(0x04)
    2270              $C$DW$T$45      .dwtag  DW_TAG_base_type
    2271                      .dwattr $C$DW$T$45, DW_AT_encoding(DW_ATE_unsigned_char)
    2272                      .dwattr $C$DW$T$45, DW_AT_name("unsigned char")
    2273                      .dwattr $C$DW$T$45, DW_AT_byte_size(0x01)
    2274                      .dwattr $C$DW$CU, DW_AT_language(DW_LANG_C)
    2275              
    2276              ;***************************************************************
    2277              ;* DWARF CIE ENTRIES                                           *
    2278              ;***************************************************************
    2279              
    2280              $C$DW$CIE       .dwcie 26
    2281                      .dwcfi  cfa_register, 20
    2282                      .dwcfi  cfa_offset, 0
    2283                      .dwcfi  undefined, 0
    2284                      .dwcfi  undefined, 1
    2285                      .dwcfi  undefined, 2
    2286                      .dwcfi  undefined, 3
    2287                      .dwcfi  undefined, 20
    2288                      .dwcfi  undefined, 21
    2289                      .dwcfi  undefined, 22
    2290                      .dwcfi  undefined, 23
    2291                      .dwcfi  undefined, 24
    2292                      .dwcfi  undefined, 25
    2293                      .dwcfi  undefined, 26
    2294                      .dwcfi  same_value, 28
    2295                      .dwcfi  undefined, 29
    2296                      .dwcfi  undefined, 30
    2297                      .dwcfi  undefined, 31
TMS320C2000 Assembler PC v6.4.4 Tue Feb 14 14:43:15 2017

Tools Copyright (c) 1996-2015 Texas Instruments Incorporated
C:\Users\a0221343\AppData\Local\Temp\0049210                         PAGE   44

    2298                      .dwcfi  undefined, 32
    2299                      .dwcfi  undefined, 33
    2300                      .dwcfi  undefined, 34
    2301                      .dwcfi  undefined, 35
    2302                      .dwcfi  undefined, 36
    2303                      .dwcfi  undefined, 37
    2304                      .dwcfi  undefined, 38
    2305                      .dwcfi  undefined, 75
    2306                      .dwcfi  undefined, 76
    2307                      .dwcfi  undefined, 77
    2308                      .dwcfi  undefined, 4
    2309                      .dwcfi  undefined, 5
    2310                      .dwcfi  same_value, 6
    2311                      .dwcfi  same_value, 7
    2312                      .dwcfi  same_value, 8
    2313                      .dwcfi  same_value, 9
    2314                      .dwcfi  same_value, 10
    2315                      .dwcfi  same_value, 11
    2316                      .dwcfi  undefined, 12
    2317                      .dwcfi  undefined, 13
    2318                      .dwcfi  undefined, 14
    2319                      .dwcfi  undefined, 15
    2320                      .dwcfi  undefined, 16
    2321                      .dwcfi  undefined, 17
    2322                      .dwcfi  undefined, 18
    2323                      .dwcfi  undefined, 19
    2324                      .dwcfi  undefined, 43
    2325                      .dwcfi  undefined, 44
    2326                      .dwcfi  undefined, 47
    2327                      .dwcfi  undefined, 48
    2328                      .dwcfi  undefined, 51
    2329                      .dwcfi  undefined, 52
    2330                      .dwcfi  undefined, 55
    2331                      .dwcfi  undefined, 56
    2332                      .dwcfi  same_value, 59
    2333                      .dwcfi  same_value, 60
    2334                      .dwcfi  same_value, 63
    2335                      .dwcfi  same_value, 64
    2336                      .dwcfi  same_value, 67
    2337                      .dwcfi  same_value, 68
    2338                      .dwcfi  same_value, 71
    2339                      .dwcfi  same_value, 72
    2340                      .dwcfi  undefined, 73
    2341                      .dwcfi  undefined, 74
    2342                      .dwcfi  undefined, 39
    2343                      .dwcfi  undefined, 40
    2344                      .dwcfi  undefined, 27
    2345                      .dwendentry
    2346              
    2347              ;***************************************************************
    2348              ;* DWARF REGISTER MAP                                          *
    2349              ;***************************************************************
    2350              
    2351              $C$DW$180       .dwtag  DW_TAG_TI_assign_register, DW_AT_name("AL")
    2352                      .dwattr $C$DW$180, DW_AT_location[DW_OP_reg0]
TMS320C2000 Assembler PC v6.4.4 Tue Feb 14 14:43:15 2017

Tools Copyright (c) 1996-2015 Texas Instruments Incorporated
C:\Users\a0221343\AppData\Local\Temp\0049210                         PAGE   45

    2353              $C$DW$181       .dwtag  DW_TAG_TI_assign_register, DW_AT_name("AH")
    2354                      .dwattr $C$DW$181, DW_AT_location[DW_OP_reg1]
    2355              $C$DW$182       .dwtag  DW_TAG_TI_assign_register, DW_AT_name("PL")
    2356                      .dwattr $C$DW$182, DW_AT_location[DW_OP_reg2]
    2357              $C$DW$183       .dwtag  DW_TAG_TI_assign_register, DW_AT_name("PH")
    2358                      .dwattr $C$DW$183, DW_AT_location[DW_OP_reg3]
    2359              $C$DW$184       .dwtag  DW_TAG_TI_assign_register, DW_AT_name("SP")
    2360                      .dwattr $C$DW$184, DW_AT_location[DW_OP_reg20]
    2361              $C$DW$185       .dwtag  DW_TAG_TI_assign_register, DW_AT_name("XT")
    2362                      .dwattr $C$DW$185, DW_AT_location[DW_OP_reg21]
    2363              $C$DW$186       .dwtag  DW_TAG_TI_assign_register, DW_AT_name("T")
    2364                      .dwattr $C$DW$186, DW_AT_location[DW_OP_reg22]
    2365              $C$DW$187       .dwtag  DW_TAG_TI_assign_register, DW_AT_name("ST0")
    2366                      .dwattr $C$DW$187, DW_AT_location[DW_OP_reg23]
    2367              $C$DW$188       .dwtag  DW_TAG_TI_assign_register, DW_AT_name("ST1")
    2368                      .dwattr $C$DW$188, DW_AT_location[DW_OP_reg24]
    2369              $C$DW$189       .dwtag  DW_TAG_TI_assign_register, DW_AT_name("PC")
    2370                      .dwattr $C$DW$189, DW_AT_location[DW_OP_reg25]
    2371              $C$DW$190       .dwtag  DW_TAG_TI_assign_register, DW_AT_name("RPC")
    2372                      .dwattr $C$DW$190, DW_AT_location[DW_OP_reg26]
    2373              $C$DW$191       .dwtag  DW_TAG_TI_assign_register, DW_AT_name("FP")
    2374                      .dwattr $C$DW$191, DW_AT_location[DW_OP_reg28]
    2375              $C$DW$192       .dwtag  DW_TAG_TI_assign_register, DW_AT_name("DP")
    2376                      .dwattr $C$DW$192, DW_AT_location[DW_OP_reg29]
    2377              $C$DW$193       .dwtag  DW_TAG_TI_assign_register, DW_AT_name("SXM")
    2378                      .dwattr $C$DW$193, DW_AT_location[DW_OP_reg30]
    2379              $C$DW$194       .dwtag  DW_TAG_TI_assign_register, DW_AT_name("PM")
    2380                      .dwattr $C$DW$194, DW_AT_location[DW_OP_reg31]
    2381              $C$DW$195       .dwtag  DW_TAG_TI_assign_register, DW_AT_name("OVM")
    2382                      .dwattr $C$DW$195, DW_AT_location[DW_OP_regx 0x20]
    2383              $C$DW$196       .dwtag  DW_TAG_TI_assign_register, DW_AT_name("PAGE0")
    2384                      .dwattr $C$DW$196, DW_AT_location[DW_OP_regx 0x21]
    2385              $C$DW$197       .dwtag  DW_TAG_TI_assign_register, DW_AT_name("AMODE")
    2386                      .dwattr $C$DW$197, DW_AT_location[DW_OP_regx 0x22]
    2387              $C$DW$198       .dwtag  DW_TAG_TI_assign_register, DW_AT_name("INTM")
    2388                      .dwattr $C$DW$198, DW_AT_location[DW_OP_regx 0x23]
    2389              $C$DW$199       .dwtag  DW_TAG_TI_assign_register, DW_AT_name("IFR")
    2390                      .dwattr $C$DW$199, DW_AT_location[DW_OP_regx 0x24]
    2391              $C$DW$200       .dwtag  DW_TAG_TI_assign_register, DW_AT_name("IER")
    2392                      .dwattr $C$DW$200, DW_AT_location[DW_OP_regx 0x25]
    2393              $C$DW$201       .dwtag  DW_TAG_TI_assign_register, DW_AT_name("V")
    2394                      .dwattr $C$DW$201, DW_AT_location[DW_OP_regx 0x26]
    2395              $C$DW$202       .dwtag  DW_TAG_TI_assign_register, DW_AT_name("PSEUDOH")
    2396                      .dwattr $C$DW$202, DW_AT_location[DW_OP_regx 0x4c]
    2397              $C$DW$203       .dwtag  DW_TAG_TI_assign_register, DW_AT_name("VOL")
    2398                      .dwattr $C$DW$203, DW_AT_location[DW_OP_regx 0x4d]
    2399              $C$DW$204       .dwtag  DW_TAG_TI_assign_register, DW_AT_name("AR0")
    2400                      .dwattr $C$DW$204, DW_AT_location[DW_OP_reg4]
    2401              $C$DW$205       .dwtag  DW_TAG_TI_assign_register, DW_AT_name("XAR0")
    2402                      .dwattr $C$DW$205, DW_AT_location[DW_OP_reg5]
    2403              $C$DW$206       .dwtag  DW_TAG_TI_assign_register, DW_AT_name("AR1")
    2404                      .dwattr $C$DW$206, DW_AT_location[DW_OP_reg6]
    2405              $C$DW$207       .dwtag  DW_TAG_TI_assign_register, DW_AT_name("XAR1")
    2406                      .dwattr $C$DW$207, DW_AT_location[DW_OP_reg7]
    2407              $C$DW$208       .dwtag  DW_TAG_TI_assign_register, DW_AT_name("AR2")
TMS320C2000 Assembler PC v6.4.4 Tue Feb 14 14:43:15 2017

Tools Copyright (c) 1996-2015 Texas Instruments Incorporated
C:\Users\a0221343\AppData\Local\Temp\0049210                         PAGE   46

    2408                      .dwattr $C$DW$208, DW_AT_location[DW_OP_reg8]
    2409              $C$DW$209       .dwtag  DW_TAG_TI_assign_register, DW_AT_name("XAR2")
    2410                      .dwattr $C$DW$209, DW_AT_location[DW_OP_reg9]
    2411              $C$DW$210       .dwtag  DW_TAG_TI_assign_register, DW_AT_name("AR3")
    2412                      .dwattr $C$DW$210, DW_AT_location[DW_OP_reg10]
    2413              $C$DW$211       .dwtag  DW_TAG_TI_assign_register, DW_AT_name("XAR3")
    2414                      .dwattr $C$DW$211, DW_AT_location[DW_OP_reg11]
    2415              $C$DW$212       .dwtag  DW_TAG_TI_assign_register, DW_AT_name("AR4")
    2416                      .dwattr $C$DW$212, DW_AT_location[DW_OP_reg12]
    2417              $C$DW$213       .dwtag  DW_TAG_TI_assign_register, DW_AT_name("XAR4")
    2418                      .dwattr $C$DW$213, DW_AT_location[DW_OP_reg13]
    2419              $C$DW$214       .dwtag  DW_TAG_TI_assign_register, DW_AT_name("AR5")
    2420                      .dwattr $C$DW$214, DW_AT_location[DW_OP_reg14]
    2421              $C$DW$215       .dwtag  DW_TAG_TI_assign_register, DW_AT_name("XAR5")
    2422                      .dwattr $C$DW$215, DW_AT_location[DW_OP_reg15]
    2423              $C$DW$216       .dwtag  DW_TAG_TI_assign_register, DW_AT_name("AR6")
    2424                      .dwattr $C$DW$216, DW_AT_location[DW_OP_reg16]
    2425              $C$DW$217       .dwtag  DW_TAG_TI_assign_register, DW_AT_name("XAR6")
    2426                      .dwattr $C$DW$217, DW_AT_location[DW_OP_reg17]
    2427              $C$DW$218       .dwtag  DW_TAG_TI_assign_register, DW_AT_name("AR7")
    2428                      .dwattr $C$DW$218, DW_AT_location[DW_OP_reg18]
    2429              $C$DW$219       .dwtag  DW_TAG_TI_assign_register, DW_AT_name("XAR7")
    2430                      .dwattr $C$DW$219, DW_AT_location[DW_OP_reg19]
    2431              $C$DW$220       .dwtag  DW_TAG_TI_assign_register, DW_AT_name("R0HL")
    2432                      .dwattr $C$DW$220, DW_AT_location[DW_OP_regx 0x2b]
    2433              $C$DW$221       .dwtag  DW_TAG_TI_assign_register, DW_AT_name("R0H")
    2434                      .dwattr $C$DW$221, DW_AT_location[DW_OP_regx 0x2c]
    2435              $C$DW$222       .dwtag  DW_TAG_TI_assign_register, DW_AT_name("R1HL")
    2436                      .dwattr $C$DW$222, DW_AT_location[DW_OP_regx 0x2f]
    2437              $C$DW$223       .dwtag  DW_TAG_TI_assign_register, DW_AT_name("R1H")
    2438                      .dwattr $C$DW$223, DW_AT_location[DW_OP_regx 0x30]
    2439              $C$DW$224       .dwtag  DW_TAG_TI_assign_register, DW_AT_name("R2HL")
    2440                      .dwattr $C$DW$224, DW_AT_location[DW_OP_regx 0x33]
    2441              $C$DW$225       .dwtag  DW_TAG_TI_assign_register, DW_AT_name("R2H")
    2442                      .dwattr $C$DW$225, DW_AT_location[DW_OP_regx 0x34]
    2443              $C$DW$226       .dwtag  DW_TAG_TI_assign_register, DW_AT_name("R3HL")
    2444                      .dwattr $C$DW$226, DW_AT_location[DW_OP_regx 0x37]
    2445              $C$DW$227       .dwtag  DW_TAG_TI_assign_register, DW_AT_name("R3H")
    2446                      .dwattr $C$DW$227, DW_AT_location[DW_OP_regx 0x38]
    2447              $C$DW$228       .dwtag  DW_TAG_TI_assign_register, DW_AT_name("R4HL")
    2448                      .dwattr $C$DW$228, DW_AT_location[DW_OP_regx 0x3b]
    2449              $C$DW$229       .dwtag  DW_TAG_TI_assign_register, DW_AT_name("R4H")
    2450                      .dwattr $C$DW$229, DW_AT_location[DW_OP_regx 0x3c]
    2451              $C$DW$230       .dwtag  DW_TAG_TI_assign_register, DW_AT_name("R5HL")
    2452                      .dwattr $C$DW$230, DW_AT_location[DW_OP_regx 0x3f]
    2453              $C$DW$231       .dwtag  DW_TAG_TI_assign_register, DW_AT_name("R5H")
    2454                      .dwattr $C$DW$231, DW_AT_location[DW_OP_regx 0x40]
    2455              $C$DW$232       .dwtag  DW_TAG_TI_assign_register, DW_AT_name("R6HL")
    2456                      .dwattr $C$DW$232, DW_AT_location[DW_OP_regx 0x43]
    2457              $C$DW$233       .dwtag  DW_TAG_TI_assign_register, DW_AT_name("R6H")
    2458                      .dwattr $C$DW$233, DW_AT_location[DW_OP_regx 0x44]
    2459              $C$DW$234       .dwtag  DW_TAG_TI_assign_register, DW_AT_name("R7HL")
    2460                      .dwattr $C$DW$234, DW_AT_location[DW_OP_regx 0x47]
    2461              $C$DW$235       .dwtag  DW_TAG_TI_assign_register, DW_AT_name("R7H")
    2462                      .dwattr $C$DW$235, DW_AT_location[DW_OP_regx 0x48]
TMS320C2000 Assembler PC v6.4.4 Tue Feb 14 14:43:15 2017

Tools Copyright (c) 1996-2015 Texas Instruments Incorporated
C:\Users\a0221343\AppData\Local\Temp\0049210                         PAGE   47

    2463              $C$DW$236       .dwtag  DW_TAG_TI_assign_register, DW_AT_name("RBL")
    2464                      .dwattr $C$DW$236, DW_AT_location[DW_OP_regx 0x49]
    2465              $C$DW$237       .dwtag  DW_TAG_TI_assign_register, DW_AT_name("RB")
    2466                      .dwattr $C$DW$237, DW_AT_location[DW_OP_regx 0x4a]
    2467              $C$DW$238       .dwtag  DW_TAG_TI_assign_register, DW_AT_name("STFL")
    2468                      .dwattr $C$DW$238, DW_AT_location[DW_OP_regx 0x27]
    2469              $C$DW$239       .dwtag  DW_TAG_TI_assign_register, DW_AT_name("STF")
    2470                      .dwattr $C$DW$239, DW_AT_location[DW_OP_regx 0x28]
    2471              $C$DW$240       .dwtag  DW_TAG_TI_assign_register, DW_AT_name("FPUHAZ")
    2472                      .dwattr $C$DW$240, DW_AT_location[DW_OP_reg27]
    2473                      .dwendtag $C$DW$CU
    2474              

No Assembly Errors, No Assembly Warnings
