TMS320C2000 Assembler PC v6.2.9 Tue Jun 09 22:29:21 2015

Tools Copyright (c) 1996-2014 Texas Instruments Incorporated
C:\Users\a0272466\AppData\Local\Temp\0538410                         PAGE    1

       1              ;***************************************************************
       2              ;* TMS320C2000 C/C++ Codegen                         PC v6.2.9 *
       3              ;* Date/Time created: Tue Jun 09 22:29:18 2015                 *
       4              ;***************************************************************
       5                      .compiler_opts --cla_support=cla0 --float_support=fpu32 --hll_source=on --mem_model:code=flat --mem_m
       6        0002  FP      .set    XAR2
       7              
       8              $C$DW$CU        .dwtag  DW_TAG_compile_unit
       9                      .dwattr $C$DW$CU, DW_AT_name("C:/work/grepos/c2000_bootROM/f28004x_bootrom/F28004x_ROM_dev/F28004x_RO
      10                      .dwattr $C$DW$CU, DW_AT_producer("TMS320C2000 C/C++ Codegen PC v6.2.9 Copyright (c) 1996-2014 Texas I
      11                      .dwattr $C$DW$CU, DW_AT_TI_version(0x01)
      12                      .dwattr $C$DW$CU, DW_AT_comp_dir("C:\work\grepos\c2000_bootROM\f28004x_bootrom\F28004x_ROM_dev\ccs_fi
      13              
      14              $C$DW$1 .dwtag  DW_TAG_subprogram, DW_AT_name("Interrupt_disable")
      15                      .dwattr $C$DW$1, DW_AT_TI_symbol_name("_Interrupt_disable")
      16                      .dwattr $C$DW$1, DW_AT_declaration
      17                      .dwattr $C$DW$1, DW_AT_external
      18              $C$DW$2 .dwtag  DW_TAG_formal_parameter
      19                      .dwattr $C$DW$2, DW_AT_type(*$C$DW$T$21)
      20                      .dwendtag $C$DW$1
      21              
      22              
      23              $C$DW$3 .dwtag  DW_TAG_subprogram, DW_AT_name("Interrupt_enable")
      24                      .dwattr $C$DW$3, DW_AT_TI_symbol_name("_Interrupt_enable")
      25                      .dwattr $C$DW$3, DW_AT_declaration
      26                      .dwattr $C$DW$3, DW_AT_external
      27              $C$DW$4 .dwtag  DW_TAG_formal_parameter
      28                      .dwattr $C$DW$4, DW_AT_type(*$C$DW$T$21)
      29                      .dwendtag $C$DW$3
      30              
      31              
      32              $C$DW$5 .dwtag  DW_TAG_subprogram, DW_AT_name("__byte")
      33                      .dwattr $C$DW$5, DW_AT_TI_symbol_name("___byte")
      34                      .dwattr $C$DW$5, DW_AT_type(*$C$DW$T$56)
      35                      .dwattr $C$DW$5, DW_AT_declaration
      36                      .dwattr $C$DW$5, DW_AT_external
      37              $C$DW$6 .dwtag  DW_TAG_formal_parameter
      38                      .dwattr $C$DW$6, DW_AT_type(*$C$DW$T$56)
      39              $C$DW$7 .dwtag  DW_TAG_formal_parameter
      40                      .dwattr $C$DW$7, DW_AT_type(*$C$DW$T$11)
      41                      .dwendtag $C$DW$5
      42              
      43              ;       C:\ti\ccsv6\tools\compiler\c2000_6.2.9\bin\ac2000.exe -@C:\\Users\\a0272466\\AppData\\Local\\Temp\\05
      44 00000000               .sect   ".text:_Interrupt_defaultHandler"
      45                      .clink
      46              
      47              $C$DW$8 .dwtag  DW_TAG_subprogram, DW_AT_name("Interrupt_defaultHandler")
      48                      .dwattr $C$DW$8, DW_AT_low_pc(_Interrupt_defaultHandler)
      49                      .dwattr $C$DW$8, DW_AT_high_pc(0x00)
      50                      .dwattr $C$DW$8, DW_AT_TI_symbol_name("_Interrupt_defaultHandler")
      51                      .dwattr $C$DW$8, DW_AT_TI_begin_file("C:/work/grepos/c2000_bootROM/f28004x_bootrom/F28004x_ROM_dev/F2
      52                      .dwattr $C$DW$8, DW_AT_TI_begin_line(0x52)
      53                      .dwattr $C$DW$8, DW_AT_TI_begin_column(0x0d)
      54                      .dwattr $C$DW$8, DW_AT_TI_max_frame_size(-2)
      55                      .dwpsn  file "C:/work/grepos/c2000_bootROM/f28004x_bootrom/F28004x_ROM_dev/F28004x_ROM/driverlib/inte
TMS320C2000 Assembler PC v6.2.9 Tue Jun 09 22:29:21 2015

Tools Copyright (c) 1996-2014 Texas Instruments Incorporated
C:\Users\a0272466\AppData\Local\Temp\0538410                         PAGE    2

      56              
      57                      .dwfde $C$DW$CIE, _Interrupt_defaultHandler
      58              
      59              ;***************************************************************
      60              ;* FNAME: _Interrupt_defaultHandler     FR SIZE:   0           *
      61              ;*                                                             *
      62              ;* FUNCTION ENVIRONMENT                                        *
      63              ;*                                                             *
      64              ;* FUNCTION PROPERTIES                                         *
      65              ;*                            0 Parameter,  0 Auto,  0 SOE     *
      66              ;***************************************************************
      67              
      68 00000000       _Interrupt_defaultHandler:
      69                      .dwcfi  cfa_offset, -2
      70                      .dwcfi  save_reg_to_mem, 26, 0
      71                      .dwcfi  save_reg_to_reg, 78, 26
      72                      .dwpsn  file "C:/work/grepos/c2000_bootROM/f28004x_bootrom/F28004x_ROM_dev/F28004x_ROM/driverlib/inte
      73 00000000 7625   ESTOP0
      74                      .dwpsn  file "C:/work/grepos/c2000_bootROM/f28004x_bootrom/F28004x_ROM_dev/F28004x_ROM/driverlib/inte
      75                      .dwpsn  file "C:/work/grepos/c2000_bootROM/f28004x_bootrom/F28004x_ROM_dev/F28004x_ROM/driverlib/inte
      76 00000001 FF69          SPM       #0                    ; [CPU_] 
      77              $C$DW$9 .dwtag  DW_TAG_TI_branch
      78                      .dwattr $C$DW$9, DW_AT_low_pc(0x00)
      79                      .dwattr $C$DW$9, DW_AT_TI_return
      80 00000002 0006          LRETR     ; [CPU_] 
      81                      ; return occurs ; [] 
      82                      .dwattr $C$DW$8, DW_AT_TI_end_file("C:/work/grepos/c2000_bootROM/f28004x_bootrom/F28004x_ROM_dev/F280
      83                      .dwattr $C$DW$8, DW_AT_TI_end_line(0x58)
      84                      .dwattr $C$DW$8, DW_AT_TI_end_column(0x01)
      85                      .dwendentry
      86                      .dwendtag $C$DW$8
      87              
      88 00000000               .sect   ".text:_Interrupt_register"
      89                      .clink
      90              
      91              $C$DW$10        .dwtag  DW_TAG_subprogram, DW_AT_name("Interrupt_register")
      92                      .dwattr $C$DW$10, DW_AT_low_pc(_Interrupt_register)
      93                      .dwattr $C$DW$10, DW_AT_high_pc(0x00)
      94                      .dwattr $C$DW$10, DW_AT_TI_symbol_name("_Interrupt_register")
      95                      .dwattr $C$DW$10, DW_AT_TI_begin_file("C:/work/grepos/c2000_bootROM/f28004x_bootrom/F28004x_ROM_dev/F
      96                      .dwattr $C$DW$10, DW_AT_TI_begin_line(0xa4)
      97                      .dwattr $C$DW$10, DW_AT_TI_begin_column(0x01)
      98                      .dwattr $C$DW$10, DW_AT_TI_max_frame_size(-6)
      99                      .dwpsn  file "C:/work/grepos/c2000_bootROM/f28004x_bootrom/F28004x_ROM_dev/F28004x_ROM/driverlib/inte
     100              
     101                      .dwfde $C$DW$CIE, _Interrupt_register
     102              $C$DW$11        .dwtag  DW_TAG_formal_parameter, DW_AT_name("interruptNumber")
     103                      .dwattr $C$DW$11, DW_AT_TI_symbol_name("_interruptNumber")
     104                      .dwattr $C$DW$11, DW_AT_type(*$C$DW$T$21)
     105                      .dwattr $C$DW$11, DW_AT_location[DW_OP_reg0]
     106              $C$DW$12        .dwtag  DW_TAG_formal_parameter, DW_AT_name("handler")
     107                      .dwattr $C$DW$12, DW_AT_TI_symbol_name("_handler")
     108                      .dwattr $C$DW$12, DW_AT_type(*$C$DW$T$38)
     109                      .dwattr $C$DW$12, DW_AT_location[DW_OP_reg12]
     110              
TMS320C2000 Assembler PC v6.2.9 Tue Jun 09 22:29:21 2015

Tools Copyright (c) 1996-2014 Texas Instruments Incorporated
C:\Users\a0272466\AppData\Local\Temp\0538410                         PAGE    3

     111              ;***************************************************************
     112              ;* FNAME: _Interrupt_register           FR SIZE:   4           *
     113              ;*                                                             *
     114              ;* FUNCTION ENVIRONMENT                                        *
     115              ;*                                                             *
     116              ;* FUNCTION PROPERTIES                                         *
     117              ;*                            0 Parameter,  4 Auto,  0 SOE     *
     118              ;***************************************************************
     119              
     120 00000000       _Interrupt_register:
     121                      .dwcfi  cfa_offset, -2
     122                      .dwcfi  save_reg_to_mem, 26, 0
     123                      .dwcfi  save_reg_to_reg, 78, 26
     124 00000000 FE04          ADDB      SP,#4                 ; [CPU_U] 
     125                      .dwcfi  cfa_offset, -6
     126              $C$DW$13        .dwtag  DW_TAG_variable, DW_AT_name("interruptNumber")
     127                      .dwattr $C$DW$13, DW_AT_TI_symbol_name("_interruptNumber")
     128                      .dwattr $C$DW$13, DW_AT_type(*$C$DW$T$21)
     129                      .dwattr $C$DW$13, DW_AT_location[DW_OP_breg20 -2]
     130              $C$DW$14        .dwtag  DW_TAG_variable, DW_AT_name("handler")
     131                      .dwattr $C$DW$14, DW_AT_TI_symbol_name("_handler")
     132                      .dwattr $C$DW$14, DW_AT_type(*$C$DW$T$38)
     133                      .dwattr $C$DW$14, DW_AT_location[DW_OP_breg20 -4]
     134 00000001 A844          MOVL      *-SP[4],XAR4          ; [CPU_] |165| 
     135 00000002 1E42          MOVL      *-SP[2],ACC           ; [CPU_] |165| 
     136                      .dwpsn  file "C:/work/grepos/c2000_bootROM/f28004x_bootrom/F28004x_ROM_dev/F28004x_ROM/driverlib/inte
     137 00000003 7622   EALLOW
     138                      .dwpsn  file "C:/work/grepos/c2000_bootROM/f28004x_bootrom/F28004x_ROM_dev/F28004x_ROM/driverlib/inte
     139 00000004 0642          MOVL      ACC,*-SP[2]           ; [CPU_] |168| 
     140 00000005 C444          MOVL      XAR6,*-SP[4]          ; [CPU_] |168| 
     141 00000006 0EA8          MOVU      ACC,AH                ; [CPU_] |168| 
     142 00000007 FF30          LSL       ACC,1                 ; [CPU_] |168| 
     143 00000008 FF18          ADD       ACC,#13 << 8          ; [CPU_] |168| 
         00000009 000D 
     144 0000000a 8AA9          MOVL      XAR4,ACC              ; [CPU_] |168| 
     145 0000000b C2C4          MOVL      *+XAR4[0],XAR6        ; [CPU_] |168| 
     146                      .dwpsn  file "C:/work/grepos/c2000_bootROM/f28004x_bootrom/F28004x_ROM_dev/F28004x_ROM/driverlib/inte
     147 0000000c 761A   EDIS
     148                      .dwpsn  file "C:/work/grepos/c2000_bootROM/f28004x_bootrom/F28004x_ROM_dev/F28004x_ROM/driverlib/inte
     149 0000000d FF69          SPM       #0                    ; [CPU_] 
     150 0000000e FE84          SUBB      SP,#4                 ; [CPU_U] 
     151                      .dwcfi  cfa_offset, -2
     152              $C$DW$15        .dwtag  DW_TAG_TI_branch
     153                      .dwattr $C$DW$15, DW_AT_low_pc(0x00)
     154                      .dwattr $C$DW$15, DW_AT_TI_return
     155 0000000f 0006          LRETR     ; [CPU_] 
     156                      ; return occurs ; [] 
     157                      .dwattr $C$DW$10, DW_AT_TI_end_file("C:/work/grepos/c2000_bootROM/f28004x_bootrom/F28004x_ROM_dev/F28
     158                      .dwattr $C$DW$10, DW_AT_TI_end_line(0xab)
     159                      .dwattr $C$DW$10, DW_AT_TI_end_column(0x01)
     160                      .dwendentry
     161                      .dwendtag $C$DW$10
     162              
     163 00000000               .sect   ".text:_Interrupt_unregister"
     164                      .clink
TMS320C2000 Assembler PC v6.2.9 Tue Jun 09 22:29:21 2015

Tools Copyright (c) 1996-2014 Texas Instruments Incorporated
C:\Users\a0272466\AppData\Local\Temp\0538410                         PAGE    4

     165              
     166              $C$DW$16        .dwtag  DW_TAG_subprogram, DW_AT_name("Interrupt_unregister")
     167                      .dwattr $C$DW$16, DW_AT_low_pc(_Interrupt_unregister)
     168                      .dwattr $C$DW$16, DW_AT_high_pc(0x00)
     169                      .dwattr $C$DW$16, DW_AT_TI_symbol_name("_Interrupt_unregister")
     170                      .dwattr $C$DW$16, DW_AT_TI_begin_file("C:/work/grepos/c2000_bootROM/f28004x_bootrom/F28004x_ROM_dev/F
     171                      .dwattr $C$DW$16, DW_AT_TI_begin_line(0xc1)
     172                      .dwattr $C$DW$16, DW_AT_TI_begin_column(0x01)
     173                      .dwattr $C$DW$16, DW_AT_TI_max_frame_size(-4)
     174                      .dwpsn  file "C:/work/grepos/c2000_bootROM/f28004x_bootrom/F28004x_ROM_dev/F28004x_ROM/driverlib/inte
     175              
     176                      .dwfde $C$DW$CIE, _Interrupt_unregister
     177              $C$DW$17        .dwtag  DW_TAG_formal_parameter, DW_AT_name("interruptNumber")
     178                      .dwattr $C$DW$17, DW_AT_TI_symbol_name("_interruptNumber")
     179                      .dwattr $C$DW$17, DW_AT_type(*$C$DW$T$21)
     180                      .dwattr $C$DW$17, DW_AT_location[DW_OP_reg0]
     181              
     182              ;***************************************************************
     183              ;* FNAME: _Interrupt_unregister         FR SIZE:   2           *
     184              ;*                                                             *
     185              ;* FUNCTION ENVIRONMENT                                        *
     186              ;*                                                             *
     187              ;* FUNCTION PROPERTIES                                         *
     188              ;*                            0 Parameter,  2 Auto,  0 SOE     *
     189              ;***************************************************************
     190              
     191 00000000       _Interrupt_unregister:
     192                      .dwcfi  cfa_offset, -2
     193                      .dwcfi  save_reg_to_mem, 26, 0
     194                      .dwcfi  save_reg_to_reg, 78, 26
     195 00000000 FE02          ADDB      SP,#2                 ; [CPU_U] 
     196                      .dwcfi  cfa_offset, -4
     197              $C$DW$18        .dwtag  DW_TAG_variable, DW_AT_name("interruptNumber")
     198                      .dwattr $C$DW$18, DW_AT_TI_symbol_name("_interruptNumber")
     199                      .dwattr $C$DW$18, DW_AT_type(*$C$DW$T$21)
     200                      .dwattr $C$DW$18, DW_AT_location[DW_OP_breg20 -2]
     201 00000001 1E42          MOVL      *-SP[2],ACC           ; [CPU_] |194| 
     202                      .dwpsn  file "C:/work/grepos/c2000_bootROM/f28004x_bootrom/F28004x_ROM_dev/F28004x_ROM/driverlib/inte
     203 00000002 7622   EALLOW
     204                      .dwpsn  file "C:/work/grepos/c2000_bootROM/f28004x_bootrom/F28004x_ROM_dev/F28004x_ROM/driverlib/inte
     205 00000003 8F40+         MOVL      XAR5,#_Interrupt_defaultHandler ; [CPU_U] |197| 
         00000004 0000 
     206 00000005 0642          MOVL      ACC,*-SP[2]           ; [CPU_] |197| 
     207 00000006 0EA8          MOVU      ACC,AH                ; [CPU_] |197| 
     208 00000007 FF30          LSL       ACC,1                 ; [CPU_] |197| 
     209 00000008 FF18          ADD       ACC,#13 << 8          ; [CPU_] |197| 
         00000009 000D 
     210 0000000a 8AA9          MOVL      XAR4,ACC              ; [CPU_] |197| 
     211 0000000b A0C4          MOVL      *+XAR4[0],XAR5        ; [CPU_] |197| 
     212                      .dwpsn  file "C:/work/grepos/c2000_bootROM/f28004x_bootrom/F28004x_ROM_dev/F28004x_ROM/driverlib/inte
     213 0000000c 761A   EDIS
     214                      .dwpsn  file "C:/work/grepos/c2000_bootROM/f28004x_bootrom/F28004x_ROM_dev/F28004x_ROM/driverlib/inte
     215 0000000d FF69          SPM       #0                    ; [CPU_] 
     216 0000000e FE82          SUBB      SP,#2                 ; [CPU_U] 
     217                      .dwcfi  cfa_offset, -2
TMS320C2000 Assembler PC v6.2.9 Tue Jun 09 22:29:21 2015

Tools Copyright (c) 1996-2014 Texas Instruments Incorporated
C:\Users\a0272466\AppData\Local\Temp\0538410                         PAGE    5

     218              $C$DW$19        .dwtag  DW_TAG_TI_branch
     219                      .dwattr $C$DW$19, DW_AT_low_pc(0x00)
     220                      .dwattr $C$DW$19, DW_AT_TI_return
     221 0000000f 0006          LRETR     ; [CPU_] 
     222                      ; return occurs ; [] 
     223                      .dwattr $C$DW$16, DW_AT_TI_end_file("C:/work/grepos/c2000_bootROM/f28004x_bootrom/F28004x_ROM_dev/F28
     224                      .dwattr $C$DW$16, DW_AT_TI_end_line(0xc8)
     225                      .dwattr $C$DW$16, DW_AT_TI_end_column(0x01)
     226                      .dwendentry
     227                      .dwendtag $C$DW$16
     228              
     229 00000000               .sect   ".text:_SCI_setParityMode"
     230                      .clink
     231                      .global _SCI_setParityMode
     232              
     233              $C$DW$20        .dwtag  DW_TAG_subprogram, DW_AT_name("SCI_setParityMode")
     234                      .dwattr $C$DW$20, DW_AT_low_pc(_SCI_setParityMode)
     235                      .dwattr $C$DW$20, DW_AT_high_pc(0x00)
     236                      .dwattr $C$DW$20, DW_AT_TI_symbol_name("_SCI_setParityMode")
     237                      .dwattr $C$DW$20, DW_AT_external
     238                      .dwattr $C$DW$20, DW_AT_TI_begin_file("C:/work/grepos/c2000_bootROM/f28004x_bootrom/F28004x_ROM_dev/F
     239                      .dwattr $C$DW$20, DW_AT_TI_begin_line(0x44)
     240                      .dwattr $C$DW$20, DW_AT_TI_begin_column(0x01)
     241                      .dwattr $C$DW$20, DW_AT_TI_max_frame_size(-6)
     242                      .dwpsn  file "C:/work/grepos/c2000_bootROM/f28004x_bootrom/F28004x_ROM_dev/F28004x_ROM/driverlib/sci_
     243              
     244                      .dwfde $C$DW$CIE, _SCI_setParityMode
     245              $C$DW$21        .dwtag  DW_TAG_formal_parameter, DW_AT_name("base")
     246                      .dwattr $C$DW$21, DW_AT_TI_symbol_name("_base")
     247                      .dwattr $C$DW$21, DW_AT_type(*$C$DW$T$21)
     248                      .dwattr $C$DW$21, DW_AT_location[DW_OP_reg0]
     249              $C$DW$22        .dwtag  DW_TAG_formal_parameter, DW_AT_name("parity")
     250                      .dwattr $C$DW$22, DW_AT_TI_symbol_name("_parity")
     251                      .dwattr $C$DW$22, DW_AT_type(*$C$DW$T$20)
     252                      .dwattr $C$DW$22, DW_AT_location[DW_OP_reg12]
     253              
     254              ;***************************************************************
     255              ;* FNAME: _SCI_setParityMode            FR SIZE:   4           *
     256              ;*                                                             *
     257              ;* FUNCTION ENVIRONMENT                                        *
     258              ;*                                                             *
     259              ;* FUNCTION PROPERTIES                                         *
     260              ;*                            0 Parameter,  3 Auto,  0 SOE     *
     261              ;***************************************************************
     262              
     263 00000000       _SCI_setParityMode:
     264                      .dwcfi  cfa_offset, -2
     265                      .dwcfi  save_reg_to_mem, 26, 0
     266                      .dwcfi  save_reg_to_reg, 78, 26
     267 00000000 FE04          ADDB      SP,#4                 ; [CPU_U] 
     268                      .dwcfi  cfa_offset, -6
     269              $C$DW$23        .dwtag  DW_TAG_variable, DW_AT_name("base")
     270                      .dwattr $C$DW$23, DW_AT_TI_symbol_name("_base")
     271                      .dwattr $C$DW$23, DW_AT_type(*$C$DW$T$21)
     272                      .dwattr $C$DW$23, DW_AT_location[DW_OP_breg20 -2]
TMS320C2000 Assembler PC v6.2.9 Tue Jun 09 22:29:21 2015

Tools Copyright (c) 1996-2014 Texas Instruments Incorporated
C:\Users\a0272466\AppData\Local\Temp\0538410                         PAGE    6

     273              $C$DW$24        .dwtag  DW_TAG_variable, DW_AT_name("parity")
     274                      .dwattr $C$DW$24, DW_AT_TI_symbol_name("_parity")
     275                      .dwattr $C$DW$24, DW_AT_type(*$C$DW$T$20)
     276                      .dwattr $C$DW$24, DW_AT_location[DW_OP_breg20 -3]
     277 00000001 7C43          MOV       *-SP[3],AR4           ; [CPU_] |69| 
     278 00000002 1E42          MOVL      *-SP[2],ACC           ; [CPU_] |69| 
     279                      .dwpsn  file "C:/work/grepos/c2000_bootROM/f28004x_bootrom/F28004x_ROM_dev/F28004x_ROM/driverlib/sci_
     280 00000003 8A42          MOVL      XAR4,*-SP[2]          ; [CPU_] |78| 
     281 00000004 C6C4          MOVB      AL.LSB,*+XAR4[0]      ; [CPU_] |78| 
     282 00000005 8A42          MOVL      XAR4,*-SP[2]          ; [CPU_] |78| 
     283 00000006 CCA9          AND       AL,AL,#0xff9f         ; [CPU_] |78| 
         00000007 FF9F 
     284 00000008 CA43          OR        AL,*-SP[3]            ; [CPU_] |78| 
     285 00000009 3CC4          MOVB      *+XAR4[0],AL.LSB      ; [CPU_] |78| 
     286                      .dwpsn  file "C:/work/grepos/c2000_bootROM/f28004x_bootrom/F28004x_ROM_dev/F28004x_ROM/driverlib/sci_
     287 0000000a FE84          SUBB      SP,#4                 ; [CPU_U] 
     288                      .dwcfi  cfa_offset, -2
     289              $C$DW$25        .dwtag  DW_TAG_TI_branch
     290                      .dwattr $C$DW$25, DW_AT_low_pc(0x00)
     291                      .dwattr $C$DW$25, DW_AT_TI_return
     292 0000000b 0006          LRETR     ; [CPU_] 
     293                      ; return occurs ; [] 
     294                      .dwattr $C$DW$20, DW_AT_TI_end_file("C:/work/grepos/c2000_bootROM/f28004x_bootrom/F28004x_ROM_dev/F28
     295                      .dwattr $C$DW$20, DW_AT_TI_end_line(0x50)
     296                      .dwattr $C$DW$20, DW_AT_TI_end_column(0x01)
     297                      .dwendentry
     298                      .dwendtag $C$DW$20
     299              
     300 00000000               .sect   ".text:_SCI_getParityMode"
     301                      .clink
     302                      .global _SCI_getParityMode
     303              
     304              $C$DW$26        .dwtag  DW_TAG_subprogram, DW_AT_name("SCI_getParityMode")
     305                      .dwattr $C$DW$26, DW_AT_low_pc(_SCI_getParityMode)
     306                      .dwattr $C$DW$26, DW_AT_high_pc(0x00)
     307                      .dwattr $C$DW$26, DW_AT_TI_symbol_name("_SCI_getParityMode")
     308                      .dwattr $C$DW$26, DW_AT_external
     309                      .dwattr $C$DW$26, DW_AT_type(*$C$DW$T$20)
     310                      .dwattr $C$DW$26, DW_AT_TI_begin_file("C:/work/grepos/c2000_bootROM/f28004x_bootrom/F28004x_ROM_dev/F
     311                      .dwattr $C$DW$26, DW_AT_TI_begin_line(0x61)
     312                      .dwattr $C$DW$26, DW_AT_TI_begin_column(0x01)
     313                      .dwattr $C$DW$26, DW_AT_TI_max_frame_size(-4)
     314                      .dwpsn  file "C:/work/grepos/c2000_bootROM/f28004x_bootrom/F28004x_ROM_dev/F28004x_ROM/driverlib/sci_
     315              
     316                      .dwfde $C$DW$CIE, _SCI_getParityMode
     317              $C$DW$27        .dwtag  DW_TAG_formal_parameter, DW_AT_name("base")
     318                      .dwattr $C$DW$27, DW_AT_TI_symbol_name("_base")
     319                      .dwattr $C$DW$27, DW_AT_type(*$C$DW$T$21)
     320                      .dwattr $C$DW$27, DW_AT_location[DW_OP_reg0]
     321              
     322              ;***************************************************************
     323              ;* FNAME: _SCI_getParityMode            FR SIZE:   2           *
     324              ;*                                                             *
     325              ;* FUNCTION ENVIRONMENT                                        *
     326              ;*                                                             *
TMS320C2000 Assembler PC v6.2.9 Tue Jun 09 22:29:21 2015

Tools Copyright (c) 1996-2014 Texas Instruments Incorporated
C:\Users\a0272466\AppData\Local\Temp\0538410                         PAGE    7

     327              ;* FUNCTION PROPERTIES                                         *
     328              ;*                            0 Parameter,  2 Auto,  0 SOE     *
     329              ;***************************************************************
     330              
     331 00000000       _SCI_getParityMode:
     332                      .dwcfi  cfa_offset, -2
     333                      .dwcfi  save_reg_to_mem, 26, 0
     334                      .dwcfi  save_reg_to_reg, 78, 26
     335 00000000 FE02          ADDB      SP,#2                 ; [CPU_U] 
     336                      .dwcfi  cfa_offset, -4
     337              $C$DW$28        .dwtag  DW_TAG_variable, DW_AT_name("base")
     338                      .dwattr $C$DW$28, DW_AT_TI_symbol_name("_base")
     339                      .dwattr $C$DW$28, DW_AT_type(*$C$DW$T$21)
     340                      .dwattr $C$DW$28, DW_AT_location[DW_OP_breg20 -2]
     341 00000001 1E42          MOVL      *-SP[2],ACC           ; [CPU_] |98| 
     342                      .dwpsn  file "C:/work/grepos/c2000_bootROM/f28004x_bootrom/F28004x_ROM_dev/F28004x_ROM/driverlib/sci_
     343 00000002 8A42          MOVL      XAR4,*-SP[2]          ; [CPU_] |107| 
     344 00000003 C6C4          MOVB      AL.LSB,*+XAR4[0]      ; [CPU_] |107| 
     345 00000004 9060          ANDB      AL,#0x60              ; [CPU_] |107| 
     346                      .dwpsn  file "C:/work/grepos/c2000_bootROM/f28004x_bootrom/F28004x_ROM_dev/F28004x_ROM/driverlib/sci_
     347 00000005 FE82          SUBB      SP,#2                 ; [CPU_U] 
     348                      .dwcfi  cfa_offset, -2
     349              $C$DW$29        .dwtag  DW_TAG_TI_branch
     350                      .dwattr $C$DW$29, DW_AT_low_pc(0x00)
     351                      .dwattr $C$DW$29, DW_AT_TI_return
     352 00000006 0006          LRETR     ; [CPU_] 
     353                      ; return occurs ; [] 
     354                      .dwattr $C$DW$26, DW_AT_TI_end_file("C:/work/grepos/c2000_bootROM/f28004x_bootrom/F28004x_ROM_dev/F28
     355                      .dwattr $C$DW$26, DW_AT_TI_end_line(0x6c)
     356                      .dwattr $C$DW$26, DW_AT_TI_end_column(0x01)
     357                      .dwendentry
     358                      .dwendtag $C$DW$26
     359              
     360 00000000               .sect   ".text:_SCI_setFIFOLevel"
     361                      .clink
     362                      .global _SCI_setFIFOLevel
     363              
     364              $C$DW$30        .dwtag  DW_TAG_subprogram, DW_AT_name("SCI_setFIFOLevel")
     365                      .dwattr $C$DW$30, DW_AT_low_pc(_SCI_setFIFOLevel)
     366                      .dwattr $C$DW$30, DW_AT_high_pc(0x00)
     367                      .dwattr $C$DW$30, DW_AT_TI_symbol_name("_SCI_setFIFOLevel")
     368                      .dwattr $C$DW$30, DW_AT_external
     369                      .dwattr $C$DW$30, DW_AT_TI_begin_file("C:/work/grepos/c2000_bootROM/f28004x_bootrom/F28004x_ROM_dev/F
     370                      .dwattr $C$DW$30, DW_AT_TI_begin_line(0x81)
     371                      .dwattr $C$DW$30, DW_AT_TI_begin_column(0x01)
     372                      .dwattr $C$DW$30, DW_AT_TI_max_frame_size(-6)
     373                      .dwpsn  file "C:/work/grepos/c2000_bootROM/f28004x_bootrom/F28004x_ROM_dev/F28004x_ROM/driverlib/sci_
     374              
     375                      .dwfde $C$DW$CIE, _SCI_setFIFOLevel
     376              $C$DW$31        .dwtag  DW_TAG_formal_parameter, DW_AT_name("base")
     377                      .dwattr $C$DW$31, DW_AT_TI_symbol_name("_base")
     378                      .dwattr $C$DW$31, DW_AT_type(*$C$DW$T$21)
     379                      .dwattr $C$DW$31, DW_AT_location[DW_OP_reg0]
     380              $C$DW$32        .dwtag  DW_TAG_formal_parameter, DW_AT_name("txLevel")
     381                      .dwattr $C$DW$32, DW_AT_TI_symbol_name("_txLevel")
TMS320C2000 Assembler PC v6.2.9 Tue Jun 09 22:29:21 2015

Tools Copyright (c) 1996-2014 Texas Instruments Incorporated
C:\Users\a0272466\AppData\Local\Temp\0538410                         PAGE    8

     382                      .dwattr $C$DW$32, DW_AT_type(*$C$DW$T$24)
     383                      .dwattr $C$DW$32, DW_AT_location[DW_OP_reg12]
     384              $C$DW$33        .dwtag  DW_TAG_formal_parameter, DW_AT_name("rxLevel")
     385                      .dwattr $C$DW$33, DW_AT_TI_symbol_name("_rxLevel")
     386                      .dwattr $C$DW$33, DW_AT_type(*$C$DW$T$27)
     387                      .dwattr $C$DW$33, DW_AT_location[DW_OP_reg14]
     388              
     389              ;***************************************************************
     390              ;* FNAME: _SCI_setFIFOLevel             FR SIZE:   4           *
     391              ;*                                                             *
     392              ;* FUNCTION ENVIRONMENT                                        *
     393              ;*                                                             *
     394              ;* FUNCTION PROPERTIES                                         *
     395              ;*                            0 Parameter,  4 Auto,  0 SOE     *
     396              ;***************************************************************
     397              
     398 00000000       _SCI_setFIFOLevel:
     399                      .dwcfi  cfa_offset, -2
     400                      .dwcfi  save_reg_to_mem, 26, 0
     401                      .dwcfi  save_reg_to_reg, 78, 26
     402 00000000 FE04          ADDB      SP,#4                 ; [CPU_U] 
     403                      .dwcfi  cfa_offset, -6
     404              $C$DW$34        .dwtag  DW_TAG_variable, DW_AT_name("base")
     405                      .dwattr $C$DW$34, DW_AT_TI_symbol_name("_base")
     406                      .dwattr $C$DW$34, DW_AT_type(*$C$DW$T$21)
     407                      .dwattr $C$DW$34, DW_AT_location[DW_OP_breg20 -2]
     408              $C$DW$35        .dwtag  DW_TAG_variable, DW_AT_name("txLevel")
     409                      .dwattr $C$DW$35, DW_AT_TI_symbol_name("_txLevel")
     410                      .dwattr $C$DW$35, DW_AT_type(*$C$DW$T$24)
     411                      .dwattr $C$DW$35, DW_AT_location[DW_OP_breg20 -3]
     412              $C$DW$36        .dwtag  DW_TAG_variable, DW_AT_name("rxLevel")
     413                      .dwattr $C$DW$36, DW_AT_TI_symbol_name("_rxLevel")
     414                      .dwattr $C$DW$36, DW_AT_type(*$C$DW$T$27)
     415                      .dwattr $C$DW$36, DW_AT_location[DW_OP_breg20 -4]
     416 00000001 7D44          MOV       *-SP[4],AR5           ; [CPU_] |131| 
     417 00000002 7C43          MOV       *-SP[3],AR4           ; [CPU_] |131| 
     418 00000003 1E42          MOVL      *-SP[2],ACC           ; [CPU_] |131| 
     419                      .dwpsn  file "C:/work/grepos/c2000_bootROM/f28004x_bootrom/F28004x_ROM_dev/F28004x_ROM/driverlib/sci_
     420 00000004 020A          MOVB      ACC,#10               ; [CPU_] |140| 
     421 00000005 0742          ADDL      ACC,*-SP[2]           ; [CPU_] |140| 
     422 00000006 8AA9          MOVL      XAR4,ACC              ; [CPU_] |140| 
     423 00000007 CCC4          AND       AL,*+XAR4[0],#0xffe0  ; [CPU_] |140| 
         00000008 FFE0 
     424 00000009 CA43          OR        AL,*-SP[3]            ; [CPU_] |140| 
     425 0000000a 88A9          MOVZ      AR6,AL                ; [CPU_] |140| 
     426 0000000b 020A          MOVB      ACC,#10               ; [CPU_] |140| 
     427 0000000c 0742          ADDL      ACC,*-SP[2]           ; [CPU_] |140| 
     428 0000000d 8AA9          MOVL      XAR4,ACC              ; [CPU_] |140| 
     429 0000000e 7EC4          MOV       *+XAR4[0],AR6         ; [CPU_] |140| 
     430                      .dwpsn  file "C:/work/grepos/c2000_bootROM/f28004x_bootrom/F28004x_ROM_dev/F28004x_ROM/driverlib/sci_
     431 0000000f 020B          MOVB      ACC,#11               ; [CPU_] |142| 
     432 00000010 0742          ADDL      ACC,*-SP[2]           ; [CPU_] |142| 
     433 00000011 8AA9          MOVL      XAR4,ACC              ; [CPU_] |142| 
     434 00000012 CCC4          AND       AL,*+XAR4[0],#0xffe0  ; [CPU_] |142| 
         00000013 FFE0 
TMS320C2000 Assembler PC v6.2.9 Tue Jun 09 22:29:21 2015

Tools Copyright (c) 1996-2014 Texas Instruments Incorporated
C:\Users\a0272466\AppData\Local\Temp\0538410                         PAGE    9

     435 00000014 CA44          OR        AL,*-SP[4]            ; [CPU_] |142| 
     436 00000015 88A9          MOVZ      AR6,AL                ; [CPU_] |142| 
     437 00000016 020B          MOVB      ACC,#11               ; [CPU_] |142| 
     438 00000017 0742          ADDL      ACC,*-SP[2]           ; [CPU_] |142| 
     439 00000018 8AA9          MOVL      XAR4,ACC              ; [CPU_] |142| 
     440 00000019 7EC4          MOV       *+XAR4[0],AR6         ; [CPU_] |142| 
     441                      .dwpsn  file "C:/work/grepos/c2000_bootROM/f28004x_bootrom/F28004x_ROM_dev/F28004x_ROM/driverlib/sci_
     442 0000001a FE84          SUBB      SP,#4                 ; [CPU_U] 
     443                      .dwcfi  cfa_offset, -2
     444              $C$DW$37        .dwtag  DW_TAG_TI_branch
     445                      .dwattr $C$DW$37, DW_AT_low_pc(0x00)
     446                      .dwattr $C$DW$37, DW_AT_TI_return
     447 0000001b 0006          LRETR     ; [CPU_] 
     448                      ; return occurs ; [] 
     449                      .dwattr $C$DW$30, DW_AT_TI_end_file("C:/work/grepos/c2000_bootROM/f28004x_bootrom/F28004x_ROM_dev/F28
     450                      .dwattr $C$DW$30, DW_AT_TI_end_line(0x90)
     451                      .dwattr $C$DW$30, DW_AT_TI_end_column(0x01)
     452                      .dwendentry
     453                      .dwendtag $C$DW$30
     454              
     455 00000000               .sect   ".text:_SCI_getFIFOLevel"
     456                      .clink
     457                      .global _SCI_getFIFOLevel
     458              
     459              $C$DW$38        .dwtag  DW_TAG_subprogram, DW_AT_name("SCI_getFIFOLevel")
     460                      .dwattr $C$DW$38, DW_AT_low_pc(_SCI_getFIFOLevel)
     461                      .dwattr $C$DW$38, DW_AT_high_pc(0x00)
     462                      .dwattr $C$DW$38, DW_AT_TI_symbol_name("_SCI_getFIFOLevel")
     463                      .dwattr $C$DW$38, DW_AT_external
     464                      .dwattr $C$DW$38, DW_AT_TI_begin_file("C:/work/grepos/c2000_bootROM/f28004x_bootrom/F28004x_ROM_dev/F
     465                      .dwattr $C$DW$38, DW_AT_TI_begin_line(0xa5)
     466                      .dwattr $C$DW$38, DW_AT_TI_begin_column(0x01)
     467                      .dwattr $C$DW$38, DW_AT_TI_max_frame_size(-8)
     468                      .dwpsn  file "C:/work/grepos/c2000_bootROM/f28004x_bootrom/F28004x_ROM_dev/F28004x_ROM/driverlib/sci_
     469              
     470                      .dwfde $C$DW$CIE, _SCI_getFIFOLevel
     471              $C$DW$39        .dwtag  DW_TAG_formal_parameter, DW_AT_name("base")
     472                      .dwattr $C$DW$39, DW_AT_TI_symbol_name("_base")
     473                      .dwattr $C$DW$39, DW_AT_type(*$C$DW$T$21)
     474                      .dwattr $C$DW$39, DW_AT_location[DW_OP_reg0]
     475              $C$DW$40        .dwtag  DW_TAG_formal_parameter, DW_AT_name("txLevel")
     476                      .dwattr $C$DW$40, DW_AT_TI_symbol_name("_txLevel")
     477                      .dwattr $C$DW$40, DW_AT_type(*$C$DW$T$25)
     478                      .dwattr $C$DW$40, DW_AT_location[DW_OP_reg12]
     479              $C$DW$41        .dwtag  DW_TAG_formal_parameter, DW_AT_name("rxLevel")
     480                      .dwattr $C$DW$41, DW_AT_TI_symbol_name("_rxLevel")
     481                      .dwattr $C$DW$41, DW_AT_type(*$C$DW$T$28)
     482                      .dwattr $C$DW$41, DW_AT_location[DW_OP_reg14]
     483              
     484              ;***************************************************************
     485              ;* FNAME: _SCI_getFIFOLevel             FR SIZE:   6           *
     486              ;*                                                             *
     487              ;* FUNCTION ENVIRONMENT                                        *
     488              ;*                                                             *
     489              ;* FUNCTION PROPERTIES                                         *
TMS320C2000 Assembler PC v6.2.9 Tue Jun 09 22:29:21 2015

Tools Copyright (c) 1996-2014 Texas Instruments Incorporated
C:\Users\a0272466\AppData\Local\Temp\0538410                         PAGE   10

     490              ;*                            0 Parameter,  6 Auto,  0 SOE     *
     491              ;***************************************************************
     492              
     493 00000000       _SCI_getFIFOLevel:
     494                      .dwcfi  cfa_offset, -2
     495                      .dwcfi  save_reg_to_mem, 26, 0
     496                      .dwcfi  save_reg_to_reg, 78, 26
     497 00000000 FE06          ADDB      SP,#6                 ; [CPU_U] 
     498                      .dwcfi  cfa_offset, -8
     499              $C$DW$42        .dwtag  DW_TAG_variable, DW_AT_name("base")
     500                      .dwattr $C$DW$42, DW_AT_TI_symbol_name("_base")
     501                      .dwattr $C$DW$42, DW_AT_type(*$C$DW$T$21)
     502                      .dwattr $C$DW$42, DW_AT_location[DW_OP_breg20 -2]
     503              $C$DW$43        .dwtag  DW_TAG_variable, DW_AT_name("txLevel")
     504                      .dwattr $C$DW$43, DW_AT_TI_symbol_name("_txLevel")
     505                      .dwattr $C$DW$43, DW_AT_type(*$C$DW$T$25)
     506                      .dwattr $C$DW$43, DW_AT_location[DW_OP_breg20 -4]
     507              $C$DW$44        .dwtag  DW_TAG_variable, DW_AT_name("rxLevel")
     508                      .dwattr $C$DW$44, DW_AT_TI_symbol_name("_rxLevel")
     509                      .dwattr $C$DW$44, DW_AT_type(*$C$DW$T$28)
     510                      .dwattr $C$DW$44, DW_AT_location[DW_OP_breg20 -6]
     511 00000001 A046          MOVL      *-SP[6],XAR5          ; [CPU_] |167| 
     512 00000002 A844          MOVL      *-SP[4],XAR4          ; [CPU_] |167| 
     513 00000003 1E42          MOVL      *-SP[2],ACC           ; [CPU_] |167| 
     514                      .dwpsn  file "C:/work/grepos/c2000_bootROM/f28004x_bootrom/F28004x_ROM_dev/F28004x_ROM/driverlib/sci_
     515 00000004 020A          MOVB      ACC,#10               ; [CPU_] |177| 
     516 00000005 0742          ADDL      ACC,*-SP[2]           ; [CPU_] |177| 
     517 00000006 8AA9          MOVL      XAR4,ACC              ; [CPU_] |177| 
     518 00000007 92C4          MOV       AL,*+XAR4[0]          ; [CPU_] |177| 
     519 00000008 8A44          MOVL      XAR4,*-SP[4]          ; [CPU_] |177| 
     520 00000009 901F          ANDB      AL,#0x1f              ; [CPU_] |177| 
     521 0000000a 96C4          MOV       *+XAR4[0],AL          ; [CPU_] |177| 
     522                      .dwpsn  file "C:/work/grepos/c2000_bootROM/f28004x_bootrom/F28004x_ROM_dev/F28004x_ROM/driverlib/sci_
     523 0000000b 020B          MOVB      ACC,#11               ; [CPU_] |179| 
     524 0000000c 0742          ADDL      ACC,*-SP[2]           ; [CPU_] |179| 
     525 0000000d 8AA9          MOVL      XAR4,ACC              ; [CPU_] |179| 
     526 0000000e 92C4          MOV       AL,*+XAR4[0]          ; [CPU_] |179| 
     527 0000000f 8A46          MOVL      XAR4,*-SP[6]          ; [CPU_] |179| 
     528 00000010 901F          ANDB      AL,#0x1f              ; [CPU_] |179| 
     529 00000011 96C4          MOV       *+XAR4[0],AL          ; [CPU_] |179| 
     530                      .dwpsn  file "C:/work/grepos/c2000_bootROM/f28004x_bootrom/F28004x_ROM_dev/F28004x_ROM/driverlib/sci_
     531 00000012 FE86          SUBB      SP,#6                 ; [CPU_U] 
     532                      .dwcfi  cfa_offset, -2
     533              $C$DW$45        .dwtag  DW_TAG_TI_branch
     534                      .dwattr $C$DW$45, DW_AT_low_pc(0x00)
     535                      .dwattr $C$DW$45, DW_AT_TI_return
     536 00000013 0006          LRETR     ; [CPU_] 
     537                      ; return occurs ; [] 
     538                      .dwattr $C$DW$38, DW_AT_TI_end_file("C:/work/grepos/c2000_bootROM/f28004x_bootrom/F28004x_ROM_dev/F28
     539                      .dwattr $C$DW$38, DW_AT_TI_end_line(0xb5)
     540                      .dwattr $C$DW$38, DW_AT_TI_end_column(0x01)
     541                      .dwendentry
     542                      .dwendtag $C$DW$38
     543              
     544 00000000               .sect   ".text:_SCI_setConfig"
TMS320C2000 Assembler PC v6.2.9 Tue Jun 09 22:29:21 2015

Tools Copyright (c) 1996-2014 Texas Instruments Incorporated
C:\Users\a0272466\AppData\Local\Temp\0538410                         PAGE   11

     545                      .clink
     546                      .global _SCI_setConfig
     547              
     548              $C$DW$46        .dwtag  DW_TAG_subprogram, DW_AT_name("SCI_setConfig")
     549                      .dwattr $C$DW$46, DW_AT_low_pc(_SCI_setConfig)
     550                      .dwattr $C$DW$46, DW_AT_high_pc(0x00)
     551                      .dwattr $C$DW$46, DW_AT_TI_symbol_name("_SCI_setConfig")
     552                      .dwattr $C$DW$46, DW_AT_external
     553                      .dwattr $C$DW$46, DW_AT_TI_begin_file("C:/work/grepos/c2000_bootROM/f28004x_bootrom/F28004x_ROM_dev/F
     554                      .dwattr $C$DW$46, DW_AT_TI_begin_line(0xde)
     555                      .dwattr $C$DW$46, DW_AT_TI_begin_column(0x01)
     556                      .dwattr $C$DW$46, DW_AT_TI_max_frame_size(-8)
     557                      .dwpsn  file "C:/work/grepos/c2000_bootROM/f28004x_bootrom/F28004x_ROM_dev/F28004x_ROM/driverlib/sci_
     558              
     559                      .dwfde $C$DW$CIE, _SCI_setConfig
     560              $C$DW$47        .dwtag  DW_TAG_formal_parameter, DW_AT_name("base")
     561                      .dwattr $C$DW$47, DW_AT_TI_symbol_name("_base")
     562                      .dwattr $C$DW$47, DW_AT_type(*$C$DW$T$21)
     563                      .dwattr $C$DW$47, DW_AT_location[DW_OP_reg0]
     564              $C$DW$48        .dwtag  DW_TAG_formal_parameter, DW_AT_name("sciClock")
     565                      .dwattr $C$DW$48, DW_AT_TI_symbol_name("_sciClock")
     566                      .dwattr $C$DW$48, DW_AT_type(*$C$DW$T$21)
     567                      .dwattr $C$DW$48, DW_AT_location[DW_OP_breg20 -10]
     568              $C$DW$49        .dwtag  DW_TAG_formal_parameter, DW_AT_name("baud")
     569                      .dwattr $C$DW$49, DW_AT_TI_symbol_name("_baud")
     570                      .dwattr $C$DW$49, DW_AT_type(*$C$DW$T$21)
     571                      .dwattr $C$DW$49, DW_AT_location[DW_OP_breg20 -12]
     572              $C$DW$50        .dwtag  DW_TAG_formal_parameter, DW_AT_name("config")
     573                      .dwattr $C$DW$50, DW_AT_TI_symbol_name("_config")
     574                      .dwattr $C$DW$50, DW_AT_type(*$C$DW$T$21)
     575                      .dwattr $C$DW$50, DW_AT_location[DW_OP_breg20 -14]
     576              
     577              ;***************************************************************
     578              ;* FNAME: _SCI_setConfig                FR SIZE:   6           *
     579              ;*                                                             *
     580              ;* FUNCTION ENVIRONMENT                                        *
     581              ;*                                                             *
     582              ;* FUNCTION PROPERTIES                                         *
     583              ;*                            0 Parameter,  4 Auto,  2 SOE     *
     584              ;***************************************************************
     585              
     586 00000000       _SCI_setConfig:
     587                      .dwcfi  cfa_offset, -2
     588                      .dwcfi  save_reg_to_mem, 26, 0
     589                      .dwcfi  save_reg_to_reg, 78, 26
     590 00000000 B2BD          MOVL      *SP++,XAR1            ; [CPU_] 
     591                      .dwcfi  save_reg_to_mem, 7, 2
     592                      .dwcfi  cfa_offset, -4
     593 00000001 FE04          ADDB      SP,#4                 ; [CPU_U] 
     594                      .dwcfi  cfa_offset, -8
     595              $C$DW$51        .dwtag  DW_TAG_variable, DW_AT_name("base")
     596                      .dwattr $C$DW$51, DW_AT_TI_symbol_name("_base")
     597                      .dwattr $C$DW$51, DW_AT_type(*$C$DW$T$21)
     598                      .dwattr $C$DW$51, DW_AT_location[DW_OP_breg20 -2]
     599              $C$DW$52        .dwtag  DW_TAG_variable, DW_AT_name("divider")
TMS320C2000 Assembler PC v6.2.9 Tue Jun 09 22:29:21 2015

Tools Copyright (c) 1996-2014 Texas Instruments Incorporated
C:\Users\a0272466\AppData\Local\Temp\0538410                         PAGE   12

     600                      .dwattr $C$DW$52, DW_AT_TI_symbol_name("_divider")
     601                      .dwattr $C$DW$52, DW_AT_type(*$C$DW$T$21)
     602                      .dwattr $C$DW$52, DW_AT_location[DW_OP_breg20 -4]
     603 00000002 1E42          MOVL      *-SP[2],ACC           ; [CPU_] |223| 
     604                      .dwpsn  file "C:/work/grepos/c2000_bootROM/f28004x_bootrom/F28004x_ROM_dev/F28004x_ROM/driverlib/sci_
     605 00000003 0642          MOVL      ACC,*-SP[2]           ; [CPU_] |235| 
     606              $C$DW$53        .dwtag  DW_TAG_TI_branch
     607                      .dwattr $C$DW$53, DW_AT_low_pc(0x00)
     608                      .dwattr $C$DW$53, DW_AT_name("_SCI_disableModule")
     609                      .dwattr $C$DW$53, DW_AT_TI_call
     610 00000004 7640+         LCR       #_SCI_disableModule   ; [CPU_] |235| 
         00000005 0000 
     611                      ; call occurs [#_SCI_disableModule] ; [] |235| 
     612                      .dwpsn  file "C:/work/grepos/c2000_bootROM/f28004x_bootrom/F28004x_ROM_dev/F28004x_ROM/driverlib/sci_
     613 00000006 064C          MOVL      ACC,*-SP[12]          ; [CPU_] |240| 
     614 00000007 FF33          LSL       ACC,4                 ; [CPU_] |240| 
     615 00000008 0F4A          CMPL      ACC,*-SP[10]          ; [CPU_] |240| 
     616 00000009 662E          B         $C$L1,HI              ; [CPU_] |240| 
     617                      ; branchcc occurs ; [] |240| 
     618                      .dwpsn  file "C:/work/grepos/c2000_bootROM/f28004x_bootrom/F28004x_ROM_dev/F28004x_ROM/driverlib/sci_
     619                      .dwpsn  file "C:/work/grepos/c2000_bootROM/f28004x_bootrom/F28004x_ROM_dev/F28004x_ROM/driverlib/sci_
     620 0000000a 064C          MOVL      ACC,*-SP[12]          ; [CPU_] |251| 
     621 0000000b A34A          MOVL      P,*-SP[10]            ; [CPU_] |251| 
     622 0000000c FF32          LSL       ACC,3                 ; [CPU_] |251| 
     623 0000000d 1EA6          MOVL      XAR6,ACC              ; [CPU_] |251| 
     624 0000000e 0200          MOVB      ACC,#0                ; [CPU_] |251| 
     625 0000000f F61F          RPT       #31
     626 00000010 5617  ||     SUBCUL    ACC,XAR6              ; [CPU_] |251| 
         00000011 00A6 
     627 00000012 A9A9          MOVL      ACC,P                 ; [CPU_] |251| 
     628 00000013 1901          SUBB      ACC,#1                ; [CPU_] |251| 
     629 00000014 1E44          MOVL      *-SP[4],ACC           ; [CPU_] |251| 
     630                      .dwpsn  file "C:/work/grepos/c2000_bootROM/f28004x_bootrom/F28004x_ROM_dev/F28004x_ROM/driverlib/sci_
     631 00000015 8F00          MOVL      XAR4,#65280           ; [CPU_U] |256| 
         00000016 FF00 
     632 00000017 2901          CLRC      SXM                   ; [CPU_] 
     633 00000018 A8AB          MOVL      P,XAR4                ; [CPU_] |256| 
     634 00000019 92AB          MOV       AL,PL                 ; [CPU_] |256| 
     635 0000001a 93AA          MOV       AH,PH                 ; [CPU_] |256| 
     636 0000001b CE44          AND       AL,*-SP[4]            ; [CPU_] |256| 
     637 0000001c CF43          AND       AH,*-SP[3]            ; [CPU_] |256| 
     638 0000001d 27A9          MOV       PL,AL                 ; [CPU_] |256| 
     639 0000001e 2FA8          MOV       PH,AH                 ; [CPU_] |256| 
     640 0000001f A9A9          MOVL      ACC,P                 ; [CPU_] |256| 
     641 00000020 FF47          SFR       ACC,8                 ; [CPU_] |256| 
     642 00000021 FF5A          MOVL      P,ACC                 ; [CPU_] |256| 
     643 00000022 0202          MOVB      ACC,#2                ; [CPU_] |256| 
     644 00000023 0742          ADDL      ACC,*-SP[2]           ; [CPU_] |256| 
     645 00000024 8AA9          MOVL      XAR4,ACC              ; [CPU_] |256| 
     646 00000025 92AB          MOV       AL,PL                 ; [CPU_] |256| 
     647 00000026 3CC4          MOVB      *+XAR4[0],AL.LSB      ; [CPU_] |256| 
     648                      .dwpsn  file "C:/work/grepos/c2000_bootROM/f28004x_bootrom/F28004x_ROM_dev/F28004x_ROM/driverlib/sci_
     649 00000027 0203          MOVB      ACC,#3                ; [CPU_] |257| 
     650 00000028 0742          ADDL      ACC,*-SP[2]           ; [CPU_] |257| 
     651 00000029 8AA9          MOVL      XAR4,ACC              ; [CPU_] |257| 
TMS320C2000 Assembler PC v6.2.9 Tue Jun 09 22:29:21 2015

Tools Copyright (c) 1996-2014 Texas Instruments Incorporated
C:\Users\a0272466\AppData\Local\Temp\0538410                         PAGE   13

     652 0000002a 9244          MOV       AL,*-SP[4]            ; [CPU_] |257| 
     653 0000002b 90FF          ANDB      AL,#0xff              ; [CPU_] |257| 
     654 0000002c 3CC4          MOVB      *+XAR4[0],AL.LSB      ; [CPU_] |257| 
     655                      .dwpsn  file "C:/work/grepos/c2000_bootROM/f28004x_bootrom/F28004x_ROM_dev/F28004x_ROM/driverlib/sci_
     656 0000002d 8A42          MOVL      XAR4,*-SP[2]          ; [CPU_] |262| 
     657 0000002e C6C4          MOVB      AL.LSB,*+XAR4[0]      ; [CPU_] |262| 
     658 0000002f 8A42          MOVL      XAR4,*-SP[2]          ; [CPU_] |262| 
     659 00000030 CCA9          AND       AL,AL,#0xff18         ; [CPU_] |262| 
         00000031 FF18 
     660 00000032 CA4E          OR        AL,*-SP[14]           ; [CPU_] |262| 
     661 00000033 3CC4          MOVB      *+XAR4[0],AL.LSB      ; [CPU_] |262| 
     662                      .dwpsn  file "C:/work/grepos/c2000_bootROM/f28004x_bootrom/F28004x_ROM_dev/F28004x_ROM/driverlib/sci_
     663 00000034 0642          MOVL      ACC,*-SP[2]           ; [CPU_] |270| 
     664              $C$DW$54        .dwtag  DW_TAG_TI_branch
     665                      .dwattr $C$DW$54, DW_AT_low_pc(0x00)
     666                      .dwattr $C$DW$54, DW_AT_name("_SCI_enableModule")
     667                      .dwattr $C$DW$54, DW_AT_TI_call
     668 00000035 7640+         LCR       #_SCI_enableModule    ; [CPU_] |270| 
         00000036 0000 
     669                      ; call occurs [#_SCI_enableModule] ; [] |270| 
     670                      .dwpsn  file "C:/work/grepos/c2000_bootROM/f28004x_bootrom/F28004x_ROM_dev/F28004x_ROM/driverlib/sci_
     671 00000037       $C$L1:    
     672 00000037 FE84          SUBB      SP,#4                 ; [CPU_U] 
     673                      .dwcfi  cfa_offset, -4
     674 00000038 8BBE          MOVL      XAR1,*--SP            ; [CPU_] 
     675                      .dwcfi  cfa_offset, -2
     676                      .dwcfi  restore_reg, 7
     677              $C$DW$55        .dwtag  DW_TAG_TI_branch
     678                      .dwattr $C$DW$55, DW_AT_low_pc(0x00)
     679                      .dwattr $C$DW$55, DW_AT_TI_return
     680 00000039 0006          LRETR     ; [CPU_] 
     681                      ; return occurs ; [] 
     682                      .dwattr $C$DW$46, DW_AT_TI_end_file("C:/work/grepos/c2000_bootROM/f28004x_bootrom/F28004x_ROM_dev/F28
     683                      .dwattr $C$DW$46, DW_AT_TI_end_line(0x10f)
     684                      .dwattr $C$DW$46, DW_AT_TI_end_column(0x01)
     685                      .dwendentry
     686                      .dwendtag $C$DW$46
     687              
     688 00000000               .sect   ".text:_SCI_getConfig"
     689                      .clink
     690                      .global _SCI_getConfig
     691              
     692              $C$DW$56        .dwtag  DW_TAG_subprogram, DW_AT_name("SCI_getConfig")
     693                      .dwattr $C$DW$56, DW_AT_low_pc(_SCI_getConfig)
     694                      .dwattr $C$DW$56, DW_AT_high_pc(0x00)
     695                      .dwattr $C$DW$56, DW_AT_TI_symbol_name("_SCI_getConfig")
     696                      .dwattr $C$DW$56, DW_AT_external
     697                      .dwattr $C$DW$56, DW_AT_TI_begin_file("C:/work/grepos/c2000_bootROM/f28004x_bootrom/F28004x_ROM_dev/F
     698                      .dwattr $C$DW$56, DW_AT_TI_begin_line(0x12e)
     699                      .dwattr $C$DW$56, DW_AT_TI_begin_column(0x01)
     700                      .dwattr $C$DW$56, DW_AT_TI_max_frame_size(-8)
     701                      .dwpsn  file "C:/work/grepos/c2000_bootROM/f28004x_bootrom/F28004x_ROM_dev/F28004x_ROM/driverlib/sci_
     702              
     703                      .dwfde $C$DW$CIE, _SCI_getConfig
     704              $C$DW$57        .dwtag  DW_TAG_formal_parameter, DW_AT_name("base")
TMS320C2000 Assembler PC v6.2.9 Tue Jun 09 22:29:21 2015

Tools Copyright (c) 1996-2014 Texas Instruments Incorporated
C:\Users\a0272466\AppData\Local\Temp\0538410                         PAGE   14

     705                      .dwattr $C$DW$57, DW_AT_TI_symbol_name("_base")
     706                      .dwattr $C$DW$57, DW_AT_type(*$C$DW$T$21)
     707                      .dwattr $C$DW$57, DW_AT_location[DW_OP_reg0]
     708              $C$DW$58        .dwtag  DW_TAG_formal_parameter, DW_AT_name("sciClock")
     709                      .dwattr $C$DW$58, DW_AT_TI_symbol_name("_sciClock")
     710                      .dwattr $C$DW$58, DW_AT_type(*$C$DW$T$21)
     711                      .dwattr $C$DW$58, DW_AT_location[DW_OP_breg20 -10]
     712              $C$DW$59        .dwtag  DW_TAG_formal_parameter, DW_AT_name("baud")
     713                      .dwattr $C$DW$59, DW_AT_TI_symbol_name("_baud")
     714                      .dwattr $C$DW$59, DW_AT_type(*$C$DW$T$47)
     715                      .dwattr $C$DW$59, DW_AT_location[DW_OP_reg12]
     716              $C$DW$60        .dwtag  DW_TAG_formal_parameter, DW_AT_name("config")
     717                      .dwattr $C$DW$60, DW_AT_TI_symbol_name("_config")
     718                      .dwattr $C$DW$60, DW_AT_type(*$C$DW$T$47)
     719                      .dwattr $C$DW$60, DW_AT_location[DW_OP_reg14]
     720              
     721              ;***************************************************************
     722              ;* FNAME: _SCI_getConfig                FR SIZE:   6           *
     723              ;*                                                             *
     724              ;* FUNCTION ENVIRONMENT                                        *
     725              ;*                                                             *
     726              ;* FUNCTION PROPERTIES                                         *
     727              ;*                            0 Parameter,  6 Auto,  0 SOE     *
     728              ;***************************************************************
     729              
     730 00000000       _SCI_getConfig:
     731                      .dwcfi  cfa_offset, -2
     732                      .dwcfi  save_reg_to_mem, 26, 0
     733                      .dwcfi  save_reg_to_reg, 78, 26
     734 00000000 FE06          ADDB      SP,#6                 ; [CPU_U] 
     735                      .dwcfi  cfa_offset, -8
     736              $C$DW$61        .dwtag  DW_TAG_variable, DW_AT_name("base")
     737                      .dwattr $C$DW$61, DW_AT_TI_symbol_name("_base")
     738                      .dwattr $C$DW$61, DW_AT_type(*$C$DW$T$21)
     739                      .dwattr $C$DW$61, DW_AT_location[DW_OP_breg20 -2]
     740              $C$DW$62        .dwtag  DW_TAG_variable, DW_AT_name("baud")
     741                      .dwattr $C$DW$62, DW_AT_TI_symbol_name("_baud")
     742                      .dwattr $C$DW$62, DW_AT_type(*$C$DW$T$47)
     743                      .dwattr $C$DW$62, DW_AT_location[DW_OP_breg20 -4]
     744              $C$DW$63        .dwtag  DW_TAG_variable, DW_AT_name("config")
     745                      .dwattr $C$DW$63, DW_AT_TI_symbol_name("_config")
     746                      .dwattr $C$DW$63, DW_AT_type(*$C$DW$T$47)
     747                      .dwattr $C$DW$63, DW_AT_location[DW_OP_breg20 -6]
     748 00000001 A046          MOVL      *-SP[6],XAR5          ; [CPU_] |304| 
     749 00000002 A844          MOVL      *-SP[4],XAR4          ; [CPU_] |304| 
     750 00000003 1E42          MOVL      *-SP[2],ACC           ; [CPU_] |304| 
     751                      .dwpsn  file "C:/work/grepos/c2000_bootROM/f28004x_bootrom/F28004x_ROM_dev/F28004x_ROM/driverlib/sci_
     752 00000004 0202          MOVB      ACC,#2                ; [CPU_] |313| 
     753 00000005 0742          ADDL      ACC,*-SP[2]           ; [CPU_] |313| 
     754 00000006 8AA9          MOVL      XAR4,ACC              ; [CPU_] |313| 
     755 00000007 C6C4          MOVB      AL.LSB,*+XAR4[0]      ; [CPU_] |313| 
     756 00000008 FF87          LSL       AL,8                  ; [CPU_] |313| 
     757 00000009 88A9          MOVZ      AR6,AL                ; [CPU_] |313| 
     758 0000000a 3B01          SETC      SXM                   ; [CPU_] 
     759 0000000b A34A          MOVL      P,*-SP[10]            ; [CPU_] |313| 
TMS320C2000 Assembler PC v6.2.9 Tue Jun 09 22:29:21 2015

Tools Copyright (c) 1996-2014 Texas Instruments Incorporated
C:\Users\a0272466\AppData\Local\Temp\0538410                         PAGE   15

     760 0000000c 0203          MOVB      ACC,#3                ; [CPU_] |313| 
     761 0000000d DE01          ADDB      XAR6,#1               ; [CPU_] |313| 
     762 0000000e 0742          ADDL      ACC,*-SP[2]           ; [CPU_] |313| 
     763 0000000f 8AA9          MOVL      XAR4,ACC              ; [CPU_] |313| 
     764 00000010 C6C4          MOVB      AL.LSB,*+XAR4[0]      ; [CPU_] |313| 
     765 00000011 CAA6          OR        AL,AR6                ; [CPU_] |313| 
     766 00000012 8A44          MOVL      XAR4,*-SP[4]          ; [CPU_] |313| 
     767 00000013 5603          MOV       ACC,AL << #3          ; [CPU_] |313| 
         00000014 03A9 
     768 00000015 85A9          MOV       ACC,AL                ; [CPU_] |313| 
     769 00000016 1EA6          MOVL      XAR6,ACC              ; [CPU_] |313| 
     770 00000017 0200          MOVB      ACC,#0                ; [CPU_] |313| 
     771 00000018 F61F          RPT       #31
     772 00000019 5617  ||     SUBCUL    ACC,XAR6              ; [CPU_] |313| 
         0000001a 00A6 
     773 0000001b A9C4          MOVL      *+XAR4[0],P           ; [CPU_] |313| 
     774                      .dwpsn  file "C:/work/grepos/c2000_bootROM/f28004x_bootrom/F28004x_ROM_dev/F28004x_ROM/driverlib/sci_
     775 0000001c 8A42          MOVL      XAR4,*-SP[2]          ; [CPU_] |319| 
     776 0000001d C6C4          MOVB      AL.LSB,*+XAR4[0]      ; [CPU_] |319| 
     777 0000001e 8A46          MOVL      XAR4,*-SP[6]          ; [CPU_] |319| 
     778 0000001f 90E7          ANDB      AL,#0xe7              ; [CPU_] |319| 
     779 00000020 85A9          MOV       ACC,AL                ; [CPU_] |319| 
     780 00000021 1EC4          MOVL      *+XAR4[0],ACC         ; [CPU_] |319| 
     781                      .dwpsn  file "C:/work/grepos/c2000_bootROM/f28004x_bootrom/F28004x_ROM_dev/F28004x_ROM/driverlib/sci_
     782 00000022 FE86          SUBB      SP,#6                 ; [CPU_U] 
     783                      .dwcfi  cfa_offset, -2
     784              $C$DW$64        .dwtag  DW_TAG_TI_branch
     785                      .dwattr $C$DW$64, DW_AT_low_pc(0x00)
     786                      .dwattr $C$DW$64, DW_AT_TI_return
     787 00000023 0006          LRETR     ; [CPU_] 
     788                      ; return occurs ; [] 
     789                      .dwattr $C$DW$56, DW_AT_TI_end_file("C:/work/grepos/c2000_bootROM/f28004x_bootrom/F28004x_ROM_dev/F28
     790                      .dwattr $C$DW$56, DW_AT_TI_end_line(0x142)
     791                      .dwattr $C$DW$56, DW_AT_TI_end_column(0x01)
     792                      .dwendentry
     793                      .dwendtag $C$DW$56
     794              
     795 00000000               .sect   ".text:_SCI_enableModule"
     796                      .clink
     797                      .global _SCI_enableModule
     798              
     799              $C$DW$65        .dwtag  DW_TAG_subprogram, DW_AT_name("SCI_enableModule")
     800                      .dwattr $C$DW$65, DW_AT_low_pc(_SCI_enableModule)
     801                      .dwattr $C$DW$65, DW_AT_high_pc(0x00)
     802                      .dwattr $C$DW$65, DW_AT_TI_symbol_name("_SCI_enableModule")
     803                      .dwattr $C$DW$65, DW_AT_external
     804                      .dwattr $C$DW$65, DW_AT_TI_begin_file("C:/work/grepos/c2000_bootROM/f28004x_bootrom/F28004x_ROM_dev/F
     805                      .dwattr $C$DW$65, DW_AT_TI_begin_line(0x151)
     806                      .dwattr $C$DW$65, DW_AT_TI_begin_column(0x01)
     807                      .dwattr $C$DW$65, DW_AT_TI_max_frame_size(-4)
     808                      .dwpsn  file "C:/work/grepos/c2000_bootROM/f28004x_bootrom/F28004x_ROM_dev/F28004x_ROM/driverlib/sci_
     809              
     810                      .dwfde $C$DW$CIE, _SCI_enableModule
     811              $C$DW$66        .dwtag  DW_TAG_formal_parameter, DW_AT_name("base")
     812                      .dwattr $C$DW$66, DW_AT_TI_symbol_name("_base")
TMS320C2000 Assembler PC v6.2.9 Tue Jun 09 22:29:21 2015

Tools Copyright (c) 1996-2014 Texas Instruments Incorporated
C:\Users\a0272466\AppData\Local\Temp\0538410                         PAGE   16

     813                      .dwattr $C$DW$66, DW_AT_type(*$C$DW$T$21)
     814                      .dwattr $C$DW$66, DW_AT_location[DW_OP_reg0]
     815              
     816              ;***************************************************************
     817              ;* FNAME: _SCI_enableModule             FR SIZE:   2           *
     818              ;*                                                             *
     819              ;* FUNCTION ENVIRONMENT                                        *
     820              ;*                                                             *
     821              ;* FUNCTION PROPERTIES                                         *
     822              ;*                            0 Parameter,  2 Auto,  0 SOE     *
     823              ;***************************************************************
     824              
     825 00000000       _SCI_enableModule:
     826                      .dwcfi  cfa_offset, -2
     827                      .dwcfi  save_reg_to_mem, 26, 0
     828                      .dwcfi  save_reg_to_reg, 78, 26
     829 00000000 FE02          ADDB      SP,#2                 ; [CPU_U] 
     830                      .dwcfi  cfa_offset, -4
     831              $C$DW$67        .dwtag  DW_TAG_variable, DW_AT_name("base")
     832                      .dwattr $C$DW$67, DW_AT_TI_symbol_name("_base")
     833                      .dwattr $C$DW$67, DW_AT_type(*$C$DW$T$21)
     834                      .dwattr $C$DW$67, DW_AT_location[DW_OP_breg20 -2]
     835 00000001 1E42          MOVL      *-SP[2],ACC           ; [CPU_] |338| 
     836                      .dwpsn  file "C:/work/grepos/c2000_bootROM/f28004x_bootrom/F28004x_ROM_dev/F28004x_ROM/driverlib/sci_
     837 00000002 0201          MOVB      ACC,#1                ; [CPU_] |347| 
     838 00000003 0742          ADDL      ACC,*-SP[2]           ; [CPU_] |347| 
     839 00000004 8AA9          MOVL      XAR4,ACC              ; [CPU_] |347| 
     840 00000005 C6C4          MOVB      AL.LSB,*+XAR4[0]      ; [CPU_] |347| 
     841 00000006 5023          ORB       AL,#0x23              ; [CPU_] |347| 
     842 00000007 3CC4          MOVB      *+XAR4[0],AL.LSB      ; [CPU_] |347| 
     843                      .dwpsn  file "C:/work/grepos/c2000_bootROM/f28004x_bootrom/F28004x_ROM_dev/F28004x_ROM/driverlib/sci_
     844 00000008 FE82          SUBB      SP,#2                 ; [CPU_U] 
     845                      .dwcfi  cfa_offset, -2
     846              $C$DW$68        .dwtag  DW_TAG_TI_branch
     847                      .dwattr $C$DW$68, DW_AT_low_pc(0x00)
     848                      .dwattr $C$DW$68, DW_AT_TI_return
     849 00000009 0006          LRETR     ; [CPU_] 
     850                      ; return occurs ; [] 
     851                      .dwattr $C$DW$65, DW_AT_TI_end_file("C:/work/grepos/c2000_bootROM/f28004x_bootrom/F28004x_ROM_dev/F28
     852                      .dwattr $C$DW$65, DW_AT_TI_end_line(0x15d)
     853                      .dwattr $C$DW$65, DW_AT_TI_end_column(0x01)
     854                      .dwendentry
     855                      .dwendtag $C$DW$65
     856              
     857 00000000               .sect   ".text:_SCI_disableModule"
     858                      .clink
     859                      .global _SCI_disableModule
     860              
     861              $C$DW$69        .dwtag  DW_TAG_subprogram, DW_AT_name("SCI_disableModule")
     862                      .dwattr $C$DW$69, DW_AT_low_pc(_SCI_disableModule)
     863                      .dwattr $C$DW$69, DW_AT_high_pc(0x00)
     864                      .dwattr $C$DW$69, DW_AT_TI_symbol_name("_SCI_disableModule")
     865                      .dwattr $C$DW$69, DW_AT_external
     866                      .dwattr $C$DW$69, DW_AT_TI_begin_file("C:/work/grepos/c2000_bootROM/f28004x_bootrom/F28004x_ROM_dev/F
     867                      .dwattr $C$DW$69, DW_AT_TI_begin_line(0x16c)
TMS320C2000 Assembler PC v6.2.9 Tue Jun 09 22:29:21 2015

Tools Copyright (c) 1996-2014 Texas Instruments Incorporated
C:\Users\a0272466\AppData\Local\Temp\0538410                         PAGE   17

     868                      .dwattr $C$DW$69, DW_AT_TI_begin_column(0x01)
     869                      .dwattr $C$DW$69, DW_AT_TI_max_frame_size(-4)
     870                      .dwpsn  file "C:/work/grepos/c2000_bootROM/f28004x_bootrom/F28004x_ROM_dev/F28004x_ROM/driverlib/sci_
     871              
     872                      .dwfde $C$DW$CIE, _SCI_disableModule
     873              $C$DW$70        .dwtag  DW_TAG_formal_parameter, DW_AT_name("base")
     874                      .dwattr $C$DW$70, DW_AT_TI_symbol_name("_base")
     875                      .dwattr $C$DW$70, DW_AT_type(*$C$DW$T$21)
     876                      .dwattr $C$DW$70, DW_AT_location[DW_OP_reg0]
     877              
     878              ;***************************************************************
     879              ;* FNAME: _SCI_disableModule            FR SIZE:   2           *
     880              ;*                                                             *
     881              ;* FUNCTION ENVIRONMENT                                        *
     882              ;*                                                             *
     883              ;* FUNCTION PROPERTIES                                         *
     884              ;*                            0 Parameter,  2 Auto,  0 SOE     *
     885              ;***************************************************************
     886              
     887 00000000       _SCI_disableModule:
     888                      .dwcfi  cfa_offset, -2
     889                      .dwcfi  save_reg_to_mem, 26, 0
     890                      .dwcfi  save_reg_to_reg, 78, 26
     891 00000000 FE02          ADDB      SP,#2                 ; [CPU_U] 
     892                      .dwcfi  cfa_offset, -4
     893              $C$DW$71        .dwtag  DW_TAG_variable, DW_AT_name("base")
     894                      .dwattr $C$DW$71, DW_AT_TI_symbol_name("_base")
     895                      .dwattr $C$DW$71, DW_AT_type(*$C$DW$T$21)
     896                      .dwattr $C$DW$71, DW_AT_location[DW_OP_breg20 -2]
     897 00000001 1E42          MOVL      *-SP[2],ACC           ; [CPU_] |365| 
     898                      .dwpsn  file "C:/work/grepos/c2000_bootROM/f28004x_bootrom/F28004x_ROM_dev/F28004x_ROM/driverlib/sci_
     899 00000002       $C$L2:    
     900                      .dwpsn  file "C:/work/grepos/c2000_bootROM/f28004x_bootrom/F28004x_ROM_dev/F28004x_ROM/driverlib/sci_
     901 00000002 0204          MOVB      ACC,#4                ; [CPU_] |374| 
     902 00000003 0742          ADDL      ACC,*-SP[2]           ; [CPU_] |374| 
     903 00000004 8AA9          MOVL      XAR4,ACC              ; [CPU_] |374| 
     904 00000005 C6C4          MOVB      AL.LSB,*+XAR4[0]      ; [CPU_] |374| 
     905 00000006 46A9          TBIT      AL,#6                 ; [CPU_] |374| 
     906 00000007 EFFB          BF        $C$L2,NTC             ; [CPU_] |374| 
     907                      ; branchcc occurs ; [] |374| 
     908                      .dwpsn  file "C:/work/grepos/c2000_bootROM/f28004x_bootrom/F28004x_ROM_dev/F28004x_ROM/driverlib/sci_
     909 00000008 020A          MOVB      ACC,#10               ; [CPU_] |381| 
     910 00000009 0742          ADDL      ACC,*-SP[2]           ; [CPU_] |381| 
     911 0000000a 8AA9          MOVL      XAR4,ACC              ; [CPU_] |381| 
     912 0000000b 18C4          AND       *+XAR4[0],#0xbfff     ; [CPU_] |381| 
         0000000c BFFF 
     913                      .dwpsn  file "C:/work/grepos/c2000_bootROM/f28004x_bootrom/F28004x_ROM_dev/F28004x_ROM/driverlib/sci_
     914 0000000d 0201          MOVB      ACC,#1                ; [CPU_] |386| 
     915 0000000e 0742          ADDL      ACC,*-SP[2]           ; [CPU_] |386| 
     916 0000000f 8AA9          MOVL      XAR4,ACC              ; [CPU_] |386| 
     917 00000010 C6C4          MOVB      AL.LSB,*+XAR4[0]      ; [CPU_] |386| 
     918 00000011 CCA9          AND       AL,AL,#0xfffc         ; [CPU_] |386| 
         00000012 FFFC 
     919 00000013 3CC4          MOVB      *+XAR4[0],AL.LSB      ; [CPU_] |386| 
     920                      .dwpsn  file "C:/work/grepos/c2000_bootROM/f28004x_bootrom/F28004x_ROM_dev/F28004x_ROM/driverlib/sci_
TMS320C2000 Assembler PC v6.2.9 Tue Jun 09 22:29:21 2015

Tools Copyright (c) 1996-2014 Texas Instruments Incorporated
C:\Users\a0272466\AppData\Local\Temp\0538410                         PAGE   18

     921 00000014 FE82          SUBB      SP,#2                 ; [CPU_U] 
     922                      .dwcfi  cfa_offset, -2
     923              $C$DW$72        .dwtag  DW_TAG_TI_branch
     924                      .dwattr $C$DW$72, DW_AT_low_pc(0x00)
     925                      .dwattr $C$DW$72, DW_AT_TI_return
     926 00000015 0006          LRETR     ; [CPU_] 
     927                      ; return occurs ; [] 
     928                      .dwattr $C$DW$69, DW_AT_TI_end_file("C:/work/grepos/c2000_bootROM/f28004x_bootrom/F28004x_ROM_dev/F28
     929                      .dwattr $C$DW$69, DW_AT_TI_end_line(0x183)
     930                      .dwattr $C$DW$69, DW_AT_TI_end_column(0x01)
     931                      .dwendentry
     932                      .dwendtag $C$DW$69
     933              
     934 00000000               .sect   ".text:_SCI_enableFIFO"
     935                      .clink
     936                      .global _SCI_enableFIFO
     937              
     938              $C$DW$73        .dwtag  DW_TAG_subprogram, DW_AT_name("SCI_enableFIFO")
     939                      .dwattr $C$DW$73, DW_AT_low_pc(_SCI_enableFIFO)
     940                      .dwattr $C$DW$73, DW_AT_high_pc(0x00)
     941                      .dwattr $C$DW$73, DW_AT_TI_symbol_name("_SCI_enableFIFO")
     942                      .dwattr $C$DW$73, DW_AT_external
     943                      .dwattr $C$DW$73, DW_AT_TI_begin_file("C:/work/grepos/c2000_bootROM/f28004x_bootrom/F28004x_ROM_dev/F
     944                      .dwattr $C$DW$73, DW_AT_TI_begin_line(0x191)
     945                      .dwattr $C$DW$73, DW_AT_TI_begin_column(0x01)
     946                      .dwattr $C$DW$73, DW_AT_TI_max_frame_size(-4)
     947                      .dwpsn  file "C:/work/grepos/c2000_bootROM/f28004x_bootrom/F28004x_ROM_dev/F28004x_ROM/driverlib/sci_
     948              
     949                      .dwfde $C$DW$CIE, _SCI_enableFIFO
     950              $C$DW$74        .dwtag  DW_TAG_formal_parameter, DW_AT_name("base")
     951                      .dwattr $C$DW$74, DW_AT_TI_symbol_name("_base")
     952                      .dwattr $C$DW$74, DW_AT_type(*$C$DW$T$21)
     953                      .dwattr $C$DW$74, DW_AT_location[DW_OP_reg0]
     954              
     955              ;***************************************************************
     956              ;* FNAME: _SCI_enableFIFO               FR SIZE:   2           *
     957              ;*                                                             *
     958              ;* FUNCTION ENVIRONMENT                                        *
     959              ;*                                                             *
     960              ;* FUNCTION PROPERTIES                                         *
     961              ;*                            0 Parameter,  2 Auto,  0 SOE     *
     962              ;***************************************************************
     963              
     964 00000000       _SCI_enableFIFO:
     965                      .dwcfi  cfa_offset, -2
     966                      .dwcfi  save_reg_to_mem, 26, 0
     967                      .dwcfi  save_reg_to_reg, 78, 26
     968 00000000 FE02          ADDB      SP,#2                 ; [CPU_U] 
     969                      .dwcfi  cfa_offset, -4
     970              $C$DW$75        .dwtag  DW_TAG_variable, DW_AT_name("base")
     971                      .dwattr $C$DW$75, DW_AT_TI_symbol_name("_base")
     972                      .dwattr $C$DW$75, DW_AT_type(*$C$DW$T$21)
     973                      .dwattr $C$DW$75, DW_AT_location[DW_OP_breg20 -2]
     974 00000001 1E42          MOVL      *-SP[2],ACC           ; [CPU_] |402| 
     975                      .dwpsn  file "C:/work/grepos/c2000_bootROM/f28004x_bootrom/F28004x_ROM_dev/F28004x_ROM/driverlib/sci_
TMS320C2000 Assembler PC v6.2.9 Tue Jun 09 22:29:21 2015

Tools Copyright (c) 1996-2014 Texas Instruments Incorporated
C:\Users\a0272466\AppData\Local\Temp\0538410                         PAGE   19

     976 00000002 020A          MOVB      ACC,#10               ; [CPU_] |411| 
     977 00000003 0742          ADDL      ACC,*-SP[2]           ; [CPU_] |411| 
     978 00000004 8AA9          MOVL      XAR4,ACC              ; [CPU_] |411| 
     979 00000005 1AC4          OR        *+XAR4[0],#0x4000     ; [CPU_] |411| 
         00000006 4000 
     980                      .dwpsn  file "C:/work/grepos/c2000_bootROM/f28004x_bootrom/F28004x_ROM_dev/F28004x_ROM/driverlib/sci_
     981 00000007 FE82          SUBB      SP,#2                 ; [CPU_U] 
     982                      .dwcfi  cfa_offset, -2
     983              $C$DW$76        .dwtag  DW_TAG_TI_branch
     984                      .dwattr $C$DW$76, DW_AT_low_pc(0x00)
     985                      .dwattr $C$DW$76, DW_AT_TI_return
     986 00000008 0006          LRETR     ; [CPU_] 
     987                      ; return occurs ; [] 
     988                      .dwattr $C$DW$73, DW_AT_TI_end_file("C:/work/grepos/c2000_bootROM/f28004x_bootrom/F28004x_ROM_dev/F28
     989                      .dwattr $C$DW$73, DW_AT_TI_end_line(0x19c)
     990                      .dwattr $C$DW$73, DW_AT_TI_end_column(0x01)
     991                      .dwendentry
     992                      .dwendtag $C$DW$73
     993              
     994 00000000               .sect   ".text:_SCI_disableFIFO"
     995                      .clink
     996                      .global _SCI_disableFIFO
     997              
     998              $C$DW$77        .dwtag  DW_TAG_subprogram, DW_AT_name("SCI_disableFIFO")
     999                      .dwattr $C$DW$77, DW_AT_low_pc(_SCI_disableFIFO)
    1000                      .dwattr $C$DW$77, DW_AT_high_pc(0x00)
    1001                      .dwattr $C$DW$77, DW_AT_TI_symbol_name("_SCI_disableFIFO")
    1002                      .dwattr $C$DW$77, DW_AT_external
    1003                      .dwattr $C$DW$77, DW_AT_TI_begin_file("C:/work/grepos/c2000_bootROM/f28004x_bootrom/F28004x_ROM_dev/F
    1004                      .dwattr $C$DW$77, DW_AT_TI_begin_line(0x1aa)
    1005                      .dwattr $C$DW$77, DW_AT_TI_begin_column(0x01)
    1006                      .dwattr $C$DW$77, DW_AT_TI_max_frame_size(-4)
    1007                      .dwpsn  file "C:/work/grepos/c2000_bootROM/f28004x_bootrom/F28004x_ROM_dev/F28004x_ROM/driverlib/sci_
    1008              
    1009                      .dwfde $C$DW$CIE, _SCI_disableFIFO
    1010              $C$DW$78        .dwtag  DW_TAG_formal_parameter, DW_AT_name("base")
    1011                      .dwattr $C$DW$78, DW_AT_TI_symbol_name("_base")
    1012                      .dwattr $C$DW$78, DW_AT_type(*$C$DW$T$21)
    1013                      .dwattr $C$DW$78, DW_AT_location[DW_OP_reg0]
    1014              
    1015              ;***************************************************************
    1016              ;* FNAME: _SCI_disableFIFO              FR SIZE:   2           *
    1017              ;*                                                             *
    1018              ;* FUNCTION ENVIRONMENT                                        *
    1019              ;*                                                             *
    1020              ;* FUNCTION PROPERTIES                                         *
    1021              ;*                            0 Parameter,  2 Auto,  0 SOE     *
    1022              ;***************************************************************
    1023              
    1024 00000000       _SCI_disableFIFO:
    1025                      .dwcfi  cfa_offset, -2
    1026                      .dwcfi  save_reg_to_mem, 26, 0
    1027                      .dwcfi  save_reg_to_reg, 78, 26
    1028 00000000 FE02          ADDB      SP,#2                 ; [CPU_U] 
    1029                      .dwcfi  cfa_offset, -4
TMS320C2000 Assembler PC v6.2.9 Tue Jun 09 22:29:21 2015

Tools Copyright (c) 1996-2014 Texas Instruments Incorporated
C:\Users\a0272466\AppData\Local\Temp\0538410                         PAGE   20

    1030              $C$DW$79        .dwtag  DW_TAG_variable, DW_AT_name("base")
    1031                      .dwattr $C$DW$79, DW_AT_TI_symbol_name("_base")
    1032                      .dwattr $C$DW$79, DW_AT_type(*$C$DW$T$21)
    1033                      .dwattr $C$DW$79, DW_AT_location[DW_OP_breg20 -2]
    1034 00000001 1E42          MOVL      *-SP[2],ACC           ; [CPU_] |427| 
    1035                      .dwpsn  file "C:/work/grepos/c2000_bootROM/f28004x_bootrom/F28004x_ROM_dev/F28004x_ROM/driverlib/sci_
    1036 00000002 020A          MOVB      ACC,#10               ; [CPU_] |436| 
    1037 00000003 0742          ADDL      ACC,*-SP[2]           ; [CPU_] |436| 
    1038 00000004 8AA9          MOVL      XAR4,ACC              ; [CPU_] |436| 
    1039 00000005 18C4          AND       *+XAR4[0],#0xbfff     ; [CPU_] |436| 
         00000006 BFFF 
    1040                      .dwpsn  file "C:/work/grepos/c2000_bootROM/f28004x_bootrom/F28004x_ROM_dev/F28004x_ROM/driverlib/sci_
    1041 00000007 FE82          SUBB      SP,#2                 ; [CPU_U] 
    1042                      .dwcfi  cfa_offset, -2
    1043              $C$DW$80        .dwtag  DW_TAG_TI_branch
    1044                      .dwattr $C$DW$80, DW_AT_low_pc(0x00)
    1045                      .dwattr $C$DW$80, DW_AT_TI_return
    1046 00000008 0006          LRETR     ; [CPU_] 
    1047                      ; return occurs ; [] 
    1048                      .dwattr $C$DW$77, DW_AT_TI_end_file("C:/work/grepos/c2000_bootROM/f28004x_bootrom/F28004x_ROM_dev/F28
    1049                      .dwattr $C$DW$77, DW_AT_TI_end_line(0x1b5)
    1050                      .dwattr $C$DW$77, DW_AT_TI_end_column(0x01)
    1051                      .dwendentry
    1052                      .dwendtag $C$DW$77
    1053              
    1054 00000000               .sect   ".text:_SCI_resetFIFO"
    1055                      .clink
    1056                      .global _SCI_resetFIFO
    1057              
    1058              $C$DW$81        .dwtag  DW_TAG_subprogram, DW_AT_name("SCI_resetFIFO")
    1059                      .dwattr $C$DW$81, DW_AT_low_pc(_SCI_resetFIFO)
    1060                      .dwattr $C$DW$81, DW_AT_high_pc(0x00)
    1061                      .dwattr $C$DW$81, DW_AT_TI_symbol_name("_SCI_resetFIFO")
    1062                      .dwattr $C$DW$81, DW_AT_external
    1063                      .dwattr $C$DW$81, DW_AT_TI_begin_file("C:/work/grepos/c2000_bootROM/f28004x_bootrom/F28004x_ROM_dev/F
    1064                      .dwattr $C$DW$81, DW_AT_TI_begin_line(0x1c7)
    1065                      .dwattr $C$DW$81, DW_AT_TI_begin_column(0x01)
    1066                      .dwattr $C$DW$81, DW_AT_TI_max_frame_size(-6)
    1067                      .dwpsn  file "C:/work/grepos/c2000_bootROM/f28004x_bootrom/F28004x_ROM_dev/F28004x_ROM/driverlib/sci_
    1068              
    1069                      .dwfde $C$DW$CIE, _SCI_resetFIFO
    1070              $C$DW$82        .dwtag  DW_TAG_formal_parameter, DW_AT_name("base")
    1071                      .dwattr $C$DW$82, DW_AT_TI_symbol_name("_base")
    1072                      .dwattr $C$DW$82, DW_AT_type(*$C$DW$T$21)
    1073                      .dwattr $C$DW$82, DW_AT_location[DW_OP_reg0]
    1074              $C$DW$83        .dwtag  DW_TAG_formal_parameter, DW_AT_name("mode")
    1075                      .dwattr $C$DW$83, DW_AT_TI_symbol_name("_mode")
    1076                      .dwattr $C$DW$83, DW_AT_type(*$C$DW$T$30)
    1077                      .dwattr $C$DW$83, DW_AT_location[DW_OP_reg12]
    1078              
    1079              ;***************************************************************
    1080              ;* FNAME: _SCI_resetFIFO                FR SIZE:   4           *
    1081              ;*                                                             *
    1082              ;* FUNCTION ENVIRONMENT                                        *
    1083              ;*                                                             *
TMS320C2000 Assembler PC v6.2.9 Tue Jun 09 22:29:21 2015

Tools Copyright (c) 1996-2014 Texas Instruments Incorporated
C:\Users\a0272466\AppData\Local\Temp\0538410                         PAGE   21

    1084              ;* FUNCTION PROPERTIES                                         *
    1085              ;*                            0 Parameter,  3 Auto,  0 SOE     *
    1086              ;***************************************************************
    1087              
    1088 00000000       _SCI_resetFIFO:
    1089                      .dwcfi  cfa_offset, -2
    1090                      .dwcfi  save_reg_to_mem, 26, 0
    1091                      .dwcfi  save_reg_to_reg, 78, 26
    1092 00000000 FE04          ADDB      SP,#4                 ; [CPU_U] 
    1093                      .dwcfi  cfa_offset, -6
    1094              $C$DW$84        .dwtag  DW_TAG_variable, DW_AT_name("base")
    1095                      .dwattr $C$DW$84, DW_AT_TI_symbol_name("_base")
    1096                      .dwattr $C$DW$84, DW_AT_type(*$C$DW$T$21)
    1097                      .dwattr $C$DW$84, DW_AT_location[DW_OP_breg20 -2]
    1098              $C$DW$85        .dwtag  DW_TAG_variable, DW_AT_name("mode")
    1099                      .dwattr $C$DW$85, DW_AT_TI_symbol_name("_mode")
    1100                      .dwattr $C$DW$85, DW_AT_type(*$C$DW$T$30)
    1101                      .dwattr $C$DW$85, DW_AT_location[DW_OP_breg20 -3]
    1102 00000001 7C43          MOV       *-SP[3],AR4           ; [CPU_] |456| 
    1103 00000002 1E42          MOVL      *-SP[2],ACC           ; [CPU_] |456| 
    1104                      .dwpsn  file "C:/work/grepos/c2000_bootROM/f28004x_bootrom/F28004x_ROM_dev/F28004x_ROM/driverlib/sci_
    1105 00000003 9243          MOV       AL,*-SP[3]            ; [CPU_] |465| 
    1106 00000004 520F          CMPB      AL,#15                ; [CPU_] |465| 
    1107 00000005 ED07          BF        $C$L3,NEQ             ; [CPU_] |465| 
    1108                      ; branchcc occurs ; [] |465| 
    1109                      .dwpsn  file "C:/work/grepos/c2000_bootROM/f28004x_bootrom/F28004x_ROM_dev/F28004x_ROM/driverlib/sci_
    1110 00000006 020A          MOVB      ACC,#10               ; [CPU_] |467| 
    1111 00000007 0742          ADDL      ACC,*-SP[2]           ; [CPU_] |467| 
    1112 00000008 8AA9          MOVL      XAR4,ACC              ; [CPU_] |467| 
    1113 00000009 1AC4          OR        *+XAR4[0],#0x2000     ; [CPU_] |467| 
         0000000a 2000 
    1114                      .dwpsn  file "C:/work/grepos/c2000_bootROM/f28004x_bootrom/F28004x_ROM_dev/F28004x_ROM/driverlib/sci_
    1115 0000000b 6F06          B         $C$L4,UNC             ; [CPU_] |468| 
    1116                      ; branch occurs ; [] |468| 
    1117 0000000c       $C$L3:    
    1118                      .dwpsn  file "C:/work/grepos/c2000_bootROM/f28004x_bootrom/F28004x_ROM_dev/F28004x_ROM/driverlib/sci_
    1119 0000000c 020B          MOVB      ACC,#11               ; [CPU_] |471| 
    1120 0000000d 0742          ADDL      ACC,*-SP[2]           ; [CPU_] |471| 
    1121 0000000e 8AA9          MOVL      XAR4,ACC              ; [CPU_] |471| 
    1122 0000000f 1AC4          OR        *+XAR4[0],#0x2000     ; [CPU_] |471| 
         00000010 2000 
    1123                      .dwpsn  file "C:/work/grepos/c2000_bootROM/f28004x_bootrom/F28004x_ROM_dev/F28004x_ROM/driverlib/sci_
    1124 00000011       $C$L4:    
    1125 00000011 FE84          SUBB      SP,#4                 ; [CPU_U] 
    1126                      .dwcfi  cfa_offset, -2
    1127              $C$DW$86        .dwtag  DW_TAG_TI_branch
    1128                      .dwattr $C$DW$86, DW_AT_low_pc(0x00)
    1129                      .dwattr $C$DW$86, DW_AT_TI_return
    1130 00000012 0006          LRETR     ; [CPU_] 
    1131                      ; return occurs ; [] 
    1132                      .dwattr $C$DW$81, DW_AT_TI_end_file("C:/work/grepos/c2000_bootROM/f28004x_bootrom/F28004x_ROM_dev/F28
    1133                      .dwattr $C$DW$81, DW_AT_TI_end_line(0x1d9)
    1134                      .dwattr $C$DW$81, DW_AT_TI_end_column(0x01)
    1135                      .dwendentry
    1136                      .dwendtag $C$DW$81
TMS320C2000 Assembler PC v6.2.9 Tue Jun 09 22:29:21 2015

Tools Copyright (c) 1996-2014 Texas Instruments Incorporated
C:\Users\a0272466\AppData\Local\Temp\0538410                         PAGE   22

    1137              
    1138 00000000               .sect   ".text:_SCI_resetChannels"
    1139                      .clink
    1140                      .global _SCI_resetChannels
    1141              
    1142              $C$DW$87        .dwtag  DW_TAG_subprogram, DW_AT_name("SCI_resetChannels")
    1143                      .dwattr $C$DW$87, DW_AT_low_pc(_SCI_resetChannels)
    1144                      .dwattr $C$DW$87, DW_AT_high_pc(0x00)
    1145                      .dwattr $C$DW$87, DW_AT_TI_symbol_name("_SCI_resetChannels")
    1146                      .dwattr $C$DW$87, DW_AT_external
    1147                      .dwattr $C$DW$87, DW_AT_TI_begin_file("C:/work/grepos/c2000_bootROM/f28004x_bootrom/F28004x_ROM_dev/F
    1148                      .dwattr $C$DW$87, DW_AT_TI_begin_line(0x1e7)
    1149                      .dwattr $C$DW$87, DW_AT_TI_begin_column(0x01)
    1150                      .dwattr $C$DW$87, DW_AT_TI_max_frame_size(-4)
    1151                      .dwpsn  file "C:/work/grepos/c2000_bootROM/f28004x_bootrom/F28004x_ROM_dev/F28004x_ROM/driverlib/sci_
    1152              
    1153                      .dwfde $C$DW$CIE, _SCI_resetChannels
    1154              $C$DW$88        .dwtag  DW_TAG_formal_parameter, DW_AT_name("base")
    1155                      .dwattr $C$DW$88, DW_AT_TI_symbol_name("_base")
    1156                      .dwattr $C$DW$88, DW_AT_type(*$C$DW$T$21)
    1157                      .dwattr $C$DW$88, DW_AT_location[DW_OP_reg0]
    1158              
    1159              ;***************************************************************
    1160              ;* FNAME: _SCI_resetChannels            FR SIZE:   2           *
    1161              ;*                                                             *
    1162              ;* FUNCTION ENVIRONMENT                                        *
    1163              ;*                                                             *
    1164              ;* FUNCTION PROPERTIES                                         *
    1165              ;*                            0 Parameter,  2 Auto,  0 SOE     *
    1166              ;***************************************************************
    1167              
    1168 00000000       _SCI_resetChannels:
    1169                      .dwcfi  cfa_offset, -2
    1170                      .dwcfi  save_reg_to_mem, 26, 0
    1171                      .dwcfi  save_reg_to_reg, 78, 26
    1172 00000000 FE02          ADDB      SP,#2                 ; [CPU_U] 
    1173                      .dwcfi  cfa_offset, -4
    1174              $C$DW$89        .dwtag  DW_TAG_variable, DW_AT_name("base")
    1175                      .dwattr $C$DW$89, DW_AT_TI_symbol_name("_base")
    1176                      .dwattr $C$DW$89, DW_AT_type(*$C$DW$T$21)
    1177                      .dwattr $C$DW$89, DW_AT_location[DW_OP_breg20 -2]
    1178 00000001 1E42          MOVL      *-SP[2],ACC           ; [CPU_] |488| 
    1179                      .dwpsn  file "C:/work/grepos/c2000_bootROM/f28004x_bootrom/F28004x_ROM_dev/F28004x_ROM/driverlib/sci_
    1180 00000002 020A          MOVB      ACC,#10               ; [CPU_] |497| 
    1181 00000003 0742          ADDL      ACC,*-SP[2]           ; [CPU_] |497| 
    1182 00000004 8AA9          MOVL      XAR4,ACC              ; [CPU_] |497| 
    1183 00000005 1AC4          OR        *+XAR4[0],#0x8000     ; [CPU_] |497| 
         00000006 8000 
    1184                      .dwpsn  file "C:/work/grepos/c2000_bootROM/f28004x_bootrom/F28004x_ROM_dev/F28004x_ROM/driverlib/sci_
    1185 00000007 FE82          SUBB      SP,#2                 ; [CPU_U] 
    1186                      .dwcfi  cfa_offset, -2
    1187              $C$DW$90        .dwtag  DW_TAG_TI_branch
    1188                      .dwattr $C$DW$90, DW_AT_low_pc(0x00)
    1189                      .dwattr $C$DW$90, DW_AT_TI_return
    1190 00000008 0006          LRETR     ; [CPU_] 
TMS320C2000 Assembler PC v6.2.9 Tue Jun 09 22:29:21 2015

Tools Copyright (c) 1996-2014 Texas Instruments Incorporated
C:\Users\a0272466\AppData\Local\Temp\0538410                         PAGE   23

    1191                      ; return occurs ; [] 
    1192                      .dwattr $C$DW$87, DW_AT_TI_end_file("C:/work/grepos/c2000_bootROM/f28004x_bootrom/F28004x_ROM_dev/F28
    1193                      .dwattr $C$DW$87, DW_AT_TI_end_line(0x1f2)
    1194                      .dwattr $C$DW$87, DW_AT_TI_end_column(0x01)
    1195                      .dwendentry
    1196                      .dwendtag $C$DW$87
    1197              
    1198 00000000               .sect   ".text:_SCI_setTxIntMode"
    1199                      .clink
    1200                      .global _SCI_setTxIntMode
    1201              
    1202              $C$DW$91        .dwtag  DW_TAG_subprogram, DW_AT_name("SCI_setTxIntMode")
    1203                      .dwattr $C$DW$91, DW_AT_low_pc(_SCI_setTxIntMode)
    1204                      .dwattr $C$DW$91, DW_AT_high_pc(0x00)
    1205                      .dwattr $C$DW$91, DW_AT_TI_symbol_name("_SCI_setTxIntMode")
    1206                      .dwattr $C$DW$91, DW_AT_external
    1207                      .dwattr $C$DW$91, DW_AT_TI_begin_file("C:/work/grepos/c2000_bootROM/f28004x_bootrom/F28004x_ROM_dev/F
    1208                      .dwattr $C$DW$91, DW_AT_TI_begin_line(0x20a)
    1209                      .dwattr $C$DW$91, DW_AT_TI_begin_column(0x01)
    1210                      .dwattr $C$DW$91, DW_AT_TI_max_frame_size(-6)
    1211                      .dwpsn  file "C:/work/grepos/c2000_bootROM/f28004x_bootrom/F28004x_ROM_dev/F28004x_ROM/driverlib/sci_
    1212              
    1213                      .dwfde $C$DW$CIE, _SCI_setTxIntMode
    1214              $C$DW$92        .dwtag  DW_TAG_formal_parameter, DW_AT_name("base")
    1215                      .dwattr $C$DW$92, DW_AT_TI_symbol_name("_base")
    1216                      .dwattr $C$DW$92, DW_AT_type(*$C$DW$T$21)
    1217                      .dwattr $C$DW$92, DW_AT_location[DW_OP_reg0]
    1218              $C$DW$93        .dwtag  DW_TAG_formal_parameter, DW_AT_name("mode")
    1219                      .dwattr $C$DW$93, DW_AT_TI_symbol_name("_mode")
    1220                      .dwattr $C$DW$93, DW_AT_type(*$C$DW$T$32)
    1221                      .dwattr $C$DW$93, DW_AT_location[DW_OP_reg12]
    1222              
    1223              ;***************************************************************
    1224              ;* FNAME: _SCI_setTxIntMode             FR SIZE:   4           *
    1225              ;*                                                             *
    1226              ;* FUNCTION ENVIRONMENT                                        *
    1227              ;*                                                             *
    1228              ;* FUNCTION PROPERTIES                                         *
    1229              ;*                            0 Parameter,  3 Auto,  0 SOE     *
    1230              ;***************************************************************
    1231              
    1232 00000000       _SCI_setTxIntMode:
    1233                      .dwcfi  cfa_offset, -2
    1234                      .dwcfi  save_reg_to_mem, 26, 0
    1235                      .dwcfi  save_reg_to_reg, 78, 26
    1236 00000000 FE04          ADDB      SP,#4                 ; [CPU_U] 
    1237                      .dwcfi  cfa_offset, -6
    1238              $C$DW$94        .dwtag  DW_TAG_variable, DW_AT_name("base")
    1239                      .dwattr $C$DW$94, DW_AT_TI_symbol_name("_base")
    1240                      .dwattr $C$DW$94, DW_AT_type(*$C$DW$T$21)
    1241                      .dwattr $C$DW$94, DW_AT_location[DW_OP_breg20 -2]
    1242              $C$DW$95        .dwtag  DW_TAG_variable, DW_AT_name("mode")
    1243                      .dwattr $C$DW$95, DW_AT_TI_symbol_name("_mode")
    1244                      .dwattr $C$DW$95, DW_AT_type(*$C$DW$T$32)
    1245                      .dwattr $C$DW$95, DW_AT_location[DW_OP_breg20 -3]
TMS320C2000 Assembler PC v6.2.9 Tue Jun 09 22:29:21 2015

Tools Copyright (c) 1996-2014 Texas Instruments Incorporated
C:\Users\a0272466\AppData\Local\Temp\0538410                         PAGE   24

    1246 00000001 7C43          MOV       *-SP[3],AR4           ; [CPU_] |523| 
    1247 00000002 1E42          MOVL      *-SP[2],ACC           ; [CPU_] |523| 
    1248                      .dwpsn  file "C:/work/grepos/c2000_bootROM/f28004x_bootrom/F28004x_ROM_dev/F28004x_ROM/driverlib/sci_
    1249 00000003 020A          MOVB      ACC,#10               ; [CPU_] |532| 
    1250 00000004 0742          ADDL      ACC,*-SP[2]           ; [CPU_] |532| 
    1251 00000005 8AA9          MOVL      XAR4,ACC              ; [CPU_] |532| 
    1252 00000006 06C4          MOVL      ACC,*+XAR4[0]         ; [CPU_] |532| 
    1253 00000007 CCA9          AND       AL,AL,#0xffe0         ; [CPU_] |532| 
         00000008 FFE0 
    1254 00000009 CA43          OR        AL,*-SP[3]            ; [CPU_] |532| 
    1255 0000000a 88A9          MOVZ      AR6,AL                ; [CPU_] |532| 
    1256 0000000b 020A          MOVB      ACC,#10               ; [CPU_] |532| 
    1257 0000000c 0742          ADDL      ACC,*-SP[2]           ; [CPU_] |532| 
    1258 0000000d 8AA9          MOVL      XAR4,ACC              ; [CPU_] |532| 
    1259 0000000e 7EC4          MOV       *+XAR4[0],AR6         ; [CPU_] |532| 
    1260                      .dwpsn  file "C:/work/grepos/c2000_bootROM/f28004x_bootrom/F28004x_ROM_dev/F28004x_ROM/driverlib/sci_
    1261 0000000f FE84          SUBB      SP,#4                 ; [CPU_U] 
    1262                      .dwcfi  cfa_offset, -2
    1263              $C$DW$96        .dwtag  DW_TAG_TI_branch
    1264                      .dwattr $C$DW$96, DW_AT_low_pc(0x00)
    1265                      .dwattr $C$DW$96, DW_AT_TI_return
    1266 00000010 0006          LRETR     ; [CPU_] 
    1267                      ; return occurs ; [] 
    1268                      .dwattr $C$DW$91, DW_AT_TI_end_file("C:/work/grepos/c2000_bootROM/f28004x_bootrom/F28004x_ROM_dev/F28
    1269                      .dwattr $C$DW$91, DW_AT_TI_end_line(0x216)
    1270                      .dwattr $C$DW$91, DW_AT_TI_end_column(0x01)
    1271                      .dwendentry
    1272                      .dwendtag $C$DW$91
    1273              
    1274 00000000               .sect   ".text:_SCI_getTxIntMode"
    1275                      .clink
    1276                      .global _SCI_getTxIntMode
    1277              
    1278              $C$DW$97        .dwtag  DW_TAG_subprogram, DW_AT_name("SCI_getTxIntMode")
    1279                      .dwattr $C$DW$97, DW_AT_low_pc(_SCI_getTxIntMode)
    1280                      .dwattr $C$DW$97, DW_AT_high_pc(0x00)
    1281                      .dwattr $C$DW$97, DW_AT_TI_symbol_name("_SCI_getTxIntMode")
    1282                      .dwattr $C$DW$97, DW_AT_external
    1283                      .dwattr $C$DW$97, DW_AT_type(*$C$DW$T$32)
    1284                      .dwattr $C$DW$97, DW_AT_TI_begin_file("C:/work/grepos/c2000_bootROM/f28004x_bootrom/F28004x_ROM_dev/F
    1285                      .dwattr $C$DW$97, DW_AT_TI_begin_line(0x22a)
    1286                      .dwattr $C$DW$97, DW_AT_TI_begin_column(0x01)
    1287                      .dwattr $C$DW$97, DW_AT_TI_max_frame_size(-4)
    1288                      .dwpsn  file "C:/work/grepos/c2000_bootROM/f28004x_bootrom/F28004x_ROM_dev/F28004x_ROM/driverlib/sci_
    1289              
    1290                      .dwfde $C$DW$CIE, _SCI_getTxIntMode
    1291              $C$DW$98        .dwtag  DW_TAG_formal_parameter, DW_AT_name("base")
    1292                      .dwattr $C$DW$98, DW_AT_TI_symbol_name("_base")
    1293                      .dwattr $C$DW$98, DW_AT_type(*$C$DW$T$21)
    1294                      .dwattr $C$DW$98, DW_AT_location[DW_OP_reg0]
    1295              
    1296              ;***************************************************************
    1297              ;* FNAME: _SCI_getTxIntMode             FR SIZE:   2           *
    1298              ;*                                                             *
    1299              ;* FUNCTION ENVIRONMENT                                        *
TMS320C2000 Assembler PC v6.2.9 Tue Jun 09 22:29:21 2015

Tools Copyright (c) 1996-2014 Texas Instruments Incorporated
C:\Users\a0272466\AppData\Local\Temp\0538410                         PAGE   25

    1300              ;*                                                             *
    1301              ;* FUNCTION PROPERTIES                                         *
    1302              ;*                            0 Parameter,  2 Auto,  0 SOE     *
    1303              ;***************************************************************
    1304              
    1305 00000000       _SCI_getTxIntMode:
    1306                      .dwcfi  cfa_offset, -2
    1307                      .dwcfi  save_reg_to_mem, 26, 0
    1308                      .dwcfi  save_reg_to_reg, 78, 26
    1309 00000000 FE02          ADDB      SP,#2                 ; [CPU_U] 
    1310                      .dwcfi  cfa_offset, -4
    1311              $C$DW$99        .dwtag  DW_TAG_variable, DW_AT_name("base")
    1312                      .dwattr $C$DW$99, DW_AT_TI_symbol_name("_base")
    1313                      .dwattr $C$DW$99, DW_AT_type(*$C$DW$T$21)
    1314                      .dwattr $C$DW$99, DW_AT_location[DW_OP_breg20 -2]
    1315 00000001 1E42          MOVL      *-SP[2],ACC           ; [CPU_] |555| 
    1316                      .dwpsn  file "C:/work/grepos/c2000_bootROM/f28004x_bootrom/F28004x_ROM_dev/F28004x_ROM/driverlib/sci_
    1317 00000002 020A          MOVB      ACC,#10               ; [CPU_] |564| 
    1318 00000003 0742          ADDL      ACC,*-SP[2]           ; [CPU_] |564| 
    1319 00000004 8AA9          MOVL      XAR4,ACC              ; [CPU_] |564| 
    1320 00000005 CCC4          AND       AL,*+XAR4[0],#0x001f  ; [CPU_] |564| 
         00000006 001F 
    1321                      .dwpsn  file "C:/work/grepos/c2000_bootROM/f28004x_bootrom/F28004x_ROM_dev/F28004x_ROM/driverlib/sci_
    1322 00000007 FE82          SUBB      SP,#2                 ; [CPU_U] 
    1323                      .dwcfi  cfa_offset, -2
    1324              $C$DW$100       .dwtag  DW_TAG_TI_branch
    1325                      .dwattr $C$DW$100, DW_AT_low_pc(0x00)
    1326                      .dwattr $C$DW$100, DW_AT_TI_return
    1327 00000008 0006          LRETR     ; [CPU_] 
    1328                      ; return occurs ; [] 
    1329                      .dwattr $C$DW$97, DW_AT_TI_end_file("C:/work/grepos/c2000_bootROM/f28004x_bootrom/F28004x_ROM_dev/F28
    1330                      .dwattr $C$DW$97, DW_AT_TI_end_line(0x235)
    1331                      .dwattr $C$DW$97, DW_AT_TI_end_column(0x01)
    1332                      .dwendentry
    1333                      .dwendtag $C$DW$97
    1334              
    1335 00000000               .sect   ".text:_SCI_isDataAvailable"
    1336                      .clink
    1337                      .global _SCI_isDataAvailable
    1338              
    1339              $C$DW$101       .dwtag  DW_TAG_subprogram, DW_AT_name("SCI_isDataAvailable")
    1340                      .dwattr $C$DW$101, DW_AT_low_pc(_SCI_isDataAvailable)
    1341                      .dwattr $C$DW$101, DW_AT_high_pc(0x00)
    1342                      .dwattr $C$DW$101, DW_AT_TI_symbol_name("_SCI_isDataAvailable")
    1343                      .dwattr $C$DW$101, DW_AT_external
    1344                      .dwattr $C$DW$101, DW_AT_type(*$C$DW$T$60)
    1345                      .dwattr $C$DW$101, DW_AT_TI_begin_file("C:/work/grepos/c2000_bootROM/f28004x_bootrom/F28004x_ROM_dev/
    1346                      .dwattr $C$DW$101, DW_AT_TI_begin_line(0x245)
    1347                      .dwattr $C$DW$101, DW_AT_TI_begin_column(0x01)
    1348                      .dwattr $C$DW$101, DW_AT_TI_max_frame_size(-4)
    1349                      .dwpsn  file "C:/work/grepos/c2000_bootROM/f28004x_bootrom/F28004x_ROM_dev/F28004x_ROM/driverlib/sci_
    1350              
    1351                      .dwfde $C$DW$CIE, _SCI_isDataAvailable
    1352              $C$DW$102       .dwtag  DW_TAG_formal_parameter, DW_AT_name("base")
    1353                      .dwattr $C$DW$102, DW_AT_TI_symbol_name("_base")
TMS320C2000 Assembler PC v6.2.9 Tue Jun 09 22:29:21 2015

Tools Copyright (c) 1996-2014 Texas Instruments Incorporated
C:\Users\a0272466\AppData\Local\Temp\0538410                         PAGE   26

    1354                      .dwattr $C$DW$102, DW_AT_type(*$C$DW$T$21)
    1355                      .dwattr $C$DW$102, DW_AT_location[DW_OP_reg0]
    1356              
    1357              ;***************************************************************
    1358              ;* FNAME: _SCI_isDataAvailable          FR SIZE:   2           *
    1359              ;*                                                             *
    1360              ;* FUNCTION ENVIRONMENT                                        *
    1361              ;*                                                             *
    1362              ;* FUNCTION PROPERTIES                                         *
    1363              ;*                            0 Parameter,  2 Auto,  0 SOE     *
    1364              ;***************************************************************
    1365              
    1366 00000000       _SCI_isDataAvailable:
    1367                      .dwcfi  cfa_offset, -2
    1368                      .dwcfi  save_reg_to_mem, 26, 0
    1369                      .dwcfi  save_reg_to_reg, 78, 26
    1370 00000000 FE02          ADDB      SP,#2                 ; [CPU_U] 
    1371                      .dwcfi  cfa_offset, -4
    1372              $C$DW$103       .dwtag  DW_TAG_variable, DW_AT_name("base")
    1373                      .dwattr $C$DW$103, DW_AT_TI_symbol_name("_base")
    1374                      .dwattr $C$DW$103, DW_AT_type(*$C$DW$T$21)
    1375                      .dwattr $C$DW$103, DW_AT_location[DW_OP_breg20 -2]
    1376 00000001 1E42          MOVL      *-SP[2],ACC           ; [CPU_] |582| 
    1377                      .dwpsn  file "C:/work/grepos/c2000_bootROM/f28004x_bootrom/F28004x_ROM_dev/F28004x_ROM/driverlib/sci_
    1378 00000002 0205          MOVB      ACC,#5                ; [CPU_] |591| 
    1379 00000003 0742          ADDL      ACC,*-SP[2]           ; [CPU_] |591| 
    1380 00000004 8AA9          MOVL      XAR4,ACC              ; [CPU_] |591| 
    1381 00000005 9A00          MOVB      AL,#0                 ; [CPU_] |591| 
    1382 00000006 C7C4          MOVB      AH.LSB,*+XAR4[0]      ; [CPU_] |591| 
    1383 00000007 46A8          TBIT      AH,#6                 ; [CPU_] |591| 
    1384 00000008 EF03          BF        $C$L5,NTC             ; [CPU_] |591| 
    1385                      ; branchcc occurs ; [] |591| 
    1386 00000009 9B01          MOVB      AH,#1                 ; [CPU_] |591| 
    1387 0000000a 6F02          B         $C$L6,UNC             ; [CPU_] |591| 
    1388                      ; branch occurs ; [] |591| 
    1389 0000000b       $C$L5:    
    1390 0000000b 9B00          MOVB      AH,#0                 ; [CPU_] |591| 
    1391 0000000c       $C$L6:    
    1392 0000000c 5300          CMPB      AH,#0                 ; [CPU_] |591| 
    1393 0000000d EC02          BF        $C$L7,EQ              ; [CPU_] |591| 
    1394                      ; branchcc occurs ; [] |591| 
    1395 0000000e 9A01          MOVB      AL,#1                 ; [CPU_] |591| 
    1396 0000000f       $C$L7:    
    1397                      .dwpsn  file "C:/work/grepos/c2000_bootROM/f28004x_bootrom/F28004x_ROM_dev/F28004x_ROM/driverlib/sci_
    1398 0000000f FE82          SUBB      SP,#2                 ; [CPU_U] 
    1399                      .dwcfi  cfa_offset, -2
    1400              $C$DW$104       .dwtag  DW_TAG_TI_branch
    1401                      .dwattr $C$DW$104, DW_AT_low_pc(0x00)
    1402                      .dwattr $C$DW$104, DW_AT_TI_return
    1403 00000010 0006          LRETR     ; [CPU_] 
    1404                      ; return occurs ; [] 
    1405                      .dwattr $C$DW$101, DW_AT_TI_end_file("C:/work/grepos/c2000_bootROM/f28004x_bootrom/F28004x_ROM_dev/F2
    1406                      .dwattr $C$DW$101, DW_AT_TI_end_line(0x250)
    1407                      .dwattr $C$DW$101, DW_AT_TI_end_column(0x01)
    1408                      .dwendentry
TMS320C2000 Assembler PC v6.2.9 Tue Jun 09 22:29:21 2015

Tools Copyright (c) 1996-2014 Texas Instruments Incorporated
C:\Users\a0272466\AppData\Local\Temp\0538410                         PAGE   27

    1409                      .dwendtag $C$DW$101
    1410              
    1411 00000000               .sect   ".text:_SCI_isSpaceAvailable"
    1412                      .clink
    1413                      .global _SCI_isSpaceAvailable
    1414              
    1415              $C$DW$105       .dwtag  DW_TAG_subprogram, DW_AT_name("SCI_isSpaceAvailable")
    1416                      .dwattr $C$DW$105, DW_AT_low_pc(_SCI_isSpaceAvailable)
    1417                      .dwattr $C$DW$105, DW_AT_high_pc(0x00)
    1418                      .dwattr $C$DW$105, DW_AT_TI_symbol_name("_SCI_isSpaceAvailable")
    1419                      .dwattr $C$DW$105, DW_AT_external
    1420                      .dwattr $C$DW$105, DW_AT_type(*$C$DW$T$60)
    1421                      .dwattr $C$DW$105, DW_AT_TI_begin_file("C:/work/grepos/c2000_bootROM/f28004x_bootrom/F28004x_ROM_dev/
    1422                      .dwattr $C$DW$105, DW_AT_TI_begin_line(0x260)
    1423                      .dwattr $C$DW$105, DW_AT_TI_begin_column(0x01)
    1424                      .dwattr $C$DW$105, DW_AT_TI_max_frame_size(-4)
    1425                      .dwpsn  file "C:/work/grepos/c2000_bootROM/f28004x_bootrom/F28004x_ROM_dev/F28004x_ROM/driverlib/sci_
    1426              
    1427                      .dwfde $C$DW$CIE, _SCI_isSpaceAvailable
    1428              $C$DW$106       .dwtag  DW_TAG_formal_parameter, DW_AT_name("base")
    1429                      .dwattr $C$DW$106, DW_AT_TI_symbol_name("_base")
    1430                      .dwattr $C$DW$106, DW_AT_type(*$C$DW$T$21)
    1431                      .dwattr $C$DW$106, DW_AT_location[DW_OP_reg0]
    1432              
    1433              ;***************************************************************
    1434              ;* FNAME: _SCI_isSpaceAvailable         FR SIZE:   2           *
    1435              ;*                                                             *
    1436              ;* FUNCTION ENVIRONMENT                                        *
    1437              ;*                                                             *
    1438              ;* FUNCTION PROPERTIES                                         *
    1439              ;*                            0 Parameter,  2 Auto,  0 SOE     *
    1440              ;***************************************************************
    1441              
    1442 00000000       _SCI_isSpaceAvailable:
    1443                      .dwcfi  cfa_offset, -2
    1444                      .dwcfi  save_reg_to_mem, 26, 0
    1445                      .dwcfi  save_reg_to_reg, 78, 26
    1446 00000000 FE02          ADDB      SP,#2                 ; [CPU_U] 
    1447                      .dwcfi  cfa_offset, -4
    1448              $C$DW$107       .dwtag  DW_TAG_variable, DW_AT_name("base")
    1449                      .dwattr $C$DW$107, DW_AT_TI_symbol_name("_base")
    1450                      .dwattr $C$DW$107, DW_AT_type(*$C$DW$T$21)
    1451                      .dwattr $C$DW$107, DW_AT_location[DW_OP_breg20 -2]
    1452 00000001 1E42          MOVL      *-SP[2],ACC           ; [CPU_] |609| 
    1453                      .dwpsn  file "C:/work/grepos/c2000_bootROM/f28004x_bootrom/F28004x_ROM_dev/F28004x_ROM/driverlib/sci_
    1454 00000002 0204          MOVB      ACC,#4                ; [CPU_] |618| 
    1455 00000003 0742          ADDL      ACC,*-SP[2]           ; [CPU_] |618| 
    1456 00000004 8AA9          MOVL      XAR4,ACC              ; [CPU_] |618| 
    1457 00000005 9A00          MOVB      AL,#0                 ; [CPU_] |618| 
    1458 00000006 C7C4          MOVB      AH.LSB,*+XAR4[0]      ; [CPU_] |618| 
    1459 00000007 47A8          TBIT      AH,#7                 ; [CPU_] |618| 
    1460 00000008 EF03          BF        $C$L8,NTC             ; [CPU_] |618| 
    1461                      ; branchcc occurs ; [] |618| 
    1462 00000009 9B01          MOVB      AH,#1                 ; [CPU_] |618| 
    1463 0000000a 6F02          B         $C$L9,UNC             ; [CPU_] |618| 
TMS320C2000 Assembler PC v6.2.9 Tue Jun 09 22:29:21 2015

Tools Copyright (c) 1996-2014 Texas Instruments Incorporated
C:\Users\a0272466\AppData\Local\Temp\0538410                         PAGE   28

    1464                      ; branch occurs ; [] |618| 
    1465 0000000b       $C$L8:    
    1466 0000000b 9B00          MOVB      AH,#0                 ; [CPU_] |618| 
    1467 0000000c       $C$L9:    
    1468 0000000c 5300          CMPB      AH,#0                 ; [CPU_] |618| 
    1469 0000000d EC02          BF        $C$L10,EQ             ; [CPU_] |618| 
    1470                      ; branchcc occurs ; [] |618| 
    1471 0000000e 9A01          MOVB      AL,#1                 ; [CPU_] |618| 
    1472 0000000f       $C$L10:    
    1473                      .dwpsn  file "C:/work/grepos/c2000_bootROM/f28004x_bootrom/F28004x_ROM_dev/F28004x_ROM/driverlib/sci_
    1474 0000000f FE82          SUBB      SP,#2                 ; [CPU_U] 
    1475                      .dwcfi  cfa_offset, -2
    1476              $C$DW$108       .dwtag  DW_TAG_TI_branch
    1477                      .dwattr $C$DW$108, DW_AT_low_pc(0x00)
    1478                      .dwattr $C$DW$108, DW_AT_TI_return
    1479 00000010 0006          LRETR     ; [CPU_] 
    1480                      ; return occurs ; [] 
    1481                      .dwattr $C$DW$105, DW_AT_TI_end_file("C:/work/grepos/c2000_bootROM/f28004x_bootrom/F28004x_ROM_dev/F2
    1482                      .dwattr $C$DW$105, DW_AT_TI_end_line(0x26b)
    1483                      .dwattr $C$DW$105, DW_AT_TI_end_column(0x01)
    1484                      .dwendentry
    1485                      .dwendtag $C$DW$105
    1486              
    1487 00000000               .sect   ".text:_SCI_readCharNonBlocking"
    1488                      .clink
    1489                      .global _SCI_readCharNonBlocking
    1490              
    1491              $C$DW$109       .dwtag  DW_TAG_subprogram, DW_AT_name("SCI_readCharNonBlocking")
    1492                      .dwattr $C$DW$109, DW_AT_low_pc(_SCI_readCharNonBlocking)
    1493                      .dwattr $C$DW$109, DW_AT_high_pc(0x00)
    1494                      .dwattr $C$DW$109, DW_AT_TI_symbol_name("_SCI_readCharNonBlocking")
    1495                      .dwattr $C$DW$109, DW_AT_external
    1496                      .dwattr $C$DW$109, DW_AT_type(*$C$DW$T$58)
    1497                      .dwattr $C$DW$109, DW_AT_TI_begin_file("C:/work/grepos/c2000_bootROM/f28004x_bootrom/F28004x_ROM_dev/
    1498                      .dwattr $C$DW$109, DW_AT_TI_begin_line(0x280)
    1499                      .dwattr $C$DW$109, DW_AT_TI_begin_column(0x01)
    1500                      .dwattr $C$DW$109, DW_AT_TI_max_frame_size(-4)
    1501                      .dwpsn  file "C:/work/grepos/c2000_bootROM/f28004x_bootrom/F28004x_ROM_dev/F28004x_ROM/driverlib/sci_
    1502              
    1503                      .dwfde $C$DW$CIE, _SCI_readCharNonBlocking
    1504              $C$DW$110       .dwtag  DW_TAG_formal_parameter, DW_AT_name("base")
    1505                      .dwattr $C$DW$110, DW_AT_TI_symbol_name("_base")
    1506                      .dwattr $C$DW$110, DW_AT_type(*$C$DW$T$21)
    1507                      .dwattr $C$DW$110, DW_AT_location[DW_OP_reg0]
    1508              
    1509              ;***************************************************************
    1510              ;* FNAME: _SCI_readCharNonBlocking      FR SIZE:   2           *
    1511              ;*                                                             *
    1512              ;* FUNCTION ENVIRONMENT                                        *
    1513              ;*                                                             *
    1514              ;* FUNCTION PROPERTIES                                         *
    1515              ;*                            0 Parameter,  2 Auto,  0 SOE     *
    1516              ;***************************************************************
    1517              
    1518 00000000       _SCI_readCharNonBlocking:
TMS320C2000 Assembler PC v6.2.9 Tue Jun 09 22:29:21 2015

Tools Copyright (c) 1996-2014 Texas Instruments Incorporated
C:\Users\a0272466\AppData\Local\Temp\0538410                         PAGE   29

    1519                      .dwcfi  cfa_offset, -2
    1520                      .dwcfi  save_reg_to_mem, 26, 0
    1521                      .dwcfi  save_reg_to_reg, 78, 26
    1522 00000000 FE02          ADDB      SP,#2                 ; [CPU_U] 
    1523                      .dwcfi  cfa_offset, -4
    1524              $C$DW$111       .dwtag  DW_TAG_variable, DW_AT_name("base")
    1525                      .dwattr $C$DW$111, DW_AT_TI_symbol_name("_base")
    1526                      .dwattr $C$DW$111, DW_AT_type(*$C$DW$T$21)
    1527                      .dwattr $C$DW$111, DW_AT_location[DW_OP_breg20 -2]
    1528 00000001 1E42          MOVL      *-SP[2],ACC           ; [CPU_] |641| 
    1529                      .dwpsn  file "C:/work/grepos/c2000_bootROM/f28004x_bootrom/F28004x_ROM_dev/F28004x_ROM/driverlib/sci_
    1530 00000002 0205          MOVB      ACC,#5                ; [CPU_] |650| 
    1531 00000003 0742          ADDL      ACC,*-SP[2]           ; [CPU_] |650| 
    1532 00000004 8AA9          MOVL      XAR4,ACC              ; [CPU_] |650| 
    1533 00000005 C6C4          MOVB      AL.LSB,*+XAR4[0]      ; [CPU_] |650| 
    1534 00000006 46A9          TBIT      AL,#6                 ; [CPU_] |650| 
    1535 00000007 EF08          BF        $C$L11,NTC            ; [CPU_] |650| 
    1536                      ; branchcc occurs ; [] |650| 
    1537                      .dwpsn  file "C:/work/grepos/c2000_bootROM/f28004x_bootrom/F28004x_ROM_dev/F28004x_ROM/driverlib/sci_
    1538 00000008 0207          MOVB      ACC,#7                ; [CPU_] |655| 
    1539 00000009 0742          ADDL      ACC,*-SP[2]           ; [CPU_] |655| 
    1540 0000000a 8AA9          MOVL      XAR4,ACC              ; [CPU_] |655| 
    1541 0000000b 92C4          MOV       AL,*+XAR4[0]          ; [CPU_] |655| 
    1542 0000000c 90FF          ANDB      AL,#0xff              ; [CPU_] |655| 
    1543 0000000d 0EA9          MOVU      ACC,AL                ; [CPU_] |655| 
    1544 0000000e 6F03          B         $C$L12,UNC            ; [CPU_] |655| 
    1545                      ; branch occurs ; [] |655| 
    1546 0000000f       $C$L11:    
    1547                      .dwpsn  file "C:/work/grepos/c2000_bootROM/f28004x_bootrom/F28004x_ROM_dev/F28004x_ROM/driverlib/sci_
    1548 0000000f 0200          MOVB      ACC,#0                ; [CPU_] |662| 
    1549 00000010 1901          SUBB      ACC,#1                ; [CPU_] |662| 
    1550 00000011       $C$L12:    
    1551                      .dwpsn  file "C:/work/grepos/c2000_bootROM/f28004x_bootrom/F28004x_ROM_dev/F28004x_ROM/driverlib/sci_
    1552 00000011 FE82          SUBB      SP,#2                 ; [CPU_U] 
    1553                      .dwcfi  cfa_offset, -2
    1554              $C$DW$112       .dwtag  DW_TAG_TI_branch
    1555                      .dwattr $C$DW$112, DW_AT_low_pc(0x00)
    1556                      .dwattr $C$DW$112, DW_AT_TI_return
    1557 00000012 0006          LRETR     ; [CPU_] 
    1558                      ; return occurs ; [] 
    1559                      .dwattr $C$DW$109, DW_AT_TI_end_file("C:/work/grepos/c2000_bootROM/f28004x_bootrom/F28004x_ROM_dev/F2
    1560                      .dwattr $C$DW$109, DW_AT_TI_end_line(0x298)
    1561                      .dwattr $C$DW$109, DW_AT_TI_end_column(0x01)
    1562                      .dwendentry
    1563                      .dwendtag $C$DW$109
    1564              
    1565 00000000               .sect   ".text:_SCI_readChar"
    1566                      .clink
    1567                      .global _SCI_readChar
    1568              
    1569              $C$DW$113       .dwtag  DW_TAG_subprogram, DW_AT_name("SCI_readChar")
    1570                      .dwattr $C$DW$113, DW_AT_low_pc(_SCI_readChar)
    1571                      .dwattr $C$DW$113, DW_AT_high_pc(0x00)
    1572                      .dwattr $C$DW$113, DW_AT_TI_symbol_name("_SCI_readChar")
    1573                      .dwattr $C$DW$113, DW_AT_external
TMS320C2000 Assembler PC v6.2.9 Tue Jun 09 22:29:21 2015

Tools Copyright (c) 1996-2014 Texas Instruments Incorporated
C:\Users\a0272466\AppData\Local\Temp\0538410                         PAGE   30

    1574                      .dwattr $C$DW$113, DW_AT_type(*$C$DW$T$58)
    1575                      .dwattr $C$DW$113, DW_AT_TI_begin_file("C:/work/grepos/c2000_bootROM/f28004x_bootrom/F28004x_ROM_dev/
    1576                      .dwattr $C$DW$113, DW_AT_TI_begin_line(0x2a9)
    1577                      .dwattr $C$DW$113, DW_AT_TI_begin_column(0x01)
    1578                      .dwattr $C$DW$113, DW_AT_TI_max_frame_size(-4)
    1579                      .dwpsn  file "C:/work/grepos/c2000_bootROM/f28004x_bootrom/F28004x_ROM_dev/F28004x_ROM/driverlib/sci_
    1580              
    1581                      .dwfde $C$DW$CIE, _SCI_readChar
    1582              $C$DW$114       .dwtag  DW_TAG_formal_parameter, DW_AT_name("base")
    1583                      .dwattr $C$DW$114, DW_AT_TI_symbol_name("_base")
    1584                      .dwattr $C$DW$114, DW_AT_type(*$C$DW$T$21)
    1585                      .dwattr $C$DW$114, DW_AT_location[DW_OP_reg0]
    1586              
    1587              ;***************************************************************
    1588              ;* FNAME: _SCI_readChar                 FR SIZE:   2           *
    1589              ;*                                                             *
    1590              ;* FUNCTION ENVIRONMENT                                        *
    1591              ;*                                                             *
    1592              ;* FUNCTION PROPERTIES                                         *
    1593              ;*                            0 Parameter,  2 Auto,  0 SOE     *
    1594              ;***************************************************************
    1595              
    1596 00000000       _SCI_readChar:
    1597                      .dwcfi  cfa_offset, -2
    1598                      .dwcfi  save_reg_to_mem, 26, 0
    1599                      .dwcfi  save_reg_to_reg, 78, 26
    1600 00000000 FE02          ADDB      SP,#2                 ; [CPU_U] 
    1601                      .dwcfi  cfa_offset, -4
    1602              $C$DW$115       .dwtag  DW_TAG_variable, DW_AT_name("base")
    1603                      .dwattr $C$DW$115, DW_AT_TI_symbol_name("_base")
    1604                      .dwattr $C$DW$115, DW_AT_type(*$C$DW$T$21)
    1605                      .dwattr $C$DW$115, DW_AT_location[DW_OP_breg20 -2]
    1606 00000001 1E42          MOVL      *-SP[2],ACC           ; [CPU_] |682| 
    1607                      .dwpsn  file "C:/work/grepos/c2000_bootROM/f28004x_bootrom/F28004x_ROM_dev/F28004x_ROM/driverlib/sci_
    1608 00000002       $C$L13:    
    1609                      .dwpsn  file "C:/work/grepos/c2000_bootROM/f28004x_bootrom/F28004x_ROM_dev/F28004x_ROM/driverlib/sci_
    1610 00000002 0205          MOVB      ACC,#5                ; [CPU_] |691| 
    1611 00000003 0742          ADDL      ACC,*-SP[2]           ; [CPU_] |691| 
    1612 00000004 8AA9          MOVL      XAR4,ACC              ; [CPU_] |691| 
    1613 00000005 C6C4          MOVB      AL.LSB,*+XAR4[0]      ; [CPU_] |691| 
    1614 00000006 46A9          TBIT      AL,#6                 ; [CPU_] |691| 
    1615 00000007 EFFB          BF        $C$L13,NTC            ; [CPU_] |691| 
    1616                      ; branchcc occurs ; [] |691| 
    1617                      .dwpsn  file "C:/work/grepos/c2000_bootROM/f28004x_bootrom/F28004x_ROM_dev/F28004x_ROM/driverlib/sci_
    1618 00000008 0207          MOVB      ACC,#7                ; [CPU_] |698| 
    1619 00000009 0742          ADDL      ACC,*-SP[2]           ; [CPU_] |698| 
    1620 0000000a 8AA9          MOVL      XAR4,ACC              ; [CPU_] |698| 
    1621 0000000b 92C4          MOV       AL,*+XAR4[0]          ; [CPU_] |698| 
    1622 0000000c 90FF          ANDB      AL,#0xff              ; [CPU_] |698| 
    1623 0000000d 0EA9          MOVU      ACC,AL                ; [CPU_] |698| 
    1624                      .dwpsn  file "C:/work/grepos/c2000_bootROM/f28004x_bootrom/F28004x_ROM_dev/F28004x_ROM/driverlib/sci_
    1625 0000000e FE82          SUBB      SP,#2                 ; [CPU_U] 
    1626                      .dwcfi  cfa_offset, -2
    1627              $C$DW$116       .dwtag  DW_TAG_TI_branch
    1628                      .dwattr $C$DW$116, DW_AT_low_pc(0x00)
TMS320C2000 Assembler PC v6.2.9 Tue Jun 09 22:29:21 2015

Tools Copyright (c) 1996-2014 Texas Instruments Incorporated
C:\Users\a0272466\AppData\Local\Temp\0538410                         PAGE   31

    1629                      .dwattr $C$DW$116, DW_AT_TI_return
    1630 0000000f 0006          LRETR     ; [CPU_] 
    1631                      ; return occurs ; [] 
    1632                      .dwattr $C$DW$113, DW_AT_TI_end_file("C:/work/grepos/c2000_bootROM/f28004x_bootrom/F28004x_ROM_dev/F2
    1633                      .dwattr $C$DW$113, DW_AT_TI_end_line(0x2bb)
    1634                      .dwattr $C$DW$113, DW_AT_TI_end_column(0x01)
    1635                      .dwendentry
    1636                      .dwendtag $C$DW$113
    1637              
    1638 00000000               .sect   ".text:_SCI_writeCharNonBlocking"
    1639                      .clink
    1640                      .global _SCI_writeCharNonBlocking
    1641              
    1642              $C$DW$117       .dwtag  DW_TAG_subprogram, DW_AT_name("SCI_writeCharNonBlocking")
    1643                      .dwattr $C$DW$117, DW_AT_low_pc(_SCI_writeCharNonBlocking)
    1644                      .dwattr $C$DW$117, DW_AT_high_pc(0x00)
    1645                      .dwattr $C$DW$117, DW_AT_TI_symbol_name("_SCI_writeCharNonBlocking")
    1646                      .dwattr $C$DW$117, DW_AT_external
    1647                      .dwattr $C$DW$117, DW_AT_type(*$C$DW$T$60)
    1648                      .dwattr $C$DW$117, DW_AT_TI_begin_file("C:/work/grepos/c2000_bootROM/f28004x_bootrom/F28004x_ROM_dev/
    1649                      .dwattr $C$DW$117, DW_AT_TI_begin_line(0x2d2)
    1650                      .dwattr $C$DW$117, DW_AT_TI_begin_column(0x01)
    1651                      .dwattr $C$DW$117, DW_AT_TI_max_frame_size(-6)
    1652                      .dwpsn  file "C:/work/grepos/c2000_bootROM/f28004x_bootrom/F28004x_ROM_dev/F28004x_ROM/driverlib/sci_
    1653              
    1654                      .dwfde $C$DW$CIE, _SCI_writeCharNonBlocking
    1655              $C$DW$118       .dwtag  DW_TAG_formal_parameter, DW_AT_name("base")
    1656                      .dwattr $C$DW$118, DW_AT_TI_symbol_name("_base")
    1657                      .dwattr $C$DW$118, DW_AT_type(*$C$DW$T$21)
    1658                      .dwattr $C$DW$118, DW_AT_location[DW_OP_reg0]
    1659              $C$DW$119       .dwtag  DW_TAG_formal_parameter, DW_AT_name("data")
    1660                      .dwattr $C$DW$119, DW_AT_TI_symbol_name("_data")
    1661                      .dwattr $C$DW$119, DW_AT_type(*$C$DW$T$6)
    1662                      .dwattr $C$DW$119, DW_AT_location[DW_OP_reg12]
    1663              
    1664              ;***************************************************************
    1665              ;* FNAME: _SCI_writeCharNonBlocking     FR SIZE:   4           *
    1666              ;*                                                             *
    1667              ;* FUNCTION ENVIRONMENT                                        *
    1668              ;*                                                             *
    1669              ;* FUNCTION PROPERTIES                                         *
    1670              ;*                            0 Parameter,  3 Auto,  0 SOE     *
    1671              ;***************************************************************
    1672              
    1673 00000000       _SCI_writeCharNonBlocking:
    1674                      .dwcfi  cfa_offset, -2
    1675                      .dwcfi  save_reg_to_mem, 26, 0
    1676                      .dwcfi  save_reg_to_reg, 78, 26
    1677 00000000 FE04          ADDB      SP,#4                 ; [CPU_U] 
    1678                      .dwcfi  cfa_offset, -6
    1679              $C$DW$120       .dwtag  DW_TAG_variable, DW_AT_name("base")
    1680                      .dwattr $C$DW$120, DW_AT_TI_symbol_name("_base")
    1681                      .dwattr $C$DW$120, DW_AT_type(*$C$DW$T$21)
    1682                      .dwattr $C$DW$120, DW_AT_location[DW_OP_breg20 -2]
    1683              $C$DW$121       .dwtag  DW_TAG_variable, DW_AT_name("data")
TMS320C2000 Assembler PC v6.2.9 Tue Jun 09 22:29:21 2015

Tools Copyright (c) 1996-2014 Texas Instruments Incorporated
C:\Users\a0272466\AppData\Local\Temp\0538410                         PAGE   32

    1684                      .dwattr $C$DW$121, DW_AT_TI_symbol_name("_data")
    1685                      .dwattr $C$DW$121, DW_AT_type(*$C$DW$T$6)
    1686                      .dwattr $C$DW$121, DW_AT_location[DW_OP_breg20 -3]
    1687 00000001 7C43          MOV       *-SP[3],AR4           ; [CPU_] |723| 
    1688 00000002 1E42          MOVL      *-SP[2],ACC           ; [CPU_] |723| 
    1689                      .dwpsn  file "C:/work/grepos/c2000_bootROM/f28004x_bootrom/F28004x_ROM_dev/F28004x_ROM/driverlib/sci_
    1690 00000003 0204          MOVB      ACC,#4                ; [CPU_] |732| 
    1691 00000004 0742          ADDL      ACC,*-SP[2]           ; [CPU_] |732| 
    1692 00000005 8AA9          MOVL      XAR4,ACC              ; [CPU_] |732| 
    1693 00000006 C6C4          MOVB      AL.LSB,*+XAR4[0]      ; [CPU_] |732| 
    1694 00000007 47A9          TBIT      AL,#7                 ; [CPU_] |732| 
    1695 00000008 EF08          BF        $C$L14,NTC            ; [CPU_] |732| 
    1696                      ; branchcc occurs ; [] |732| 
    1697                      .dwpsn  file "C:/work/grepos/c2000_bootROM/f28004x_bootrom/F28004x_ROM_dev/F28004x_ROM/driverlib/sci_
    1698 00000009 0209          MOVB      ACC,#9                ; [CPU_] |737| 
    1699 0000000a 0742          ADDL      ACC,*-SP[2]           ; [CPU_] |737| 
    1700 0000000b 8AA9          MOVL      XAR4,ACC              ; [CPU_] |737| 
    1701 0000000c 9243          MOV       AL,*-SP[3]            ; [CPU_] |737| 
    1702 0000000d 3CC4          MOVB      *+XAR4[0],AL.LSB      ; [CPU_] |737| 
    1703                      .dwpsn  file "C:/work/grepos/c2000_bootROM/f28004x_bootrom/F28004x_ROM_dev/F28004x_ROM/driverlib/sci_
    1704 0000000e 9A01          MOVB      AL,#1                 ; [CPU_] |742| 
    1705 0000000f 6F02          B         $C$L15,UNC            ; [CPU_] |742| 
    1706                      ; branch occurs ; [] |742| 
    1707 00000010       $C$L14:    
    1708                      .dwpsn  file "C:/work/grepos/c2000_bootROM/f28004x_bootrom/F28004x_ROM_dev/F28004x_ROM/driverlib/sci_
    1709 00000010 9A00          MOVB      AL,#0                 ; [CPU_] |749| 
    1710 00000011       $C$L15:    
    1711                      .dwpsn  file "C:/work/grepos/c2000_bootROM/f28004x_bootrom/F28004x_ROM_dev/F28004x_ROM/driverlib/sci_
    1712 00000011 FE84          SUBB      SP,#4                 ; [CPU_U] 
    1713                      .dwcfi  cfa_offset, -2
    1714              $C$DW$122       .dwtag  DW_TAG_TI_branch
    1715                      .dwattr $C$DW$122, DW_AT_low_pc(0x00)
    1716                      .dwattr $C$DW$122, DW_AT_TI_return
    1717 00000012 0006          LRETR     ; [CPU_] 
    1718                      ; return occurs ; [] 
    1719                      .dwattr $C$DW$117, DW_AT_TI_end_file("C:/work/grepos/c2000_bootROM/f28004x_bootrom/F28004x_ROM_dev/F2
    1720                      .dwattr $C$DW$117, DW_AT_TI_end_line(0x2ef)
    1721                      .dwattr $C$DW$117, DW_AT_TI_end_column(0x01)
    1722                      .dwendentry
    1723                      .dwendtag $C$DW$117
    1724              
    1725 00000000               .sect   ".text:_SCI_writeChar"
    1726                      .clink
    1727                      .global _SCI_writeChar
    1728              
    1729              $C$DW$123       .dwtag  DW_TAG_subprogram, DW_AT_name("SCI_writeChar")
    1730                      .dwattr $C$DW$123, DW_AT_low_pc(_SCI_writeChar)
    1731                      .dwattr $C$DW$123, DW_AT_high_pc(0x00)
    1732                      .dwattr $C$DW$123, DW_AT_TI_symbol_name("_SCI_writeChar")
    1733                      .dwattr $C$DW$123, DW_AT_external
    1734                      .dwattr $C$DW$123, DW_AT_TI_begin_file("C:/work/grepos/c2000_bootROM/f28004x_bootrom/F28004x_ROM_dev/
    1735                      .dwattr $C$DW$123, DW_AT_TI_begin_line(0x300)
    1736                      .dwattr $C$DW$123, DW_AT_TI_begin_column(0x01)
    1737                      .dwattr $C$DW$123, DW_AT_TI_max_frame_size(-6)
    1738                      .dwpsn  file "C:/work/grepos/c2000_bootROM/f28004x_bootrom/F28004x_ROM_dev/F28004x_ROM/driverlib/sci_
TMS320C2000 Assembler PC v6.2.9 Tue Jun 09 22:29:21 2015

Tools Copyright (c) 1996-2014 Texas Instruments Incorporated
C:\Users\a0272466\AppData\Local\Temp\0538410                         PAGE   33

    1739              
    1740                      .dwfde $C$DW$CIE, _SCI_writeChar
    1741              $C$DW$124       .dwtag  DW_TAG_formal_parameter, DW_AT_name("base")
    1742                      .dwattr $C$DW$124, DW_AT_TI_symbol_name("_base")
    1743                      .dwattr $C$DW$124, DW_AT_type(*$C$DW$T$21)
    1744                      .dwattr $C$DW$124, DW_AT_location[DW_OP_reg0]
    1745              $C$DW$125       .dwtag  DW_TAG_formal_parameter, DW_AT_name("data")
    1746                      .dwattr $C$DW$125, DW_AT_TI_symbol_name("_data")
    1747                      .dwattr $C$DW$125, DW_AT_type(*$C$DW$T$6)
    1748                      .dwattr $C$DW$125, DW_AT_location[DW_OP_reg12]
    1749              
    1750              ;***************************************************************
    1751              ;* FNAME: _SCI_writeChar                FR SIZE:   4           *
    1752              ;*                                                             *
    1753              ;* FUNCTION ENVIRONMENT                                        *
    1754              ;*                                                             *
    1755              ;* FUNCTION PROPERTIES                                         *
    1756              ;*                            0 Parameter,  3 Auto,  0 SOE     *
    1757              ;***************************************************************
    1758              
    1759 00000000       _SCI_writeChar:
    1760                      .dwcfi  cfa_offset, -2
    1761                      .dwcfi  save_reg_to_mem, 26, 0
    1762                      .dwcfi  save_reg_to_reg, 78, 26
    1763 00000000 FE04          ADDB      SP,#4                 ; [CPU_U] 
    1764                      .dwcfi  cfa_offset, -6
    1765              $C$DW$126       .dwtag  DW_TAG_variable, DW_AT_name("base")
    1766                      .dwattr $C$DW$126, DW_AT_TI_symbol_name("_base")
    1767                      .dwattr $C$DW$126, DW_AT_type(*$C$DW$T$21)
    1768                      .dwattr $C$DW$126, DW_AT_location[DW_OP_breg20 -2]
    1769              $C$DW$127       .dwtag  DW_TAG_variable, DW_AT_name("data")
    1770                      .dwattr $C$DW$127, DW_AT_TI_symbol_name("_data")
    1771                      .dwattr $C$DW$127, DW_AT_type(*$C$DW$T$6)
    1772                      .dwattr $C$DW$127, DW_AT_location[DW_OP_breg20 -3]
    1773 00000001 7C43          MOV       *-SP[3],AR4           ; [CPU_] |769| 
    1774 00000002 1E42          MOVL      *-SP[2],ACC           ; [CPU_] |769| 
    1775                      .dwpsn  file "C:/work/grepos/c2000_bootROM/f28004x_bootrom/F28004x_ROM_dev/F28004x_ROM/driverlib/sci_
    1776 00000003       $C$L16:    
    1777                      .dwpsn  file "C:/work/grepos/c2000_bootROM/f28004x_bootrom/F28004x_ROM_dev/F28004x_ROM/driverlib/sci_
    1778 00000003 0204          MOVB      ACC,#4                ; [CPU_] |778| 
    1779 00000004 0742          ADDL      ACC,*-SP[2]           ; [CPU_] |778| 
    1780 00000005 8AA9          MOVL      XAR4,ACC              ; [CPU_] |778| 
    1781 00000006 C6C4          MOVB      AL.LSB,*+XAR4[0]      ; [CPU_] |778| 
    1782 00000007 47A9          TBIT      AL,#7                 ; [CPU_] |778| 
    1783 00000008 EFFB          BF        $C$L16,NTC            ; [CPU_] |778| 
    1784                      ; branchcc occurs ; [] |778| 
    1785                      .dwpsn  file "C:/work/grepos/c2000_bootROM/f28004x_bootrom/F28004x_ROM_dev/F28004x_ROM/driverlib/sci_
    1786 00000009 0209          MOVB      ACC,#9                ; [CPU_] |785| 
    1787 0000000a 0742          ADDL      ACC,*-SP[2]           ; [CPU_] |785| 
    1788 0000000b 8AA9          MOVL      XAR4,ACC              ; [CPU_] |785| 
    1789 0000000c 9243          MOV       AL,*-SP[3]            ; [CPU_] |785| 
    1790 0000000d 3CC4          MOVB      *+XAR4[0],AL.LSB      ; [CPU_] |785| 
    1791                      .dwpsn  file "C:/work/grepos/c2000_bootROM/f28004x_bootrom/F28004x_ROM_dev/F28004x_ROM/driverlib/sci_
    1792 0000000e FE84          SUBB      SP,#4                 ; [CPU_U] 
    1793                      .dwcfi  cfa_offset, -2
TMS320C2000 Assembler PC v6.2.9 Tue Jun 09 22:29:21 2015

Tools Copyright (c) 1996-2014 Texas Instruments Incorporated
C:\Users\a0272466\AppData\Local\Temp\0538410                         PAGE   34

    1794              $C$DW$128       .dwtag  DW_TAG_TI_branch
    1795                      .dwattr $C$DW$128, DW_AT_low_pc(0x00)
    1796                      .dwattr $C$DW$128, DW_AT_TI_return
    1797 0000000f 0006          LRETR     ; [CPU_] 
    1798                      ; return occurs ; [] 
    1799                      .dwattr $C$DW$123, DW_AT_TI_end_file("C:/work/grepos/c2000_bootROM/f28004x_bootrom/F28004x_ROM_dev/F2
    1800                      .dwattr $C$DW$123, DW_AT_TI_end_line(0x312)
    1801                      .dwattr $C$DW$123, DW_AT_TI_end_column(0x01)
    1802                      .dwendentry
    1803                      .dwendtag $C$DW$123
    1804              
    1805 00000000               .sect   ".text:_SCI_isBusy"
    1806                      .clink
    1807                      .global _SCI_isBusy
    1808              
    1809              $C$DW$129       .dwtag  DW_TAG_subprogram, DW_AT_name("SCI_isBusy")
    1810                      .dwattr $C$DW$129, DW_AT_low_pc(_SCI_isBusy)
    1811                      .dwattr $C$DW$129, DW_AT_high_pc(0x00)
    1812                      .dwattr $C$DW$129, DW_AT_TI_symbol_name("_SCI_isBusy")
    1813                      .dwattr $C$DW$129, DW_AT_external
    1814                      .dwattr $C$DW$129, DW_AT_type(*$C$DW$T$60)
    1815                      .dwattr $C$DW$129, DW_AT_TI_begin_file("C:/work/grepos/c2000_bootROM/f28004x_bootrom/F28004x_ROM_dev/
    1816                      .dwattr $C$DW$129, DW_AT_TI_begin_line(0x324)
    1817                      .dwattr $C$DW$129, DW_AT_TI_begin_column(0x01)
    1818                      .dwattr $C$DW$129, DW_AT_TI_max_frame_size(-4)
    1819                      .dwpsn  file "C:/work/grepos/c2000_bootROM/f28004x_bootrom/F28004x_ROM_dev/F28004x_ROM/driverlib/sci_
    1820              
    1821                      .dwfde $C$DW$CIE, _SCI_isBusy
    1822              $C$DW$130       .dwtag  DW_TAG_formal_parameter, DW_AT_name("base")
    1823                      .dwattr $C$DW$130, DW_AT_TI_symbol_name("_base")
    1824                      .dwattr $C$DW$130, DW_AT_type(*$C$DW$T$21)
    1825                      .dwattr $C$DW$130, DW_AT_location[DW_OP_reg0]
    1826              
    1827              ;***************************************************************
    1828              ;* FNAME: _SCI_isBusy                   FR SIZE:   2           *
    1829              ;*                                                             *
    1830              ;* FUNCTION ENVIRONMENT                                        *
    1831              ;*                                                             *
    1832              ;* FUNCTION PROPERTIES                                         *
    1833              ;*                            0 Parameter,  2 Auto,  0 SOE     *
    1834              ;***************************************************************
    1835              
    1836 00000000       _SCI_isBusy:
    1837                      .dwcfi  cfa_offset, -2
    1838                      .dwcfi  save_reg_to_mem, 26, 0
    1839                      .dwcfi  save_reg_to_reg, 78, 26
    1840 00000000 FE02          ADDB      SP,#2                 ; [CPU_U] 
    1841                      .dwcfi  cfa_offset, -4
    1842              $C$DW$131       .dwtag  DW_TAG_variable, DW_AT_name("base")
    1843                      .dwattr $C$DW$131, DW_AT_TI_symbol_name("_base")
    1844                      .dwattr $C$DW$131, DW_AT_type(*$C$DW$T$21)
    1845                      .dwattr $C$DW$131, DW_AT_location[DW_OP_breg20 -2]
    1846 00000001 1E42          MOVL      *-SP[2],ACC           ; [CPU_] |805| 
    1847                      .dwpsn  file "C:/work/grepos/c2000_bootROM/f28004x_bootrom/F28004x_ROM_dev/F28004x_ROM/driverlib/sci_
    1848 00000002 0204          MOVB      ACC,#4                ; [CPU_] |814| 
TMS320C2000 Assembler PC v6.2.9 Tue Jun 09 22:29:21 2015

Tools Copyright (c) 1996-2014 Texas Instruments Incorporated
C:\Users\a0272466\AppData\Local\Temp\0538410                         PAGE   35

    1849 00000003 0742          ADDL      ACC,*-SP[2]           ; [CPU_] |814| 
    1850 00000004 8AA9          MOVL      XAR4,ACC              ; [CPU_] |814| 
    1851 00000005 9A00          MOVB      AL,#0                 ; [CPU_] |814| 
    1852 00000006 C7C4          MOVB      AH.LSB,*+XAR4[0]      ; [CPU_] |814| 
    1853 00000007 46A8          TBIT      AH,#6                 ; [CPU_] |814| 
    1854 00000008 EF03          BF        $C$L17,NTC            ; [CPU_] |814| 
    1855                      ; branchcc occurs ; [] |814| 
    1856 00000009 9B00          MOVB      AH,#0                 ; [CPU_] |814| 
    1857 0000000a 6F02          B         $C$L18,UNC            ; [CPU_] |814| 
    1858                      ; branch occurs ; [] |814| 
    1859 0000000b       $C$L17:    
    1860 0000000b 9B01          MOVB      AH,#1                 ; [CPU_] |814| 
    1861 0000000c       $C$L18:    
    1862 0000000c 5300          CMPB      AH,#0                 ; [CPU_] |814| 
    1863 0000000d EC02          BF        $C$L19,EQ             ; [CPU_] |814| 
    1864                      ; branchcc occurs ; [] |814| 
    1865 0000000e 9A01          MOVB      AL,#1                 ; [CPU_] |814| 
    1866 0000000f       $C$L19:    
    1867                      .dwpsn  file "C:/work/grepos/c2000_bootROM/f28004x_bootrom/F28004x_ROM_dev/F28004x_ROM/driverlib/sci_
    1868 0000000f FE82          SUBB      SP,#2                 ; [CPU_U] 
    1869                      .dwcfi  cfa_offset, -2
    1870              $C$DW$132       .dwtag  DW_TAG_TI_branch
    1871                      .dwattr $C$DW$132, DW_AT_low_pc(0x00)
    1872                      .dwattr $C$DW$132, DW_AT_TI_return
    1873 00000010 0006          LRETR     ; [CPU_] 
    1874                      ; return occurs ; [] 
    1875                      .dwattr $C$DW$129, DW_AT_TI_end_file("C:/work/grepos/c2000_bootROM/f28004x_bootrom/F28004x_ROM_dev/F2
    1876                      .dwattr $C$DW$129, DW_AT_TI_end_line(0x32f)
    1877                      .dwattr $C$DW$129, DW_AT_TI_end_column(0x01)
    1878                      .dwendentry
    1879                      .dwendtag $C$DW$129
    1880              
    1881 00000000               .sect   ".text:_SCI_registerRxInterrupt"
    1882                      .clink
    1883                      .global _SCI_registerRxInterrupt
    1884              
    1885              $C$DW$133       .dwtag  DW_TAG_subprogram, DW_AT_name("SCI_registerRxInterrupt")
    1886                      .dwattr $C$DW$133, DW_AT_low_pc(_SCI_registerRxInterrupt)
    1887                      .dwattr $C$DW$133, DW_AT_high_pc(0x00)
    1888                      .dwattr $C$DW$133, DW_AT_TI_symbol_name("_SCI_registerRxInterrupt")
    1889                      .dwattr $C$DW$133, DW_AT_external
    1890                      .dwattr $C$DW$133, DW_AT_TI_begin_file("C:/work/grepos/c2000_bootROM/f28004x_bootrom/F28004x_ROM_dev/
    1891                      .dwattr $C$DW$133, DW_AT_TI_begin_line(0x345)
    1892                      .dwattr $C$DW$133, DW_AT_TI_begin_column(0x01)
    1893                      .dwattr $C$DW$133, DW_AT_TI_max_frame_size(-8)
    1894                      .dwpsn  file "C:/work/grepos/c2000_bootROM/f28004x_bootrom/F28004x_ROM_dev/F28004x_ROM/driverlib/sci_
    1895              
    1896                      .dwfde $C$DW$CIE, _SCI_registerRxInterrupt
    1897              $C$DW$134       .dwtag  DW_TAG_formal_parameter, DW_AT_name("base")
    1898                      .dwattr $C$DW$134, DW_AT_TI_symbol_name("_base")
    1899                      .dwattr $C$DW$134, DW_AT_type(*$C$DW$T$21)
    1900                      .dwattr $C$DW$134, DW_AT_location[DW_OP_reg0]
    1901              $C$DW$135       .dwtag  DW_TAG_formal_parameter, DW_AT_name("handler")
    1902                      .dwattr $C$DW$135, DW_AT_TI_symbol_name("_handler")
    1903                      .dwattr $C$DW$135, DW_AT_type(*$C$DW$T$38)
TMS320C2000 Assembler PC v6.2.9 Tue Jun 09 22:29:21 2015

Tools Copyright (c) 1996-2014 Texas Instruments Incorporated
C:\Users\a0272466\AppData\Local\Temp\0538410                         PAGE   36

    1904                      .dwattr $C$DW$135, DW_AT_location[DW_OP_reg12]
    1905              
    1906              ;***************************************************************
    1907              ;* FNAME: _SCI_registerRxInterrupt      FR SIZE:   6           *
    1908              ;*                                                             *
    1909              ;* FUNCTION ENVIRONMENT                                        *
    1910              ;*                                                             *
    1911              ;* FUNCTION PROPERTIES                                         *
    1912              ;*                            0 Parameter,  6 Auto,  0 SOE     *
    1913              ;***************************************************************
    1914              
    1915 00000000       _SCI_registerRxInterrupt:
    1916                      .dwcfi  cfa_offset, -2
    1917                      .dwcfi  save_reg_to_mem, 26, 0
    1918                      .dwcfi  save_reg_to_reg, 78, 26
    1919 00000000 FE06          ADDB      SP,#6                 ; [CPU_U] 
    1920                      .dwcfi  cfa_offset, -8
    1921              $C$DW$136       .dwtag  DW_TAG_variable, DW_AT_name("base")
    1922                      .dwattr $C$DW$136, DW_AT_TI_symbol_name("_base")
    1923                      .dwattr $C$DW$136, DW_AT_type(*$C$DW$T$21)
    1924                      .dwattr $C$DW$136, DW_AT_location[DW_OP_breg20 -2]
    1925              $C$DW$137       .dwtag  DW_TAG_variable, DW_AT_name("handler")
    1926                      .dwattr $C$DW$137, DW_AT_TI_symbol_name("_handler")
    1927                      .dwattr $C$DW$137, DW_AT_type(*$C$DW$T$38)
    1928                      .dwattr $C$DW$137, DW_AT_location[DW_OP_breg20 -4]
    1929              $C$DW$138       .dwtag  DW_TAG_variable, DW_AT_name("intNum")
    1930                      .dwattr $C$DW$138, DW_AT_TI_symbol_name("_intNum")
    1931                      .dwattr $C$DW$138, DW_AT_type(*$C$DW$T$21)
    1932                      .dwattr $C$DW$138, DW_AT_location[DW_OP_breg20 -6]
    1933 00000001 A844          MOVL      *-SP[4],XAR4          ; [CPU_] |838| 
    1934 00000002 1E42          MOVL      *-SP[2],ACC           ; [CPU_] |838| 
    1935                      .dwpsn  file "C:/work/grepos/c2000_bootROM/f28004x_bootrom/F28004x_ROM_dev/F28004x_ROM/driverlib/sci_
    1936 00000003 FF20          MOV       ACC,#29184            ; [CPU_] |849| 
         00000004 7200 
    1937 00000005 0F42          CMPL      ACC,*-SP[2]           ; [CPU_] |849| 
    1938 00000006 ED05          BF        $C$L20,NEQ            ; [CPU_] |849| 
    1939                      ; branchcc occurs ; [] |849| 
    1940 00000007 28A9          MOV       AL,#2305              ; [CPU_] |849| 
         00000008 0901 
    1941 00000009 9B60          MOV       AH,#96                ; [CPU_] |849| 
    1942 0000000a 6F04          B         $C$L21,UNC            ; [CPU_] |849| 
    1943                      ; branch occurs ; [] |849| 
    1944 0000000b       $C$L20:    
    1945 0000000b 28A9          MOV       AL,#2307              ; [CPU_] |849| 
         0000000c 0903 
    1946 0000000d 9B62          MOV       AH,#98                ; [CPU_] |849| 
    1947 0000000e       $C$L21:    
    1948 0000000e 1E46          MOVL      *-SP[6],ACC           ; [CPU_] |849| 
    1949                      .dwpsn  file "C:/work/grepos/c2000_bootROM/f28004x_bootrom/F28004x_ROM_dev/F28004x_ROM/driverlib/sci_
    1950 0000000f 8A44          MOVL      XAR4,*-SP[4]          ; [CPU_] |854| 
    1951 00000010 0646          MOVL      ACC,*-SP[6]           ; [CPU_] |854| 
    1952              $C$DW$139       .dwtag  DW_TAG_TI_branch
    1953                      .dwattr $C$DW$139, DW_AT_low_pc(0x00)
    1954                      .dwattr $C$DW$139, DW_AT_name("_Interrupt_register")
    1955                      .dwattr $C$DW$139, DW_AT_TI_call
TMS320C2000 Assembler PC v6.2.9 Tue Jun 09 22:29:21 2015

Tools Copyright (c) 1996-2014 Texas Instruments Incorporated
C:\Users\a0272466\AppData\Local\Temp\0538410                         PAGE   37

    1956 00000011 7640+         LCR       #_Interrupt_register  ; [CPU_] |854| 
         00000012 0000 
    1957                      ; call occurs [#_Interrupt_register] ; [] |854| 
    1958                      .dwpsn  file "C:/work/grepos/c2000_bootROM/f28004x_bootrom/F28004x_ROM_dev/F28004x_ROM/driverlib/sci_
    1959 00000013 0646          MOVL      ACC,*-SP[6]           ; [CPU_] |859| 
    1960              $C$DW$140       .dwtag  DW_TAG_TI_branch
    1961                      .dwattr $C$DW$140, DW_AT_low_pc(0x00)
    1962                      .dwattr $C$DW$140, DW_AT_name("_Interrupt_enable")
    1963                      .dwattr $C$DW$140, DW_AT_TI_call
    1964 00000014 7640!         LCR       #_Interrupt_enable    ; [CPU_] |859| 
         00000015 0000 
    1965                      ; call occurs [#_Interrupt_enable] ; [] |859| 
    1966                      .dwpsn  file "C:/work/grepos/c2000_bootROM/f28004x_bootrom/F28004x_ROM_dev/F28004x_ROM/driverlib/sci_
    1967 00000016 FE86          SUBB      SP,#6                 ; [CPU_U] 
    1968                      .dwcfi  cfa_offset, -2
    1969              $C$DW$141       .dwtag  DW_TAG_TI_branch
    1970                      .dwattr $C$DW$141, DW_AT_low_pc(0x00)
    1971                      .dwattr $C$DW$141, DW_AT_TI_return
    1972 00000017 0006          LRETR     ; [CPU_] 
    1973                      ; return occurs ; [] 
    1974                      .dwattr $C$DW$133, DW_AT_TI_end_file("C:/work/grepos/c2000_bootROM/f28004x_bootrom/F28004x_ROM_dev/F2
    1975                      .dwattr $C$DW$133, DW_AT_TI_end_line(0x35c)
    1976                      .dwattr $C$DW$133, DW_AT_TI_end_column(0x01)
    1977                      .dwendentry
    1978                      .dwendtag $C$DW$133
    1979              
    1980 00000000               .sect   ".text:_SCI_registerTxInterrupt"
    1981                      .clink
    1982                      .global _SCI_registerTxInterrupt
    1983              
    1984              $C$DW$142       .dwtag  DW_TAG_subprogram, DW_AT_name("SCI_registerTxInterrupt")
    1985                      .dwattr $C$DW$142, DW_AT_low_pc(_SCI_registerTxInterrupt)
    1986                      .dwattr $C$DW$142, DW_AT_high_pc(0x00)
    1987                      .dwattr $C$DW$142, DW_AT_TI_symbol_name("_SCI_registerTxInterrupt")
    1988                      .dwattr $C$DW$142, DW_AT_external
    1989                      .dwattr $C$DW$142, DW_AT_TI_begin_file("C:/work/grepos/c2000_bootROM/f28004x_bootrom/F28004x_ROM_dev/
    1990                      .dwattr $C$DW$142, DW_AT_TI_begin_line(0x372)
    1991                      .dwattr $C$DW$142, DW_AT_TI_begin_column(0x01)
    1992                      .dwattr $C$DW$142, DW_AT_TI_max_frame_size(-8)
    1993                      .dwpsn  file "C:/work/grepos/c2000_bootROM/f28004x_bootrom/F28004x_ROM_dev/F28004x_ROM/driverlib/sci_
    1994              
    1995                      .dwfde $C$DW$CIE, _SCI_registerTxInterrupt
    1996              $C$DW$143       .dwtag  DW_TAG_formal_parameter, DW_AT_name("base")
    1997                      .dwattr $C$DW$143, DW_AT_TI_symbol_name("_base")
    1998                      .dwattr $C$DW$143, DW_AT_type(*$C$DW$T$21)
    1999                      .dwattr $C$DW$143, DW_AT_location[DW_OP_reg0]
    2000              $C$DW$144       .dwtag  DW_TAG_formal_parameter, DW_AT_name("handler")
    2001                      .dwattr $C$DW$144, DW_AT_TI_symbol_name("_handler")
    2002                      .dwattr $C$DW$144, DW_AT_type(*$C$DW$T$38)
    2003                      .dwattr $C$DW$144, DW_AT_location[DW_OP_reg12]
    2004              
    2005              ;***************************************************************
    2006              ;* FNAME: _SCI_registerTxInterrupt      FR SIZE:   6           *
    2007              ;*                                                             *
    2008              ;* FUNCTION ENVIRONMENT                                        *
TMS320C2000 Assembler PC v6.2.9 Tue Jun 09 22:29:21 2015

Tools Copyright (c) 1996-2014 Texas Instruments Incorporated
C:\Users\a0272466\AppData\Local\Temp\0538410                         PAGE   38

    2009              ;*                                                             *
    2010              ;* FUNCTION PROPERTIES                                         *
    2011              ;*                            0 Parameter,  6 Auto,  0 SOE     *
    2012              ;***************************************************************
    2013              
    2014 00000000       _SCI_registerTxInterrupt:
    2015                      .dwcfi  cfa_offset, -2
    2016                      .dwcfi  save_reg_to_mem, 26, 0
    2017                      .dwcfi  save_reg_to_reg, 78, 26
    2018 00000000 FE06          ADDB      SP,#6                 ; [CPU_U] 
    2019                      .dwcfi  cfa_offset, -8
    2020              $C$DW$145       .dwtag  DW_TAG_variable, DW_AT_name("base")
    2021                      .dwattr $C$DW$145, DW_AT_TI_symbol_name("_base")
    2022                      .dwattr $C$DW$145, DW_AT_type(*$C$DW$T$21)
    2023                      .dwattr $C$DW$145, DW_AT_location[DW_OP_breg20 -2]
    2024              $C$DW$146       .dwtag  DW_TAG_variable, DW_AT_name("handler")
    2025                      .dwattr $C$DW$146, DW_AT_TI_symbol_name("_handler")
    2026                      .dwattr $C$DW$146, DW_AT_type(*$C$DW$T$38)
    2027                      .dwattr $C$DW$146, DW_AT_location[DW_OP_breg20 -4]
    2028              $C$DW$147       .dwtag  DW_TAG_variable, DW_AT_name("intNum")
    2029                      .dwattr $C$DW$147, DW_AT_TI_symbol_name("_intNum")
    2030                      .dwattr $C$DW$147, DW_AT_type(*$C$DW$T$21)
    2031                      .dwattr $C$DW$147, DW_AT_location[DW_OP_breg20 -6]
    2032 00000001 A844          MOVL      *-SP[4],XAR4          ; [CPU_] |883| 
    2033 00000002 1E42          MOVL      *-SP[2],ACC           ; [CPU_] |883| 
    2034                      .dwpsn  file "C:/work/grepos/c2000_bootROM/f28004x_bootrom/F28004x_ROM_dev/F28004x_ROM/driverlib/sci_
    2035 00000003 FF20          MOV       ACC,#29184            ; [CPU_] |894| 
         00000004 7200 
    2036 00000005 0F42          CMPL      ACC,*-SP[2]           ; [CPU_] |894| 
    2037 00000006 ED05          BF        $C$L22,NEQ            ; [CPU_] |894| 
    2038                      ; branchcc occurs ; [] |894| 
    2039 00000007 28A9          MOV       AL,#2306              ; [CPU_] |894| 
         00000008 0902 
    2040 00000009 9B61          MOV       AH,#97                ; [CPU_] |894| 
    2041 0000000a 6F04          B         $C$L23,UNC            ; [CPU_] |894| 
    2042                      ; branch occurs ; [] |894| 
    2043 0000000b       $C$L22:    
    2044 0000000b 28A9          MOV       AL,#2308              ; [CPU_] |894| 
         0000000c 0904 
    2045 0000000d 9B63          MOV       AH,#99                ; [CPU_] |894| 
    2046 0000000e       $C$L23:    
    2047 0000000e 1E46          MOVL      *-SP[6],ACC           ; [CPU_] |894| 
    2048                      .dwpsn  file "C:/work/grepos/c2000_bootROM/f28004x_bootrom/F28004x_ROM_dev/F28004x_ROM/driverlib/sci_
    2049 0000000f 8A44          MOVL      XAR4,*-SP[4]          ; [CPU_] |899| 
    2050 00000010 0646          MOVL      ACC,*-SP[6]           ; [CPU_] |899| 
    2051              $C$DW$148       .dwtag  DW_TAG_TI_branch
    2052                      .dwattr $C$DW$148, DW_AT_low_pc(0x00)
    2053                      .dwattr $C$DW$148, DW_AT_name("_Interrupt_register")
    2054                      .dwattr $C$DW$148, DW_AT_TI_call
    2055 00000011 7640+         LCR       #_Interrupt_register  ; [CPU_] |899| 
         00000012 0000 
    2056                      ; call occurs [#_Interrupt_register] ; [] |899| 
    2057                      .dwpsn  file "C:/work/grepos/c2000_bootROM/f28004x_bootrom/F28004x_ROM_dev/F28004x_ROM/driverlib/sci_
    2058 00000013 0646          MOVL      ACC,*-SP[6]           ; [CPU_] |904| 
    2059              $C$DW$149       .dwtag  DW_TAG_TI_branch
TMS320C2000 Assembler PC v6.2.9 Tue Jun 09 22:29:21 2015

Tools Copyright (c) 1996-2014 Texas Instruments Incorporated
C:\Users\a0272466\AppData\Local\Temp\0538410                         PAGE   39

    2060                      .dwattr $C$DW$149, DW_AT_low_pc(0x00)
    2061                      .dwattr $C$DW$149, DW_AT_name("_Interrupt_enable")
    2062                      .dwattr $C$DW$149, DW_AT_TI_call
    2063 00000014 7640!         LCR       #_Interrupt_enable    ; [CPU_] |904| 
         00000015 0000 
    2064                      ; call occurs [#_Interrupt_enable] ; [] |904| 
    2065                      .dwpsn  file "C:/work/grepos/c2000_bootROM/f28004x_bootrom/F28004x_ROM_dev/F28004x_ROM/driverlib/sci_
    2066 00000016 FE86          SUBB      SP,#6                 ; [CPU_U] 
    2067                      .dwcfi  cfa_offset, -2
    2068              $C$DW$150       .dwtag  DW_TAG_TI_branch
    2069                      .dwattr $C$DW$150, DW_AT_low_pc(0x00)
    2070                      .dwattr $C$DW$150, DW_AT_TI_return
    2071 00000017 0006          LRETR     ; [CPU_] 
    2072                      ; return occurs ; [] 
    2073                      .dwattr $C$DW$142, DW_AT_TI_end_file("C:/work/grepos/c2000_bootROM/f28004x_bootrom/F28004x_ROM_dev/F2
    2074                      .dwattr $C$DW$142, DW_AT_TI_end_line(0x389)
    2075                      .dwattr $C$DW$142, DW_AT_TI_end_column(0x01)
    2076                      .dwendentry
    2077                      .dwendtag $C$DW$142
    2078              
    2079 00000000               .sect   ".text:_SCI_unregisterRxInterrupt"
    2080                      .clink
    2081                      .global _SCI_unregisterRxInterrupt
    2082              
    2083              $C$DW$151       .dwtag  DW_TAG_subprogram, DW_AT_name("SCI_unregisterRxInterrupt")
    2084                      .dwattr $C$DW$151, DW_AT_low_pc(_SCI_unregisterRxInterrupt)
    2085                      .dwattr $C$DW$151, DW_AT_high_pc(0x00)
    2086                      .dwattr $C$DW$151, DW_AT_TI_symbol_name("_SCI_unregisterRxInterrupt")
    2087                      .dwattr $C$DW$151, DW_AT_external
    2088                      .dwattr $C$DW$151, DW_AT_TI_begin_file("C:/work/grepos/c2000_bootROM/f28004x_bootrom/F28004x_ROM_dev/
    2089                      .dwattr $C$DW$151, DW_AT_TI_begin_line(0x39d)
    2090                      .dwattr $C$DW$151, DW_AT_TI_begin_column(0x01)
    2091                      .dwattr $C$DW$151, DW_AT_TI_max_frame_size(-6)
    2092                      .dwpsn  file "C:/work/grepos/c2000_bootROM/f28004x_bootrom/F28004x_ROM_dev/F28004x_ROM/driverlib/sci_
    2093              
    2094                      .dwfde $C$DW$CIE, _SCI_unregisterRxInterrupt
    2095              $C$DW$152       .dwtag  DW_TAG_formal_parameter, DW_AT_name("base")
    2096                      .dwattr $C$DW$152, DW_AT_TI_symbol_name("_base")
    2097                      .dwattr $C$DW$152, DW_AT_type(*$C$DW$T$21)
    2098                      .dwattr $C$DW$152, DW_AT_location[DW_OP_reg0]
    2099              
    2100              ;***************************************************************
    2101              ;* FNAME: _SCI_unregisterRxInterrupt    FR SIZE:   4           *
    2102              ;*                                                             *
    2103              ;* FUNCTION ENVIRONMENT                                        *
    2104              ;*                                                             *
    2105              ;* FUNCTION PROPERTIES                                         *
    2106              ;*                            0 Parameter,  4 Auto,  0 SOE     *
    2107              ;***************************************************************
    2108              
    2109 00000000       _SCI_unregisterRxInterrupt:
    2110                      .dwcfi  cfa_offset, -2
    2111                      .dwcfi  save_reg_to_mem, 26, 0
    2112                      .dwcfi  save_reg_to_reg, 78, 26
    2113 00000000 FE04          ADDB      SP,#4                 ; [CPU_U] 
TMS320C2000 Assembler PC v6.2.9 Tue Jun 09 22:29:21 2015

Tools Copyright (c) 1996-2014 Texas Instruments Incorporated
C:\Users\a0272466\AppData\Local\Temp\0538410                         PAGE   40

    2114                      .dwcfi  cfa_offset, -6
    2115              $C$DW$153       .dwtag  DW_TAG_variable, DW_AT_name("base")
    2116                      .dwattr $C$DW$153, DW_AT_TI_symbol_name("_base")
    2117                      .dwattr $C$DW$153, DW_AT_type(*$C$DW$T$21)
    2118                      .dwattr $C$DW$153, DW_AT_location[DW_OP_breg20 -2]
    2119              $C$DW$154       .dwtag  DW_TAG_variable, DW_AT_name("intNum")
    2120                      .dwattr $C$DW$154, DW_AT_TI_symbol_name("_intNum")
    2121                      .dwattr $C$DW$154, DW_AT_type(*$C$DW$T$21)
    2122                      .dwattr $C$DW$154, DW_AT_location[DW_OP_breg20 -4]
    2123 00000001 1E42          MOVL      *-SP[2],ACC           ; [CPU_] |926| 
    2124                      .dwpsn  file "C:/work/grepos/c2000_bootROM/f28004x_bootrom/F28004x_ROM_dev/F28004x_ROM/driverlib/sci_
    2125 00000002 FF20          MOV       ACC,#29184            ; [CPU_] |937| 
         00000003 7200 
    2126 00000004 0F42          CMPL      ACC,*-SP[2]           ; [CPU_] |937| 
    2127 00000005 ED05          BF        $C$L24,NEQ            ; [CPU_] |937| 
    2128                      ; branchcc occurs ; [] |937| 
    2129 00000006 28A9          MOV       AL,#2305              ; [CPU_] |937| 
         00000007 0901 
    2130 00000008 9B60          MOV       AH,#96                ; [CPU_] |937| 
    2131 00000009 6F04          B         $C$L25,UNC            ; [CPU_] |937| 
    2132                      ; branch occurs ; [] |937| 
    2133 0000000a       $C$L24:    
    2134 0000000a 28A9          MOV       AL,#2307              ; [CPU_] |937| 
         0000000b 0903 
    2135 0000000c 9B62          MOV       AH,#98                ; [CPU_] |937| 
    2136 0000000d       $C$L25:    
    2137 0000000d 1E44          MOVL      *-SP[4],ACC           ; [CPU_] |937| 
    2138                      .dwpsn  file "C:/work/grepos/c2000_bootROM/f28004x_bootrom/F28004x_ROM_dev/F28004x_ROM/driverlib/sci_
    2139 0000000e 0644          MOVL      ACC,*-SP[4]           ; [CPU_] |942| 
    2140              $C$DW$155       .dwtag  DW_TAG_TI_branch
    2141                      .dwattr $C$DW$155, DW_AT_low_pc(0x00)
    2142                      .dwattr $C$DW$155, DW_AT_name("_Interrupt_disable")
    2143                      .dwattr $C$DW$155, DW_AT_TI_call
    2144 0000000f 7640!         LCR       #_Interrupt_disable   ; [CPU_] |942| 
         00000010 0000 
    2145                      ; call occurs [#_Interrupt_disable] ; [] |942| 
    2146                      .dwpsn  file "C:/work/grepos/c2000_bootROM/f28004x_bootrom/F28004x_ROM_dev/F28004x_ROM/driverlib/sci_
    2147 00000011 0644          MOVL      ACC,*-SP[4]           ; [CPU_] |947| 
    2148              $C$DW$156       .dwtag  DW_TAG_TI_branch
    2149                      .dwattr $C$DW$156, DW_AT_low_pc(0x00)
    2150                      .dwattr $C$DW$156, DW_AT_name("_Interrupt_unregister")
    2151                      .dwattr $C$DW$156, DW_AT_TI_call
    2152 00000012 7640+         LCR       #_Interrupt_unregister ; [CPU_] |947| 
         00000013 0000 
    2153                      ; call occurs [#_Interrupt_unregister] ; [] |947| 
    2154                      .dwpsn  file "C:/work/grepos/c2000_bootROM/f28004x_bootrom/F28004x_ROM_dev/F28004x_ROM/driverlib/sci_
    2155 00000014 FE84          SUBB      SP,#4                 ; [CPU_U] 
    2156                      .dwcfi  cfa_offset, -2
    2157              $C$DW$157       .dwtag  DW_TAG_TI_branch
    2158                      .dwattr $C$DW$157, DW_AT_low_pc(0x00)
    2159                      .dwattr $C$DW$157, DW_AT_TI_return
    2160 00000015 0006          LRETR     ; [CPU_] 
    2161                      ; return occurs ; [] 
    2162                      .dwattr $C$DW$151, DW_AT_TI_end_file("C:/work/grepos/c2000_bootROM/f28004x_bootrom/F28004x_ROM_dev/F2
    2163                      .dwattr $C$DW$151, DW_AT_TI_end_line(0x3b4)
TMS320C2000 Assembler PC v6.2.9 Tue Jun 09 22:29:21 2015

Tools Copyright (c) 1996-2014 Texas Instruments Incorporated
C:\Users\a0272466\AppData\Local\Temp\0538410                         PAGE   41

    2164                      .dwattr $C$DW$151, DW_AT_TI_end_column(0x01)
    2165                      .dwendentry
    2166                      .dwendtag $C$DW$151
    2167              
    2168 00000000               .sect   ".text:_SCI_unregisterTxInterrupt"
    2169                      .clink
    2170                      .global _SCI_unregisterTxInterrupt
    2171              
    2172              $C$DW$158       .dwtag  DW_TAG_subprogram, DW_AT_name("SCI_unregisterTxInterrupt")
    2173                      .dwattr $C$DW$158, DW_AT_low_pc(_SCI_unregisterTxInterrupt)
    2174                      .dwattr $C$DW$158, DW_AT_high_pc(0x00)
    2175                      .dwattr $C$DW$158, DW_AT_TI_symbol_name("_SCI_unregisterTxInterrupt")
    2176                      .dwattr $C$DW$158, DW_AT_external
    2177                      .dwattr $C$DW$158, DW_AT_TI_begin_file("C:/work/grepos/c2000_bootROM/f28004x_bootrom/F28004x_ROM_dev/
    2178                      .dwattr $C$DW$158, DW_AT_TI_begin_line(0x3c8)
    2179                      .dwattr $C$DW$158, DW_AT_TI_begin_column(0x01)
    2180                      .dwattr $C$DW$158, DW_AT_TI_max_frame_size(-6)
    2181                      .dwpsn  file "C:/work/grepos/c2000_bootROM/f28004x_bootrom/F28004x_ROM_dev/F28004x_ROM/driverlib/sci_
    2182              
    2183                      .dwfde $C$DW$CIE, _SCI_unregisterTxInterrupt
    2184              $C$DW$159       .dwtag  DW_TAG_formal_parameter, DW_AT_name("base")
    2185                      .dwattr $C$DW$159, DW_AT_TI_symbol_name("_base")
    2186                      .dwattr $C$DW$159, DW_AT_type(*$C$DW$T$21)
    2187                      .dwattr $C$DW$159, DW_AT_location[DW_OP_reg0]
    2188              
    2189              ;***************************************************************
    2190              ;* FNAME: _SCI_unregisterTxInterrupt    FR SIZE:   4           *
    2191              ;*                                                             *
    2192              ;* FUNCTION ENVIRONMENT                                        *
    2193              ;*                                                             *
    2194              ;* FUNCTION PROPERTIES                                         *
    2195              ;*                            0 Parameter,  4 Auto,  0 SOE     *
    2196              ;***************************************************************
    2197              
    2198 00000000       _SCI_unregisterTxInterrupt:
    2199                      .dwcfi  cfa_offset, -2
    2200                      .dwcfi  save_reg_to_mem, 26, 0
    2201                      .dwcfi  save_reg_to_reg, 78, 26
    2202 00000000 FE04          ADDB      SP,#4                 ; [CPU_U] 
    2203                      .dwcfi  cfa_offset, -6
    2204              $C$DW$160       .dwtag  DW_TAG_variable, DW_AT_name("base")
    2205                      .dwattr $C$DW$160, DW_AT_TI_symbol_name("_base")
    2206                      .dwattr $C$DW$160, DW_AT_type(*$C$DW$T$21)
    2207                      .dwattr $C$DW$160, DW_AT_location[DW_OP_breg20 -2]
    2208              $C$DW$161       .dwtag  DW_TAG_variable, DW_AT_name("intNum")
    2209                      .dwattr $C$DW$161, DW_AT_TI_symbol_name("_intNum")
    2210                      .dwattr $C$DW$161, DW_AT_type(*$C$DW$T$21)
    2211                      .dwattr $C$DW$161, DW_AT_location[DW_OP_breg20 -4]
    2212 00000001 1E42          MOVL      *-SP[2],ACC           ; [CPU_] |969| 
    2213                      .dwpsn  file "C:/work/grepos/c2000_bootROM/f28004x_bootrom/F28004x_ROM_dev/F28004x_ROM/driverlib/sci_
    2214 00000002 FF20          MOV       ACC,#29184            ; [CPU_] |980| 
         00000003 7200 
    2215 00000004 0F42          CMPL      ACC,*-SP[2]           ; [CPU_] |980| 
    2216 00000005 ED05          BF        $C$L26,NEQ            ; [CPU_] |980| 
    2217                      ; branchcc occurs ; [] |980| 
TMS320C2000 Assembler PC v6.2.9 Tue Jun 09 22:29:21 2015

Tools Copyright (c) 1996-2014 Texas Instruments Incorporated
C:\Users\a0272466\AppData\Local\Temp\0538410                         PAGE   42

    2218 00000006 28A9          MOV       AL,#2306              ; [CPU_] |980| 
         00000007 0902 
    2219 00000008 9B61          MOV       AH,#97                ; [CPU_] |980| 
    2220 00000009 6F04          B         $C$L27,UNC            ; [CPU_] |980| 
    2221                      ; branch occurs ; [] |980| 
    2222 0000000a       $C$L26:    
    2223 0000000a 28A9          MOV       AL,#2308              ; [CPU_] |980| 
         0000000b 0904 
    2224 0000000c 9B63          MOV       AH,#99                ; [CPU_] |980| 
    2225 0000000d       $C$L27:    
    2226 0000000d 1E44          MOVL      *-SP[4],ACC           ; [CPU_] |980| 
    2227                      .dwpsn  file "C:/work/grepos/c2000_bootROM/f28004x_bootrom/F28004x_ROM_dev/F28004x_ROM/driverlib/sci_
    2228 0000000e 0644          MOVL      ACC,*-SP[4]           ; [CPU_] |985| 
    2229              $C$DW$162       .dwtag  DW_TAG_TI_branch
    2230                      .dwattr $C$DW$162, DW_AT_low_pc(0x00)
    2231                      .dwattr $C$DW$162, DW_AT_name("_Interrupt_disable")
    2232                      .dwattr $C$DW$162, DW_AT_TI_call
    2233 0000000f 7640!         LCR       #_Interrupt_disable   ; [CPU_] |985| 
         00000010 0000 
    2234                      ; call occurs [#_Interrupt_disable] ; [] |985| 
    2235                      .dwpsn  file "C:/work/grepos/c2000_bootROM/f28004x_bootrom/F28004x_ROM_dev/F28004x_ROM/driverlib/sci_
    2236 00000011 0644          MOVL      ACC,*-SP[4]           ; [CPU_] |990| 
    2237              $C$DW$163       .dwtag  DW_TAG_TI_branch
    2238                      .dwattr $C$DW$163, DW_AT_low_pc(0x00)
    2239                      .dwattr $C$DW$163, DW_AT_name("_Interrupt_unregister")
    2240                      .dwattr $C$DW$163, DW_AT_TI_call
    2241 00000012 7640+         LCR       #_Interrupt_unregister ; [CPU_] |990| 
         00000013 0000 
    2242                      ; call occurs [#_Interrupt_unregister] ; [] |990| 
    2243                      .dwpsn  file "C:/work/grepos/c2000_bootROM/f28004x_bootrom/F28004x_ROM_dev/F28004x_ROM/driverlib/sci_
    2244 00000014 FE84          SUBB      SP,#4                 ; [CPU_U] 
    2245                      .dwcfi  cfa_offset, -2
    2246              $C$DW$164       .dwtag  DW_TAG_TI_branch
    2247                      .dwattr $C$DW$164, DW_AT_low_pc(0x00)
    2248                      .dwattr $C$DW$164, DW_AT_TI_return
    2249 00000015 0006          LRETR     ; [CPU_] 
    2250                      ; return occurs ; [] 
    2251                      .dwattr $C$DW$158, DW_AT_TI_end_file("C:/work/grepos/c2000_bootROM/f28004x_bootrom/F28004x_ROM_dev/F2
    2252                      .dwattr $C$DW$158, DW_AT_TI_end_line(0x3df)
    2253                      .dwattr $C$DW$158, DW_AT_TI_end_column(0x01)
    2254                      .dwendentry
    2255                      .dwendtag $C$DW$158
    2256              
    2257 00000000               .sect   ".text:_SCI_enableInterrupt"
    2258                      .clink
    2259                      .global _SCI_enableInterrupt
    2260              
    2261              $C$DW$165       .dwtag  DW_TAG_subprogram, DW_AT_name("SCI_enableInterrupt")
    2262                      .dwattr $C$DW$165, DW_AT_low_pc(_SCI_enableInterrupt)
    2263                      .dwattr $C$DW$165, DW_AT_high_pc(0x00)
    2264                      .dwattr $C$DW$165, DW_AT_TI_symbol_name("_SCI_enableInterrupt")
    2265                      .dwattr $C$DW$165, DW_AT_external
    2266                      .dwattr $C$DW$165, DW_AT_TI_begin_file("C:/work/grepos/c2000_bootROM/f28004x_bootrom/F28004x_ROM_dev/
    2267                      .dwattr $C$DW$165, DW_AT_TI_begin_line(0x3fe)
    2268                      .dwattr $C$DW$165, DW_AT_TI_begin_column(0x01)
TMS320C2000 Assembler PC v6.2.9 Tue Jun 09 22:29:21 2015

Tools Copyright (c) 1996-2014 Texas Instruments Incorporated
C:\Users\a0272466\AppData\Local\Temp\0538410                         PAGE   43

    2269                      .dwattr $C$DW$165, DW_AT_TI_max_frame_size(-4)
    2270                      .dwpsn  file "C:/work/grepos/c2000_bootROM/f28004x_bootrom/F28004x_ROM_dev/F28004x_ROM/driverlib/sci_
    2271              
    2272                      .dwfde $C$DW$CIE, _SCI_enableInterrupt
    2273              $C$DW$166       .dwtag  DW_TAG_formal_parameter, DW_AT_name("base")
    2274                      .dwattr $C$DW$166, DW_AT_TI_symbol_name("_base")
    2275                      .dwattr $C$DW$166, DW_AT_type(*$C$DW$T$21)
    2276                      .dwattr $C$DW$166, DW_AT_location[DW_OP_reg0]
    2277              $C$DW$167       .dwtag  DW_TAG_formal_parameter, DW_AT_name("intFlags")
    2278                      .dwattr $C$DW$167, DW_AT_TI_symbol_name("_intFlags")
    2279                      .dwattr $C$DW$167, DW_AT_type(*$C$DW$T$21)
    2280                      .dwattr $C$DW$167, DW_AT_location[DW_OP_breg20 -6]
    2281              
    2282              ;***************************************************************
    2283              ;* FNAME: _SCI_enableInterrupt          FR SIZE:   2           *
    2284              ;*                                                             *
    2285              ;* FUNCTION ENVIRONMENT                                        *
    2286              ;*                                                             *
    2287              ;* FUNCTION PROPERTIES                                         *
    2288              ;*                            0 Parameter,  2 Auto,  0 SOE     *
    2289              ;***************************************************************
    2290              
    2291 00000000       _SCI_enableInterrupt:
    2292                      .dwcfi  cfa_offset, -2
    2293                      .dwcfi  save_reg_to_mem, 26, 0
    2294                      .dwcfi  save_reg_to_reg, 78, 26
    2295 00000000 FE02          ADDB      SP,#2                 ; [CPU_U] 
    2296                      .dwcfi  cfa_offset, -4
    2297              $C$DW$168       .dwtag  DW_TAG_variable, DW_AT_name("base")
    2298                      .dwattr $C$DW$168, DW_AT_TI_symbol_name("_base")
    2299                      .dwattr $C$DW$168, DW_AT_type(*$C$DW$T$21)
    2300                      .dwattr $C$DW$168, DW_AT_location[DW_OP_breg20 -2]
    2301 00000001 1E42          MOVL      *-SP[2],ACC           ; [CPU_] |1023| 
    2302                      .dwpsn  file "C:/work/grepos/c2000_bootROM/f28004x_bootrom/F28004x_ROM_dev/F28004x_ROM/driverlib/sci_
    2303 00000002 5CAD          MOVZ      AR4,SP                ; [CPU_U] |1032| 
    2304 00000003 DC86          SUBB      XAR4,#6               ; [CPU_U] |1032| 
    2305 00000004 40C4          TBIT      *+XAR4[0],#0          ; [CPU_] |1032| 
    2306 00000005 EF07          BF        $C$L28,NTC            ; [CPU_] |1032| 
    2307                      ; branchcc occurs ; [] |1032| 
    2308                      .dwpsn  file "C:/work/grepos/c2000_bootROM/f28004x_bootrom/F28004x_ROM_dev/F28004x_ROM/driverlib/sci_
    2309 00000006 0201          MOVB      ACC,#1                ; [CPU_] |1034| 
    2310 00000007 0742          ADDL      ACC,*-SP[2]           ; [CPU_] |1034| 
    2311 00000008 8AA9          MOVL      XAR4,ACC              ; [CPU_] |1034| 
    2312 00000009 C6C4          MOVB      AL.LSB,*+XAR4[0]      ; [CPU_] |1034| 
    2313 0000000a 5040          ORB       AL,#0x40              ; [CPU_] |1034| 
    2314 0000000b 3CC4          MOVB      *+XAR4[0],AL.LSB      ; [CPU_] |1034| 
    2315 0000000c       $C$L28:    
    2316                      .dwpsn  file "C:/work/grepos/c2000_bootROM/f28004x_bootrom/F28004x_ROM_dev/F28004x_ROM/driverlib/sci_
    2317 0000000c 5CAD          MOVZ      AR4,SP                ; [CPU_U] |1036| 
    2318 0000000d DC86          SUBB      XAR4,#6               ; [CPU_U] |1036| 
    2319 0000000e 41C4          TBIT      *+XAR4[0],#1          ; [CPU_] |1036| 
    2320 0000000f EF07          BF        $C$L29,NTC            ; [CPU_] |1036| 
    2321                      ; branchcc occurs ; [] |1036| 
    2322                      .dwpsn  file "C:/work/grepos/c2000_bootROM/f28004x_bootrom/F28004x_ROM_dev/F28004x_ROM/driverlib/sci_
    2323 00000010 0204          MOVB      ACC,#4                ; [CPU_] |1038| 
TMS320C2000 Assembler PC v6.2.9 Tue Jun 09 22:29:21 2015

Tools Copyright (c) 1996-2014 Texas Instruments Incorporated
C:\Users\a0272466\AppData\Local\Temp\0538410                         PAGE   44

    2324 00000011 0742          ADDL      ACC,*-SP[2]           ; [CPU_] |1038| 
    2325 00000012 8AA9          MOVL      XAR4,ACC              ; [CPU_] |1038| 
    2326 00000013 C6C4          MOVB      AL.LSB,*+XAR4[0]      ; [CPU_] |1038| 
    2327 00000014 5002          ORB       AL,#0x02              ; [CPU_] |1038| 
    2328 00000015 3CC4          MOVB      *+XAR4[0],AL.LSB      ; [CPU_] |1038| 
    2329 00000016       $C$L29:    
    2330                      .dwpsn  file "C:/work/grepos/c2000_bootROM/f28004x_bootrom/F28004x_ROM_dev/F28004x_ROM/driverlib/sci_
    2331 00000016 5CAD          MOVZ      AR4,SP                ; [CPU_U] |1040| 
    2332 00000017 DC86          SUBB      XAR4,#6               ; [CPU_U] |1040| 
    2333 00000018 42C4          TBIT      *+XAR4[0],#2          ; [CPU_] |1040| 
    2334 00000019 EF07          BF        $C$L30,NTC            ; [CPU_] |1040| 
    2335                      ; branchcc occurs ; [] |1040| 
    2336                      .dwpsn  file "C:/work/grepos/c2000_bootROM/f28004x_bootrom/F28004x_ROM_dev/F28004x_ROM/driverlib/sci_
    2337 0000001a 0204          MOVB      ACC,#4                ; [CPU_] |1042| 
    2338 0000001b 0742          ADDL      ACC,*-SP[2]           ; [CPU_] |1042| 
    2339 0000001c 8AA9          MOVL      XAR4,ACC              ; [CPU_] |1042| 
    2340 0000001d C6C4          MOVB      AL.LSB,*+XAR4[0]      ; [CPU_] |1042| 
    2341 0000001e 5001          ORB       AL,#0x01              ; [CPU_] |1042| 
    2342 0000001f 3CC4          MOVB      *+XAR4[0],AL.LSB      ; [CPU_] |1042| 
    2343 00000020       $C$L30:    
    2344                      .dwpsn  file "C:/work/grepos/c2000_bootROM/f28004x_bootrom/F28004x_ROM_dev/F28004x_ROM/driverlib/sci_
    2345 00000020 5CAD          MOVZ      AR4,SP                ; [CPU_U] |1044| 
    2346 00000021 DC86          SUBB      XAR4,#6               ; [CPU_U] |1044| 
    2347 00000022 43C4          TBIT      *+XAR4[0],#3          ; [CPU_] |1044| 
    2348 00000023 EF07          BF        $C$L31,NTC            ; [CPU_] |1044| 
    2349                      ; branchcc occurs ; [] |1044| 
    2350                      .dwpsn  file "C:/work/grepos/c2000_bootROM/f28004x_bootrom/F28004x_ROM_dev/F28004x_ROM/driverlib/sci_
    2351 00000024 020A          MOVB      ACC,#10               ; [CPU_] |1046| 
    2352 00000025 0742          ADDL      ACC,*-SP[2]           ; [CPU_] |1046| 
    2353 00000026 8AA9          MOVL      XAR4,ACC              ; [CPU_] |1046| 
    2354 00000027 C6C4          MOVB      AL.LSB,*+XAR4[0]      ; [CPU_] |1046| 
    2355 00000028 5020          ORB       AL,#0x20              ; [CPU_] |1046| 
    2356 00000029 3CC4          MOVB      *+XAR4[0],AL.LSB      ; [CPU_] |1046| 
    2357 0000002a       $C$L31:    
    2358                      .dwpsn  file "C:/work/grepos/c2000_bootROM/f28004x_bootrom/F28004x_ROM_dev/F28004x_ROM/driverlib/sci_
    2359 0000002a 5CAD          MOVZ      AR4,SP                ; [CPU_U] |1048| 
    2360 0000002b DC86          SUBB      XAR4,#6               ; [CPU_U] |1048| 
    2361 0000002c 44C4          TBIT      *+XAR4[0],#4          ; [CPU_] |1048| 
    2362 0000002d EF07          BF        $C$L32,NTC            ; [CPU_] |1048| 
    2363                      ; branchcc occurs ; [] |1048| 
    2364                      .dwpsn  file "C:/work/grepos/c2000_bootROM/f28004x_bootrom/F28004x_ROM_dev/F28004x_ROM/driverlib/sci_
    2365 0000002e 020B          MOVB      ACC,#11               ; [CPU_] |1050| 
    2366 0000002f 0742          ADDL      ACC,*-SP[2]           ; [CPU_] |1050| 
    2367 00000030 8AA9          MOVL      XAR4,ACC              ; [CPU_] |1050| 
    2368 00000031 C6C4          MOVB      AL.LSB,*+XAR4[0]      ; [CPU_] |1050| 
    2369 00000032 5020          ORB       AL,#0x20              ; [CPU_] |1050| 
    2370 00000033 3CC4          MOVB      *+XAR4[0],AL.LSB      ; [CPU_] |1050| 
    2371                      .dwpsn  file "C:/work/grepos/c2000_bootROM/f28004x_bootrom/F28004x_ROM_dev/F28004x_ROM/driverlib/sci_
    2372 00000034       $C$L32:    
    2373 00000034 FE82          SUBB      SP,#2                 ; [CPU_U] 
    2374                      .dwcfi  cfa_offset, -2
    2375              $C$DW$169       .dwtag  DW_TAG_TI_branch
    2376                      .dwattr $C$DW$169, DW_AT_low_pc(0x00)
    2377                      .dwattr $C$DW$169, DW_AT_TI_return
    2378 00000035 0006          LRETR     ; [CPU_] 
TMS320C2000 Assembler PC v6.2.9 Tue Jun 09 22:29:21 2015

Tools Copyright (c) 1996-2014 Texas Instruments Incorporated
C:\Users\a0272466\AppData\Local\Temp\0538410                         PAGE   45

    2379                      ; return occurs ; [] 
    2380                      .dwattr $C$DW$165, DW_AT_TI_end_file("C:/work/grepos/c2000_bootROM/f28004x_bootrom/F28004x_ROM_dev/F2
    2381                      .dwattr $C$DW$165, DW_AT_TI_end_line(0x41c)
    2382                      .dwattr $C$DW$165, DW_AT_TI_end_column(0x01)
    2383                      .dwendentry
    2384                      .dwendtag $C$DW$165
    2385              
    2386 00000000               .sect   ".text:_SCI_disableInterrupt"
    2387                      .clink
    2388                      .global _SCI_disableInterrupt
    2389              
    2390              $C$DW$170       .dwtag  DW_TAG_subprogram, DW_AT_name("SCI_disableInterrupt")
    2391                      .dwattr $C$DW$170, DW_AT_low_pc(_SCI_disableInterrupt)
    2392                      .dwattr $C$DW$170, DW_AT_high_pc(0x00)
    2393                      .dwattr $C$DW$170, DW_AT_TI_symbol_name("_SCI_disableInterrupt")
    2394                      .dwattr $C$DW$170, DW_AT_external
    2395                      .dwattr $C$DW$170, DW_AT_TI_begin_file("C:/work/grepos/c2000_bootROM/f28004x_bootrom/F28004x_ROM_dev/
    2396                      .dwattr $C$DW$170, DW_AT_TI_begin_line(0x430)
    2397                      .dwattr $C$DW$170, DW_AT_TI_begin_column(0x01)
    2398                      .dwattr $C$DW$170, DW_AT_TI_max_frame_size(-4)
    2399                      .dwpsn  file "C:/work/grepos/c2000_bootROM/f28004x_bootrom/F28004x_ROM_dev/F28004x_ROM/driverlib/sci_
    2400              
    2401                      .dwfde $C$DW$CIE, _SCI_disableInterrupt
    2402              $C$DW$171       .dwtag  DW_TAG_formal_parameter, DW_AT_name("base")
    2403                      .dwattr $C$DW$171, DW_AT_TI_symbol_name("_base")
    2404                      .dwattr $C$DW$171, DW_AT_type(*$C$DW$T$21)
    2405                      .dwattr $C$DW$171, DW_AT_location[DW_OP_reg0]
    2406              $C$DW$172       .dwtag  DW_TAG_formal_parameter, DW_AT_name("intFlags")
    2407                      .dwattr $C$DW$172, DW_AT_TI_symbol_name("_intFlags")
    2408                      .dwattr $C$DW$172, DW_AT_type(*$C$DW$T$21)
    2409                      .dwattr $C$DW$172, DW_AT_location[DW_OP_breg20 -6]
    2410              
    2411              ;***************************************************************
    2412              ;* FNAME: _SCI_disableInterrupt         FR SIZE:   2           *
    2413              ;*                                                             *
    2414              ;* FUNCTION ENVIRONMENT                                        *
    2415              ;*                                                             *
    2416              ;* FUNCTION PROPERTIES                                         *
    2417              ;*                            0 Parameter,  2 Auto,  0 SOE     *
    2418              ;***************************************************************
    2419              
    2420 00000000       _SCI_disableInterrupt:
    2421                      .dwcfi  cfa_offset, -2
    2422                      .dwcfi  save_reg_to_mem, 26, 0
    2423                      .dwcfi  save_reg_to_reg, 78, 26
    2424 00000000 FE02          ADDB      SP,#2                 ; [CPU_U] 
    2425                      .dwcfi  cfa_offset, -4
    2426              $C$DW$173       .dwtag  DW_TAG_variable, DW_AT_name("base")
    2427                      .dwattr $C$DW$173, DW_AT_TI_symbol_name("_base")
    2428                      .dwattr $C$DW$173, DW_AT_type(*$C$DW$T$21)
    2429                      .dwattr $C$DW$173, DW_AT_location[DW_OP_breg20 -2]
    2430 00000001 1E42          MOVL      *-SP[2],ACC           ; [CPU_] |1073| 
    2431                      .dwpsn  file "C:/work/grepos/c2000_bootROM/f28004x_bootrom/F28004x_ROM_dev/F28004x_ROM/driverlib/sci_
    2432 00000002 5CAD          MOVZ      AR4,SP                ; [CPU_U] |1082| 
    2433 00000003 DC86          SUBB      XAR4,#6               ; [CPU_U] |1082| 
TMS320C2000 Assembler PC v6.2.9 Tue Jun 09 22:29:21 2015

Tools Copyright (c) 1996-2014 Texas Instruments Incorporated
C:\Users\a0272466\AppData\Local\Temp\0538410                         PAGE   46

    2434 00000004 40C4          TBIT      *+XAR4[0],#0          ; [CPU_] |1082| 
    2435 00000005 EF08          BF        $C$L33,NTC            ; [CPU_] |1082| 
    2436                      ; branchcc occurs ; [] |1082| 
    2437                      .dwpsn  file "C:/work/grepos/c2000_bootROM/f28004x_bootrom/F28004x_ROM_dev/F28004x_ROM/driverlib/sci_
    2438 00000006 0201          MOVB      ACC,#1                ; [CPU_] |1084| 
    2439 00000007 0742          ADDL      ACC,*-SP[2]           ; [CPU_] |1084| 
    2440 00000008 8AA9          MOVL      XAR4,ACC              ; [CPU_] |1084| 
    2441 00000009 C6C4          MOVB      AL.LSB,*+XAR4[0]      ; [CPU_] |1084| 
    2442 0000000a CCA9          AND       AL,AL,#0xffbf         ; [CPU_] |1084| 
         0000000b FFBF 
    2443 0000000c 3CC4          MOVB      *+XAR4[0],AL.LSB      ; [CPU_] |1084| 
    2444 0000000d       $C$L33:    
    2445                      .dwpsn  file "C:/work/grepos/c2000_bootROM/f28004x_bootrom/F28004x_ROM_dev/F28004x_ROM/driverlib/sci_
    2446 0000000d 5CAD          MOVZ      AR4,SP                ; [CPU_U] |1086| 
    2447 0000000e DC86          SUBB      XAR4,#6               ; [CPU_U] |1086| 
    2448 0000000f 41C4          TBIT      *+XAR4[0],#1          ; [CPU_] |1086| 
    2449 00000010 EF08          BF        $C$L34,NTC            ; [CPU_] |1086| 
    2450                      ; branchcc occurs ; [] |1086| 
    2451                      .dwpsn  file "C:/work/grepos/c2000_bootROM/f28004x_bootrom/F28004x_ROM_dev/F28004x_ROM/driverlib/sci_
    2452 00000011 0204          MOVB      ACC,#4                ; [CPU_] |1088| 
    2453 00000012 0742          ADDL      ACC,*-SP[2]           ; [CPU_] |1088| 
    2454 00000013 8AA9          MOVL      XAR4,ACC              ; [CPU_] |1088| 
    2455 00000014 C6C4          MOVB      AL.LSB,*+XAR4[0]      ; [CPU_] |1088| 
    2456 00000015 CCA9          AND       AL,AL,#0xfffd         ; [CPU_] |1088| 
         00000016 FFFD 
    2457 00000017 3CC4          MOVB      *+XAR4[0],AL.LSB      ; [CPU_] |1088| 
    2458 00000018       $C$L34:    
    2459                      .dwpsn  file "C:/work/grepos/c2000_bootROM/f28004x_bootrom/F28004x_ROM_dev/F28004x_ROM/driverlib/sci_
    2460 00000018 5CAD          MOVZ      AR4,SP                ; [CPU_U] |1090| 
    2461 00000019 DC86          SUBB      XAR4,#6               ; [CPU_U] |1090| 
    2462 0000001a 42C4          TBIT      *+XAR4[0],#2          ; [CPU_] |1090| 
    2463 0000001b EF08          BF        $C$L35,NTC            ; [CPU_] |1090| 
    2464                      ; branchcc occurs ; [] |1090| 
    2465                      .dwpsn  file "C:/work/grepos/c2000_bootROM/f28004x_bootrom/F28004x_ROM_dev/F28004x_ROM/driverlib/sci_
    2466 0000001c 0204          MOVB      ACC,#4                ; [CPU_] |1092| 
    2467 0000001d 0742          ADDL      ACC,*-SP[2]           ; [CPU_] |1092| 
    2468 0000001e 8AA9          MOVL      XAR4,ACC              ; [CPU_] |1092| 
    2469 0000001f C6C4          MOVB      AL.LSB,*+XAR4[0]      ; [CPU_] |1092| 
    2470 00000020 CCA9          AND       AL,AL,#0xfffe         ; [CPU_] |1092| 
         00000021 FFFE 
    2471 00000022 3CC4          MOVB      *+XAR4[0],AL.LSB      ; [CPU_] |1092| 
    2472 00000023       $C$L35:    
    2473                      .dwpsn  file "C:/work/grepos/c2000_bootROM/f28004x_bootrom/F28004x_ROM_dev/F28004x_ROM/driverlib/sci_
    2474 00000023 5CAD          MOVZ      AR4,SP                ; [CPU_U] |1094| 
    2475 00000024 DC86          SUBB      XAR4,#6               ; [CPU_U] |1094| 
    2476 00000025 43C4          TBIT      *+XAR4[0],#3          ; [CPU_] |1094| 
    2477 00000026 EF08          BF        $C$L36,NTC            ; [CPU_] |1094| 
    2478                      ; branchcc occurs ; [] |1094| 
    2479                      .dwpsn  file "C:/work/grepos/c2000_bootROM/f28004x_bootrom/F28004x_ROM_dev/F28004x_ROM/driverlib/sci_
    2480 00000027 020A          MOVB      ACC,#10               ; [CPU_] |1096| 
    2481 00000028 0742          ADDL      ACC,*-SP[2]           ; [CPU_] |1096| 
    2482 00000029 8AA9          MOVL      XAR4,ACC              ; [CPU_] |1096| 
    2483 0000002a C6C4          MOVB      AL.LSB,*+XAR4[0]      ; [CPU_] |1096| 
    2484 0000002b CCA9          AND       AL,AL,#0xffdf         ; [CPU_] |1096| 
         0000002c FFDF 
TMS320C2000 Assembler PC v6.2.9 Tue Jun 09 22:29:21 2015

Tools Copyright (c) 1996-2014 Texas Instruments Incorporated
C:\Users\a0272466\AppData\Local\Temp\0538410                         PAGE   47

    2485 0000002d 3CC4          MOVB      *+XAR4[0],AL.LSB      ; [CPU_] |1096| 
    2486 0000002e       $C$L36:    
    2487                      .dwpsn  file "C:/work/grepos/c2000_bootROM/f28004x_bootrom/F28004x_ROM_dev/F28004x_ROM/driverlib/sci_
    2488 0000002e 5CAD          MOVZ      AR4,SP                ; [CPU_U] |1098| 
    2489 0000002f DC86          SUBB      XAR4,#6               ; [CPU_U] |1098| 
    2490 00000030 44C4          TBIT      *+XAR4[0],#4          ; [CPU_] |1098| 
    2491 00000031 EF08          BF        $C$L37,NTC            ; [CPU_] |1098| 
    2492                      ; branchcc occurs ; [] |1098| 
    2493                      .dwpsn  file "C:/work/grepos/c2000_bootROM/f28004x_bootrom/F28004x_ROM_dev/F28004x_ROM/driverlib/sci_
    2494 00000032 020B          MOVB      ACC,#11               ; [CPU_] |1100| 
    2495 00000033 0742          ADDL      ACC,*-SP[2]           ; [CPU_] |1100| 
    2496 00000034 8AA9          MOVL      XAR4,ACC              ; [CPU_] |1100| 
    2497 00000035 C6C4          MOVB      AL.LSB,*+XAR4[0]      ; [CPU_] |1100| 
    2498 00000036 CCA9          AND       AL,AL,#0xffdf         ; [CPU_] |1100| 
         00000037 FFDF 
    2499 00000038 3CC4          MOVB      *+XAR4[0],AL.LSB      ; [CPU_] |1100| 
    2500                      .dwpsn  file "C:/work/grepos/c2000_bootROM/f28004x_bootrom/F28004x_ROM_dev/F28004x_ROM/driverlib/sci_
    2501 00000039       $C$L37:    
    2502 00000039 FE82          SUBB      SP,#2                 ; [CPU_U] 
    2503                      .dwcfi  cfa_offset, -2
    2504              $C$DW$174       .dwtag  DW_TAG_TI_branch
    2505                      .dwattr $C$DW$174, DW_AT_low_pc(0x00)
    2506                      .dwattr $C$DW$174, DW_AT_TI_return
    2507 0000003a 0006          LRETR     ; [CPU_] 
    2508                      ; return occurs ; [] 
    2509                      .dwattr $C$DW$170, DW_AT_TI_end_file("C:/work/grepos/c2000_bootROM/f28004x_bootrom/F28004x_ROM_dev/F2
    2510                      .dwattr $C$DW$170, DW_AT_TI_end_line(0x44e)
    2511                      .dwattr $C$DW$170, DW_AT_TI_end_column(0x01)
    2512                      .dwendentry
    2513                      .dwendtag $C$DW$170
    2514              
    2515 00000000               .sect   ".text:_SCI_getInterruptStatus"
    2516                      .clink
    2517                      .global _SCI_getInterruptStatus
    2518              
    2519              $C$DW$175       .dwtag  DW_TAG_subprogram, DW_AT_name("SCI_getInterruptStatus")
    2520                      .dwattr $C$DW$175, DW_AT_low_pc(_SCI_getInterruptStatus)
    2521                      .dwattr $C$DW$175, DW_AT_high_pc(0x00)
    2522                      .dwattr $C$DW$175, DW_AT_TI_symbol_name("_SCI_getInterruptStatus")
    2523                      .dwattr $C$DW$175, DW_AT_external
    2524                      .dwattr $C$DW$175, DW_AT_type(*$C$DW$T$21)
    2525                      .dwattr $C$DW$175, DW_AT_TI_begin_file("C:/work/grepos/c2000_bootROM/f28004x_bootrom/F28004x_ROM_dev/
    2526                      .dwattr $C$DW$175, DW_AT_TI_begin_line(0x461)
    2527                      .dwattr $C$DW$175, DW_AT_TI_begin_column(0x01)
    2528                      .dwattr $C$DW$175, DW_AT_TI_max_frame_size(-8)
    2529                      .dwpsn  file "C:/work/grepos/c2000_bootROM/f28004x_bootrom/F28004x_ROM_dev/F28004x_ROM/driverlib/sci_
    2530              
    2531                      .dwfde $C$DW$CIE, _SCI_getInterruptStatus
    2532              $C$DW$176       .dwtag  DW_TAG_formal_parameter, DW_AT_name("base")
    2533                      .dwattr $C$DW$176, DW_AT_TI_symbol_name("_base")
    2534                      .dwattr $C$DW$176, DW_AT_type(*$C$DW$T$21)
    2535                      .dwattr $C$DW$176, DW_AT_location[DW_OP_reg0]
    2536              $C$DW$177       .dwtag  DW_TAG_formal_parameter, DW_AT_name("masked")
    2537                      .dwattr $C$DW$177, DW_AT_TI_symbol_name("_masked")
    2538                      .dwattr $C$DW$177, DW_AT_type(*$C$DW$T$60)
TMS320C2000 Assembler PC v6.2.9 Tue Jun 09 22:29:21 2015

Tools Copyright (c) 1996-2014 Texas Instruments Incorporated
C:\Users\a0272466\AppData\Local\Temp\0538410                         PAGE   48

    2539                      .dwattr $C$DW$177, DW_AT_location[DW_OP_reg12]
    2540              
    2541              ;***************************************************************
    2542              ;* FNAME: _SCI_getInterruptStatus       FR SIZE:   6           *
    2543              ;*                                                             *
    2544              ;* FUNCTION ENVIRONMENT                                        *
    2545              ;*                                                             *
    2546              ;* FUNCTION PROPERTIES                                         *
    2547              ;*                            0 Parameter,  6 Auto,  0 SOE     *
    2548              ;***************************************************************
    2549              
    2550 00000000       _SCI_getInterruptStatus:
    2551                      .dwcfi  cfa_offset, -2
    2552                      .dwcfi  save_reg_to_mem, 26, 0
    2553                      .dwcfi  save_reg_to_reg, 78, 26
    2554 00000000 FE06          ADDB      SP,#6                 ; [CPU_U] 
    2555                      .dwcfi  cfa_offset, -8
    2556              $C$DW$178       .dwtag  DW_TAG_variable, DW_AT_name("base")
    2557                      .dwattr $C$DW$178, DW_AT_TI_symbol_name("_base")
    2558                      .dwattr $C$DW$178, DW_AT_type(*$C$DW$T$21)
    2559                      .dwattr $C$DW$178, DW_AT_location[DW_OP_breg20 -2]
    2560              $C$DW$179       .dwtag  DW_TAG_variable, DW_AT_name("masked")
    2561                      .dwattr $C$DW$179, DW_AT_TI_symbol_name("_masked")
    2562                      .dwattr $C$DW$179, DW_AT_type(*$C$DW$T$60)
    2563                      .dwattr $C$DW$179, DW_AT_location[DW_OP_breg20 -3]
    2564              $C$DW$180       .dwtag  DW_TAG_variable, DW_AT_name("temp")
    2565                      .dwattr $C$DW$180, DW_AT_TI_symbol_name("_temp")
    2566                      .dwattr $C$DW$180, DW_AT_type(*$C$DW$T$21)
    2567                      .dwattr $C$DW$180, DW_AT_location[DW_OP_breg20 -6]
    2568 00000001 7C43          MOV       *-SP[3],AR4           ; [CPU_] |1122| 
    2569 00000002 1E42          MOVL      *-SP[2],ACC           ; [CPU_] |1122| 
    2570                      .dwpsn  file "C:/work/grepos/c2000_bootROM/f28004x_bootrom/F28004x_ROM_dev/F28004x_ROM/driverlib/sci_
    2571 00000003 0200          MOVB      ACC,#0                ; [CPU_] |1123| 
    2572 00000004 1E46          MOVL      *-SP[6],ACC           ; [CPU_] |1123| 
    2573                      .dwpsn  file "C:/work/grepos/c2000_bootROM/f28004x_bootrom/F28004x_ROM_dev/F28004x_ROM/driverlib/sci_
    2574 00000005 0204          MOVB      ACC,#4                ; [CPU_] |1134| 
    2575 00000006 0742          ADDL      ACC,*-SP[2]           ; [CPU_] |1134| 
    2576 00000007 8AA9          MOVL      XAR4,ACC              ; [CPU_] |1134| 
    2577 00000008 C6C4          MOVB      AL.LSB,*+XAR4[0]      ; [CPU_] |1134| 
    2578 00000009 47A9          TBIT      AL,#7                 ; [CPU_] |1134| 
    2579 0000000a EF03          BF        $C$L38,NTC            ; [CPU_] |1134| 
    2580                      ; branchcc occurs ; [] |1134| 
    2581                      .dwpsn  file "C:/work/grepos/c2000_bootROM/f28004x_bootrom/F28004x_ROM_dev/F28004x_ROM/driverlib/sci_
    2582 0000000b 1A46          OR        *-SP[6],#4            ; [CPU_] |1136| 
         0000000c 0004 
    2583 0000000d       $C$L38:    
    2584                      .dwpsn  file "C:/work/grepos/c2000_bootROM/f28004x_bootrom/F28004x_ROM_dev/F28004x_ROM/driverlib/sci_
    2585 0000000d 0205          MOVB      ACC,#5                ; [CPU_] |1138| 
    2586 0000000e 0742          ADDL      ACC,*-SP[2]           ; [CPU_] |1138| 
    2587 0000000f 8AA9          MOVL      XAR4,ACC              ; [CPU_] |1138| 
    2588 00000010 C6C4          MOVB      AL.LSB,*+XAR4[0]      ; [CPU_] |1138| 
    2589 00000011 47A9          TBIT      AL,#7                 ; [CPU_] |1138| 
    2590 00000012 EF03          BF        $C$L39,NTC            ; [CPU_] |1138| 
    2591                      ; branchcc occurs ; [] |1138| 
    2592                      .dwpsn  file "C:/work/grepos/c2000_bootROM/f28004x_bootrom/F28004x_ROM_dev/F28004x_ROM/driverlib/sci_
TMS320C2000 Assembler PC v6.2.9 Tue Jun 09 22:29:21 2015

Tools Copyright (c) 1996-2014 Texas Instruments Incorporated
C:\Users\a0272466\AppData\Local\Temp\0538410                         PAGE   49

    2593 00000013 1A46          OR        *-SP[6],#1            ; [CPU_] |1140| 
         00000014 0001 
    2594 00000015       $C$L39:    
    2595                      .dwpsn  file "C:/work/grepos/c2000_bootROM/f28004x_bootrom/F28004x_ROM_dev/F28004x_ROM/driverlib/sci_
    2596 00000015 0205          MOVB      ACC,#5                ; [CPU_] |1142| 
    2597 00000016 0742          ADDL      ACC,*-SP[2]           ; [CPU_] |1142| 
    2598 00000017 8AA9          MOVL      XAR4,ACC              ; [CPU_] |1142| 
    2599 00000018 C6C4          MOVB      AL.LSB,*+XAR4[0]      ; [CPU_] |1142| 
    2600 00000019 9060          ANDB      AL,#0x60              ; [CPU_] |1142| 
    2601 0000001a EC03          BF        $C$L40,EQ             ; [CPU_] |1142| 
    2602                      ; branchcc occurs ; [] |1142| 
    2603                      .dwpsn  file "C:/work/grepos/c2000_bootROM/f28004x_bootrom/F28004x_ROM_dev/F28004x_ROM/driverlib/sci_
    2604 0000001b 1A46          OR        *-SP[6],#2            ; [CPU_] |1144| 
         0000001c 0002 
    2605 0000001d       $C$L40:    
    2606                      .dwpsn  file "C:/work/grepos/c2000_bootROM/f28004x_bootrom/F28004x_ROM_dev/F28004x_ROM/driverlib/sci_
    2607 0000001d 020A          MOVB      ACC,#10               ; [CPU_] |1146| 
    2608 0000001e 0742          ADDL      ACC,*-SP[2]           ; [CPU_] |1146| 
    2609 0000001f 8AA9          MOVL      XAR4,ACC              ; [CPU_] |1146| 
    2610 00000020 C6C4          MOVB      AL.LSB,*+XAR4[0]      ; [CPU_] |1146| 
    2611 00000021 47A9          TBIT      AL,#7                 ; [CPU_] |1146| 
    2612 00000022 EF03          BF        $C$L41,NTC            ; [CPU_] |1146| 
    2613                      ; branchcc occurs ; [] |1146| 
    2614                      .dwpsn  file "C:/work/grepos/c2000_bootROM/f28004x_bootrom/F28004x_ROM_dev/F28004x_ROM/driverlib/sci_
    2615 00000023 1A46          OR        *-SP[6],#8            ; [CPU_] |1148| 
         00000024 0008 
    2616 00000025       $C$L41:    
    2617                      .dwpsn  file "C:/work/grepos/c2000_bootROM/f28004x_bootrom/F28004x_ROM_dev/F28004x_ROM/driverlib/sci_
    2618 00000025 020B          MOVB      ACC,#11               ; [CPU_] |1150| 
    2619 00000026 0742          ADDL      ACC,*-SP[2]           ; [CPU_] |1150| 
    2620 00000027 8AA9          MOVL      XAR4,ACC              ; [CPU_] |1150| 
    2621 00000028 C6C4          MOVB      AL.LSB,*+XAR4[0]      ; [CPU_] |1150| 
    2622 00000029 47A9          TBIT      AL,#7                 ; [CPU_] |1150| 
    2623 0000002a EF03          BF        $C$L42,NTC            ; [CPU_] |1150| 
    2624                      ; branchcc occurs ; [] |1150| 
    2625                      .dwpsn  file "C:/work/grepos/c2000_bootROM/f28004x_bootrom/F28004x_ROM_dev/F28004x_ROM/driverlib/sci_
    2626 0000002b 1A46          OR        *-SP[6],#16           ; [CPU_] |1152| 
         0000002c 0010 
    2627 0000002d       $C$L42:    
    2628                      .dwpsn  file "C:/work/grepos/c2000_bootROM/f28004x_bootrom/F28004x_ROM_dev/F28004x_ROM/driverlib/sci_
    2629 0000002d 0646          MOVL      ACC,*-SP[6]           ; [CPU_] |1155| 
    2630                      .dwpsn  file "C:/work/grepos/c2000_bootROM/f28004x_bootrom/F28004x_ROM_dev/F28004x_ROM/driverlib/sci_
    2631 0000002e FE86          SUBB      SP,#6                 ; [CPU_U] 
    2632                      .dwcfi  cfa_offset, -2
    2633              $C$DW$181       .dwtag  DW_TAG_TI_branch
    2634                      .dwattr $C$DW$181, DW_AT_low_pc(0x00)
    2635                      .dwattr $C$DW$181, DW_AT_TI_return
    2636 0000002f 0006          LRETR     ; [CPU_] 
    2637                      ; return occurs ; [] 
    2638                      .dwattr $C$DW$175, DW_AT_TI_end_file("C:/work/grepos/c2000_bootROM/f28004x_bootrom/F28004x_ROM_dev/F2
    2639                      .dwattr $C$DW$175, DW_AT_TI_end_line(0x484)
    2640                      .dwattr $C$DW$175, DW_AT_TI_end_column(0x01)
    2641                      .dwendentry
    2642                      .dwendtag $C$DW$175
    2643              
TMS320C2000 Assembler PC v6.2.9 Tue Jun 09 22:29:21 2015

Tools Copyright (c) 1996-2014 Texas Instruments Incorporated
C:\Users\a0272466\AppData\Local\Temp\0538410                         PAGE   50

    2644 00000000               .sect   ".text:_SCI_clearInterruptStatus"
    2645                      .clink
    2646                      .global _SCI_clearInterruptStatus
    2647              
    2648              $C$DW$182       .dwtag  DW_TAG_subprogram, DW_AT_name("SCI_clearInterruptStatus")
    2649                      .dwattr $C$DW$182, DW_AT_low_pc(_SCI_clearInterruptStatus)
    2650                      .dwattr $C$DW$182, DW_AT_high_pc(0x00)
    2651                      .dwattr $C$DW$182, DW_AT_TI_symbol_name("_SCI_clearInterruptStatus")
    2652                      .dwattr $C$DW$182, DW_AT_external
    2653                      .dwattr $C$DW$182, DW_AT_TI_begin_file("C:/work/grepos/c2000_bootROM/f28004x_bootrom/F28004x_ROM_dev/
    2654                      .dwattr $C$DW$182, DW_AT_TI_begin_line(0x4a1)
    2655                      .dwattr $C$DW$182, DW_AT_TI_begin_column(0x01)
    2656                      .dwattr $C$DW$182, DW_AT_TI_max_frame_size(-4)
    2657                      .dwpsn  file "C:/work/grepos/c2000_bootROM/f28004x_bootrom/F28004x_ROM_dev/F28004x_ROM/driverlib/sci_
    2658              
    2659                      .dwfde $C$DW$CIE, _SCI_clearInterruptStatus
    2660              $C$DW$183       .dwtag  DW_TAG_formal_parameter, DW_AT_name("base")
    2661                      .dwattr $C$DW$183, DW_AT_TI_symbol_name("_base")
    2662                      .dwattr $C$DW$183, DW_AT_type(*$C$DW$T$21)
    2663                      .dwattr $C$DW$183, DW_AT_location[DW_OP_reg0]
    2664              $C$DW$184       .dwtag  DW_TAG_formal_parameter, DW_AT_name("intFlags")
    2665                      .dwattr $C$DW$184, DW_AT_TI_symbol_name("_intFlags")
    2666                      .dwattr $C$DW$184, DW_AT_type(*$C$DW$T$21)
    2667                      .dwattr $C$DW$184, DW_AT_location[DW_OP_breg20 -6]
    2668              
    2669              ;***************************************************************
    2670              ;* FNAME: _SCI_clearInterruptStatus     FR SIZE:   2           *
    2671              ;*                                                             *
    2672              ;* FUNCTION ENVIRONMENT                                        *
    2673              ;*                                                             *
    2674              ;* FUNCTION PROPERTIES                                         *
    2675              ;*                            0 Parameter,  2 Auto,  0 SOE     *
    2676              ;***************************************************************
    2677              
    2678 00000000       _SCI_clearInterruptStatus:
    2679                      .dwcfi  cfa_offset, -2
    2680                      .dwcfi  save_reg_to_mem, 26, 0
    2681                      .dwcfi  save_reg_to_reg, 78, 26
    2682 00000000 FE02          ADDB      SP,#2                 ; [CPU_U] 
    2683                      .dwcfi  cfa_offset, -4
    2684              $C$DW$185       .dwtag  DW_TAG_variable, DW_AT_name("base")
    2685                      .dwattr $C$DW$185, DW_AT_TI_symbol_name("_base")
    2686                      .dwattr $C$DW$185, DW_AT_type(*$C$DW$T$21)
    2687                      .dwattr $C$DW$185, DW_AT_location[DW_OP_breg20 -2]
    2688 00000001 1E42          MOVL      *-SP[2],ACC           ; [CPU_] |1186| 
    2689                      .dwpsn  file "C:/work/grepos/c2000_bootROM/f28004x_bootrom/F28004x_ROM_dev/F28004x_ROM/driverlib/sci_
    2690 00000002 BE00          MOVB      XAR6,#0               ; [CPU_] |1195| 
    2691 00000003 0646          MOVL      ACC,*-SP[6]           ; [CPU_] |1195| 
    2692 00000004 9B00          MOVB      AH,#0                 ; [CPU_] |1195| 
    2693 00000005 9003          ANDB      AL,#0x03              ; [CPU_] |1195| 
    2694 00000006 0FA6          CMPL      ACC,XAR6              ; [CPU_] |1195| 
    2695 00000007 EC12          BF        $C$L43,EQ             ; [CPU_] |1195| 
    2696                      ; branchcc occurs ; [] |1195| 
    2697                      .dwpsn  file "C:/work/grepos/c2000_bootROM/f28004x_bootrom/F28004x_ROM_dev/F28004x_ROM/driverlib/sci_
    2698 00000008 0201          MOVB      ACC,#1                ; [CPU_] |1197| 
TMS320C2000 Assembler PC v6.2.9 Tue Jun 09 22:29:21 2015

Tools Copyright (c) 1996-2014 Texas Instruments Incorporated
C:\Users\a0272466\AppData\Local\Temp\0538410                         PAGE   51

    2699 00000009 0742          ADDL      ACC,*-SP[2]           ; [CPU_] |1197| 
    2700 0000000a 8AA9          MOVL      XAR4,ACC              ; [CPU_] |1197| 
    2701 0000000b C6C4          MOVB      AL.LSB,*+XAR4[0]      ; [CPU_] |1197| 
    2702 0000000c CCA9          AND       AL,AL,#0xffdf         ; [CPU_] |1197| 
         0000000d FFDF 
    2703 0000000e 3CC4          MOVB      *+XAR4[0],AL.LSB      ; [CPU_] |1197| 
    2704                      .dwpsn  file "C:/work/grepos/c2000_bootROM/f28004x_bootrom/F28004x_ROM_dev/F28004x_ROM/driverlib/sci_
    2705 0000000f 7700   nop
    2706                      .dwpsn  file "C:/work/grepos/c2000_bootROM/f28004x_bootrom/F28004x_ROM_dev/F28004x_ROM/driverlib/sci_
    2707 00000010 7700   nop
    2708                      .dwpsn  file "C:/work/grepos/c2000_bootROM/f28004x_bootrom/F28004x_ROM_dev/F28004x_ROM/driverlib/sci_
    2709 00000011 7700   nop
    2710                      .dwpsn  file "C:/work/grepos/c2000_bootROM/f28004x_bootrom/F28004x_ROM_dev/F28004x_ROM/driverlib/sci_
    2711 00000012 7700   nop
    2712                      .dwpsn  file "C:/work/grepos/c2000_bootROM/f28004x_bootrom/F28004x_ROM_dev/F28004x_ROM/driverlib/sci_
    2713 00000013 0201          MOVB      ACC,#1                ; [CPU_] |1202| 
    2714 00000014 0742          ADDL      ACC,*-SP[2]           ; [CPU_] |1202| 
    2715 00000015 8AA9          MOVL      XAR4,ACC              ; [CPU_] |1202| 
    2716 00000016 C6C4          MOVB      AL.LSB,*+XAR4[0]      ; [CPU_] |1202| 
    2717 00000017 5020          ORB       AL,#0x20              ; [CPU_] |1202| 
    2718 00000018 3CC4          MOVB      *+XAR4[0],AL.LSB      ; [CPU_] |1202| 
    2719 00000019       $C$L43:    
    2720                      .dwpsn  file "C:/work/grepos/c2000_bootROM/f28004x_bootrom/F28004x_ROM_dev/F28004x_ROM/driverlib/sci_
    2721 00000019 5CAD          MOVZ      AR4,SP                ; [CPU_U] |1205| 
    2722 0000001a DC86          SUBB      XAR4,#6               ; [CPU_U] |1205| 
    2723 0000001b 43C4          TBIT      *+XAR4[0],#3          ; [CPU_] |1205| 
    2724 0000001c EF07          BF        $C$L44,NTC            ; [CPU_] |1205| 
    2725                      ; branchcc occurs ; [] |1205| 
    2726                      .dwpsn  file "C:/work/grepos/c2000_bootROM/f28004x_bootrom/F28004x_ROM_dev/F28004x_ROM/driverlib/sci_
    2727 0000001d 020A          MOVB      ACC,#10               ; [CPU_] |1207| 
    2728 0000001e 0742          ADDL      ACC,*-SP[2]           ; [CPU_] |1207| 
    2729 0000001f 8AA9          MOVL      XAR4,ACC              ; [CPU_] |1207| 
    2730 00000020 C6C4          MOVB      AL.LSB,*+XAR4[0]      ; [CPU_] |1207| 
    2731 00000021 5040          ORB       AL,#0x40              ; [CPU_] |1207| 
    2732 00000022 3CC4          MOVB      *+XAR4[0],AL.LSB      ; [CPU_] |1207| 
    2733 00000023       $C$L44:    
    2734                      .dwpsn  file "C:/work/grepos/c2000_bootROM/f28004x_bootrom/F28004x_ROM_dev/F28004x_ROM/driverlib/sci_
    2735 00000023 5CAD          MOVZ      AR4,SP                ; [CPU_U] |1210| 
    2736 00000024 DC86          SUBB      XAR4,#6               ; [CPU_U] |1210| 
    2737 00000025 44C4          TBIT      *+XAR4[0],#4          ; [CPU_] |1210| 
    2738 00000026 EF07          BF        $C$L45,NTC            ; [CPU_] |1210| 
    2739                      ; branchcc occurs ; [] |1210| 
    2740                      .dwpsn  file "C:/work/grepos/c2000_bootROM/f28004x_bootrom/F28004x_ROM_dev/F28004x_ROM/driverlib/sci_
    2741 00000027 020B          MOVB      ACC,#11               ; [CPU_] |1212| 
    2742 00000028 0742          ADDL      ACC,*-SP[2]           ; [CPU_] |1212| 
    2743 00000029 8AA9          MOVL      XAR4,ACC              ; [CPU_] |1212| 
    2744 0000002a C6C4          MOVB      AL.LSB,*+XAR4[0]      ; [CPU_] |1212| 
    2745 0000002b 5040          ORB       AL,#0x40              ; [CPU_] |1212| 
    2746 0000002c 3CC4          MOVB      *+XAR4[0],AL.LSB      ; [CPU_] |1212| 
    2747                      .dwpsn  file "C:/work/grepos/c2000_bootROM/f28004x_bootrom/F28004x_ROM_dev/F28004x_ROM/driverlib/sci_
    2748 0000002d       $C$L45:    
    2749 0000002d FE82          SUBB      SP,#2                 ; [CPU_U] 
    2750                      .dwcfi  cfa_offset, -2
    2751 0000002e FF69          SPM       #0                    ; [CPU_] 
    2752              $C$DW$186       .dwtag  DW_TAG_TI_branch
TMS320C2000 Assembler PC v6.2.9 Tue Jun 09 22:29:21 2015

Tools Copyright (c) 1996-2014 Texas Instruments Incorporated
C:\Users\a0272466\AppData\Local\Temp\0538410                         PAGE   52

    2753                      .dwattr $C$DW$186, DW_AT_low_pc(0x00)
    2754                      .dwattr $C$DW$186, DW_AT_TI_return
    2755 0000002f 0006          LRETR     ; [CPU_] 
    2756                      ; return occurs ; [] 
    2757                      .dwattr $C$DW$182, DW_AT_TI_end_file("C:/work/grepos/c2000_bootROM/f28004x_bootrom/F28004x_ROM_dev/F2
    2758                      .dwattr $C$DW$182, DW_AT_TI_end_line(0x4be)
    2759                      .dwattr $C$DW$182, DW_AT_TI_end_column(0x01)
    2760                      .dwendentry
    2761                      .dwendtag $C$DW$182
    2762              
    2763 00000000               .sect   ".text:_SCI_getRxStatus"
    2764                      .clink
    2765                      .global _SCI_getRxStatus
    2766              
    2767              $C$DW$187       .dwtag  DW_TAG_subprogram, DW_AT_name("SCI_getRxStatus")
    2768                      .dwattr $C$DW$187, DW_AT_low_pc(_SCI_getRxStatus)
    2769                      .dwattr $C$DW$187, DW_AT_high_pc(0x00)
    2770                      .dwattr $C$DW$187, DW_AT_TI_symbol_name("_SCI_getRxStatus")
    2771                      .dwattr $C$DW$187, DW_AT_external
    2772                      .dwattr $C$DW$187, DW_AT_type(*$C$DW$T$21)
    2773                      .dwattr $C$DW$187, DW_AT_TI_begin_file("C:/work/grepos/c2000_bootROM/f28004x_bootrom/F28004x_ROM_dev/
    2774                      .dwattr $C$DW$187, DW_AT_TI_begin_line(0x4d3)
    2775                      .dwattr $C$DW$187, DW_AT_TI_begin_column(0x01)
    2776                      .dwattr $C$DW$187, DW_AT_TI_max_frame_size(-4)
    2777                      .dwpsn  file "C:/work/grepos/c2000_bootROM/f28004x_bootrom/F28004x_ROM_dev/F28004x_ROM/driverlib/sci_
    2778              
    2779                      .dwfde $C$DW$CIE, _SCI_getRxStatus
    2780              $C$DW$188       .dwtag  DW_TAG_formal_parameter, DW_AT_name("base")
    2781                      .dwattr $C$DW$188, DW_AT_TI_symbol_name("_base")
    2782                      .dwattr $C$DW$188, DW_AT_type(*$C$DW$T$21)
    2783                      .dwattr $C$DW$188, DW_AT_location[DW_OP_reg0]
    2784              
    2785              ;***************************************************************
    2786              ;* FNAME: _SCI_getRxStatus              FR SIZE:   2           *
    2787              ;*                                                             *
    2788              ;* FUNCTION ENVIRONMENT                                        *
    2789              ;*                                                             *
    2790              ;* FUNCTION PROPERTIES                                         *
    2791              ;*                            0 Parameter,  2 Auto,  0 SOE     *
    2792              ;***************************************************************
    2793              
    2794 00000000       _SCI_getRxStatus:
    2795                      .dwcfi  cfa_offset, -2
    2796                      .dwcfi  save_reg_to_mem, 26, 0
    2797                      .dwcfi  save_reg_to_reg, 78, 26
    2798 00000000 FE02          ADDB      SP,#2                 ; [CPU_U] 
    2799                      .dwcfi  cfa_offset, -4
    2800              $C$DW$189       .dwtag  DW_TAG_variable, DW_AT_name("base")
    2801                      .dwattr $C$DW$189, DW_AT_TI_symbol_name("_base")
    2802                      .dwattr $C$DW$189, DW_AT_type(*$C$DW$T$21)
    2803                      .dwattr $C$DW$189, DW_AT_location[DW_OP_breg20 -2]
    2804 00000001 1E42          MOVL      *-SP[2],ACC           ; [CPU_] |1236| 
    2805                      .dwpsn  file "C:/work/grepos/c2000_bootROM/f28004x_bootrom/F28004x_ROM_dev/F28004x_ROM/driverlib/sci_
    2806 00000002 0205          MOVB      ACC,#5                ; [CPU_] |1245| 
    2807 00000003 0742          ADDL      ACC,*-SP[2]           ; [CPU_] |1245| 
TMS320C2000 Assembler PC v6.2.9 Tue Jun 09 22:29:21 2015

Tools Copyright (c) 1996-2014 Texas Instruments Incorporated
C:\Users\a0272466\AppData\Local\Temp\0538410                         PAGE   53

    2808 00000004 8AA9          MOVL      XAR4,ACC              ; [CPU_] |1245| 
    2809 00000005 06C4          MOVL      ACC,*+XAR4[0]         ; [CPU_] |1245| 
    2810                      .dwpsn  file "C:/work/grepos/c2000_bootROM/f28004x_bootrom/F28004x_ROM_dev/F28004x_ROM/driverlib/sci_
    2811 00000006 FE82          SUBB      SP,#2                 ; [CPU_U] 
    2812                      .dwcfi  cfa_offset, -2
    2813              $C$DW$190       .dwtag  DW_TAG_TI_branch
    2814                      .dwattr $C$DW$190, DW_AT_low_pc(0x00)
    2815                      .dwattr $C$DW$190, DW_AT_TI_return
    2816 00000007 0006          LRETR     ; [CPU_] 
    2817                      ; return occurs ; [] 
    2818                      .dwattr $C$DW$187, DW_AT_TI_end_file("C:/work/grepos/c2000_bootROM/f28004x_bootrom/F28004x_ROM_dev/F2
    2819                      .dwattr $C$DW$187, DW_AT_TI_end_line(0x4de)
    2820                      .dwattr $C$DW$187, DW_AT_TI_end_column(0x01)
    2821                      .dwendentry
    2822                      .dwendtag $C$DW$187
    2823              
    2824 00000000               .sect   ".text:_SCI_clearRxStatus"
    2825                      .clink
    2826                      .global _SCI_clearRxStatus
    2827              
    2828              $C$DW$191       .dwtag  DW_TAG_subprogram, DW_AT_name("SCI_clearRxStatus")
    2829                      .dwattr $C$DW$191, DW_AT_low_pc(_SCI_clearRxStatus)
    2830                      .dwattr $C$DW$191, DW_AT_high_pc(0x00)
    2831                      .dwattr $C$DW$191, DW_AT_TI_symbol_name("_SCI_clearRxStatus")
    2832                      .dwattr $C$DW$191, DW_AT_external
    2833                      .dwattr $C$DW$191, DW_AT_TI_begin_file("C:/work/grepos/c2000_bootROM/f28004x_bootrom/F28004x_ROM_dev/
    2834                      .dwattr $C$DW$191, DW_AT_TI_begin_line(0x4ef)
    2835                      .dwattr $C$DW$191, DW_AT_TI_begin_column(0x01)
    2836                      .dwattr $C$DW$191, DW_AT_TI_max_frame_size(-4)
    2837                      .dwpsn  file "C:/work/grepos/c2000_bootROM/f28004x_bootrom/F28004x_ROM_dev/F28004x_ROM/driverlib/sci_
    2838              
    2839                      .dwfde $C$DW$CIE, _SCI_clearRxStatus
    2840              $C$DW$192       .dwtag  DW_TAG_formal_parameter, DW_AT_name("base")
    2841                      .dwattr $C$DW$192, DW_AT_TI_symbol_name("_base")
    2842                      .dwattr $C$DW$192, DW_AT_type(*$C$DW$T$21)
    2843                      .dwattr $C$DW$192, DW_AT_location[DW_OP_reg0]
    2844              
    2845              ;***************************************************************
    2846              ;* FNAME: _SCI_clearRxStatus            FR SIZE:   2           *
    2847              ;*                                                             *
    2848              ;* FUNCTION ENVIRONMENT                                        *
    2849              ;*                                                             *
    2850              ;* FUNCTION PROPERTIES                                         *
    2851              ;*                            0 Parameter,  2 Auto,  0 SOE     *
    2852              ;***************************************************************
    2853              
    2854 00000000       _SCI_clearRxStatus:
    2855                      .dwcfi  cfa_offset, -2
    2856                      .dwcfi  save_reg_to_mem, 26, 0
    2857                      .dwcfi  save_reg_to_reg, 78, 26
    2858 00000000 FE02          ADDB      SP,#2                 ; [CPU_U] 
    2859                      .dwcfi  cfa_offset, -4
    2860              $C$DW$193       .dwtag  DW_TAG_variable, DW_AT_name("base")
    2861                      .dwattr $C$DW$193, DW_AT_TI_symbol_name("_base")
    2862                      .dwattr $C$DW$193, DW_AT_type(*$C$DW$T$21)
TMS320C2000 Assembler PC v6.2.9 Tue Jun 09 22:29:21 2015

Tools Copyright (c) 1996-2014 Texas Instruments Incorporated
C:\Users\a0272466\AppData\Local\Temp\0538410                         PAGE   54

    2863                      .dwattr $C$DW$193, DW_AT_location[DW_OP_breg20 -2]
    2864 00000001 1E42          MOVL      *-SP[2],ACC           ; [CPU_] |1264| 
    2865                      .dwpsn  file "C:/work/grepos/c2000_bootROM/f28004x_bootrom/F28004x_ROM_dev/F28004x_ROM/driverlib/sci_
    2866 00000002 0201          MOVB      ACC,#1                ; [CPU_] |1273| 
    2867 00000003 0742          ADDL      ACC,*-SP[2]           ; [CPU_] |1273| 
    2868 00000004 8AA9          MOVL      XAR4,ACC              ; [CPU_] |1273| 
    2869 00000005 C6C4          MOVB      AL.LSB,*+XAR4[0]      ; [CPU_] |1273| 
    2870 00000006 CCA9          AND       AL,AL,#0xffdf         ; [CPU_] |1273| 
         00000007 FFDF 
    2871 00000008 3CC4          MOVB      *+XAR4[0],AL.LSB      ; [CPU_] |1273| 
    2872                      .dwpsn  file "C:/work/grepos/c2000_bootROM/f28004x_bootrom/F28004x_ROM_dev/F28004x_ROM/driverlib/sci_
    2873 00000009 7700   nop
    2874                      .dwpsn  file "C:/work/grepos/c2000_bootROM/f28004x_bootrom/F28004x_ROM_dev/F28004x_ROM/driverlib/sci_
    2875 0000000a 7700   nop
    2876                      .dwpsn  file "C:/work/grepos/c2000_bootROM/f28004x_bootrom/F28004x_ROM_dev/F28004x_ROM/driverlib/sci_
    2877 0000000b 7700   nop
    2878                      .dwpsn  file "C:/work/grepos/c2000_bootROM/f28004x_bootrom/F28004x_ROM_dev/F28004x_ROM/driverlib/sci_
    2879 0000000c 7700   nop
    2880                      .dwpsn  file "C:/work/grepos/c2000_bootROM/f28004x_bootrom/F28004x_ROM_dev/F28004x_ROM/driverlib/sci_
    2881 0000000d 0201          MOVB      ACC,#1                ; [CPU_] |1278| 
    2882 0000000e 0742          ADDL      ACC,*-SP[2]           ; [CPU_] |1278| 
    2883 0000000f 8AA9          MOVL      XAR4,ACC              ; [CPU_] |1278| 
    2884 00000010 C6C4          MOVB      AL.LSB,*+XAR4[0]      ; [CPU_] |1278| 
    2885 00000011 5020          ORB       AL,#0x20              ; [CPU_] |1278| 
    2886 00000012 3CC4          MOVB      *+XAR4[0],AL.LSB      ; [CPU_] |1278| 
    2887                      .dwpsn  file "C:/work/grepos/c2000_bootROM/f28004x_bootrom/F28004x_ROM_dev/F28004x_ROM/driverlib/sci_
    2888 00000013 FF69          SPM       #0                    ; [CPU_] 
    2889 00000014 FE82          SUBB      SP,#2                 ; [CPU_U] 
    2890                      .dwcfi  cfa_offset, -2
    2891              $C$DW$194       .dwtag  DW_TAG_TI_branch
    2892                      .dwattr $C$DW$194, DW_AT_low_pc(0x00)
    2893                      .dwattr $C$DW$194, DW_AT_TI_return
    2894 00000015 0006          LRETR     ; [CPU_] 
    2895                      ; return occurs ; [] 
    2896                      .dwattr $C$DW$191, DW_AT_TI_end_file("C:/work/grepos/c2000_bootROM/f28004x_bootrom/F28004x_ROM_dev/F2
    2897                      .dwattr $C$DW$191, DW_AT_TI_end_line(0x4ff)
    2898                      .dwattr $C$DW$191, DW_AT_TI_end_column(0x01)
    2899                      .dwendentry
    2900                      .dwendtag $C$DW$191
    2901              
    2902 00000000               .sect   ".text:_SCI_enableLoopback"
    2903                      .clink
    2904                      .global _SCI_enableLoopback
    2905              
    2906              $C$DW$195       .dwtag  DW_TAG_subprogram, DW_AT_name("SCI_enableLoopback")
    2907                      .dwattr $C$DW$195, DW_AT_low_pc(_SCI_enableLoopback)
    2908                      .dwattr $C$DW$195, DW_AT_high_pc(0x00)
    2909                      .dwattr $C$DW$195, DW_AT_TI_symbol_name("_SCI_enableLoopback")
    2910                      .dwattr $C$DW$195, DW_AT_external
    2911                      .dwattr $C$DW$195, DW_AT_TI_begin_file("C:/work/grepos/c2000_bootROM/f28004x_bootrom/F28004x_ROM_dev/
    2912                      .dwattr $C$DW$195, DW_AT_TI_begin_line(0x50e)
    2913                      .dwattr $C$DW$195, DW_AT_TI_begin_column(0x01)
    2914                      .dwattr $C$DW$195, DW_AT_TI_max_frame_size(-4)
    2915                      .dwpsn  file "C:/work/grepos/c2000_bootROM/f28004x_bootrom/F28004x_ROM_dev/F28004x_ROM/driverlib/sci_
    2916              
TMS320C2000 Assembler PC v6.2.9 Tue Jun 09 22:29:21 2015

Tools Copyright (c) 1996-2014 Texas Instruments Incorporated
C:\Users\a0272466\AppData\Local\Temp\0538410                         PAGE   55

    2917                      .dwfde $C$DW$CIE, _SCI_enableLoopback
    2918              $C$DW$196       .dwtag  DW_TAG_formal_parameter, DW_AT_name("base")
    2919                      .dwattr $C$DW$196, DW_AT_TI_symbol_name("_base")
    2920                      .dwattr $C$DW$196, DW_AT_type(*$C$DW$T$21)
    2921                      .dwattr $C$DW$196, DW_AT_location[DW_OP_reg0]
    2922              
    2923              ;***************************************************************
    2924              ;* FNAME: _SCI_enableLoopback           FR SIZE:   2           *
    2925              ;*                                                             *
    2926              ;* FUNCTION ENVIRONMENT                                        *
    2927              ;*                                                             *
    2928              ;* FUNCTION PROPERTIES                                         *
    2929              ;*                            0 Parameter,  2 Auto,  0 SOE     *
    2930              ;***************************************************************
    2931              
    2932 00000000       _SCI_enableLoopback:
    2933                      .dwcfi  cfa_offset, -2
    2934                      .dwcfi  save_reg_to_mem, 26, 0
    2935                      .dwcfi  save_reg_to_reg, 78, 26
    2936 00000000 FE02          ADDB      SP,#2                 ; [CPU_U] 
    2937                      .dwcfi  cfa_offset, -4
    2938              $C$DW$197       .dwtag  DW_TAG_variable, DW_AT_name("base")
    2939                      .dwattr $C$DW$197, DW_AT_TI_symbol_name("_base")
    2940                      .dwattr $C$DW$197, DW_AT_type(*$C$DW$T$21)
    2941                      .dwattr $C$DW$197, DW_AT_location[DW_OP_breg20 -2]
    2942 00000001 1E42          MOVL      *-SP[2],ACC           ; [CPU_] |1295| 
    2943                      .dwpsn  file "C:/work/grepos/c2000_bootROM/f28004x_bootrom/F28004x_ROM_dev/F28004x_ROM/driverlib/sci_
    2944 00000002 8A42          MOVL      XAR4,*-SP[2]          ; [CPU_] |1304| 
    2945 00000003 C6C4          MOVB      AL.LSB,*+XAR4[0]      ; [CPU_] |1304| 
    2946 00000004 5010          ORB       AL,#0x10              ; [CPU_] |1304| 
    2947 00000005 3CC4          MOVB      *+XAR4[0],AL.LSB      ; [CPU_] |1304| 
    2948                      .dwpsn  file "C:/work/grepos/c2000_bootROM/f28004x_bootrom/F28004x_ROM_dev/F28004x_ROM/driverlib/sci_
    2949 00000006 FE82          SUBB      SP,#2                 ; [CPU_U] 
    2950                      .dwcfi  cfa_offset, -2
    2951              $C$DW$198       .dwtag  DW_TAG_TI_branch
    2952                      .dwattr $C$DW$198, DW_AT_low_pc(0x00)
    2953                      .dwattr $C$DW$198, DW_AT_TI_return
    2954 00000007 0006          LRETR     ; [CPU_] 
    2955                      ; return occurs ; [] 
    2956                      .dwattr $C$DW$195, DW_AT_TI_end_file("C:/work/grepos/c2000_bootROM/f28004x_bootrom/F28004x_ROM_dev/F2
    2957                      .dwattr $C$DW$195, DW_AT_TI_end_line(0x519)
    2958                      .dwattr $C$DW$195, DW_AT_TI_end_column(0x01)
    2959                      .dwendentry
    2960                      .dwendtag $C$DW$195
    2961              
    2962 00000000               .sect   ".text:_SCI_disableLoopback"
    2963                      .clink
    2964                      .global _SCI_disableLoopback
    2965              
    2966              $C$DW$199       .dwtag  DW_TAG_subprogram, DW_AT_name("SCI_disableLoopback")
    2967                      .dwattr $C$DW$199, DW_AT_low_pc(_SCI_disableLoopback)
    2968                      .dwattr $C$DW$199, DW_AT_high_pc(0x00)
    2969                      .dwattr $C$DW$199, DW_AT_TI_symbol_name("_SCI_disableLoopback")
    2970                      .dwattr $C$DW$199, DW_AT_external
    2971                      .dwattr $C$DW$199, DW_AT_TI_begin_file("C:/work/grepos/c2000_bootROM/f28004x_bootrom/F28004x_ROM_dev/
TMS320C2000 Assembler PC v6.2.9 Tue Jun 09 22:29:21 2015

Tools Copyright (c) 1996-2014 Texas Instruments Incorporated
C:\Users\a0272466\AppData\Local\Temp\0538410                         PAGE   56

    2972                      .dwattr $C$DW$199, DW_AT_TI_begin_line(0x528)
    2973                      .dwattr $C$DW$199, DW_AT_TI_begin_column(0x01)
    2974                      .dwattr $C$DW$199, DW_AT_TI_max_frame_size(-4)
    2975                      .dwpsn  file "C:/work/grepos/c2000_bootROM/f28004x_bootrom/F28004x_ROM_dev/F28004x_ROM/driverlib/sci_
    2976              
    2977                      .dwfde $C$DW$CIE, _SCI_disableLoopback
    2978              $C$DW$200       .dwtag  DW_TAG_formal_parameter, DW_AT_name("base")
    2979                      .dwattr $C$DW$200, DW_AT_TI_symbol_name("_base")
    2980                      .dwattr $C$DW$200, DW_AT_type(*$C$DW$T$21)
    2981                      .dwattr $C$DW$200, DW_AT_location[DW_OP_reg0]
    2982              
    2983              ;***************************************************************
    2984              ;* FNAME: _SCI_disableLoopback          FR SIZE:   2           *
    2985              ;*                                                             *
    2986              ;* FUNCTION ENVIRONMENT                                        *
    2987              ;*                                                             *
    2988              ;* FUNCTION PROPERTIES                                         *
    2989              ;*                            0 Parameter,  2 Auto,  0 SOE     *
    2990              ;***************************************************************
    2991              
    2992 00000000       _SCI_disableLoopback:
    2993                      .dwcfi  cfa_offset, -2
    2994                      .dwcfi  save_reg_to_mem, 26, 0
    2995                      .dwcfi  save_reg_to_reg, 78, 26
    2996 00000000 FE02          ADDB      SP,#2                 ; [CPU_U] 
    2997                      .dwcfi  cfa_offset, -4
    2998              $C$DW$201       .dwtag  DW_TAG_variable, DW_AT_name("base")
    2999                      .dwattr $C$DW$201, DW_AT_TI_symbol_name("_base")
    3000                      .dwattr $C$DW$201, DW_AT_type(*$C$DW$T$21)
    3001                      .dwattr $C$DW$201, DW_AT_location[DW_OP_breg20 -2]
    3002 00000001 1E42          MOVL      *-SP[2],ACC           ; [CPU_] |1321| 
    3003                      .dwpsn  file "C:/work/grepos/c2000_bootROM/f28004x_bootrom/F28004x_ROM_dev/F28004x_ROM/driverlib/sci_
    3004 00000002 8A42          MOVL      XAR4,*-SP[2]          ; [CPU_] |1330| 
    3005 00000003 C6C4          MOVB      AL.LSB,*+XAR4[0]      ; [CPU_] |1330| 
    3006 00000004 CCA9          AND       AL,AL,#0xffef         ; [CPU_] |1330| 
         00000005 FFEF 
    3007 00000006 3CC4          MOVB      *+XAR4[0],AL.LSB      ; [CPU_] |1330| 
    3008                      .dwpsn  file "C:/work/grepos/c2000_bootROM/f28004x_bootrom/F28004x_ROM_dev/F28004x_ROM/driverlib/sci_
    3009 00000007 FE82          SUBB      SP,#2                 ; [CPU_U] 
    3010                      .dwcfi  cfa_offset, -2
    3011              $C$DW$202       .dwtag  DW_TAG_TI_branch
    3012                      .dwattr $C$DW$202, DW_AT_low_pc(0x00)
    3013                      .dwattr $C$DW$202, DW_AT_TI_return
    3014 00000008 0006          LRETR     ; [CPU_] 
    3015                      ; return occurs ; [] 
    3016                      .dwattr $C$DW$199, DW_AT_TI_end_file("C:/work/grepos/c2000_bootROM/f28004x_bootrom/F28004x_ROM_dev/F2
    3017                      .dwattr $C$DW$199, DW_AT_TI_end_line(0x533)
    3018                      .dwattr $C$DW$199, DW_AT_TI_end_column(0x01)
    3019                      .dwendentry
    3020                      .dwendtag $C$DW$199
    3021              
    3022 00000000               .sect   ".text:_SCI_getTxFIFOStatus"
    3023                      .clink
    3024                      .global _SCI_getTxFIFOStatus
    3025              
TMS320C2000 Assembler PC v6.2.9 Tue Jun 09 22:29:21 2015

Tools Copyright (c) 1996-2014 Texas Instruments Incorporated
C:\Users\a0272466\AppData\Local\Temp\0538410                         PAGE   57

    3026              $C$DW$203       .dwtag  DW_TAG_subprogram, DW_AT_name("SCI_getTxFIFOStatus")
    3027                      .dwattr $C$DW$203, DW_AT_low_pc(_SCI_getTxFIFOStatus)
    3028                      .dwattr $C$DW$203, DW_AT_high_pc(0x00)
    3029                      .dwattr $C$DW$203, DW_AT_TI_symbol_name("_SCI_getTxFIFOStatus")
    3030                      .dwattr $C$DW$203, DW_AT_external
    3031                      .dwattr $C$DW$203, DW_AT_type(*$C$DW$T$35)
    3032                      .dwattr $C$DW$203, DW_AT_TI_begin_file("C:/work/grepos/c2000_bootROM/f28004x_bootrom/F28004x_ROM_dev/
    3033                      .dwattr $C$DW$203, DW_AT_TI_begin_line(0x544)
    3034                      .dwattr $C$DW$203, DW_AT_TI_begin_column(0x01)
    3035                      .dwattr $C$DW$203, DW_AT_TI_max_frame_size(-4)
    3036                      .dwpsn  file "C:/work/grepos/c2000_bootROM/f28004x_bootrom/F28004x_ROM_dev/F28004x_ROM/driverlib/sci_
    3037              
    3038                      .dwfde $C$DW$CIE, _SCI_getTxFIFOStatus
    3039              $C$DW$204       .dwtag  DW_TAG_formal_parameter, DW_AT_name("base")
    3040                      .dwattr $C$DW$204, DW_AT_TI_symbol_name("_base")
    3041                      .dwattr $C$DW$204, DW_AT_type(*$C$DW$T$21)
    3042                      .dwattr $C$DW$204, DW_AT_location[DW_OP_reg0]
    3043              
    3044              ;***************************************************************
    3045              ;* FNAME: _SCI_getTxFIFOStatus          FR SIZE:   2           *
    3046              ;*                                                             *
    3047              ;* FUNCTION ENVIRONMENT                                        *
    3048              ;*                                                             *
    3049              ;* FUNCTION PROPERTIES                                         *
    3050              ;*                            0 Parameter,  2 Auto,  0 SOE     *
    3051              ;***************************************************************
    3052              
    3053 00000000       _SCI_getTxFIFOStatus:
    3054                      .dwcfi  cfa_offset, -2
    3055                      .dwcfi  save_reg_to_mem, 26, 0
    3056                      .dwcfi  save_reg_to_reg, 78, 26
    3057 00000000 FE02          ADDB      SP,#2                 ; [CPU_U] 
    3058                      .dwcfi  cfa_offset, -4
    3059              $C$DW$205       .dwtag  DW_TAG_variable, DW_AT_name("base")
    3060                      .dwattr $C$DW$205, DW_AT_TI_symbol_name("_base")
    3061                      .dwattr $C$DW$205, DW_AT_type(*$C$DW$T$21)
    3062                      .dwattr $C$DW$205, DW_AT_location[DW_OP_breg20 -2]
    3063 00000001 1E42          MOVL      *-SP[2],ACC           ; [CPU_] |1349| 
    3064                      .dwpsn  file "C:/work/grepos/c2000_bootROM/f28004x_bootrom/F28004x_ROM_dev/F28004x_ROM/driverlib/sci_
    3065 00000002 020A          MOVB      ACC,#10               ; [CPU_] |1358| 
    3066 00000003 0742          ADDL      ACC,*-SP[2]           ; [CPU_] |1358| 
    3067 00000004 8AA9          MOVL      XAR4,ACC              ; [CPU_] |1358| 
    3068 00000005 CCC4          AND       AL,*+XAR4[0],#0x1f00  ; [CPU_] |1358| 
         00000006 1F00 
    3069 00000007 FFC7          LSR       AL,8                  ; [CPU_] |1358| 
    3070                      .dwpsn  file "C:/work/grepos/c2000_bootROM/f28004x_bootrom/F28004x_ROM_dev/F28004x_ROM/driverlib/sci_
    3071 00000008 FE82          SUBB      SP,#2                 ; [CPU_U] 
    3072                      .dwcfi  cfa_offset, -2
    3073              $C$DW$206       .dwtag  DW_TAG_TI_branch
    3074                      .dwattr $C$DW$206, DW_AT_low_pc(0x00)
    3075                      .dwattr $C$DW$206, DW_AT_TI_return
    3076 00000009 0006          LRETR     ; [CPU_] 
    3077                      ; return occurs ; [] 
    3078                      .dwattr $C$DW$203, DW_AT_TI_end_file("C:/work/grepos/c2000_bootROM/f28004x_bootrom/F28004x_ROM_dev/F2
    3079                      .dwattr $C$DW$203, DW_AT_TI_end_line(0x550)
TMS320C2000 Assembler PC v6.2.9 Tue Jun 09 22:29:21 2015

Tools Copyright (c) 1996-2014 Texas Instruments Incorporated
C:\Users\a0272466\AppData\Local\Temp\0538410                         PAGE   58

    3080                      .dwattr $C$DW$203, DW_AT_TI_end_column(0x01)
    3081                      .dwendentry
    3082                      .dwendtag $C$DW$203
    3083              
    3084 00000000               .sect   ".text:_SCI_getRxFIFOStatus"
    3085                      .clink
    3086                      .global _SCI_getRxFIFOStatus
    3087              
    3088              $C$DW$207       .dwtag  DW_TAG_subprogram, DW_AT_name("SCI_getRxFIFOStatus")
    3089                      .dwattr $C$DW$207, DW_AT_low_pc(_SCI_getRxFIFOStatus)
    3090                      .dwattr $C$DW$207, DW_AT_high_pc(0x00)
    3091                      .dwattr $C$DW$207, DW_AT_TI_symbol_name("_SCI_getRxFIFOStatus")
    3092                      .dwattr $C$DW$207, DW_AT_external
    3093                      .dwattr $C$DW$207, DW_AT_type(*$C$DW$T$35)
    3094                      .dwattr $C$DW$207, DW_AT_TI_begin_file("C:/work/grepos/c2000_bootROM/f28004x_bootrom/F28004x_ROM_dev/
    3095                      .dwattr $C$DW$207, DW_AT_TI_begin_line(0x561)
    3096                      .dwattr $C$DW$207, DW_AT_TI_begin_column(0x01)
    3097                      .dwattr $C$DW$207, DW_AT_TI_max_frame_size(-4)
    3098                      .dwpsn  file "C:/work/grepos/c2000_bootROM/f28004x_bootrom/F28004x_ROM_dev/F28004x_ROM/driverlib/sci_
    3099              
    3100                      .dwfde $C$DW$CIE, _SCI_getRxFIFOStatus
    3101              $C$DW$208       .dwtag  DW_TAG_formal_parameter, DW_AT_name("base")
    3102                      .dwattr $C$DW$208, DW_AT_TI_symbol_name("_base")
    3103                      .dwattr $C$DW$208, DW_AT_type(*$C$DW$T$21)
    3104                      .dwattr $C$DW$208, DW_AT_location[DW_OP_reg0]
    3105              
    3106              ;***************************************************************
    3107              ;* FNAME: _SCI_getRxFIFOStatus          FR SIZE:   2           *
    3108              ;*                                                             *
    3109              ;* FUNCTION ENVIRONMENT                                        *
    3110              ;*                                                             *
    3111              ;* FUNCTION PROPERTIES                                         *
    3112              ;*                            0 Parameter,  2 Auto,  0 SOE     *
    3113              ;***************************************************************
    3114              
    3115 00000000       _SCI_getRxFIFOStatus:
    3116                      .dwcfi  cfa_offset, -2
    3117                      .dwcfi  save_reg_to_mem, 26, 0
    3118                      .dwcfi  save_reg_to_reg, 78, 26
    3119 00000000 FE02          ADDB      SP,#2                 ; [CPU_U] 
    3120                      .dwcfi  cfa_offset, -4
    3121              $C$DW$209       .dwtag  DW_TAG_variable, DW_AT_name("base")
    3122                      .dwattr $C$DW$209, DW_AT_TI_symbol_name("_base")
    3123                      .dwattr $C$DW$209, DW_AT_type(*$C$DW$T$21)
    3124                      .dwattr $C$DW$209, DW_AT_location[DW_OP_breg20 -2]
    3125 00000001 1E42          MOVL      *-SP[2],ACC           ; [CPU_] |1378| 
    3126                      .dwpsn  file "C:/work/grepos/c2000_bootROM/f28004x_bootrom/F28004x_ROM_dev/F28004x_ROM/driverlib/sci_
    3127 00000002 020B          MOVB      ACC,#11               ; [CPU_] |1387| 
    3128 00000003 0742          ADDL      ACC,*-SP[2]           ; [CPU_] |1387| 
    3129 00000004 8AA9          MOVL      XAR4,ACC              ; [CPU_] |1387| 
    3130 00000005 CCC4          AND       AL,*+XAR4[0],#0x1f00  ; [CPU_] |1387| 
         00000006 1F00 
    3131 00000007 FFC7          LSR       AL,8                  ; [CPU_] |1387| 
    3132                      .dwpsn  file "C:/work/grepos/c2000_bootROM/f28004x_bootrom/F28004x_ROM_dev/F28004x_ROM/driverlib/sci_
    3133 00000008 FE82          SUBB      SP,#2                 ; [CPU_U] 
TMS320C2000 Assembler PC v6.2.9 Tue Jun 09 22:29:21 2015

Tools Copyright (c) 1996-2014 Texas Instruments Incorporated
C:\Users\a0272466\AppData\Local\Temp\0538410                         PAGE   59

    3134                      .dwcfi  cfa_offset, -2
    3135              $C$DW$210       .dwtag  DW_TAG_TI_branch
    3136                      .dwattr $C$DW$210, DW_AT_low_pc(0x00)
    3137                      .dwattr $C$DW$210, DW_AT_TI_return
    3138 00000009 0006          LRETR     ; [CPU_] 
    3139                      ; return occurs ; [] 
    3140                      .dwattr $C$DW$207, DW_AT_TI_end_file("C:/work/grepos/c2000_bootROM/f28004x_bootrom/F28004x_ROM_dev/F2
    3141                      .dwattr $C$DW$207, DW_AT_TI_end_line(0x56d)
    3142                      .dwattr $C$DW$207, DW_AT_TI_end_column(0x01)
    3143                      .dwendentry
    3144                      .dwendtag $C$DW$207
    3145              
    3146 00000000               .sect   ".text:_SCI_getOverflowStatus"
    3147                      .clink
    3148                      .global _SCI_getOverflowStatus
    3149              
    3150              $C$DW$211       .dwtag  DW_TAG_subprogram, DW_AT_name("SCI_getOverflowStatus")
    3151                      .dwattr $C$DW$211, DW_AT_low_pc(_SCI_getOverflowStatus)
    3152                      .dwattr $C$DW$211, DW_AT_high_pc(0x00)
    3153                      .dwattr $C$DW$211, DW_AT_TI_symbol_name("_SCI_getOverflowStatus")
    3154                      .dwattr $C$DW$211, DW_AT_external
    3155                      .dwattr $C$DW$211, DW_AT_type(*$C$DW$T$60)
    3156                      .dwattr $C$DW$211, DW_AT_TI_begin_file("C:/work/grepos/c2000_bootROM/f28004x_bootrom/F28004x_ROM_dev/
    3157                      .dwattr $C$DW$211, DW_AT_TI_begin_line(0x57c)
    3158                      .dwattr $C$DW$211, DW_AT_TI_begin_column(0x01)
    3159                      .dwattr $C$DW$211, DW_AT_TI_max_frame_size(-6)
    3160                      .dwpsn  file "C:/work/grepos/c2000_bootROM/f28004x_bootrom/F28004x_ROM_dev/F28004x_ROM/driverlib/sci_
    3161              
    3162                      .dwfde $C$DW$CIE, _SCI_getOverflowStatus
    3163              $C$DW$212       .dwtag  DW_TAG_formal_parameter, DW_AT_name("base")
    3164                      .dwattr $C$DW$212, DW_AT_TI_symbol_name("_base")
    3165                      .dwattr $C$DW$212, DW_AT_type(*$C$DW$T$21)
    3166                      .dwattr $C$DW$212, DW_AT_location[DW_OP_reg0]
    3167              
    3168              ;***************************************************************
    3169              ;* FNAME: _SCI_getOverflowStatus        FR SIZE:   4           *
    3170              ;*                                                             *
    3171              ;* FUNCTION ENVIRONMENT                                        *
    3172              ;*                                                             *
    3173              ;* FUNCTION PROPERTIES                                         *
    3174              ;*                            0 Parameter,  3 Auto,  0 SOE     *
    3175              ;***************************************************************
    3176              
    3177 00000000       _SCI_getOverflowStatus:
    3178                      .dwcfi  cfa_offset, -2
    3179                      .dwcfi  save_reg_to_mem, 26, 0
    3180                      .dwcfi  save_reg_to_reg, 78, 26
    3181 00000000 FE04          ADDB      SP,#4                 ; [CPU_U] 
    3182                      .dwcfi  cfa_offset, -6
    3183              $C$DW$213       .dwtag  DW_TAG_variable, DW_AT_name("base")
    3184                      .dwattr $C$DW$213, DW_AT_TI_symbol_name("_base")
    3185                      .dwattr $C$DW$213, DW_AT_type(*$C$DW$T$21)
    3186                      .dwattr $C$DW$213, DW_AT_location[DW_OP_breg20 -2]
    3187              $C$DW$214       .dwtag  DW_TAG_variable, DW_AT_name("status")
    3188                      .dwattr $C$DW$214, DW_AT_TI_symbol_name("_status")
TMS320C2000 Assembler PC v6.2.9 Tue Jun 09 22:29:21 2015

Tools Copyright (c) 1996-2014 Texas Instruments Incorporated
C:\Users\a0272466\AppData\Local\Temp\0538410                         PAGE   60

    3189                      .dwattr $C$DW$214, DW_AT_type(*$C$DW$T$60)
    3190                      .dwattr $C$DW$214, DW_AT_location[DW_OP_breg20 -3]
    3191 00000001 1E42          MOVL      *-SP[2],ACC           ; [CPU_] |1405| 
    3192                      .dwpsn  file "C:/work/grepos/c2000_bootROM/f28004x_bootrom/F28004x_ROM_dev/F28004x_ROM/driverlib/sci_
    3193 00000002 2B43          MOV       *-SP[3],#0            ; [CPU_] |1406| 
    3194                      .dwpsn  file "C:/work/grepos/c2000_bootROM/f28004x_bootrom/F28004x_ROM_dev/F28004x_ROM/driverlib/sci_
    3195 00000003 020B          MOVB      ACC,#11               ; [CPU_] |1416| 
    3196 00000004 2901          CLRC      SXM                   ; [CPU_] 
    3197 00000005 0742          ADDL      ACC,*-SP[2]           ; [CPU_] |1416| 
    3198 00000006 83A9          MOVL      XAR5,ACC              ; [CPU_] |1416| 
    3199 00000007 CCC5          AND       AL,*+XAR5[0],#0x8000  ; [CPU_] |1416| 
         00000008 8000 
    3200 00000009 88A9          MOVZ      AR6,AL                ; [CPU_] |1416| 
    3201 0000000a FF20          MOV       ACC,#32768            ; [CPU_] |1416| 
         0000000b 8000 
    3202 0000000c 0FA6          CMPL      ACC,XAR6              ; [CPU_] |1416| 
    3203 0000000d ED03          BF        $C$L46,NEQ            ; [CPU_] |1416| 
    3204                      ; branchcc occurs ; [] |1416| 
    3205                      .dwpsn  file "C:/work/grepos/c2000_bootROM/f28004x_bootrom/F28004x_ROM_dev/F28004x_ROM/driverlib/sci_
    3206 0000000e 56BF          MOVB      *-SP[3],#1,UNC        ; [CPU_] |1418| 
         0000000f 0143 
    3207 00000010       $C$L46:    
    3208                      .dwpsn  file "C:/work/grepos/c2000_bootROM/f28004x_bootrom/F28004x_ROM_dev/F28004x_ROM/driverlib/sci_
    3209 00000010 9243          MOV       AL,*-SP[3]            ; [CPU_] |1421| 
    3210                      .dwpsn  file "C:/work/grepos/c2000_bootROM/f28004x_bootrom/F28004x_ROM_dev/F28004x_ROM/driverlib/sci_
    3211 00000011 FE84          SUBB      SP,#4                 ; [CPU_U] 
    3212                      .dwcfi  cfa_offset, -2
    3213              $C$DW$215       .dwtag  DW_TAG_TI_branch
    3214                      .dwattr $C$DW$215, DW_AT_low_pc(0x00)
    3215                      .dwattr $C$DW$215, DW_AT_TI_return
    3216 00000012 0006          LRETR     ; [CPU_] 
    3217                      ; return occurs ; [] 
    3218                      .dwattr $C$DW$211, DW_AT_TI_end_file("C:/work/grepos/c2000_bootROM/f28004x_bootrom/F28004x_ROM_dev/F2
    3219                      .dwattr $C$DW$211, DW_AT_TI_end_line(0x58e)
    3220                      .dwattr $C$DW$211, DW_AT_TI_end_column(0x01)
    3221                      .dwendentry
    3222                      .dwendtag $C$DW$211
    3223              
    3224 00000000               .sect   ".text:_SCI_clearOverflowStatus"
    3225                      .clink
    3226                      .global _SCI_clearOverflowStatus
    3227              
    3228              $C$DW$216       .dwtag  DW_TAG_subprogram, DW_AT_name("SCI_clearOverflowStatus")
    3229                      .dwattr $C$DW$216, DW_AT_low_pc(_SCI_clearOverflowStatus)
    3230                      .dwattr $C$DW$216, DW_AT_high_pc(0x00)
    3231                      .dwattr $C$DW$216, DW_AT_TI_symbol_name("_SCI_clearOverflowStatus")
    3232                      .dwattr $C$DW$216, DW_AT_external
    3233                      .dwattr $C$DW$216, DW_AT_TI_begin_file("C:/work/grepos/c2000_bootROM/f28004x_bootrom/F28004x_ROM_dev/
    3234                      .dwattr $C$DW$216, DW_AT_TI_begin_line(0x59c)
    3235                      .dwattr $C$DW$216, DW_AT_TI_begin_column(0x01)
    3236                      .dwattr $C$DW$216, DW_AT_TI_max_frame_size(-4)
    3237                      .dwpsn  file "C:/work/grepos/c2000_bootROM/f28004x_bootrom/F28004x_ROM_dev/F28004x_ROM/driverlib/sci_
    3238              
    3239                      .dwfde $C$DW$CIE, _SCI_clearOverflowStatus
    3240              $C$DW$217       .dwtag  DW_TAG_formal_parameter, DW_AT_name("base")
TMS320C2000 Assembler PC v6.2.9 Tue Jun 09 22:29:21 2015

Tools Copyright (c) 1996-2014 Texas Instruments Incorporated
C:\Users\a0272466\AppData\Local\Temp\0538410                         PAGE   61

    3241                      .dwattr $C$DW$217, DW_AT_TI_symbol_name("_base")
    3242                      .dwattr $C$DW$217, DW_AT_type(*$C$DW$T$21)
    3243                      .dwattr $C$DW$217, DW_AT_location[DW_OP_reg0]
    3244              
    3245              ;***************************************************************
    3246              ;* FNAME: _SCI_clearOverflowStatus      FR SIZE:   2           *
    3247              ;*                                                             *
    3248              ;* FUNCTION ENVIRONMENT                                        *
    3249              ;*                                                             *
    3250              ;* FUNCTION PROPERTIES                                         *
    3251              ;*                            0 Parameter,  2 Auto,  0 SOE     *
    3252              ;***************************************************************
    3253              
    3254 00000000       _SCI_clearOverflowStatus:
    3255                      .dwcfi  cfa_offset, -2
    3256                      .dwcfi  save_reg_to_mem, 26, 0
    3257                      .dwcfi  save_reg_to_reg, 78, 26
    3258 00000000 FE02          ADDB      SP,#2                 ; [CPU_U] 
    3259                      .dwcfi  cfa_offset, -4
    3260              $C$DW$218       .dwtag  DW_TAG_variable, DW_AT_name("base")
    3261                      .dwattr $C$DW$218, DW_AT_TI_symbol_name("_base")
    3262                      .dwattr $C$DW$218, DW_AT_type(*$C$DW$T$21)
    3263                      .dwattr $C$DW$218, DW_AT_location[DW_OP_breg20 -2]
    3264 00000001 1E42          MOVL      *-SP[2],ACC           ; [CPU_] |1437| 
    3265                      .dwpsn  file "C:/work/grepos/c2000_bootROM/f28004x_bootrom/F28004x_ROM_dev/F28004x_ROM/driverlib/sci_
    3266 00000002 020B          MOVB      ACC,#11               ; [CPU_] |1446| 
    3267 00000003 0742          ADDL      ACC,*-SP[2]           ; [CPU_] |1446| 
    3268 00000004 8AA9          MOVL      XAR4,ACC              ; [CPU_] |1446| 
    3269 00000005 1AC4          OR        *+XAR4[0],#0x4000     ; [CPU_] |1446| 
         00000006 4000 
    3270                      .dwpsn  file "C:/work/grepos/c2000_bootROM/f28004x_bootrom/F28004x_ROM_dev/F28004x_ROM/driverlib/sci_
    3271 00000007 FE82          SUBB      SP,#2                 ; [CPU_U] 
    3272                      .dwcfi  cfa_offset, -2
    3273              $C$DW$219       .dwtag  DW_TAG_TI_branch
    3274                      .dwattr $C$DW$219, DW_AT_low_pc(0x00)
    3275                      .dwattr $C$DW$219, DW_AT_TI_return
    3276 00000008 0006          LRETR     ; [CPU_] 
    3277                      ; return occurs ; [] 
    3278                      .dwattr $C$DW$216, DW_AT_TI_end_file("C:/work/grepos/c2000_bootROM/f28004x_bootrom/F28004x_ROM_dev/F2
    3279                      .dwattr $C$DW$216, DW_AT_TI_end_line(0x5a7)
    3280                      .dwattr $C$DW$216, DW_AT_TI_end_column(0x01)
    3281                      .dwendentry
    3282                      .dwendtag $C$DW$216
    3283              
    3284              ;**************************************************************
    3285              ;* UNDEFINED EXTERNAL REFERENCES                              *
    3286              ;**************************************************************
    3287                      .global _Interrupt_disable
    3288                      .global _Interrupt_enable
    3289              
    3290              ;***************************************************************
    3291              ;* TYPE INFORMATION                                            *
    3292              ;***************************************************************
    3293              
    3294              $C$DW$T$19      .dwtag  DW_TAG_enumeration_type
TMS320C2000 Assembler PC v6.2.9 Tue Jun 09 22:29:21 2015

Tools Copyright (c) 1996-2014 Texas Instruments Incorporated
C:\Users\a0272466\AppData\Local\Temp\0538410                         PAGE   62

    3295                      .dwattr $C$DW$T$19, DW_AT_byte_size(0x01)
    3296              $C$DW$220       .dwtag  DW_TAG_enumerator, DW_AT_name("SCI_CONFIG_PAR_NONE"), DW_AT_const_value(0x00)
    3297              $C$DW$221       .dwtag  DW_TAG_enumerator, DW_AT_name("SCI_CONFIG_PAR_EVEN"), DW_AT_const_value(0x60)
    3298              $C$DW$222       .dwtag  DW_TAG_enumerator, DW_AT_name("SCI_CONFIG_PAR_ODD"), DW_AT_const_value(0x20)
    3299              $C$DW$223       .dwtag  DW_TAG_enumerator, DW_AT_name("SCI_CONFIG_PAR_ONE"), DW_AT_const_value(0x20)
    3300              $C$DW$224       .dwtag  DW_TAG_enumerator, DW_AT_name("SCI_CONFIG_PAR_ZERO"), DW_AT_const_value(0x60)
    3301                      .dwendtag $C$DW$T$19
    3302              
    3303              $C$DW$T$20      .dwtag  DW_TAG_typedef, DW_AT_name("SCI_ParityType")
    3304                      .dwattr $C$DW$T$20, DW_AT_type(*$C$DW$T$19)
    3305                      .dwattr $C$DW$T$20, DW_AT_language(DW_LANG_C)
    3306              
    3307              $C$DW$T$23      .dwtag  DW_TAG_enumeration_type
    3308                      .dwattr $C$DW$T$23, DW_AT_byte_size(0x01)
    3309              $C$DW$225       .dwtag  DW_TAG_enumerator, DW_AT_name("SCI_FIFO_TX0"), DW_AT_const_value(0x00)
    3310              $C$DW$226       .dwtag  DW_TAG_enumerator, DW_AT_name("SCI_FIFO_TX1"), DW_AT_const_value(0x01)
    3311              $C$DW$227       .dwtag  DW_TAG_enumerator, DW_AT_name("SCI_FIFO_TX2"), DW_AT_const_value(0x02)
    3312              $C$DW$228       .dwtag  DW_TAG_enumerator, DW_AT_name("SCI_FIFO_TX3"), DW_AT_const_value(0x03)
    3313              $C$DW$229       .dwtag  DW_TAG_enumerator, DW_AT_name("SCI_FIFO_TX4"), DW_AT_const_value(0x04)
    3314              $C$DW$230       .dwtag  DW_TAG_enumerator, DW_AT_name("SCI_FIFO_TX5"), DW_AT_const_value(0x05)
    3315              $C$DW$231       .dwtag  DW_TAG_enumerator, DW_AT_name("SCI_FIFO_TX6"), DW_AT_const_value(0x06)
    3316              $C$DW$232       .dwtag  DW_TAG_enumerator, DW_AT_name("SCI_FIFO_TX7"), DW_AT_const_value(0x07)
    3317              $C$DW$233       .dwtag  DW_TAG_enumerator, DW_AT_name("SCI_FIFO_TX8"), DW_AT_const_value(0x08)
    3318              $C$DW$234       .dwtag  DW_TAG_enumerator, DW_AT_name("SCI_FIFO_TX9"), DW_AT_const_value(0x09)
    3319              $C$DW$235       .dwtag  DW_TAG_enumerator, DW_AT_name("SCI_FIFO_TX10"), DW_AT_const_value(0x0a)
    3320              $C$DW$236       .dwtag  DW_TAG_enumerator, DW_AT_name("SCI_FIFO_TX11"), DW_AT_const_value(0x0b)
    3321              $C$DW$237       .dwtag  DW_TAG_enumerator, DW_AT_name("SCI_FIFO_TX12"), DW_AT_const_value(0x0c)
    3322              $C$DW$238       .dwtag  DW_TAG_enumerator, DW_AT_name("SCI_FIFO_TX13"), DW_AT_const_value(0x0d)
    3323              $C$DW$239       .dwtag  DW_TAG_enumerator, DW_AT_name("SCI_FIFO_TX14"), DW_AT_const_value(0x0e)
    3324              $C$DW$240       .dwtag  DW_TAG_enumerator, DW_AT_name("SCI_FIFO_TX15"), DW_AT_const_value(0x0f)
    3325                      .dwendtag $C$DW$T$23
    3326              
    3327              $C$DW$T$24      .dwtag  DW_TAG_typedef, DW_AT_name("SCI_TxFIFOLevel")
    3328                      .dwattr $C$DW$T$24, DW_AT_type(*$C$DW$T$23)
    3329                      .dwattr $C$DW$T$24, DW_AT_language(DW_LANG_C)
    3330              $C$DW$T$25      .dwtag  DW_TAG_pointer_type
    3331                      .dwattr $C$DW$T$25, DW_AT_type(*$C$DW$T$24)
    3332                      .dwattr $C$DW$T$25, DW_AT_address_class(0x16)
    3333              
    3334              $C$DW$T$26      .dwtag  DW_TAG_enumeration_type
    3335                      .dwattr $C$DW$T$26, DW_AT_byte_size(0x01)
    3336              $C$DW$241       .dwtag  DW_TAG_enumerator, DW_AT_name("SCI_FIFO_RX0"), DW_AT_const_value(0x00)
    3337              $C$DW$242       .dwtag  DW_TAG_enumerator, DW_AT_name("SCI_FIFO_RX1"), DW_AT_const_value(0x01)
    3338              $C$DW$243       .dwtag  DW_TAG_enumerator, DW_AT_name("SCI_FIFO_RX2"), DW_AT_const_value(0x02)
    3339              $C$DW$244       .dwtag  DW_TAG_enumerator, DW_AT_name("SCI_FIFO_RX3"), DW_AT_const_value(0x03)
    3340              $C$DW$245       .dwtag  DW_TAG_enumerator, DW_AT_name("SCI_FIFO_RX4"), DW_AT_const_value(0x04)
    3341              $C$DW$246       .dwtag  DW_TAG_enumerator, DW_AT_name("SCI_FIFO_RX5"), DW_AT_const_value(0x05)
    3342              $C$DW$247       .dwtag  DW_TAG_enumerator, DW_AT_name("SCI_FIFO_RX6"), DW_AT_const_value(0x06)
    3343              $C$DW$248       .dwtag  DW_TAG_enumerator, DW_AT_name("SCI_FIFO_RX7"), DW_AT_const_value(0x07)
    3344              $C$DW$249       .dwtag  DW_TAG_enumerator, DW_AT_name("SCI_FIFO_RX8"), DW_AT_const_value(0x08)
    3345              $C$DW$250       .dwtag  DW_TAG_enumerator, DW_AT_name("SCI_FIFO_RX9"), DW_AT_const_value(0x09)
    3346              $C$DW$251       .dwtag  DW_TAG_enumerator, DW_AT_name("SCI_FIFO_RX10"), DW_AT_const_value(0x0a)
    3347              $C$DW$252       .dwtag  DW_TAG_enumerator, DW_AT_name("SCI_FIFO_RX11"), DW_AT_const_value(0x0b)
    3348              $C$DW$253       .dwtag  DW_TAG_enumerator, DW_AT_name("SCI_FIFO_RX12"), DW_AT_const_value(0x0c)
    3349              $C$DW$254       .dwtag  DW_TAG_enumerator, DW_AT_name("SCI_FIFO_RX13"), DW_AT_const_value(0x0d)
TMS320C2000 Assembler PC v6.2.9 Tue Jun 09 22:29:21 2015

Tools Copyright (c) 1996-2014 Texas Instruments Incorporated
C:\Users\a0272466\AppData\Local\Temp\0538410                         PAGE   63

    3350              $C$DW$255       .dwtag  DW_TAG_enumerator, DW_AT_name("SCI_FIFO_RX14"), DW_AT_const_value(0x0e)
    3351              $C$DW$256       .dwtag  DW_TAG_enumerator, DW_AT_name("SCI_FIFO_RX15"), DW_AT_const_value(0x0f)
    3352                      .dwendtag $C$DW$T$26
    3353              
    3354              $C$DW$T$27      .dwtag  DW_TAG_typedef, DW_AT_name("SCI_RxFIFOLevel")
    3355                      .dwattr $C$DW$T$27, DW_AT_type(*$C$DW$T$26)
    3356                      .dwattr $C$DW$T$27, DW_AT_language(DW_LANG_C)
    3357              $C$DW$T$28      .dwtag  DW_TAG_pointer_type
    3358                      .dwattr $C$DW$T$28, DW_AT_type(*$C$DW$T$27)
    3359                      .dwattr $C$DW$T$28, DW_AT_address_class(0x16)
    3360              
    3361              $C$DW$T$29      .dwtag  DW_TAG_enumeration_type
    3362                      .dwattr $C$DW$T$29, DW_AT_byte_size(0x01)
    3363              $C$DW$257       .dwtag  DW_TAG_enumerator, DW_AT_name("SCI_FIFO_TRANSMIT"), DW_AT_const_value(0x0f)
    3364              $C$DW$258       .dwtag  DW_TAG_enumerator, DW_AT_name("SCI_FIFO_RECEIVE"), DW_AT_const_value(0x1f)
    3365                      .dwendtag $C$DW$T$29
    3366              
    3367              $C$DW$T$30      .dwtag  DW_TAG_typedef, DW_AT_name("SCI_FIFOMode")
    3368                      .dwattr $C$DW$T$30, DW_AT_type(*$C$DW$T$29)
    3369                      .dwattr $C$DW$T$30, DW_AT_language(DW_LANG_C)
    3370              
    3371              $C$DW$T$31      .dwtag  DW_TAG_enumeration_type
    3372                      .dwattr $C$DW$T$31, DW_AT_byte_size(0x01)
    3373              $C$DW$259       .dwtag  DW_TAG_enumerator, DW_AT_name("SCI_TXINT_MODE_FIFO_M"), DW_AT_const_value(0x1f)
    3374              $C$DW$260       .dwtag  DW_TAG_enumerator, DW_AT_name("SCI_TXINT_MODE_EOT"), DW_AT_const_value(0x00)
    3375                      .dwendtag $C$DW$T$31
    3376              
    3377              $C$DW$T$32      .dwtag  DW_TAG_typedef, DW_AT_name("SCI_TxIntMode")
    3378                      .dwattr $C$DW$T$32, DW_AT_type(*$C$DW$T$31)
    3379                      .dwattr $C$DW$T$32, DW_AT_language(DW_LANG_C)
    3380              
    3381              $C$DW$T$34      .dwtag  DW_TAG_enumeration_type
    3382                      .dwattr $C$DW$T$34, DW_AT_byte_size(0x01)
    3383              $C$DW$261       .dwtag  DW_TAG_enumerator, DW_AT_name("SCI_FIFO_EMPTY"), DW_AT_const_value(0x00)
    3384              $C$DW$262       .dwtag  DW_TAG_enumerator, DW_AT_name("SCI_FIFO_WORD1"), DW_AT_const_value(0x01)
    3385              $C$DW$263       .dwtag  DW_TAG_enumerator, DW_AT_name("SCI_FIFO_WORD2"), DW_AT_const_value(0x02)
    3386              $C$DW$264       .dwtag  DW_TAG_enumerator, DW_AT_name("SCI_FIFO_WORD3"), DW_AT_const_value(0x03)
    3387              $C$DW$265       .dwtag  DW_TAG_enumerator, DW_AT_name("SCI_FIFO_WORD4"), DW_AT_const_value(0x04)
    3388              $C$DW$266       .dwtag  DW_TAG_enumerator, DW_AT_name("SCI_FIFO_WORD5"), DW_AT_const_value(0x05)
    3389              $C$DW$267       .dwtag  DW_TAG_enumerator, DW_AT_name("SCI_FIFO_WORD6"), DW_AT_const_value(0x06)
    3390              $C$DW$268       .dwtag  DW_TAG_enumerator, DW_AT_name("SCI_FIFO_WORD7"), DW_AT_const_value(0x07)
    3391              $C$DW$269       .dwtag  DW_TAG_enumerator, DW_AT_name("SCI_FIFO_WORD8"), DW_AT_const_value(0x08)
    3392              $C$DW$270       .dwtag  DW_TAG_enumerator, DW_AT_name("SCI_FIFO_WORD9"), DW_AT_const_value(0x09)
    3393              $C$DW$271       .dwtag  DW_TAG_enumerator, DW_AT_name("SCI_FIFO_WORD10"), DW_AT_const_value(0x0a)
    3394              $C$DW$272       .dwtag  DW_TAG_enumerator, DW_AT_name("SCI_FIFO_WORD11"), DW_AT_const_value(0x0b)
    3395              $C$DW$273       .dwtag  DW_TAG_enumerator, DW_AT_name("SCI_FIFO_WORD12"), DW_AT_const_value(0x0c)
    3396              $C$DW$274       .dwtag  DW_TAG_enumerator, DW_AT_name("SCI_FIFO_WORD13"), DW_AT_const_value(0x0d)
    3397              $C$DW$275       .dwtag  DW_TAG_enumerator, DW_AT_name("SCI_FIFO_WORD14"), DW_AT_const_value(0x0e)
    3398              $C$DW$276       .dwtag  DW_TAG_enumerator, DW_AT_name("SCI_FIFO_WORD15"), DW_AT_const_value(0x0f)
    3399              $C$DW$277       .dwtag  DW_TAG_enumerator, DW_AT_name("SCI_FIFO_WORD16"), DW_AT_const_value(0x10)
    3400                      .dwendtag $C$DW$T$34
    3401              
    3402              $C$DW$T$35      .dwtag  DW_TAG_typedef, DW_AT_name("SCI_FIFOStatus")
    3403                      .dwattr $C$DW$T$35, DW_AT_type(*$C$DW$T$34)
    3404                      .dwattr $C$DW$T$35, DW_AT_language(DW_LANG_C)
TMS320C2000 Assembler PC v6.2.9 Tue Jun 09 22:29:21 2015

Tools Copyright (c) 1996-2014 Texas Instruments Incorporated
C:\Users\a0272466\AppData\Local\Temp\0538410                         PAGE   64

    3405              
    3406              $C$DW$T$37      .dwtag  DW_TAG_subroutine_type
    3407                      .dwattr $C$DW$T$37, DW_AT_language(DW_LANG_C)
    3408              $C$DW$T$38      .dwtag  DW_TAG_pointer_type
    3409                      .dwattr $C$DW$T$38, DW_AT_type(*$C$DW$T$37)
    3410                      .dwattr $C$DW$T$38, DW_AT_address_class(0x16)
    3411              $C$DW$T$4       .dwtag  DW_TAG_base_type
    3412                      .dwattr $C$DW$T$4, DW_AT_encoding(DW_ATE_boolean)
    3413                      .dwattr $C$DW$T$4, DW_AT_name("bool")
    3414                      .dwattr $C$DW$T$4, DW_AT_byte_size(0x01)
    3415              $C$DW$T$5       .dwtag  DW_TAG_base_type
    3416                      .dwattr $C$DW$T$5, DW_AT_encoding(DW_ATE_signed_char)
    3417                      .dwattr $C$DW$T$5, DW_AT_name("signed char")
    3418                      .dwattr $C$DW$T$5, DW_AT_byte_size(0x01)
    3419              $C$DW$T$6       .dwtag  DW_TAG_base_type
    3420                      .dwattr $C$DW$T$6, DW_AT_encoding(DW_ATE_unsigned_char)
    3421                      .dwattr $C$DW$T$6, DW_AT_name("unsigned char")
    3422                      .dwattr $C$DW$T$6, DW_AT_byte_size(0x01)
    3423              $C$DW$T$7       .dwtag  DW_TAG_base_type
    3424                      .dwattr $C$DW$T$7, DW_AT_encoding(DW_ATE_signed_char)
    3425                      .dwattr $C$DW$T$7, DW_AT_name("wchar_t")
    3426                      .dwattr $C$DW$T$7, DW_AT_byte_size(0x01)
    3427              $C$DW$T$8       .dwtag  DW_TAG_base_type
    3428                      .dwattr $C$DW$T$8, DW_AT_encoding(DW_ATE_signed)
    3429                      .dwattr $C$DW$T$8, DW_AT_name("short")
    3430                      .dwattr $C$DW$T$8, DW_AT_byte_size(0x01)
    3431              $C$DW$T$9       .dwtag  DW_TAG_base_type
    3432                      .dwattr $C$DW$T$9, DW_AT_encoding(DW_ATE_unsigned)
    3433                      .dwattr $C$DW$T$9, DW_AT_name("unsigned short")
    3434                      .dwattr $C$DW$T$9, DW_AT_byte_size(0x01)
    3435              $C$DW$T$53      .dwtag  DW_TAG_typedef, DW_AT_name("uint16_t")
    3436                      .dwattr $C$DW$T$53, DW_AT_type(*$C$DW$T$9)
    3437                      .dwattr $C$DW$T$53, DW_AT_language(DW_LANG_C)
    3438              $C$DW$T$10      .dwtag  DW_TAG_base_type
    3439                      .dwattr $C$DW$T$10, DW_AT_encoding(DW_ATE_signed)
    3440                      .dwattr $C$DW$T$10, DW_AT_name("int")
    3441                      .dwattr $C$DW$T$10, DW_AT_byte_size(0x01)
    3442              $C$DW$T$56      .dwtag  DW_TAG_pointer_type
    3443                      .dwattr $C$DW$T$56, DW_AT_type(*$C$DW$T$10)
    3444                      .dwattr $C$DW$T$56, DW_AT_address_class(0x16)
    3445              $C$DW$T$11      .dwtag  DW_TAG_base_type
    3446                      .dwattr $C$DW$T$11, DW_AT_encoding(DW_ATE_unsigned)
    3447                      .dwattr $C$DW$T$11, DW_AT_name("unsigned int")
    3448                      .dwattr $C$DW$T$11, DW_AT_byte_size(0x01)
    3449              $C$DW$T$12      .dwtag  DW_TAG_base_type
    3450                      .dwattr $C$DW$T$12, DW_AT_encoding(DW_ATE_signed)
    3451                      .dwattr $C$DW$T$12, DW_AT_name("long")
    3452                      .dwattr $C$DW$T$12, DW_AT_byte_size(0x02)
    3453              $C$DW$T$58      .dwtag  DW_TAG_typedef, DW_AT_name("int32_t")
    3454                      .dwattr $C$DW$T$58, DW_AT_type(*$C$DW$T$12)
    3455                      .dwattr $C$DW$T$58, DW_AT_language(DW_LANG_C)
    3456              $C$DW$T$13      .dwtag  DW_TAG_base_type
    3457                      .dwattr $C$DW$T$13, DW_AT_encoding(DW_ATE_unsigned)
    3458                      .dwattr $C$DW$T$13, DW_AT_name("unsigned long")
    3459                      .dwattr $C$DW$T$13, DW_AT_byte_size(0x02)
TMS320C2000 Assembler PC v6.2.9 Tue Jun 09 22:29:21 2015

Tools Copyright (c) 1996-2014 Texas Instruments Incorporated
C:\Users\a0272466\AppData\Local\Temp\0538410                         PAGE   65

    3460              $C$DW$T$21      .dwtag  DW_TAG_typedef, DW_AT_name("uint32_t")
    3461                      .dwattr $C$DW$T$21, DW_AT_type(*$C$DW$T$13)
    3462                      .dwattr $C$DW$T$21, DW_AT_language(DW_LANG_C)
    3463              $C$DW$T$47      .dwtag  DW_TAG_pointer_type
    3464                      .dwattr $C$DW$T$47, DW_AT_type(*$C$DW$T$21)
    3465                      .dwattr $C$DW$T$47, DW_AT_address_class(0x16)
    3466              $C$DW$T$14      .dwtag  DW_TAG_base_type
    3467                      .dwattr $C$DW$T$14, DW_AT_encoding(DW_ATE_signed)
    3468                      .dwattr $C$DW$T$14, DW_AT_name("long long")
    3469                      .dwattr $C$DW$T$14, DW_AT_byte_size(0x04)
    3470              $C$DW$T$15      .dwtag  DW_TAG_base_type
    3471                      .dwattr $C$DW$T$15, DW_AT_encoding(DW_ATE_unsigned)
    3472                      .dwattr $C$DW$T$15, DW_AT_name("unsigned long long")
    3473                      .dwattr $C$DW$T$15, DW_AT_byte_size(0x04)
    3474              $C$DW$T$16      .dwtag  DW_TAG_base_type
    3475                      .dwattr $C$DW$T$16, DW_AT_encoding(DW_ATE_float)
    3476                      .dwattr $C$DW$T$16, DW_AT_name("float")
    3477                      .dwattr $C$DW$T$16, DW_AT_byte_size(0x02)
    3478              $C$DW$T$17      .dwtag  DW_TAG_base_type
    3479                      .dwattr $C$DW$T$17, DW_AT_encoding(DW_ATE_float)
    3480                      .dwattr $C$DW$T$17, DW_AT_name("double")
    3481                      .dwattr $C$DW$T$17, DW_AT_byte_size(0x02)
    3482              $C$DW$T$18      .dwtag  DW_TAG_base_type
    3483                      .dwattr $C$DW$T$18, DW_AT_encoding(DW_ATE_float)
    3484                      .dwattr $C$DW$T$18, DW_AT_name("long double")
    3485                      .dwattr $C$DW$T$18, DW_AT_byte_size(0x04)
    3486              $C$DW$T$60      .dwtag  DW_TAG_base_type
    3487                      .dwattr $C$DW$T$60, DW_AT_encoding(DW_ATE_unsigned_char)
    3488                      .dwattr $C$DW$T$60, DW_AT_name("unsigned char")
    3489                      .dwattr $C$DW$T$60, DW_AT_byte_size(0x01)
    3490                      .dwattr $C$DW$CU, DW_AT_language(DW_LANG_C)
    3491              
    3492              ;***************************************************************
    3493              ;* DWARF CIE ENTRIES                                           *
    3494              ;***************************************************************
    3495              
    3496              $C$DW$CIE       .dwcie 78
    3497                      .dwcfi  cfa_register, 20
    3498                      .dwcfi  cfa_offset, 0
    3499                      .dwcfi  undefined, 0
    3500                      .dwcfi  undefined, 1
    3501                      .dwcfi  undefined, 2
    3502                      .dwcfi  undefined, 3
    3503                      .dwcfi  undefined, 20
    3504                      .dwcfi  undefined, 21
    3505                      .dwcfi  undefined, 22
    3506                      .dwcfi  undefined, 23
    3507                      .dwcfi  undefined, 24
    3508                      .dwcfi  undefined, 25
    3509                      .dwcfi  undefined, 26
    3510                      .dwcfi  same_value, 28
    3511                      .dwcfi  undefined, 29
    3512                      .dwcfi  undefined, 30
    3513                      .dwcfi  undefined, 31
    3514                      .dwcfi  undefined, 32
TMS320C2000 Assembler PC v6.2.9 Tue Jun 09 22:29:21 2015

Tools Copyright (c) 1996-2014 Texas Instruments Incorporated
C:\Users\a0272466\AppData\Local\Temp\0538410                         PAGE   66

    3515                      .dwcfi  undefined, 33
    3516                      .dwcfi  undefined, 34
    3517                      .dwcfi  undefined, 35
    3518                      .dwcfi  undefined, 36
    3519                      .dwcfi  undefined, 37
    3520                      .dwcfi  undefined, 38
    3521                      .dwcfi  undefined, 75
    3522                      .dwcfi  undefined, 76
    3523                      .dwcfi  undefined, 77
    3524                      .dwcfi  undefined, 4
    3525                      .dwcfi  same_value, 6
    3526                      .dwcfi  same_value, 8
    3527                      .dwcfi  same_value, 10
    3528                      .dwcfi  undefined, 12
    3529                      .dwcfi  undefined, 14
    3530                      .dwcfi  undefined, 16
    3531                      .dwcfi  undefined, 17
    3532                      .dwcfi  undefined, 18
    3533                      .dwcfi  undefined, 19
    3534                      .dwcfi  undefined, 5
    3535                      .dwcfi  same_value, 7
    3536                      .dwcfi  same_value, 9
    3537                      .dwcfi  same_value, 11
    3538                      .dwcfi  undefined, 13
    3539                      .dwcfi  undefined, 15
    3540                      .dwcfi  undefined, 43
    3541                      .dwcfi  undefined, 44
    3542                      .dwcfi  undefined, 47
    3543                      .dwcfi  undefined, 48
    3544                      .dwcfi  undefined, 51
    3545                      .dwcfi  undefined, 52
    3546                      .dwcfi  undefined, 55
    3547                      .dwcfi  undefined, 56
    3548                      .dwcfi  same_value, 59
    3549                      .dwcfi  same_value, 60
    3550                      .dwcfi  same_value, 63
    3551                      .dwcfi  same_value, 64
    3552                      .dwcfi  same_value, 67
    3553                      .dwcfi  same_value, 68
    3554                      .dwcfi  same_value, 71
    3555                      .dwcfi  same_value, 72
    3556                      .dwcfi  undefined, 73
    3557                      .dwcfi  undefined, 74
    3558                      .dwcfi  undefined, 39
    3559                      .dwcfi  undefined, 40
    3560                      .dwcfi  undefined, 27
    3561                      .dwcfi  undefined, 78
    3562                      .dwendentry
    3563              
    3564              ;***************************************************************
    3565              ;* DWARF REGISTER MAP                                          *
    3566              ;***************************************************************
    3567              
    3568              $C$DW$278       .dwtag  DW_TAG_TI_assign_register, DW_AT_name("AL")
    3569                      .dwattr $C$DW$278, DW_AT_location[DW_OP_reg0]
TMS320C2000 Assembler PC v6.2.9 Tue Jun 09 22:29:21 2015

Tools Copyright (c) 1996-2014 Texas Instruments Incorporated
C:\Users\a0272466\AppData\Local\Temp\0538410                         PAGE   67

    3570              $C$DW$279       .dwtag  DW_TAG_TI_assign_register, DW_AT_name("AH")
    3571                      .dwattr $C$DW$279, DW_AT_location[DW_OP_reg1]
    3572              $C$DW$280       .dwtag  DW_TAG_TI_assign_register, DW_AT_name("PL")
    3573                      .dwattr $C$DW$280, DW_AT_location[DW_OP_reg2]
    3574              $C$DW$281       .dwtag  DW_TAG_TI_assign_register, DW_AT_name("PH")
    3575                      .dwattr $C$DW$281, DW_AT_location[DW_OP_reg3]
    3576              $C$DW$282       .dwtag  DW_TAG_TI_assign_register, DW_AT_name("SP")
    3577                      .dwattr $C$DW$282, DW_AT_location[DW_OP_reg20]
    3578              $C$DW$283       .dwtag  DW_TAG_TI_assign_register, DW_AT_name("XT")
    3579                      .dwattr $C$DW$283, DW_AT_location[DW_OP_reg21]
    3580              $C$DW$284       .dwtag  DW_TAG_TI_assign_register, DW_AT_name("T")
    3581                      .dwattr $C$DW$284, DW_AT_location[DW_OP_reg22]
    3582              $C$DW$285       .dwtag  DW_TAG_TI_assign_register, DW_AT_name("ST0")
    3583                      .dwattr $C$DW$285, DW_AT_location[DW_OP_reg23]
    3584              $C$DW$286       .dwtag  DW_TAG_TI_assign_register, DW_AT_name("ST1")
    3585                      .dwattr $C$DW$286, DW_AT_location[DW_OP_reg24]
    3586              $C$DW$287       .dwtag  DW_TAG_TI_assign_register, DW_AT_name("PC")
    3587                      .dwattr $C$DW$287, DW_AT_location[DW_OP_reg25]
    3588              $C$DW$288       .dwtag  DW_TAG_TI_assign_register, DW_AT_name("RPC")
    3589                      .dwattr $C$DW$288, DW_AT_location[DW_OP_reg26]
    3590              $C$DW$289       .dwtag  DW_TAG_TI_assign_register, DW_AT_name("FP")
    3591                      .dwattr $C$DW$289, DW_AT_location[DW_OP_reg28]
    3592              $C$DW$290       .dwtag  DW_TAG_TI_assign_register, DW_AT_name("DP")
    3593                      .dwattr $C$DW$290, DW_AT_location[DW_OP_reg29]
    3594              $C$DW$291       .dwtag  DW_TAG_TI_assign_register, DW_AT_name("SXM")
    3595                      .dwattr $C$DW$291, DW_AT_location[DW_OP_reg30]
    3596              $C$DW$292       .dwtag  DW_TAG_TI_assign_register, DW_AT_name("PM")
    3597                      .dwattr $C$DW$292, DW_AT_location[DW_OP_reg31]
    3598              $C$DW$293       .dwtag  DW_TAG_TI_assign_register, DW_AT_name("OVM")
    3599                      .dwattr $C$DW$293, DW_AT_location[DW_OP_regx 0x20]
    3600              $C$DW$294       .dwtag  DW_TAG_TI_assign_register, DW_AT_name("PAGE0")
    3601                      .dwattr $C$DW$294, DW_AT_location[DW_OP_regx 0x21]
    3602              $C$DW$295       .dwtag  DW_TAG_TI_assign_register, DW_AT_name("AMODE")
    3603                      .dwattr $C$DW$295, DW_AT_location[DW_OP_regx 0x22]
    3604              $C$DW$296       .dwtag  DW_TAG_TI_assign_register, DW_AT_name("INTM")
    3605                      .dwattr $C$DW$296, DW_AT_location[DW_OP_regx 0x23]
    3606              $C$DW$297       .dwtag  DW_TAG_TI_assign_register, DW_AT_name("IFR")
    3607                      .dwattr $C$DW$297, DW_AT_location[DW_OP_regx 0x24]
    3608              $C$DW$298       .dwtag  DW_TAG_TI_assign_register, DW_AT_name("IER")
    3609                      .dwattr $C$DW$298, DW_AT_location[DW_OP_regx 0x25]
    3610              $C$DW$299       .dwtag  DW_TAG_TI_assign_register, DW_AT_name("V")
    3611                      .dwattr $C$DW$299, DW_AT_location[DW_OP_regx 0x26]
    3612              $C$DW$300       .dwtag  DW_TAG_TI_assign_register, DW_AT_name("PSEUDOH")
    3613                      .dwattr $C$DW$300, DW_AT_location[DW_OP_regx 0x4c]
    3614              $C$DW$301       .dwtag  DW_TAG_TI_assign_register, DW_AT_name("VOL")
    3615                      .dwattr $C$DW$301, DW_AT_location[DW_OP_regx 0x4d]
    3616              $C$DW$302       .dwtag  DW_TAG_TI_assign_register, DW_AT_name("AR0")
    3617                      .dwattr $C$DW$302, DW_AT_location[DW_OP_reg4]
    3618              $C$DW$303       .dwtag  DW_TAG_TI_assign_register, DW_AT_name("AR1")
    3619                      .dwattr $C$DW$303, DW_AT_location[DW_OP_reg6]
    3620              $C$DW$304       .dwtag  DW_TAG_TI_assign_register, DW_AT_name("AR2")
    3621                      .dwattr $C$DW$304, DW_AT_location[DW_OP_reg8]
    3622              $C$DW$305       .dwtag  DW_TAG_TI_assign_register, DW_AT_name("AR3")
    3623                      .dwattr $C$DW$305, DW_AT_location[DW_OP_reg10]
    3624              $C$DW$306       .dwtag  DW_TAG_TI_assign_register, DW_AT_name("AR4")
TMS320C2000 Assembler PC v6.2.9 Tue Jun 09 22:29:21 2015

Tools Copyright (c) 1996-2014 Texas Instruments Incorporated
C:\Users\a0272466\AppData\Local\Temp\0538410                         PAGE   68

    3625                      .dwattr $C$DW$306, DW_AT_location[DW_OP_reg12]
    3626              $C$DW$307       .dwtag  DW_TAG_TI_assign_register, DW_AT_name("AR5")
    3627                      .dwattr $C$DW$307, DW_AT_location[DW_OP_reg14]
    3628              $C$DW$308       .dwtag  DW_TAG_TI_assign_register, DW_AT_name("AR6")
    3629                      .dwattr $C$DW$308, DW_AT_location[DW_OP_reg16]
    3630              $C$DW$309       .dwtag  DW_TAG_TI_assign_register, DW_AT_name("XAR6")
    3631                      .dwattr $C$DW$309, DW_AT_location[DW_OP_reg17]
    3632              $C$DW$310       .dwtag  DW_TAG_TI_assign_register, DW_AT_name("AR7")
    3633                      .dwattr $C$DW$310, DW_AT_location[DW_OP_reg18]
    3634              $C$DW$311       .dwtag  DW_TAG_TI_assign_register, DW_AT_name("XAR7")
    3635                      .dwattr $C$DW$311, DW_AT_location[DW_OP_reg19]
    3636              $C$DW$312       .dwtag  DW_TAG_TI_assign_register, DW_AT_name("XAR0")
    3637                      .dwattr $C$DW$312, DW_AT_location[DW_OP_reg5]
    3638              $C$DW$313       .dwtag  DW_TAG_TI_assign_register, DW_AT_name("XAR1")
    3639                      .dwattr $C$DW$313, DW_AT_location[DW_OP_reg7]
    3640              $C$DW$314       .dwtag  DW_TAG_TI_assign_register, DW_AT_name("XAR2")
    3641                      .dwattr $C$DW$314, DW_AT_location[DW_OP_reg9]
    3642              $C$DW$315       .dwtag  DW_TAG_TI_assign_register, DW_AT_name("XAR3")
    3643                      .dwattr $C$DW$315, DW_AT_location[DW_OP_reg11]
    3644              $C$DW$316       .dwtag  DW_TAG_TI_assign_register, DW_AT_name("XAR4")
    3645                      .dwattr $C$DW$316, DW_AT_location[DW_OP_reg13]
    3646              $C$DW$317       .dwtag  DW_TAG_TI_assign_register, DW_AT_name("XAR5")
    3647                      .dwattr $C$DW$317, DW_AT_location[DW_OP_reg15]
    3648              $C$DW$318       .dwtag  DW_TAG_TI_assign_register, DW_AT_name("R0HL")
    3649                      .dwattr $C$DW$318, DW_AT_location[DW_OP_regx 0x2b]
    3650              $C$DW$319       .dwtag  DW_TAG_TI_assign_register, DW_AT_name("R0H")
    3651                      .dwattr $C$DW$319, DW_AT_location[DW_OP_regx 0x2c]
    3652              $C$DW$320       .dwtag  DW_TAG_TI_assign_register, DW_AT_name("R1HL")
    3653                      .dwattr $C$DW$320, DW_AT_location[DW_OP_regx 0x2f]
    3654              $C$DW$321       .dwtag  DW_TAG_TI_assign_register, DW_AT_name("R1H")
    3655                      .dwattr $C$DW$321, DW_AT_location[DW_OP_regx 0x30]
    3656              $C$DW$322       .dwtag  DW_TAG_TI_assign_register, DW_AT_name("R2HL")
    3657                      .dwattr $C$DW$322, DW_AT_location[DW_OP_regx 0x33]
    3658              $C$DW$323       .dwtag  DW_TAG_TI_assign_register, DW_AT_name("R2H")
    3659                      .dwattr $C$DW$323, DW_AT_location[DW_OP_regx 0x34]
    3660              $C$DW$324       .dwtag  DW_TAG_TI_assign_register, DW_AT_name("R3HL")
    3661                      .dwattr $C$DW$324, DW_AT_location[DW_OP_regx 0x37]
    3662              $C$DW$325       .dwtag  DW_TAG_TI_assign_register, DW_AT_name("R3H")
    3663                      .dwattr $C$DW$325, DW_AT_location[DW_OP_regx 0x38]
    3664              $C$DW$326       .dwtag  DW_TAG_TI_assign_register, DW_AT_name("R4HL")
    3665                      .dwattr $C$DW$326, DW_AT_location[DW_OP_regx 0x3b]
    3666              $C$DW$327       .dwtag  DW_TAG_TI_assign_register, DW_AT_name("R4H")
    3667                      .dwattr $C$DW$327, DW_AT_location[DW_OP_regx 0x3c]
    3668              $C$DW$328       .dwtag  DW_TAG_TI_assign_register, DW_AT_name("R5HL")
    3669                      .dwattr $C$DW$328, DW_AT_location[DW_OP_regx 0x3f]
    3670              $C$DW$329       .dwtag  DW_TAG_TI_assign_register, DW_AT_name("R5H")
    3671                      .dwattr $C$DW$329, DW_AT_location[DW_OP_regx 0x40]
    3672              $C$DW$330       .dwtag  DW_TAG_TI_assign_register, DW_AT_name("R6HL")
    3673                      .dwattr $C$DW$330, DW_AT_location[DW_OP_regx 0x43]
    3674              $C$DW$331       .dwtag  DW_TAG_TI_assign_register, DW_AT_name("R6H")
    3675                      .dwattr $C$DW$331, DW_AT_location[DW_OP_regx 0x44]
    3676              $C$DW$332       .dwtag  DW_TAG_TI_assign_register, DW_AT_name("R7HL")
    3677                      .dwattr $C$DW$332, DW_AT_location[DW_OP_regx 0x47]
    3678              $C$DW$333       .dwtag  DW_TAG_TI_assign_register, DW_AT_name("R7H")
    3679                      .dwattr $C$DW$333, DW_AT_location[DW_OP_regx 0x48]
TMS320C2000 Assembler PC v6.2.9 Tue Jun 09 22:29:21 2015

Tools Copyright (c) 1996-2014 Texas Instruments Incorporated
C:\Users\a0272466\AppData\Local\Temp\0538410                         PAGE   69

    3680              $C$DW$334       .dwtag  DW_TAG_TI_assign_register, DW_AT_name("RBL")
    3681                      .dwattr $C$DW$334, DW_AT_location[DW_OP_regx 0x49]
    3682              $C$DW$335       .dwtag  DW_TAG_TI_assign_register, DW_AT_name("RB")
    3683                      .dwattr $C$DW$335, DW_AT_location[DW_OP_regx 0x4a]
    3684              $C$DW$336       .dwtag  DW_TAG_TI_assign_register, DW_AT_name("STFL")
    3685                      .dwattr $C$DW$336, DW_AT_location[DW_OP_regx 0x27]
    3686              $C$DW$337       .dwtag  DW_TAG_TI_assign_register, DW_AT_name("STF")
    3687                      .dwattr $C$DW$337, DW_AT_location[DW_OP_regx 0x28]
    3688              $C$DW$338       .dwtag  DW_TAG_TI_assign_register, DW_AT_name("FPUHAZ")
    3689                      .dwattr $C$DW$338, DW_AT_location[DW_OP_reg27]
    3690              $C$DW$339       .dwtag  DW_TAG_TI_assign_register, DW_AT_name("CIE_RETA")
    3691                      .dwattr $C$DW$339, DW_AT_location[DW_OP_regx 0x4e]
    3692                      .dwendtag $C$DW$CU
    3693              

No Assembly Errors, No Assembly Warnings
