TMS320C2000 Assembler PC v6.4.4 Tue Feb 14 14:43:16 2017

Tools Copyright (c) 1996-2015 Texas Instruments Incorporated
C:\Users\a0221343\AppData\Local\Temp\0924410                         PAGE    1

       1              ;***************************************************************
       2              ;* TMS320C2000 C/C++ Codegen                         PC v6.4.4 *
       3              ;* Date/Time created: Tue Feb 14 14:43:16 2017                 *
       4              ;***************************************************************
       5                      .compiler_opts --cla_support=cla0 --float_support=fpu32 --hll_source=on --mem_model:code=flat --mem_m
       6        0002  FP      .set    XAR2
       7              
       8              $C$DW$CU        .dwtag  DW_TAG_compile_unit
       9                      .dwattr $C$DW$CU, DW_AT_name("C:/Users/a0221343/Git/bootROM/f28004x_bootrom/F28004x_ROM_dev_PG2.0/F28
      10                      .dwattr $C$DW$CU, DW_AT_producer("TI TMS320C2000 C/C++ Codegen PC v6.4.4 Copyright (c) 1996-2015 Texa
      11                      .dwattr $C$DW$CU, DW_AT_TI_version(0x01)
      12                      .dwattr $C$DW$CU, DW_AT_comp_dir("C:\Users\a0221343\Git\bootROM\f28004x_bootrom\F28004x_ROM_dev_PG2.0
      13              
      14              $C$DW$1 .dwtag  DW_TAG_subprogram, DW_AT_name("Interrupt_disable")
      15                      .dwattr $C$DW$1, DW_AT_TI_symbol_name("_Interrupt_disable")
      16                      .dwattr $C$DW$1, DW_AT_declaration
      17                      .dwattr $C$DW$1, DW_AT_external
      18              $C$DW$2 .dwtag  DW_TAG_formal_parameter
      19                      .dwattr $C$DW$2, DW_AT_type(*$C$DW$T$29)
      20                      .dwendtag $C$DW$1
      21              
      22              
      23              $C$DW$3 .dwtag  DW_TAG_subprogram, DW_AT_name("Interrupt_enable")
      24                      .dwattr $C$DW$3, DW_AT_TI_symbol_name("_Interrupt_enable")
      25                      .dwattr $C$DW$3, DW_AT_declaration
      26                      .dwattr $C$DW$3, DW_AT_external
      27              $C$DW$4 .dwtag  DW_TAG_formal_parameter
      28                      .dwattr $C$DW$4, DW_AT_type(*$C$DW$T$29)
      29                      .dwendtag $C$DW$3
      30              
      31              ;       C:\ti\ccsv6\tools\compiler\ti-cgt-c2000_6.4.4\bin\ac2000.exe -@C:\\Users\\a0221343\\AppData\\Local\\T
      32 00000000               .sect   ".text:_Interrupt_defaultHandler"
      33                      .clink
      34              
      35              $C$DW$5 .dwtag  DW_TAG_subprogram, DW_AT_name("Interrupt_defaultHandler")
      36                      .dwattr $C$DW$5, DW_AT_low_pc(_Interrupt_defaultHandler)
      37                      .dwattr $C$DW$5, DW_AT_high_pc(0x00)
      38                      .dwattr $C$DW$5, DW_AT_TI_symbol_name("_Interrupt_defaultHandler")
      39                      .dwattr $C$DW$5, DW_AT_TI_begin_file("C:\Users\a0221343\Git\bootROM\f28004x_bootrom\F28004x_ROM_dev_P
      40                      .dwattr $C$DW$5, DW_AT_TI_begin_line(0x69)
      41                      .dwattr $C$DW$5, DW_AT_TI_begin_column(0x0d)
      42                      .dwattr $C$DW$5, DW_AT_TI_max_frame_size(-4)
      43                      .dwpsn  file "C:\Users\a0221343\Git\bootROM\f28004x_bootrom\F28004x_ROM_dev_PG2.0\F28004x_ROM\driverl
      44              
      45                      .dwfde $C$DW$CIE, _Interrupt_defaultHandler
      46              
      47              ;***************************************************************
      48              ;* FNAME: _Interrupt_defaultHandler     FR SIZE:   2           *
      49              ;*                                                             *
      50              ;* FUNCTION ENVIRONMENT                                        *
      51              ;*                                                             *
      52              ;* FUNCTION PROPERTIES                                         *
      53              ;*                            0 Parameter,  1 Auto,  0 SOE     *
      54              ;***************************************************************
      55              
TMS320C2000 Assembler PC v6.4.4 Tue Feb 14 14:43:16 2017

Tools Copyright (c) 1996-2015 Texas Instruments Incorporated
C:\Users\a0221343\AppData\Local\Temp\0924410                         PAGE    2

      56 00000000       _Interrupt_defaultHandler:
      57                      .dwcfi  cfa_offset, -2
      58                      .dwcfi  save_reg_to_mem, 26, 0
      59 00000000 FE02          ADDB      SP,#2                 ; [CPU_U] 
      60                      .dwcfi  cfa_offset, -4
      61              $C$DW$6 .dwtag  DW_TAG_variable, DW_AT_name("vectID")
      62                      .dwattr $C$DW$6, DW_AT_TI_symbol_name("_vectID")
      63                      .dwattr $C$DW$6, DW_AT_type(*$C$DW$T$38)
      64                      .dwattr $C$DW$6, DW_AT_location[DW_OP_breg20 -1]
      65                      .dwpsn  file "C:\Users\a0221343\Git\bootROM\f28004x_bootrom\F28004x_ROM_dev_PG2.0\F28004x_ROM\driverl
      66 00000001 F5A9          MOV       AL,*(0:0x0ce0)        ; [CPU_] |111| 
         00000002 0CE0 
      67 00000003 90FE          ANDB      AL,#0xfe              ; [CPU_] |111| 
      68 00000004 FFC0          LSR       AL,1                  ; [CPU_] |111| 
      69 00000005 9641          MOV       *-SP[1],AL            ; [CPU_] |111| 
      70                      .dwpsn  file "C:\Users\a0221343\Git\bootROM\f28004x_bootrom\F28004x_ROM_dev_PG2.0\F28004x_ROM\driverl
      71                      .dwpsn  file "C:\Users\a0221343\Git\bootROM\f28004x_bootrom\F28004x_ROM_dev_PG2.0\F28004x_ROM\driverl
      72 00000006 7625   ESTOP0
      73 00000007       $C$L1:    
      74                      .dwpsn  file "C:\Users\a0221343\Git\bootROM\f28004x_bootrom\F28004x_ROM_dev_PG2.0\F28004x_ROM\driverl
      75 00000007 6F00          B         $C$L1,UNC             ; [CPU_] |120| 
      76                      ; branch occurs ; [] |120| 
      77                      .dwattr $C$DW$5, DW_AT_TI_end_file("C:\Users\a0221343\Git\bootROM\f28004x_bootrom\F28004x_ROM_dev_PG2
      78                      .dwattr $C$DW$5, DW_AT_TI_end_line(0x79)
      79                      .dwattr $C$DW$5, DW_AT_TI_end_column(0x01)
      80                      .dwendentry
      81                      .dwendtag $C$DW$5
      82              
      83 00000000               .sect   ".text:_Interrupt_register"
      84                      .clink
      85              
      86              $C$DW$7 .dwtag  DW_TAG_subprogram, DW_AT_name("Interrupt_register")
      87                      .dwattr $C$DW$7, DW_AT_low_pc(_Interrupt_register)
      88                      .dwattr $C$DW$7, DW_AT_high_pc(0x00)
      89                      .dwattr $C$DW$7, DW_AT_TI_symbol_name("_Interrupt_register")
      90                      .dwattr $C$DW$7, DW_AT_TI_begin_file("C:\Users\a0221343\Git\bootROM\f28004x_bootrom\F28004x_ROM_dev_P
      91                      .dwattr $C$DW$7, DW_AT_TI_begin_line(0xe6)
      92                      .dwattr $C$DW$7, DW_AT_TI_begin_column(0x01)
      93                      .dwattr $C$DW$7, DW_AT_TI_max_frame_size(-6)
      94                      .dwpsn  file "C:\Users\a0221343\Git\bootROM\f28004x_bootrom\F28004x_ROM_dev_PG2.0\F28004x_ROM\driverl
      95              
      96                      .dwfde $C$DW$CIE, _Interrupt_register
      97              $C$DW$8 .dwtag  DW_TAG_formal_parameter, DW_AT_name("interruptNumber")
      98                      .dwattr $C$DW$8, DW_AT_TI_symbol_name("_interruptNumber")
      99                      .dwattr $C$DW$8, DW_AT_type(*$C$DW$T$29)
     100                      .dwattr $C$DW$8, DW_AT_location[DW_OP_reg0]
     101              $C$DW$9 .dwtag  DW_TAG_formal_parameter, DW_AT_name("handler")
     102                      .dwattr $C$DW$9, DW_AT_TI_symbol_name("_handler")
     103                      .dwattr $C$DW$9, DW_AT_type(*$C$DW$T$28)
     104                      .dwattr $C$DW$9, DW_AT_location[DW_OP_reg12]
     105              
     106              ;***************************************************************
     107              ;* FNAME: _Interrupt_register           FR SIZE:   4           *
     108              ;*                                                             *
     109              ;* FUNCTION ENVIRONMENT                                        *
TMS320C2000 Assembler PC v6.4.4 Tue Feb 14 14:43:16 2017

Tools Copyright (c) 1996-2015 Texas Instruments Incorporated
C:\Users\a0221343\AppData\Local\Temp\0924410                         PAGE    3

     110              ;*                                                             *
     111              ;* FUNCTION PROPERTIES                                         *
     112              ;*                            0 Parameter,  4 Auto,  0 SOE     *
     113              ;***************************************************************
     114              
     115 00000000       _Interrupt_register:
     116                      .dwcfi  cfa_offset, -2
     117                      .dwcfi  save_reg_to_mem, 26, 0
     118 00000000 FE04          ADDB      SP,#4                 ; [CPU_U] 
     119                      .dwcfi  cfa_offset, -6
     120              $C$DW$10        .dwtag  DW_TAG_variable, DW_AT_name("interruptNumber")
     121                      .dwattr $C$DW$10, DW_AT_TI_symbol_name("_interruptNumber")
     122                      .dwattr $C$DW$10, DW_AT_type(*$C$DW$T$29)
     123                      .dwattr $C$DW$10, DW_AT_location[DW_OP_breg20 -2]
     124              $C$DW$11        .dwtag  DW_TAG_variable, DW_AT_name("handler")
     125                      .dwattr $C$DW$11, DW_AT_TI_symbol_name("_handler")
     126                      .dwattr $C$DW$11, DW_AT_type(*$C$DW$T$28)
     127                      .dwattr $C$DW$11, DW_AT_location[DW_OP_breg20 -4]
     128 00000001 A844          MOVL      *-SP[4],XAR4          ; [CPU_] |231| 
     129 00000002 1E42          MOVL      *-SP[2],ACC           ; [CPU_] |231| 
     130                      .dwpsn  file "C:\Users\a0221343\Git\bootROM\f28004x_bootrom\F28004x_ROM_dev_PG2.0\F28004x_ROM\driverl
     131 00000003 7622   EALLOW
     132                      .dwpsn  file "C:\Users\a0221343\Git\bootROM\f28004x_bootrom\F28004x_ROM_dev_PG2.0\F28004x_ROM\driverl
     133 00000004 0EA8          MOVU      ACC,AH                ; [CPU_] |234| 
     134 00000005 C444          MOVL      XAR6,*-SP[4]          ; [CPU_] |234| 
     135 00000006 FF30          LSL       ACC,1                 ; [CPU_] |234| 
     136 00000007 FF18          ADD       ACC,#13 << 8          ; [CPU_] |234| 
         00000008 000D 
     137 00000009 8AA9          MOVL      XAR4,ACC              ; [CPU_] |234| 
     138 0000000a C2C4          MOVL      *+XAR4[0],XAR6        ; [CPU_] |234| 
     139                      .dwpsn  file "C:\Users\a0221343\Git\bootROM\f28004x_bootrom\F28004x_ROM_dev_PG2.0\F28004x_ROM\driverl
     140 0000000b 761A   EDIS
     141                      .dwpsn  file "C:\Users\a0221343\Git\bootROM\f28004x_bootrom\F28004x_ROM_dev_PG2.0\F28004x_ROM\driverl
     142 0000000c FF69          SPM       #0                    ; [CPU_] 
     143 0000000d FE84          SUBB      SP,#4                 ; [CPU_U] 
     144                      .dwcfi  cfa_offset, -2
     145              $C$DW$12        .dwtag  DW_TAG_TI_branch
     146                      .dwattr $C$DW$12, DW_AT_low_pc(0x00)
     147                      .dwattr $C$DW$12, DW_AT_TI_return
     148 0000000e 0006          LRETR     ; [CPU_] 
     149                      ; return occurs ; [] 
     150                      .dwattr $C$DW$7, DW_AT_TI_end_file("C:\Users\a0221343\Git\bootROM\f28004x_bootrom\F28004x_ROM_dev_PG2
     151                      .dwattr $C$DW$7, DW_AT_TI_end_line(0xed)
     152                      .dwattr $C$DW$7, DW_AT_TI_end_column(0x01)
     153                      .dwendentry
     154                      .dwendtag $C$DW$7
     155              
     156 00000000               .sect   ".text:_Interrupt_unregister"
     157                      .clink
     158              
     159              $C$DW$13        .dwtag  DW_TAG_subprogram, DW_AT_name("Interrupt_unregister")
     160                      .dwattr $C$DW$13, DW_AT_low_pc(_Interrupt_unregister)
     161                      .dwattr $C$DW$13, DW_AT_high_pc(0x00)
     162                      .dwattr $C$DW$13, DW_AT_TI_symbol_name("_Interrupt_unregister")
     163                      .dwattr $C$DW$13, DW_AT_TI_begin_file("C:\Users\a0221343\Git\bootROM\f28004x_bootrom\F28004x_ROM_dev_
TMS320C2000 Assembler PC v6.4.4 Tue Feb 14 14:43:16 2017

Tools Copyright (c) 1996-2015 Texas Instruments Incorporated
C:\Users\a0221343\AppData\Local\Temp\0924410                         PAGE    4

     164                      .dwattr $C$DW$13, DW_AT_TI_begin_line(0x104)
     165                      .dwattr $C$DW$13, DW_AT_TI_begin_column(0x01)
     166                      .dwattr $C$DW$13, DW_AT_TI_max_frame_size(-4)
     167                      .dwpsn  file "C:\Users\a0221343\Git\bootROM\f28004x_bootrom\F28004x_ROM_dev_PG2.0\F28004x_ROM\driverl
     168              
     169                      .dwfde $C$DW$CIE, _Interrupt_unregister
     170              $C$DW$14        .dwtag  DW_TAG_formal_parameter, DW_AT_name("interruptNumber")
     171                      .dwattr $C$DW$14, DW_AT_TI_symbol_name("_interruptNumber")
     172                      .dwattr $C$DW$14, DW_AT_type(*$C$DW$T$29)
     173                      .dwattr $C$DW$14, DW_AT_location[DW_OP_reg0]
     174              
     175              ;***************************************************************
     176              ;* FNAME: _Interrupt_unregister         FR SIZE:   2           *
     177              ;*                                                             *
     178              ;* FUNCTION ENVIRONMENT                                        *
     179              ;*                                                             *
     180              ;* FUNCTION PROPERTIES                                         *
     181              ;*                            0 Parameter,  2 Auto,  0 SOE     *
     182              ;***************************************************************
     183              
     184 00000000       _Interrupt_unregister:
     185                      .dwcfi  cfa_offset, -2
     186                      .dwcfi  save_reg_to_mem, 26, 0
     187 00000000 FE02          ADDB      SP,#2                 ; [CPU_U] 
     188                      .dwcfi  cfa_offset, -4
     189              $C$DW$15        .dwtag  DW_TAG_variable, DW_AT_name("interruptNumber")
     190                      .dwattr $C$DW$15, DW_AT_TI_symbol_name("_interruptNumber")
     191                      .dwattr $C$DW$15, DW_AT_type(*$C$DW$T$29)
     192                      .dwattr $C$DW$15, DW_AT_location[DW_OP_breg20 -2]
     193 00000001 1E42          MOVL      *-SP[2],ACC           ; [CPU_] |261| 
     194                      .dwpsn  file "C:\Users\a0221343\Git\bootROM\f28004x_bootrom\F28004x_ROM_dev_PG2.0\F28004x_ROM\driverl
     195 00000002 7622   EALLOW
     196                      .dwpsn  file "C:\Users\a0221343\Git\bootROM\f28004x_bootrom\F28004x_ROM_dev_PG2.0\F28004x_ROM\driverl
     197 00000003 0EA8          MOVU      ACC,AH                ; [CPU_] |264| 
     198 00000004 FF30          LSL       ACC,1                 ; [CPU_] |264| 
     199 00000005 FF18          ADD       ACC,#13 << 8          ; [CPU_] |264| 
         00000006 000D 
     200 00000007 8AA9          MOVL      XAR4,ACC              ; [CPU_] |264| 
     201 00000008 8F40+         MOVL      XAR5,#_Interrupt_defaultHandler ; [CPU_U] |264| 
         00000009 0000 
     202 0000000a A0C4          MOVL      *+XAR4[0],XAR5        ; [CPU_] |264| 
     203                      .dwpsn  file "C:\Users\a0221343\Git\bootROM\f28004x_bootrom\F28004x_ROM_dev_PG2.0\F28004x_ROM\driverl
     204 0000000b 761A   EDIS
     205                      .dwpsn  file "C:\Users\a0221343\Git\bootROM\f28004x_bootrom\F28004x_ROM_dev_PG2.0\F28004x_ROM\driverl
     206 0000000c FF69          SPM       #0                    ; [CPU_] 
     207 0000000d FE82          SUBB      SP,#2                 ; [CPU_U] 
     208                      .dwcfi  cfa_offset, -2
     209              $C$DW$16        .dwtag  DW_TAG_TI_branch
     210                      .dwattr $C$DW$16, DW_AT_low_pc(0x00)
     211                      .dwattr $C$DW$16, DW_AT_TI_return
     212 0000000e 0006          LRETR     ; [CPU_] 
     213                      ; return occurs ; [] 
     214                      .dwattr $C$DW$13, DW_AT_TI_end_file("C:\Users\a0221343\Git\bootROM\f28004x_bootrom\F28004x_ROM_dev_PG
     215                      .dwattr $C$DW$13, DW_AT_TI_end_line(0x10b)
     216                      .dwattr $C$DW$13, DW_AT_TI_end_column(0x01)
TMS320C2000 Assembler PC v6.4.4 Tue Feb 14 14:43:16 2017

Tools Copyright (c) 1996-2015 Texas Instruments Incorporated
C:\Users\a0221343\AppData\Local\Temp\0924410                         PAGE    5

     217                      .dwendentry
     218                      .dwendtag $C$DW$13
     219              
     220 00000000               .sect   ".text:_SDFM_enableFilter"
     221                      .clink
     222              
     223              $C$DW$17        .dwtag  DW_TAG_subprogram, DW_AT_name("SDFM_enableFilter")
     224                      .dwattr $C$DW$17, DW_AT_low_pc(_SDFM_enableFilter)
     225                      .dwattr $C$DW$17, DW_AT_high_pc(0x00)
     226                      .dwattr $C$DW$17, DW_AT_TI_symbol_name("_SDFM_enableFilter")
     227                      .dwattr $C$DW$17, DW_AT_TI_begin_file("C:\Users\a0221343\Git\bootROM\f28004x_bootrom\F28004x_ROM_dev_
     228                      .dwattr $C$DW$17, DW_AT_TI_begin_line(0x165)
     229                      .dwattr $C$DW$17, DW_AT_TI_begin_column(0x14)
     230                      .dwattr $C$DW$17, DW_AT_TI_max_frame_size(-6)
     231                      .dwpsn  file "C:\Users\a0221343\Git\bootROM\f28004x_bootrom\F28004x_ROM_dev_PG2.0\F28004x_ROM\driverl
     232              
     233                      .dwfde $C$DW$CIE, _SDFM_enableFilter
     234              $C$DW$18        .dwtag  DW_TAG_formal_parameter, DW_AT_name("base")
     235                      .dwattr $C$DW$18, DW_AT_TI_symbol_name("_base")
     236                      .dwattr $C$DW$18, DW_AT_type(*$C$DW$T$29)
     237                      .dwattr $C$DW$18, DW_AT_location[DW_OP_reg0]
     238              $C$DW$19        .dwtag  DW_TAG_formal_parameter, DW_AT_name("filterNumber")
     239                      .dwattr $C$DW$19, DW_AT_TI_symbol_name("_filterNumber")
     240                      .dwattr $C$DW$19, DW_AT_type(*$C$DW$T$20)
     241                      .dwattr $C$DW$19, DW_AT_location[DW_OP_reg12]
     242              
     243              ;***************************************************************
     244              ;* FNAME: _SDFM_enableFilter            FR SIZE:   4           *
     245              ;*                                                             *
     246              ;* FUNCTION ENVIRONMENT                                        *
     247              ;*                                                             *
     248              ;* FUNCTION PROPERTIES                                         *
     249              ;*                            0 Parameter,  3 Auto,  0 SOE     *
     250              ;***************************************************************
     251              
     252 00000000       _SDFM_enableFilter:
     253                      .dwcfi  cfa_offset, -2
     254                      .dwcfi  save_reg_to_mem, 26, 0
     255 00000000 FE04          ADDB      SP,#4                 ; [CPU_U] 
     256                      .dwcfi  cfa_offset, -6
     257              $C$DW$20        .dwtag  DW_TAG_variable, DW_AT_name("base")
     258                      .dwattr $C$DW$20, DW_AT_TI_symbol_name("_base")
     259                      .dwattr $C$DW$20, DW_AT_type(*$C$DW$T$29)
     260                      .dwattr $C$DW$20, DW_AT_location[DW_OP_breg20 -2]
     261              $C$DW$21        .dwtag  DW_TAG_variable, DW_AT_name("filterNumber")
     262                      .dwattr $C$DW$21, DW_AT_TI_symbol_name("_filterNumber")
     263                      .dwattr $C$DW$21, DW_AT_type(*$C$DW$T$20)
     264                      .dwattr $C$DW$21, DW_AT_location[DW_OP_breg20 -3]
     265 00000001 7C43          MOV       *-SP[3],AR4           ; [CPU_] |359| 
     266 00000002 1E42          MOVL      *-SP[2],ACC           ; [CPU_] |359| 
     267                      .dwpsn  file "C:\Users\a0221343\Git\bootROM\f28004x_bootrom\F28004x_ROM_dev_PG2.0\F28004x_ROM\driverl
     268 00000003 7622   EALLOW
     269                      .dwpsn  file "C:\Users\a0221343\Git\bootROM\f28004x_bootrom\F28004x_ROM_dev_PG2.0\F28004x_ROM\driverl
     270 00000004 5603          MOV       ACC,*-SP[3] << #4     ; [CPU_] |363| 
         00000005 0443 
TMS320C2000 Assembler PC v6.4.4 Tue Feb 14 14:43:16 2017

Tools Copyright (c) 1996-2015 Texas Instruments Incorporated
C:\Users\a0221343\AppData\Local\Temp\0924410                         PAGE    6

     271 00000006 0EA9          MOVU      ACC,AL                ; [CPU_] |363| 
     272 00000007 0742          ADDL      ACC,*-SP[2]           ; [CPU_] |363| 
     273 00000008 0911          ADDB      ACC,#17               ; [CPU_] |363| 
     274 00000009 8AA9          MOVL      XAR4,ACC              ; [CPU_] |363| 
     275 0000000a 1AC4          OR        *+XAR4[0],#0x0100     ; [CPU_] |363| 
         0000000b 0100 
     276                      .dwpsn  file "C:\Users\a0221343\Git\bootROM\f28004x_bootrom\F28004x_ROM_dev_PG2.0\F28004x_ROM\driverl
     277 0000000c 761A   EDIS
     278                      .dwpsn  file "C:\Users\a0221343\Git\bootROM\f28004x_bootrom\F28004x_ROM_dev_PG2.0\F28004x_ROM\driverl
     279 0000000d FF69          SPM       #0                    ; [CPU_] 
     280 0000000e FE84          SUBB      SP,#4                 ; [CPU_U] 
     281                      .dwcfi  cfa_offset, -2
     282              $C$DW$22        .dwtag  DW_TAG_TI_branch
     283                      .dwattr $C$DW$22, DW_AT_low_pc(0x00)
     284                      .dwattr $C$DW$22, DW_AT_TI_return
     285 0000000f 0006          LRETR     ; [CPU_] 
     286                      ; return occurs ; [] 
     287                      .dwattr $C$DW$17, DW_AT_TI_end_file("C:\Users\a0221343\Git\bootROM\f28004x_bootrom\F28004x_ROM_dev_PG
     288                      .dwattr $C$DW$17, DW_AT_TI_end_line(0x16e)
     289                      .dwattr $C$DW$17, DW_AT_TI_end_column(0x01)
     290                      .dwendentry
     291                      .dwendtag $C$DW$17
     292              
     293 00000000               .sect   ".text:_SDFM_disableFilter"
     294                      .clink
     295              
     296              $C$DW$23        .dwtag  DW_TAG_subprogram, DW_AT_name("SDFM_disableFilter")
     297                      .dwattr $C$DW$23, DW_AT_low_pc(_SDFM_disableFilter)
     298                      .dwattr $C$DW$23, DW_AT_high_pc(0x00)
     299                      .dwattr $C$DW$23, DW_AT_TI_symbol_name("_SDFM_disableFilter")
     300                      .dwattr $C$DW$23, DW_AT_TI_begin_file("C:\Users\a0221343\Git\bootROM\f28004x_bootrom\F28004x_ROM_dev_
     301                      .dwattr $C$DW$23, DW_AT_TI_begin_line(0x17b)
     302                      .dwattr $C$DW$23, DW_AT_TI_begin_column(0x14)
     303                      .dwattr $C$DW$23, DW_AT_TI_max_frame_size(-6)
     304                      .dwpsn  file "C:\Users\a0221343\Git\bootROM\f28004x_bootrom\F28004x_ROM_dev_PG2.0\F28004x_ROM\driverl
     305              
     306                      .dwfde $C$DW$CIE, _SDFM_disableFilter
     307              $C$DW$24        .dwtag  DW_TAG_formal_parameter, DW_AT_name("base")
     308                      .dwattr $C$DW$24, DW_AT_TI_symbol_name("_base")
     309                      .dwattr $C$DW$24, DW_AT_type(*$C$DW$T$29)
     310                      .dwattr $C$DW$24, DW_AT_location[DW_OP_reg0]
     311              $C$DW$25        .dwtag  DW_TAG_formal_parameter, DW_AT_name("filterNumber")
     312                      .dwattr $C$DW$25, DW_AT_TI_symbol_name("_filterNumber")
     313                      .dwattr $C$DW$25, DW_AT_type(*$C$DW$T$20)
     314                      .dwattr $C$DW$25, DW_AT_location[DW_OP_reg12]
     315              
     316              ;***************************************************************
     317              ;* FNAME: _SDFM_disableFilter           FR SIZE:   4           *
     318              ;*                                                             *
     319              ;* FUNCTION ENVIRONMENT                                        *
     320              ;*                                                             *
     321              ;* FUNCTION PROPERTIES                                         *
     322              ;*                            0 Parameter,  3 Auto,  0 SOE     *
     323              ;***************************************************************
     324              
TMS320C2000 Assembler PC v6.4.4 Tue Feb 14 14:43:16 2017

Tools Copyright (c) 1996-2015 Texas Instruments Incorporated
C:\Users\a0221343\AppData\Local\Temp\0924410                         PAGE    7

     325 00000000       _SDFM_disableFilter:
     326                      .dwcfi  cfa_offset, -2
     327                      .dwcfi  save_reg_to_mem, 26, 0
     328 00000000 FE04          ADDB      SP,#4                 ; [CPU_U] 
     329                      .dwcfi  cfa_offset, -6
     330              $C$DW$26        .dwtag  DW_TAG_variable, DW_AT_name("base")
     331                      .dwattr $C$DW$26, DW_AT_TI_symbol_name("_base")
     332                      .dwattr $C$DW$26, DW_AT_type(*$C$DW$T$29)
     333                      .dwattr $C$DW$26, DW_AT_location[DW_OP_breg20 -2]
     334              $C$DW$27        .dwtag  DW_TAG_variable, DW_AT_name("filterNumber")
     335                      .dwattr $C$DW$27, DW_AT_TI_symbol_name("_filterNumber")
     336                      .dwattr $C$DW$27, DW_AT_type(*$C$DW$T$20)
     337                      .dwattr $C$DW$27, DW_AT_location[DW_OP_breg20 -3]
     338 00000001 7C43          MOV       *-SP[3],AR4           ; [CPU_] |381| 
     339 00000002 1E42          MOVL      *-SP[2],ACC           ; [CPU_] |381| 
     340                      .dwpsn  file "C:\Users\a0221343\Git\bootROM\f28004x_bootrom\F28004x_ROM_dev_PG2.0\F28004x_ROM\driverl
     341 00000003 7622   EALLOW
     342                      .dwpsn  file "C:\Users\a0221343\Git\bootROM\f28004x_bootrom\F28004x_ROM_dev_PG2.0\F28004x_ROM\driverl
     343 00000004 5603          MOV       ACC,*-SP[3] << #4     ; [CPU_] |385| 
         00000005 0443 
     344 00000006 0EA9          MOVU      ACC,AL                ; [CPU_] |385| 
     345 00000007 0742          ADDL      ACC,*-SP[2]           ; [CPU_] |385| 
     346 00000008 0911          ADDB      ACC,#17               ; [CPU_] |385| 
     347 00000009 8AA9          MOVL      XAR4,ACC              ; [CPU_] |385| 
     348 0000000a 18C4          AND       *+XAR4[0],#0xfeff     ; [CPU_] |385| 
         0000000b FEFF 
     349                      .dwpsn  file "C:\Users\a0221343\Git\bootROM\f28004x_bootrom\F28004x_ROM_dev_PG2.0\F28004x_ROM\driverl
     350 0000000c 761A   EDIS
     351                      .dwpsn  file "C:\Users\a0221343\Git\bootROM\f28004x_bootrom\F28004x_ROM_dev_PG2.0\F28004x_ROM\driverl
     352 0000000d FF69          SPM       #0                    ; [CPU_] 
     353 0000000e FE84          SUBB      SP,#4                 ; [CPU_U] 
     354                      .dwcfi  cfa_offset, -2
     355              $C$DW$28        .dwtag  DW_TAG_TI_branch
     356                      .dwattr $C$DW$28, DW_AT_low_pc(0x00)
     357                      .dwattr $C$DW$28, DW_AT_TI_return
     358 0000000f 0006          LRETR     ; [CPU_] 
     359                      ; return occurs ; [] 
     360                      .dwattr $C$DW$23, DW_AT_TI_end_file("C:\Users\a0221343\Git\bootROM\f28004x_bootrom\F28004x_ROM_dev_PG
     361                      .dwattr $C$DW$23, DW_AT_TI_end_line(0x184)
     362                      .dwattr $C$DW$23, DW_AT_TI_end_column(0x01)
     363                      .dwendentry
     364                      .dwendtag $C$DW$23
     365              
     366 00000000               .sect   ".text:_SDFM_enableFIFOBuffer"
     367                      .clink
     368              
     369              $C$DW$29        .dwtag  DW_TAG_subprogram, DW_AT_name("SDFM_enableFIFOBuffer")
     370                      .dwattr $C$DW$29, DW_AT_low_pc(_SDFM_enableFIFOBuffer)
     371                      .dwattr $C$DW$29, DW_AT_high_pc(0x00)
     372                      .dwattr $C$DW$29, DW_AT_TI_symbol_name("_SDFM_enableFIFOBuffer")
     373                      .dwattr $C$DW$29, DW_AT_TI_begin_file("C:\Users\a0221343\Git\bootROM\f28004x_bootrom\F28004x_ROM_dev_
     374                      .dwattr $C$DW$29, DW_AT_TI_begin_line(0x192)
     375                      .dwattr $C$DW$29, DW_AT_TI_begin_column(0x14)
     376                      .dwattr $C$DW$29, DW_AT_TI_max_frame_size(-6)
     377                      .dwpsn  file "C:\Users\a0221343\Git\bootROM\f28004x_bootrom\F28004x_ROM_dev_PG2.0\F28004x_ROM\driverl
TMS320C2000 Assembler PC v6.4.4 Tue Feb 14 14:43:16 2017

Tools Copyright (c) 1996-2015 Texas Instruments Incorporated
C:\Users\a0221343\AppData\Local\Temp\0924410                         PAGE    8

     378              
     379                      .dwfde $C$DW$CIE, _SDFM_enableFIFOBuffer
     380              $C$DW$30        .dwtag  DW_TAG_formal_parameter, DW_AT_name("base")
     381                      .dwattr $C$DW$30, DW_AT_TI_symbol_name("_base")
     382                      .dwattr $C$DW$30, DW_AT_type(*$C$DW$T$29)
     383                      .dwattr $C$DW$30, DW_AT_location[DW_OP_reg0]
     384              $C$DW$31        .dwtag  DW_TAG_formal_parameter, DW_AT_name("filterNumber")
     385                      .dwattr $C$DW$31, DW_AT_TI_symbol_name("_filterNumber")
     386                      .dwattr $C$DW$31, DW_AT_type(*$C$DW$T$20)
     387                      .dwattr $C$DW$31, DW_AT_location[DW_OP_reg12]
     388              
     389              ;***************************************************************
     390              ;* FNAME: _SDFM_enableFIFOBuffer        FR SIZE:   4           *
     391              ;*                                                             *
     392              ;* FUNCTION ENVIRONMENT                                        *
     393              ;*                                                             *
     394              ;* FUNCTION PROPERTIES                                         *
     395              ;*                            0 Parameter,  3 Auto,  0 SOE     *
     396              ;***************************************************************
     397              
     398 00000000       _SDFM_enableFIFOBuffer:
     399                      .dwcfi  cfa_offset, -2
     400                      .dwcfi  save_reg_to_mem, 26, 0
     401 00000000 FE04          ADDB      SP,#4                 ; [CPU_U] 
     402                      .dwcfi  cfa_offset, -6
     403              $C$DW$32        .dwtag  DW_TAG_variable, DW_AT_name("base")
     404                      .dwattr $C$DW$32, DW_AT_TI_symbol_name("_base")
     405                      .dwattr $C$DW$32, DW_AT_type(*$C$DW$T$29)
     406                      .dwattr $C$DW$32, DW_AT_location[DW_OP_breg20 -2]
     407              $C$DW$33        .dwtag  DW_TAG_variable, DW_AT_name("filterNumber")
     408                      .dwattr $C$DW$33, DW_AT_TI_symbol_name("_filterNumber")
     409                      .dwattr $C$DW$33, DW_AT_type(*$C$DW$T$20)
     410                      .dwattr $C$DW$33, DW_AT_location[DW_OP_breg20 -3]
     411 00000001 7C43          MOV       *-SP[3],AR4           ; [CPU_] |404| 
     412 00000002 1E42          MOVL      *-SP[2],ACC           ; [CPU_] |404| 
     413                      .dwpsn  file "C:\Users\a0221343\Git\bootROM\f28004x_bootrom\F28004x_ROM_dev_PG2.0\F28004x_ROM\driverl
     414 00000003 7622   EALLOW
     415                      .dwpsn  file "C:\Users\a0221343\Git\bootROM\f28004x_bootrom\F28004x_ROM_dev_PG2.0\F28004x_ROM\driverl
     416 00000004 5603          MOV       ACC,*-SP[3] << #4     ; [CPU_] |408| 
         00000005 0443 
     417 00000006 0EA9          MOVU      ACC,AL                ; [CPU_] |408| 
     418 00000007 0742          ADDL      ACC,*-SP[2]           ; [CPU_] |408| 
     419 00000008 091D          ADDB      ACC,#29               ; [CPU_] |408| 
     420 00000009 8AA9          MOVL      XAR4,ACC              ; [CPU_] |408| 
     421 0000000a 1AC4          OR        *+XAR4[0],#0x2000     ; [CPU_] |408| 
         0000000b 2000 
     422                      .dwpsn  file "C:\Users\a0221343\Git\bootROM\f28004x_bootrom\F28004x_ROM_dev_PG2.0\F28004x_ROM\driverl
     423 0000000c 761A   EDIS
     424                      .dwpsn  file "C:\Users\a0221343\Git\bootROM\f28004x_bootrom\F28004x_ROM_dev_PG2.0\F28004x_ROM\driverl
     425 0000000d FF69          SPM       #0                    ; [CPU_] 
     426 0000000e FE84          SUBB      SP,#4                 ; [CPU_U] 
     427                      .dwcfi  cfa_offset, -2
     428              $C$DW$34        .dwtag  DW_TAG_TI_branch
     429                      .dwattr $C$DW$34, DW_AT_low_pc(0x00)
     430                      .dwattr $C$DW$34, DW_AT_TI_return
TMS320C2000 Assembler PC v6.4.4 Tue Feb 14 14:43:16 2017

Tools Copyright (c) 1996-2015 Texas Instruments Incorporated
C:\Users\a0221343\AppData\Local\Temp\0924410                         PAGE    9

     431 0000000f 0006          LRETR     ; [CPU_] 
     432                      ; return occurs ; [] 
     433                      .dwattr $C$DW$29, DW_AT_TI_end_file("C:\Users\a0221343\Git\bootROM\f28004x_bootrom\F28004x_ROM_dev_PG
     434                      .dwattr $C$DW$29, DW_AT_TI_end_line(0x19b)
     435                      .dwattr $C$DW$29, DW_AT_TI_end_column(0x01)
     436                      .dwendentry
     437                      .dwendtag $C$DW$29
     438              
     439 00000000               .sect   ".text:_SDFM_setFilterType"
     440                      .clink
     441              
     442              $C$DW$35        .dwtag  DW_TAG_subprogram, DW_AT_name("SDFM_setFilterType")
     443                      .dwattr $C$DW$35, DW_AT_low_pc(_SDFM_setFilterType)
     444                      .dwattr $C$DW$35, DW_AT_high_pc(0x00)
     445                      .dwattr $C$DW$35, DW_AT_TI_symbol_name("_SDFM_setFilterType")
     446                      .dwattr $C$DW$35, DW_AT_TI_begin_file("C:\Users\a0221343\Git\bootROM\f28004x_bootrom\F28004x_ROM_dev_
     447                      .dwattr $C$DW$35, DW_AT_TI_begin_line(0x25a)
     448                      .dwattr $C$DW$35, DW_AT_TI_begin_column(0x14)
     449                      .dwattr $C$DW$35, DW_AT_TI_max_frame_size(-8)
     450                      .dwpsn  file "C:\Users\a0221343\Git\bootROM\f28004x_bootrom\F28004x_ROM_dev_PG2.0\F28004x_ROM\driverl
     451              
     452                      .dwfde $C$DW$CIE, _SDFM_setFilterType
     453              $C$DW$36        .dwtag  DW_TAG_formal_parameter, DW_AT_name("base")
     454                      .dwattr $C$DW$36, DW_AT_TI_symbol_name("_base")
     455                      .dwattr $C$DW$36, DW_AT_type(*$C$DW$T$29)
     456                      .dwattr $C$DW$36, DW_AT_location[DW_OP_reg0]
     457              $C$DW$37        .dwtag  DW_TAG_formal_parameter, DW_AT_name("filterNumber")
     458                      .dwattr $C$DW$37, DW_AT_TI_symbol_name("_filterNumber")
     459                      .dwattr $C$DW$37, DW_AT_type(*$C$DW$T$20)
     460                      .dwattr $C$DW$37, DW_AT_location[DW_OP_reg12]
     461              $C$DW$38        .dwtag  DW_TAG_formal_parameter, DW_AT_name("filterType")
     462                      .dwattr $C$DW$38, DW_AT_TI_symbol_name("_filterType")
     463                      .dwattr $C$DW$38, DW_AT_type(*$C$DW$T$22)
     464                      .dwattr $C$DW$38, DW_AT_location[DW_OP_reg14]
     465              
     466              ;***************************************************************
     467              ;* FNAME: _SDFM_setFilterType           FR SIZE:   6           *
     468              ;*                                                             *
     469              ;* FUNCTION ENVIRONMENT                                        *
     470              ;*                                                             *
     471              ;* FUNCTION PROPERTIES                                         *
     472              ;*                            0 Parameter,  5 Auto,  0 SOE     *
     473              ;***************************************************************
     474              
     475 00000000       _SDFM_setFilterType:
     476                      .dwcfi  cfa_offset, -2
     477                      .dwcfi  save_reg_to_mem, 26, 0
     478 00000000 FE06          ADDB      SP,#6                 ; [CPU_U] 
     479                      .dwcfi  cfa_offset, -8
     480              $C$DW$39        .dwtag  DW_TAG_variable, DW_AT_name("base")
     481                      .dwattr $C$DW$39, DW_AT_TI_symbol_name("_base")
     482                      .dwattr $C$DW$39, DW_AT_type(*$C$DW$T$29)
     483                      .dwattr $C$DW$39, DW_AT_location[DW_OP_breg20 -2]
     484              $C$DW$40        .dwtag  DW_TAG_variable, DW_AT_name("filterNumber")
     485                      .dwattr $C$DW$40, DW_AT_TI_symbol_name("_filterNumber")
TMS320C2000 Assembler PC v6.4.4 Tue Feb 14 14:43:16 2017

Tools Copyright (c) 1996-2015 Texas Instruments Incorporated
C:\Users\a0221343\AppData\Local\Temp\0924410                         PAGE   10

     486                      .dwattr $C$DW$40, DW_AT_type(*$C$DW$T$20)
     487                      .dwattr $C$DW$40, DW_AT_location[DW_OP_breg20 -3]
     488              $C$DW$41        .dwtag  DW_TAG_variable, DW_AT_name("filterType")
     489                      .dwattr $C$DW$41, DW_AT_TI_symbol_name("_filterType")
     490                      .dwattr $C$DW$41, DW_AT_type(*$C$DW$T$22)
     491                      .dwattr $C$DW$41, DW_AT_location[DW_OP_breg20 -4]
     492              $C$DW$42        .dwtag  DW_TAG_variable, DW_AT_name("offset")
     493                      .dwattr $C$DW$42, DW_AT_TI_symbol_name("_offset")
     494                      .dwattr $C$DW$42, DW_AT_type(*$C$DW$T$38)
     495                      .dwattr $C$DW$42, DW_AT_location[DW_OP_breg20 -5]
     496 00000001 7D44          MOV       *-SP[4],AR5           ; [CPU_] |605| 
     497 00000002 7C43          MOV       *-SP[3],AR4           ; [CPU_] |605| 
     498 00000003 1E42          MOVL      *-SP[2],ACC           ; [CPU_] |605| 
     499                      .dwpsn  file "C:\Users\a0221343\Git\bootROM\f28004x_bootrom\F28004x_ROM_dev_PG2.0\F28004x_ROM\driverl
     500 00000004 5603          MOV       ACC,*-SP[3] << #4     ; [CPU_] |610| 
         00000005 0443 
     501 00000006 9C11          ADDB      AL,#17                ; [CPU_] |610| 
     502 00000007 9645          MOV       *-SP[5],AL            ; [CPU_] |610| 
     503                      .dwpsn  file "C:\Users\a0221343\Git\bootROM\f28004x_bootrom\F28004x_ROM_dev_PG2.0\F28004x_ROM\driverl
     504 00000008 7622   EALLOW
     505                      .dwpsn  file "C:\Users\a0221343\Git\bootROM\f28004x_bootrom\F28004x_ROM_dev_PG2.0\F28004x_ROM\driverl
     506 00000009 5845          MOVZ      AR0,*-SP[5]           ; [CPU_] |613| 
     507 0000000a 8A42          MOVL      XAR4,*-SP[2]          ; [CPU_] |613| 
     508 0000000b CC94          AND       AL,*+XAR4[AR0],#0xf3ff ; [CPU_] |613| 
         0000000c F3FF 
     509 0000000d 88A9          MOVZ      AR6,AL                ; [CPU_] |613| 
     510 0000000e 5603          MOV       ACC,*-SP[4] << #6     ; [CPU_] |613| 
         0000000f 0644 
     511 00000010 CAA6          OR        AL,AR6                ; [CPU_] |613| 
     512 00000011 9694          MOV       *+XAR4[AR0],AL        ; [CPU_] |613| 
     513                      .dwpsn  file "C:\Users\a0221343\Git\bootROM\f28004x_bootrom\F28004x_ROM_dev_PG2.0\F28004x_ROM\driverl
     514 00000012 761A   EDIS
     515                      .dwpsn  file "C:\Users\a0221343\Git\bootROM\f28004x_bootrom\F28004x_ROM_dev_PG2.0\F28004x_ROM\driverl
     516 00000013 FF69          SPM       #0                    ; [CPU_] 
     517 00000014 FE86          SUBB      SP,#6                 ; [CPU_U] 
     518                      .dwcfi  cfa_offset, -2
     519              $C$DW$43        .dwtag  DW_TAG_TI_branch
     520                      .dwattr $C$DW$43, DW_AT_low_pc(0x00)
     521                      .dwattr $C$DW$43, DW_AT_TI_return
     522 00000015 0006          LRETR     ; [CPU_] 
     523                      ; return occurs ; [] 
     524                      .dwattr $C$DW$35, DW_AT_TI_end_file("C:\Users\a0221343\Git\bootROM\f28004x_bootrom\F28004x_ROM_dev_PG
     525                      .dwattr $C$DW$35, DW_AT_TI_end_line(0x269)
     526                      .dwattr $C$DW$35, DW_AT_TI_end_column(0x01)
     527                      .dwendentry
     528                      .dwendtag $C$DW$35
     529              
     530 00000000               .sect   ".text:_SDFM_setFilterOverSamplingRatio"
     531                      .clink
     532              
     533              $C$DW$44        .dwtag  DW_TAG_subprogram, DW_AT_name("SDFM_setFilterOverSamplingRatio")
     534                      .dwattr $C$DW$44, DW_AT_low_pc(_SDFM_setFilterOverSamplingRatio)
     535                      .dwattr $C$DW$44, DW_AT_high_pc(0x00)
     536                      .dwattr $C$DW$44, DW_AT_TI_symbol_name("_SDFM_setFilterOverSamplingRatio")
     537                      .dwattr $C$DW$44, DW_AT_TI_begin_file("C:\Users\a0221343\Git\bootROM\f28004x_bootrom\F28004x_ROM_dev_
TMS320C2000 Assembler PC v6.4.4 Tue Feb 14 14:43:16 2017

Tools Copyright (c) 1996-2015 Texas Instruments Incorporated
C:\Users\a0221343\AppData\Local\Temp\0924410                         PAGE   11

     538                      .dwattr $C$DW$44, DW_AT_TI_begin_line(0x27a)
     539                      .dwattr $C$DW$44, DW_AT_TI_begin_column(0x14)
     540                      .dwattr $C$DW$44, DW_AT_TI_max_frame_size(-8)
     541                      .dwpsn  file "C:\Users\a0221343\Git\bootROM\f28004x_bootrom\F28004x_ROM_dev_PG2.0\F28004x_ROM\driverl
     542              
     543                      .dwfde $C$DW$CIE, _SDFM_setFilterOverSamplingRatio
     544              $C$DW$45        .dwtag  DW_TAG_formal_parameter, DW_AT_name("base")
     545                      .dwattr $C$DW$45, DW_AT_TI_symbol_name("_base")
     546                      .dwattr $C$DW$45, DW_AT_type(*$C$DW$T$29)
     547                      .dwattr $C$DW$45, DW_AT_location[DW_OP_reg0]
     548              $C$DW$46        .dwtag  DW_TAG_formal_parameter, DW_AT_name("filterNumber")
     549                      .dwattr $C$DW$46, DW_AT_TI_symbol_name("_filterNumber")
     550                      .dwattr $C$DW$46, DW_AT_type(*$C$DW$T$20)
     551                      .dwattr $C$DW$46, DW_AT_location[DW_OP_reg12]
     552              $C$DW$47        .dwtag  DW_TAG_formal_parameter, DW_AT_name("overSamplingRatio")
     553                      .dwattr $C$DW$47, DW_AT_TI_symbol_name("_overSamplingRatio")
     554                      .dwattr $C$DW$47, DW_AT_type(*$C$DW$T$38)
     555                      .dwattr $C$DW$47, DW_AT_location[DW_OP_reg14]
     556              
     557              ;***************************************************************
     558              ;* FNAME: _SDFM_setFilterOverSamplingRatio FR SIZE:   6           *
     559              ;*                                                             *
     560              ;* FUNCTION ENVIRONMENT                                        *
     561              ;*                                                             *
     562              ;* FUNCTION PROPERTIES                                         *
     563              ;*                            0 Parameter,  5 Auto,  0 SOE     *
     564              ;***************************************************************
     565              
     566 00000000       _SDFM_setFilterOverSamplingRatio:
     567                      .dwcfi  cfa_offset, -2
     568                      .dwcfi  save_reg_to_mem, 26, 0
     569 00000000 FE06          ADDB      SP,#6                 ; [CPU_U] 
     570                      .dwcfi  cfa_offset, -8
     571              $C$DW$48        .dwtag  DW_TAG_variable, DW_AT_name("base")
     572                      .dwattr $C$DW$48, DW_AT_TI_symbol_name("_base")
     573                      .dwattr $C$DW$48, DW_AT_type(*$C$DW$T$29)
     574                      .dwattr $C$DW$48, DW_AT_location[DW_OP_breg20 -2]
     575              $C$DW$49        .dwtag  DW_TAG_variable, DW_AT_name("filterNumber")
     576                      .dwattr $C$DW$49, DW_AT_TI_symbol_name("_filterNumber")
     577                      .dwattr $C$DW$49, DW_AT_type(*$C$DW$T$20)
     578                      .dwattr $C$DW$49, DW_AT_location[DW_OP_breg20 -3]
     579              $C$DW$50        .dwtag  DW_TAG_variable, DW_AT_name("overSamplingRatio")
     580                      .dwattr $C$DW$50, DW_AT_TI_symbol_name("_overSamplingRatio")
     581                      .dwattr $C$DW$50, DW_AT_type(*$C$DW$T$38)
     582                      .dwattr $C$DW$50, DW_AT_location[DW_OP_breg20 -4]
     583              $C$DW$51        .dwtag  DW_TAG_variable, DW_AT_name("offset")
     584                      .dwattr $C$DW$51, DW_AT_TI_symbol_name("_offset")
     585                      .dwattr $C$DW$51, DW_AT_type(*$C$DW$T$38)
     586                      .dwattr $C$DW$51, DW_AT_location[DW_OP_breg20 -5]
     587 00000001 7D44          MOV       *-SP[4],AR5           ; [CPU_] |637| 
     588 00000002 7C43          MOV       *-SP[3],AR4           ; [CPU_] |637| 
     589 00000003 1E42          MOVL      *-SP[2],ACC           ; [CPU_] |637| 
     590                      .dwpsn  file "C:\Users\a0221343\Git\bootROM\f28004x_bootrom\F28004x_ROM_dev_PG2.0\F28004x_ROM\driverl
     591 00000004 5603          MOV       ACC,*-SP[3] << #4     ; [CPU_] |642| 
         00000005 0443 
TMS320C2000 Assembler PC v6.4.4 Tue Feb 14 14:43:16 2017

Tools Copyright (c) 1996-2015 Texas Instruments Incorporated
C:\Users\a0221343\AppData\Local\Temp\0924410                         PAGE   12

     592 00000006 9C11          ADDB      AL,#17                ; [CPU_] |642| 
     593 00000007 9645          MOV       *-SP[5],AL            ; [CPU_] |642| 
     594                      .dwpsn  file "C:\Users\a0221343\Git\bootROM\f28004x_bootrom\F28004x_ROM_dev_PG2.0\F28004x_ROM\driverl
     595 00000008 7622   EALLOW
     596                      .dwpsn  file "C:\Users\a0221343\Git\bootROM\f28004x_bootrom\F28004x_ROM_dev_PG2.0\F28004x_ROM\driverl
     597 00000009 5845          MOVZ      AR0,*-SP[5]           ; [CPU_] |647| 
     598 0000000a 8A42          MOVL      XAR4,*-SP[2]          ; [CPU_] |647| 
     599 0000000b CC94          AND       AL,*+XAR4[AR0],#0xff00 ; [CPU_] |647| 
         0000000c FF00 
     600 0000000d CA44          OR        AL,*-SP[4]            ; [CPU_] |647| 
     601 0000000e 9694          MOV       *+XAR4[AR0],AL        ; [CPU_] |647| 
     602                      .dwpsn  file "C:\Users\a0221343\Git\bootROM\f28004x_bootrom\F28004x_ROM_dev_PG2.0\F28004x_ROM\driverl
     603 0000000f 761A   EDIS
     604                      .dwpsn  file "C:\Users\a0221343\Git\bootROM\f28004x_bootrom\F28004x_ROM_dev_PG2.0\F28004x_ROM\driverl
     605 00000010 FF69          SPM       #0                    ; [CPU_] 
     606 00000011 FE86          SUBB      SP,#6                 ; [CPU_U] 
     607                      .dwcfi  cfa_offset, -2
     608              $C$DW$52        .dwtag  DW_TAG_TI_branch
     609                      .dwattr $C$DW$52, DW_AT_low_pc(0x00)
     610                      .dwattr $C$DW$52, DW_AT_TI_return
     611 00000012 0006          LRETR     ; [CPU_] 
     612                      ; return occurs ; [] 
     613                      .dwattr $C$DW$44, DW_AT_TI_end_file("C:\Users\a0221343\Git\bootROM\f28004x_bootrom\F28004x_ROM_dev_PG
     614                      .dwattr $C$DW$44, DW_AT_TI_end_line(0x28b)
     615                      .dwattr $C$DW$44, DW_AT_TI_end_column(0x01)
     616                      .dwendentry
     617                      .dwendtag $C$DW$44
     618              
     619 00000000               .sect   ".text:_SDFM_setOutputDataFormat"
     620                      .clink
     621              
     622              $C$DW$53        .dwtag  DW_TAG_subprogram, DW_AT_name("SDFM_setOutputDataFormat")
     623                      .dwattr $C$DW$53, DW_AT_low_pc(_SDFM_setOutputDataFormat)
     624                      .dwattr $C$DW$53, DW_AT_high_pc(0x00)
     625                      .dwattr $C$DW$53, DW_AT_TI_symbol_name("_SDFM_setOutputDataFormat")
     626                      .dwattr $C$DW$53, DW_AT_TI_begin_file("C:\Users\a0221343\Git\bootROM\f28004x_bootrom\F28004x_ROM_dev_
     627                      .dwattr $C$DW$53, DW_AT_TI_begin_line(0x2d2)
     628                      .dwattr $C$DW$53, DW_AT_TI_begin_column(0x14)
     629                      .dwattr $C$DW$53, DW_AT_TI_max_frame_size(-8)
     630                      .dwpsn  file "C:\Users\a0221343\Git\bootROM\f28004x_bootrom\F28004x_ROM_dev_PG2.0\F28004x_ROM\driverl
     631              
     632                      .dwfde $C$DW$CIE, _SDFM_setOutputDataFormat
     633              $C$DW$54        .dwtag  DW_TAG_formal_parameter, DW_AT_name("base")
     634                      .dwattr $C$DW$54, DW_AT_TI_symbol_name("_base")
     635                      .dwattr $C$DW$54, DW_AT_type(*$C$DW$T$29)
     636                      .dwattr $C$DW$54, DW_AT_location[DW_OP_reg0]
     637              $C$DW$55        .dwtag  DW_TAG_formal_parameter, DW_AT_name("filterNumber")
     638                      .dwattr $C$DW$55, DW_AT_TI_symbol_name("_filterNumber")
     639                      .dwattr $C$DW$55, DW_AT_type(*$C$DW$T$20)
     640                      .dwattr $C$DW$55, DW_AT_location[DW_OP_reg12]
     641              $C$DW$56        .dwtag  DW_TAG_formal_parameter, DW_AT_name("dataFormat")
     642                      .dwattr $C$DW$56, DW_AT_TI_symbol_name("_dataFormat")
     643                      .dwattr $C$DW$56, DW_AT_type(*$C$DW$T$24)
     644                      .dwattr $C$DW$56, DW_AT_location[DW_OP_reg14]
     645              
TMS320C2000 Assembler PC v6.4.4 Tue Feb 14 14:43:16 2017

Tools Copyright (c) 1996-2015 Texas Instruments Incorporated
C:\Users\a0221343\AppData\Local\Temp\0924410                         PAGE   13

     646              ;***************************************************************
     647              ;* FNAME: _SDFM_setOutputDataFormat     FR SIZE:   6           *
     648              ;*                                                             *
     649              ;* FUNCTION ENVIRONMENT                                        *
     650              ;*                                                             *
     651              ;* FUNCTION PROPERTIES                                         *
     652              ;*                            0 Parameter,  5 Auto,  0 SOE     *
     653              ;***************************************************************
     654              
     655 00000000       _SDFM_setOutputDataFormat:
     656                      .dwcfi  cfa_offset, -2
     657                      .dwcfi  save_reg_to_mem, 26, 0
     658 00000000 FE06          ADDB      SP,#6                 ; [CPU_U] 
     659                      .dwcfi  cfa_offset, -8
     660              $C$DW$57        .dwtag  DW_TAG_variable, DW_AT_name("base")
     661                      .dwattr $C$DW$57, DW_AT_TI_symbol_name("_base")
     662                      .dwattr $C$DW$57, DW_AT_type(*$C$DW$T$29)
     663                      .dwattr $C$DW$57, DW_AT_location[DW_OP_breg20 -2]
     664              $C$DW$58        .dwtag  DW_TAG_variable, DW_AT_name("filterNumber")
     665                      .dwattr $C$DW$58, DW_AT_TI_symbol_name("_filterNumber")
     666                      .dwattr $C$DW$58, DW_AT_type(*$C$DW$T$20)
     667                      .dwattr $C$DW$58, DW_AT_location[DW_OP_breg20 -3]
     668              $C$DW$59        .dwtag  DW_TAG_variable, DW_AT_name("dataFormat")
     669                      .dwattr $C$DW$59, DW_AT_TI_symbol_name("_dataFormat")
     670                      .dwattr $C$DW$59, DW_AT_type(*$C$DW$T$24)
     671                      .dwattr $C$DW$59, DW_AT_location[DW_OP_breg20 -4]
     672              $C$DW$60        .dwtag  DW_TAG_variable, DW_AT_name("offset")
     673                      .dwattr $C$DW$60, DW_AT_TI_symbol_name("_offset")
     674                      .dwattr $C$DW$60, DW_AT_type(*$C$DW$T$38)
     675                      .dwattr $C$DW$60, DW_AT_location[DW_OP_breg20 -5]
     676 00000001 7D44          MOV       *-SP[4],AR5           ; [CPU_] |725| 
     677 00000002 7C43          MOV       *-SP[3],AR4           ; [CPU_] |725| 
     678 00000003 1E42          MOVL      *-SP[2],ACC           ; [CPU_] |725| 
     679                      .dwpsn  file "C:\Users\a0221343\Git\bootROM\f28004x_bootrom\F28004x_ROM_dev_PG2.0\F28004x_ROM\driverl
     680 00000004 5603          MOV       ACC,*-SP[3] << #4     ; [CPU_] |730| 
         00000005 0443 
     681 00000006 9C12          ADDB      AL,#18                ; [CPU_] |730| 
     682 00000007 9645          MOV       *-SP[5],AL            ; [CPU_] |730| 
     683                      .dwpsn  file "C:\Users\a0221343\Git\bootROM\f28004x_bootrom\F28004x_ROM_dev_PG2.0\F28004x_ROM\driverl
     684 00000008 7622   EALLOW
     685                      .dwpsn  file "C:\Users\a0221343\Git\bootROM\f28004x_bootrom\F28004x_ROM_dev_PG2.0\F28004x_ROM\driverl
     686 00000009 5845          MOVZ      AR0,*-SP[5]           ; [CPU_] |734| 
     687 0000000a 8A42          MOVL      XAR4,*-SP[2]          ; [CPU_] |734| 
     688 0000000b CC94          AND       AL,*+XAR4[AR0],#0xfbff ; [CPU_] |734| 
         0000000c FBFF 
     689 0000000d 88A9          MOVZ      AR6,AL                ; [CPU_] |734| 
     690 0000000e 5603          MOV       ACC,*-SP[4] << #10    ; [CPU_] |734| 
         0000000f 0A44 
     691 00000010 CAA6          OR        AL,AR6                ; [CPU_] |734| 
     692 00000011 9694          MOV       *+XAR4[AR0],AL        ; [CPU_] |734| 
     693                      .dwpsn  file "C:\Users\a0221343\Git\bootROM\f28004x_bootrom\F28004x_ROM_dev_PG2.0\F28004x_ROM\driverl
     694 00000012 761A   EDIS
     695                      .dwpsn  file "C:\Users\a0221343\Git\bootROM\f28004x_bootrom\F28004x_ROM_dev_PG2.0\F28004x_ROM\driverl
     696 00000013 FF69          SPM       #0                    ; [CPU_] 
     697 00000014 FE86          SUBB      SP,#6                 ; [CPU_U] 
TMS320C2000 Assembler PC v6.4.4 Tue Feb 14 14:43:16 2017

Tools Copyright (c) 1996-2015 Texas Instruments Incorporated
C:\Users\a0221343\AppData\Local\Temp\0924410                         PAGE   14

     698                      .dwcfi  cfa_offset, -2
     699              $C$DW$61        .dwtag  DW_TAG_TI_branch
     700                      .dwattr $C$DW$61, DW_AT_low_pc(0x00)
     701                      .dwattr $C$DW$61, DW_AT_TI_return
     702 00000015 0006          LRETR     ; [CPU_] 
     703                      ; return occurs ; [] 
     704                      .dwattr $C$DW$53, DW_AT_TI_end_file("C:\Users\a0221343\Git\bootROM\f28004x_bootrom\F28004x_ROM_dev_PG
     705                      .dwattr $C$DW$53, DW_AT_TI_end_line(0x2e1)
     706                      .dwattr $C$DW$53, DW_AT_TI_end_column(0x01)
     707                      .dwendentry
     708                      .dwendtag $C$DW$53
     709              
     710 00000000               .sect   ".text:_SDFM_setDataShiftValue"
     711                      .clink
     712              
     713              $C$DW$62        .dwtag  DW_TAG_subprogram, DW_AT_name("SDFM_setDataShiftValue")
     714                      .dwattr $C$DW$62, DW_AT_low_pc(_SDFM_setDataShiftValue)
     715                      .dwattr $C$DW$62, DW_AT_high_pc(0x00)
     716                      .dwattr $C$DW$62, DW_AT_TI_symbol_name("_SDFM_setDataShiftValue")
     717                      .dwattr $C$DW$62, DW_AT_TI_begin_file("C:\Users\a0221343\Git\bootROM\f28004x_bootrom\F28004x_ROM_dev_
     718                      .dwattr $C$DW$62, DW_AT_TI_begin_line(0x2f3)
     719                      .dwattr $C$DW$62, DW_AT_TI_begin_column(0x14)
     720                      .dwattr $C$DW$62, DW_AT_TI_max_frame_size(-8)
     721                      .dwpsn  file "C:\Users\a0221343\Git\bootROM\f28004x_bootrom\F28004x_ROM_dev_PG2.0\F28004x_ROM\driverl
     722              
     723                      .dwfde $C$DW$CIE, _SDFM_setDataShiftValue
     724              $C$DW$63        .dwtag  DW_TAG_formal_parameter, DW_AT_name("base")
     725                      .dwattr $C$DW$63, DW_AT_TI_symbol_name("_base")
     726                      .dwattr $C$DW$63, DW_AT_type(*$C$DW$T$29)
     727                      .dwattr $C$DW$63, DW_AT_location[DW_OP_reg0]
     728              $C$DW$64        .dwtag  DW_TAG_formal_parameter, DW_AT_name("filterNumber")
     729                      .dwattr $C$DW$64, DW_AT_TI_symbol_name("_filterNumber")
     730                      .dwattr $C$DW$64, DW_AT_type(*$C$DW$T$20)
     731                      .dwattr $C$DW$64, DW_AT_location[DW_OP_reg12]
     732              $C$DW$65        .dwtag  DW_TAG_formal_parameter, DW_AT_name("shiftValue")
     733                      .dwattr $C$DW$65, DW_AT_TI_symbol_name("_shiftValue")
     734                      .dwattr $C$DW$65, DW_AT_type(*$C$DW$T$38)
     735                      .dwattr $C$DW$65, DW_AT_location[DW_OP_reg14]
     736              
     737              ;***************************************************************
     738              ;* FNAME: _SDFM_setDataShiftValue       FR SIZE:   6           *
     739              ;*                                                             *
     740              ;* FUNCTION ENVIRONMENT                                        *
     741              ;*                                                             *
     742              ;* FUNCTION PROPERTIES                                         *
     743              ;*                            0 Parameter,  5 Auto,  0 SOE     *
     744              ;***************************************************************
     745              
     746 00000000       _SDFM_setDataShiftValue:
     747                      .dwcfi  cfa_offset, -2
     748                      .dwcfi  save_reg_to_mem, 26, 0
     749 00000000 FE06          ADDB      SP,#6                 ; [CPU_U] 
     750                      .dwcfi  cfa_offset, -8
     751              $C$DW$66        .dwtag  DW_TAG_variable, DW_AT_name("base")
     752                      .dwattr $C$DW$66, DW_AT_TI_symbol_name("_base")
TMS320C2000 Assembler PC v6.4.4 Tue Feb 14 14:43:16 2017

Tools Copyright (c) 1996-2015 Texas Instruments Incorporated
C:\Users\a0221343\AppData\Local\Temp\0924410                         PAGE   15

     753                      .dwattr $C$DW$66, DW_AT_type(*$C$DW$T$29)
     754                      .dwattr $C$DW$66, DW_AT_location[DW_OP_breg20 -2]
     755              $C$DW$67        .dwtag  DW_TAG_variable, DW_AT_name("filterNumber")
     756                      .dwattr $C$DW$67, DW_AT_TI_symbol_name("_filterNumber")
     757                      .dwattr $C$DW$67, DW_AT_type(*$C$DW$T$20)
     758                      .dwattr $C$DW$67, DW_AT_location[DW_OP_breg20 -3]
     759              $C$DW$68        .dwtag  DW_TAG_variable, DW_AT_name("shiftValue")
     760                      .dwattr $C$DW$68, DW_AT_TI_symbol_name("_shiftValue")
     761                      .dwattr $C$DW$68, DW_AT_type(*$C$DW$T$38)
     762                      .dwattr $C$DW$68, DW_AT_location[DW_OP_breg20 -4]
     763              $C$DW$69        .dwtag  DW_TAG_variable, DW_AT_name("offset")
     764                      .dwattr $C$DW$69, DW_AT_TI_symbol_name("_offset")
     765                      .dwattr $C$DW$69, DW_AT_type(*$C$DW$T$38)
     766                      .dwattr $C$DW$69, DW_AT_location[DW_OP_breg20 -5]
     767 00000001 7D44          MOV       *-SP[4],AR5           ; [CPU_] |758| 
     768 00000002 7C43          MOV       *-SP[3],AR4           ; [CPU_] |758| 
     769 00000003 1E42          MOVL      *-SP[2],ACC           ; [CPU_] |758| 
     770                      .dwpsn  file "C:\Users\a0221343\Git\bootROM\f28004x_bootrom\F28004x_ROM_dev_PG2.0\F28004x_ROM\driverl
     771 00000004 5603          MOV       ACC,*-SP[3] << #4     ; [CPU_] |763| 
         00000005 0443 
     772 00000006 9C12          ADDB      AL,#18                ; [CPU_] |763| 
     773 00000007 9645          MOV       *-SP[5],AL            ; [CPU_] |763| 
     774                      .dwpsn  file "C:\Users\a0221343\Git\bootROM\f28004x_bootrom\F28004x_ROM_dev_PG2.0\F28004x_ROM\driverl
     775 00000008 7622   EALLOW
     776                      .dwpsn  file "C:\Users\a0221343\Git\bootROM\f28004x_bootrom\F28004x_ROM_dev_PG2.0\F28004x_ROM\driverl
     777 00000009 5845          MOVZ      AR0,*-SP[5]           ; [CPU_] |767| 
     778 0000000a 8A42          MOVL      XAR4,*-SP[2]          ; [CPU_] |767| 
     779 0000000b CC94          AND       AL,*+XAR4[AR0],#0x07ff ; [CPU_] |767| 
         0000000c 07FF 
     780 0000000d 88A9          MOVZ      AR6,AL                ; [CPU_] |767| 
     781 0000000e 5603          MOV       ACC,*-SP[4] << #11    ; [CPU_] |767| 
         0000000f 0B44 
     782 00000010 CAA6          OR        AL,AR6                ; [CPU_] |767| 
     783 00000011 9694          MOV       *+XAR4[AR0],AL        ; [CPU_] |767| 
     784                      .dwpsn  file "C:\Users\a0221343\Git\bootROM\f28004x_bootrom\F28004x_ROM_dev_PG2.0\F28004x_ROM\driverl
     785 00000012 761A   EDIS
     786                      .dwpsn  file "C:\Users\a0221343\Git\bootROM\f28004x_bootrom\F28004x_ROM_dev_PG2.0\F28004x_ROM\driverl
     787 00000013 FF69          SPM       #0                    ; [CPU_] 
     788 00000014 FE86          SUBB      SP,#6                 ; [CPU_U] 
     789                      .dwcfi  cfa_offset, -2
     790              $C$DW$70        .dwtag  DW_TAG_TI_branch
     791                      .dwattr $C$DW$70, DW_AT_low_pc(0x00)
     792                      .dwattr $C$DW$70, DW_AT_TI_return
     793 00000015 0006          LRETR     ; [CPU_] 
     794                      ; return occurs ; [] 
     795                      .dwattr $C$DW$62, DW_AT_TI_end_file("C:\Users\a0221343\Git\bootROM\f28004x_bootrom\F28004x_ROM_dev_PG
     796                      .dwattr $C$DW$62, DW_AT_TI_end_line(0x302)
     797                      .dwattr $C$DW$62, DW_AT_TI_end_column(0x01)
     798                      .dwendentry
     799                      .dwendtag $C$DW$62
     800              
     801 00000000               .sect   ".text:_SDFM_setCompFilterHighThreshold"
     802                      .clink
     803              
     804              $C$DW$71        .dwtag  DW_TAG_subprogram, DW_AT_name("SDFM_setCompFilterHighThreshold")
TMS320C2000 Assembler PC v6.4.4 Tue Feb 14 14:43:16 2017

Tools Copyright (c) 1996-2015 Texas Instruments Incorporated
C:\Users\a0221343\AppData\Local\Temp\0924410                         PAGE   16

     805                      .dwattr $C$DW$71, DW_AT_low_pc(_SDFM_setCompFilterHighThreshold)
     806                      .dwattr $C$DW$71, DW_AT_high_pc(0x00)
     807                      .dwattr $C$DW$71, DW_AT_TI_symbol_name("_SDFM_setCompFilterHighThreshold")
     808                      .dwattr $C$DW$71, DW_AT_TI_begin_file("C:\Users\a0221343\Git\bootROM\f28004x_bootrom\F28004x_ROM_dev_
     809                      .dwattr $C$DW$71, DW_AT_TI_begin_line(0x314)
     810                      .dwattr $C$DW$71, DW_AT_TI_begin_column(0x14)
     811                      .dwattr $C$DW$71, DW_AT_TI_max_frame_size(-8)
     812                      .dwpsn  file "C:\Users\a0221343\Git\bootROM\f28004x_bootrom\F28004x_ROM_dev_PG2.0\F28004x_ROM\driverl
     813              
     814                      .dwfde $C$DW$CIE, _SDFM_setCompFilterHighThreshold
     815              $C$DW$72        .dwtag  DW_TAG_formal_parameter, DW_AT_name("base")
     816                      .dwattr $C$DW$72, DW_AT_TI_symbol_name("_base")
     817                      .dwattr $C$DW$72, DW_AT_type(*$C$DW$T$29)
     818                      .dwattr $C$DW$72, DW_AT_location[DW_OP_reg0]
     819              $C$DW$73        .dwtag  DW_TAG_formal_parameter, DW_AT_name("filterNumber")
     820                      .dwattr $C$DW$73, DW_AT_TI_symbol_name("_filterNumber")
     821                      .dwattr $C$DW$73, DW_AT_type(*$C$DW$T$20)
     822                      .dwattr $C$DW$73, DW_AT_location[DW_OP_reg12]
     823              $C$DW$74        .dwtag  DW_TAG_formal_parameter, DW_AT_name("highThreshold")
     824                      .dwattr $C$DW$74, DW_AT_TI_symbol_name("_highThreshold")
     825                      .dwattr $C$DW$74, DW_AT_type(*$C$DW$T$38)
     826                      .dwattr $C$DW$74, DW_AT_location[DW_OP_reg14]
     827              
     828              ;***************************************************************
     829              ;* FNAME: _SDFM_setCompFilterHighThreshold FR SIZE:   6           *
     830              ;*                                                             *
     831              ;* FUNCTION ENVIRONMENT                                        *
     832              ;*                                                             *
     833              ;* FUNCTION PROPERTIES                                         *
     834              ;*                            0 Parameter,  5 Auto,  0 SOE     *
     835              ;***************************************************************
     836              
     837 00000000       _SDFM_setCompFilterHighThreshold:
     838                      .dwcfi  cfa_offset, -2
     839                      .dwcfi  save_reg_to_mem, 26, 0
     840 00000000 FE06          ADDB      SP,#6                 ; [CPU_U] 
     841                      .dwcfi  cfa_offset, -8
     842              $C$DW$75        .dwtag  DW_TAG_variable, DW_AT_name("base")
     843                      .dwattr $C$DW$75, DW_AT_TI_symbol_name("_base")
     844                      .dwattr $C$DW$75, DW_AT_type(*$C$DW$T$29)
     845                      .dwattr $C$DW$75, DW_AT_location[DW_OP_breg20 -2]
     846              $C$DW$76        .dwtag  DW_TAG_variable, DW_AT_name("filterNumber")
     847                      .dwattr $C$DW$76, DW_AT_TI_symbol_name("_filterNumber")
     848                      .dwattr $C$DW$76, DW_AT_type(*$C$DW$T$20)
     849                      .dwattr $C$DW$76, DW_AT_location[DW_OP_breg20 -3]
     850              $C$DW$77        .dwtag  DW_TAG_variable, DW_AT_name("highThreshold")
     851                      .dwattr $C$DW$77, DW_AT_TI_symbol_name("_highThreshold")
     852                      .dwattr $C$DW$77, DW_AT_type(*$C$DW$T$38)
     853                      .dwattr $C$DW$77, DW_AT_location[DW_OP_breg20 -4]
     854              $C$DW$78        .dwtag  DW_TAG_variable, DW_AT_name("offset")
     855                      .dwattr $C$DW$78, DW_AT_TI_symbol_name("_offset")
     856                      .dwattr $C$DW$78, DW_AT_type(*$C$DW$T$38)
     857                      .dwattr $C$DW$78, DW_AT_location[DW_OP_breg20 -5]
     858 00000001 7D44          MOV       *-SP[4],AR5           ; [CPU_] |791| 
     859 00000002 7C43          MOV       *-SP[3],AR4           ; [CPU_] |791| 
TMS320C2000 Assembler PC v6.4.4 Tue Feb 14 14:43:16 2017

Tools Copyright (c) 1996-2015 Texas Instruments Incorporated
C:\Users\a0221343\AppData\Local\Temp\0924410                         PAGE   17

     860 00000003 1E42          MOVL      *-SP[2],ACC           ; [CPU_] |791| 
     861                      .dwpsn  file "C:\Users\a0221343\Git\bootROM\f28004x_bootrom\F28004x_ROM_dev_PG2.0\F28004x_ROM\driverl
     862 00000004 5603          MOV       ACC,*-SP[3] << #4     ; [CPU_] |798| 
         00000005 0443 
     863 00000006 9C13          ADDB      AL,#19                ; [CPU_] |798| 
     864 00000007 9645          MOV       *-SP[5],AL            ; [CPU_] |798| 
     865                      .dwpsn  file "C:\Users\a0221343\Git\bootROM\f28004x_bootrom\F28004x_ROM_dev_PG2.0\F28004x_ROM\driverl
     866 00000008 7622   EALLOW
     867                      .dwpsn  file "C:\Users\a0221343\Git\bootROM\f28004x_bootrom\F28004x_ROM_dev_PG2.0\F28004x_ROM\driverl
     868 00000009 5845          MOVZ      AR0,*-SP[5]           ; [CPU_] |802| 
     869 0000000a 8A42          MOVL      XAR4,*-SP[2]          ; [CPU_] |802| 
     870 0000000b CC94          AND       AL,*+XAR4[AR0],#0x8000 ; [CPU_] |802| 
         0000000c 8000 
     871 0000000d CA44          OR        AL,*-SP[4]            ; [CPU_] |802| 
     872 0000000e 9694          MOV       *+XAR4[AR0],AL        ; [CPU_] |802| 
     873                      .dwpsn  file "C:\Users\a0221343\Git\bootROM\f28004x_bootrom\F28004x_ROM_dev_PG2.0\F28004x_ROM\driverl
     874 0000000f 761A   EDIS
     875                      .dwpsn  file "C:\Users\a0221343\Git\bootROM\f28004x_bootrom\F28004x_ROM_dev_PG2.0\F28004x_ROM\driverl
     876 00000010 FF69          SPM       #0                    ; [CPU_] 
     877 00000011 FE86          SUBB      SP,#6                 ; [CPU_U] 
     878                      .dwcfi  cfa_offset, -2
     879              $C$DW$79        .dwtag  DW_TAG_TI_branch
     880                      .dwattr $C$DW$79, DW_AT_low_pc(0x00)
     881                      .dwattr $C$DW$79, DW_AT_TI_return
     882 00000012 0006          LRETR     ; [CPU_] 
     883                      ; return occurs ; [] 
     884                      .dwattr $C$DW$71, DW_AT_TI_end_file("C:\Users\a0221343\Git\bootROM\f28004x_bootrom\F28004x_ROM_dev_PG
     885                      .dwattr $C$DW$71, DW_AT_TI_end_line(0x326)
     886                      .dwattr $C$DW$71, DW_AT_TI_end_column(0x01)
     887                      .dwendentry
     888                      .dwendtag $C$DW$71
     889              
     890 00000000               .sect   ".text:_SDFM_setCompFilterLowThreshold"
     891                      .clink
     892              
     893              $C$DW$80        .dwtag  DW_TAG_subprogram, DW_AT_name("SDFM_setCompFilterLowThreshold")
     894                      .dwattr $C$DW$80, DW_AT_low_pc(_SDFM_setCompFilterLowThreshold)
     895                      .dwattr $C$DW$80, DW_AT_high_pc(0x00)
     896                      .dwattr $C$DW$80, DW_AT_TI_symbol_name("_SDFM_setCompFilterLowThreshold")
     897                      .dwattr $C$DW$80, DW_AT_TI_begin_file("C:\Users\a0221343\Git\bootROM\f28004x_bootrom\F28004x_ROM_dev_
     898                      .dwattr $C$DW$80, DW_AT_TI_begin_line(0x338)
     899                      .dwattr $C$DW$80, DW_AT_TI_begin_column(0x14)
     900                      .dwattr $C$DW$80, DW_AT_TI_max_frame_size(-8)
     901                      .dwpsn  file "C:\Users\a0221343\Git\bootROM\f28004x_bootrom\F28004x_ROM_dev_PG2.0\F28004x_ROM\driverl
     902              
     903                      .dwfde $C$DW$CIE, _SDFM_setCompFilterLowThreshold
     904              $C$DW$81        .dwtag  DW_TAG_formal_parameter, DW_AT_name("base")
     905                      .dwattr $C$DW$81, DW_AT_TI_symbol_name("_base")
     906                      .dwattr $C$DW$81, DW_AT_type(*$C$DW$T$29)
     907                      .dwattr $C$DW$81, DW_AT_location[DW_OP_reg0]
     908              $C$DW$82        .dwtag  DW_TAG_formal_parameter, DW_AT_name("filterNumber")
     909                      .dwattr $C$DW$82, DW_AT_TI_symbol_name("_filterNumber")
     910                      .dwattr $C$DW$82, DW_AT_type(*$C$DW$T$20)
     911                      .dwattr $C$DW$82, DW_AT_location[DW_OP_reg12]
     912              $C$DW$83        .dwtag  DW_TAG_formal_parameter, DW_AT_name("lowThreshold")
TMS320C2000 Assembler PC v6.4.4 Tue Feb 14 14:43:16 2017

Tools Copyright (c) 1996-2015 Texas Instruments Incorporated
C:\Users\a0221343\AppData\Local\Temp\0924410                         PAGE   18

     913                      .dwattr $C$DW$83, DW_AT_TI_symbol_name("_lowThreshold")
     914                      .dwattr $C$DW$83, DW_AT_type(*$C$DW$T$38)
     915                      .dwattr $C$DW$83, DW_AT_location[DW_OP_reg14]
     916              
     917              ;***************************************************************
     918              ;* FNAME: _SDFM_setCompFilterLowThreshold FR SIZE:   6           *
     919              ;*                                                             *
     920              ;* FUNCTION ENVIRONMENT                                        *
     921              ;*                                                             *
     922              ;* FUNCTION PROPERTIES                                         *
     923              ;*                            0 Parameter,  5 Auto,  0 SOE     *
     924              ;***************************************************************
     925              
     926 00000000       _SDFM_setCompFilterLowThreshold:
     927                      .dwcfi  cfa_offset, -2
     928                      .dwcfi  save_reg_to_mem, 26, 0
     929 00000000 FE06          ADDB      SP,#6                 ; [CPU_U] 
     930                      .dwcfi  cfa_offset, -8
     931              $C$DW$84        .dwtag  DW_TAG_variable, DW_AT_name("base")
     932                      .dwattr $C$DW$84, DW_AT_TI_symbol_name("_base")
     933                      .dwattr $C$DW$84, DW_AT_type(*$C$DW$T$29)
     934                      .dwattr $C$DW$84, DW_AT_location[DW_OP_breg20 -2]
     935              $C$DW$85        .dwtag  DW_TAG_variable, DW_AT_name("filterNumber")
     936                      .dwattr $C$DW$85, DW_AT_TI_symbol_name("_filterNumber")
     937                      .dwattr $C$DW$85, DW_AT_type(*$C$DW$T$20)
     938                      .dwattr $C$DW$85, DW_AT_location[DW_OP_breg20 -3]
     939              $C$DW$86        .dwtag  DW_TAG_variable, DW_AT_name("lowThreshold")
     940                      .dwattr $C$DW$86, DW_AT_TI_symbol_name("_lowThreshold")
     941                      .dwattr $C$DW$86, DW_AT_type(*$C$DW$T$38)
     942                      .dwattr $C$DW$86, DW_AT_location[DW_OP_breg20 -4]
     943              $C$DW$87        .dwtag  DW_TAG_variable, DW_AT_name("offset")
     944                      .dwattr $C$DW$87, DW_AT_TI_symbol_name("_offset")
     945                      .dwattr $C$DW$87, DW_AT_type(*$C$DW$T$38)
     946                      .dwattr $C$DW$87, DW_AT_location[DW_OP_breg20 -5]
     947 00000001 7D44          MOV       *-SP[4],AR5           ; [CPU_] |827| 
     948 00000002 7C43          MOV       *-SP[3],AR4           ; [CPU_] |827| 
     949 00000003 1E42          MOVL      *-SP[2],ACC           ; [CPU_] |827| 
     950                      .dwpsn  file "C:\Users\a0221343\Git\bootROM\f28004x_bootrom\F28004x_ROM_dev_PG2.0\F28004x_ROM\driverl
     951 00000004 5603          MOV       ACC,*-SP[3] << #4     ; [CPU_] |832| 
         00000005 0443 
     952 00000006 9C14          ADDB      AL,#20                ; [CPU_] |832| 
     953 00000007 9645          MOV       *-SP[5],AL            ; [CPU_] |832| 
     954                      .dwpsn  file "C:\Users\a0221343\Git\bootROM\f28004x_bootrom\F28004x_ROM_dev_PG2.0\F28004x_ROM\driverl
     955 00000008 7622   EALLOW
     956                      .dwpsn  file "C:\Users\a0221343\Git\bootROM\f28004x_bootrom\F28004x_ROM_dev_PG2.0\F28004x_ROM\driverl
     957 00000009 5845          MOVZ      AR0,*-SP[5]           ; [CPU_] |837| 
     958 0000000a 8A42          MOVL      XAR4,*-SP[2]          ; [CPU_] |837| 
     959 0000000b CC94          AND       AL,*+XAR4[AR0],#0x8000 ; [CPU_] |837| 
         0000000c 8000 
     960 0000000d CA44          OR        AL,*-SP[4]            ; [CPU_] |837| 
     961 0000000e 9694          MOV       *+XAR4[AR0],AL        ; [CPU_] |837| 
     962                      .dwpsn  file "C:\Users\a0221343\Git\bootROM\f28004x_bootrom\F28004x_ROM_dev_PG2.0\F28004x_ROM\driverl
     963 0000000f 761A   EDIS
     964                      .dwpsn  file "C:\Users\a0221343\Git\bootROM\f28004x_bootrom\F28004x_ROM_dev_PG2.0\F28004x_ROM\driverl
     965 00000010 FF69          SPM       #0                    ; [CPU_] 
TMS320C2000 Assembler PC v6.4.4 Tue Feb 14 14:43:16 2017

Tools Copyright (c) 1996-2015 Texas Instruments Incorporated
C:\Users\a0221343\AppData\Local\Temp\0924410                         PAGE   19

     966 00000011 FE86          SUBB      SP,#6                 ; [CPU_U] 
     967                      .dwcfi  cfa_offset, -2
     968              $C$DW$88        .dwtag  DW_TAG_TI_branch
     969                      .dwattr $C$DW$88, DW_AT_low_pc(0x00)
     970                      .dwattr $C$DW$88, DW_AT_TI_return
     971 00000012 0006          LRETR     ; [CPU_] 
     972                      ; return occurs ; [] 
     973                      .dwattr $C$DW$80, DW_AT_TI_end_file("C:\Users\a0221343\Git\bootROM\f28004x_bootrom\F28004x_ROM_dev_PG
     974                      .dwattr $C$DW$80, DW_AT_TI_end_line(0x348)
     975                      .dwattr $C$DW$80, DW_AT_TI_end_column(0x01)
     976                      .dwendentry
     977                      .dwendtag $C$DW$80
     978              
     979 00000000               .sect   ".text:_SDFM_setCompFilterZeroCrossThreshold"
     980                      .clink
     981              
     982              $C$DW$89        .dwtag  DW_TAG_subprogram, DW_AT_name("SDFM_setCompFilterZeroCrossThreshold")
     983                      .dwattr $C$DW$89, DW_AT_low_pc(_SDFM_setCompFilterZeroCrossThreshold)
     984                      .dwattr $C$DW$89, DW_AT_high_pc(0x00)
     985                      .dwattr $C$DW$89, DW_AT_TI_symbol_name("_SDFM_setCompFilterZeroCrossThreshold")
     986                      .dwattr $C$DW$89, DW_AT_TI_begin_file("C:\Users\a0221343\Git\bootROM\f28004x_bootrom\F28004x_ROM_dev_
     987                      .dwattr $C$DW$89, DW_AT_TI_begin_line(0x358)
     988                      .dwattr $C$DW$89, DW_AT_TI_begin_column(0x14)
     989                      .dwattr $C$DW$89, DW_AT_TI_max_frame_size(-8)
     990                      .dwpsn  file "C:\Users\a0221343\Git\bootROM\f28004x_bootrom\F28004x_ROM_dev_PG2.0\F28004x_ROM\driverl
     991              
     992                      .dwfde $C$DW$CIE, _SDFM_setCompFilterZeroCrossThreshold
     993              $C$DW$90        .dwtag  DW_TAG_formal_parameter, DW_AT_name("base")
     994                      .dwattr $C$DW$90, DW_AT_TI_symbol_name("_base")
     995                      .dwattr $C$DW$90, DW_AT_type(*$C$DW$T$29)
     996                      .dwattr $C$DW$90, DW_AT_location[DW_OP_reg0]
     997              $C$DW$91        .dwtag  DW_TAG_formal_parameter, DW_AT_name("filterNumber")
     998                      .dwattr $C$DW$91, DW_AT_TI_symbol_name("_filterNumber")
     999                      .dwattr $C$DW$91, DW_AT_type(*$C$DW$T$20)
    1000                      .dwattr $C$DW$91, DW_AT_location[DW_OP_reg12]
    1001              $C$DW$92        .dwtag  DW_TAG_formal_parameter, DW_AT_name("zeroCrossThreshold")
    1002                      .dwattr $C$DW$92, DW_AT_TI_symbol_name("_zeroCrossThreshold")
    1003                      .dwattr $C$DW$92, DW_AT_type(*$C$DW$T$38)
    1004                      .dwattr $C$DW$92, DW_AT_location[DW_OP_reg14]
    1005              
    1006              ;***************************************************************
    1007              ;* FNAME: _SDFM_setCompFilterZeroCrossThreshold FR SIZE:   6           *
    1008              ;*                                                             *
    1009              ;* FUNCTION ENVIRONMENT                                        *
    1010              ;*                                                             *
    1011              ;* FUNCTION PROPERTIES                                         *
    1012              ;*                            0 Parameter,  5 Auto,  0 SOE     *
    1013              ;***************************************************************
    1014              
    1015 00000000       _SDFM_setCompFilterZeroCrossThreshold:
    1016                      .dwcfi  cfa_offset, -2
    1017                      .dwcfi  save_reg_to_mem, 26, 0
    1018 00000000 FE06          ADDB      SP,#6                 ; [CPU_U] 
    1019                      .dwcfi  cfa_offset, -8
    1020              $C$DW$93        .dwtag  DW_TAG_variable, DW_AT_name("base")
TMS320C2000 Assembler PC v6.4.4 Tue Feb 14 14:43:16 2017

Tools Copyright (c) 1996-2015 Texas Instruments Incorporated
C:\Users\a0221343\AppData\Local\Temp\0924410                         PAGE   20

    1021                      .dwattr $C$DW$93, DW_AT_TI_symbol_name("_base")
    1022                      .dwattr $C$DW$93, DW_AT_type(*$C$DW$T$29)
    1023                      .dwattr $C$DW$93, DW_AT_location[DW_OP_breg20 -2]
    1024              $C$DW$94        .dwtag  DW_TAG_variable, DW_AT_name("filterNumber")
    1025                      .dwattr $C$DW$94, DW_AT_TI_symbol_name("_filterNumber")
    1026                      .dwattr $C$DW$94, DW_AT_type(*$C$DW$T$20)
    1027                      .dwattr $C$DW$94, DW_AT_location[DW_OP_breg20 -3]
    1028              $C$DW$95        .dwtag  DW_TAG_variable, DW_AT_name("zeroCrossThreshold")
    1029                      .dwattr $C$DW$95, DW_AT_TI_symbol_name("_zeroCrossThreshold")
    1030                      .dwattr $C$DW$95, DW_AT_type(*$C$DW$T$38)
    1031                      .dwattr $C$DW$95, DW_AT_location[DW_OP_breg20 -4]
    1032              $C$DW$96        .dwtag  DW_TAG_variable, DW_AT_name("offset")
    1033                      .dwattr $C$DW$96, DW_AT_TI_symbol_name("_offset")
    1034                      .dwattr $C$DW$96, DW_AT_type(*$C$DW$T$38)
    1035                      .dwattr $C$DW$96, DW_AT_location[DW_OP_breg20 -5]
    1036 00000001 7D44          MOV       *-SP[4],AR5           ; [CPU_] |859| 
    1037 00000002 7C43          MOV       *-SP[3],AR4           ; [CPU_] |859| 
    1038 00000003 1E42          MOVL      *-SP[2],ACC           ; [CPU_] |859| 
    1039                      .dwpsn  file "C:\Users\a0221343\Git\bootROM\f28004x_bootrom\F28004x_ROM_dev_PG2.0\F28004x_ROM\driverl
    1040 00000004 5603          MOV       ACC,*-SP[3] << #4     ; [CPU_] |864| 
         00000005 0443 
    1041 00000006 9C1C          ADDB      AL,#28                ; [CPU_] |864| 
    1042 00000007 9645          MOV       *-SP[5],AL            ; [CPU_] |864| 
    1043                      .dwpsn  file "C:\Users\a0221343\Git\bootROM\f28004x_bootrom\F28004x_ROM_dev_PG2.0\F28004x_ROM\driverl
    1044 00000008 7622   EALLOW
    1045                      .dwpsn  file "C:\Users\a0221343\Git\bootROM\f28004x_bootrom\F28004x_ROM_dev_PG2.0\F28004x_ROM\driverl
    1046 00000009 5845          MOVZ      AR0,*-SP[5]           ; [CPU_] |869| 
    1047 0000000a 8A42          MOVL      XAR4,*-SP[2]          ; [CPU_] |869| 
    1048 0000000b CC94          AND       AL,*+XAR4[AR0],#0x8000 ; [CPU_] |869| 
         0000000c 8000 
    1049 0000000d CA44          OR        AL,*-SP[4]            ; [CPU_] |869| 
    1050 0000000e 9694          MOV       *+XAR4[AR0],AL        ; [CPU_] |869| 
    1051                      .dwpsn  file "C:\Users\a0221343\Git\bootROM\f28004x_bootrom\F28004x_ROM_dev_PG2.0\F28004x_ROM\driverl
    1052 0000000f 761A   EDIS
    1053                      .dwpsn  file "C:\Users\a0221343\Git\bootROM\f28004x_bootrom\F28004x_ROM_dev_PG2.0\F28004x_ROM\driverl
    1054 00000010 FF69          SPM       #0                    ; [CPU_] 
    1055 00000011 FE86          SUBB      SP,#6                 ; [CPU_U] 
    1056                      .dwcfi  cfa_offset, -2
    1057              $C$DW$97        .dwtag  DW_TAG_TI_branch
    1058                      .dwattr $C$DW$97, DW_AT_low_pc(0x00)
    1059                      .dwattr $C$DW$97, DW_AT_TI_return
    1060 00000012 0006          LRETR     ; [CPU_] 
    1061                      ; return occurs ; [] 
    1062                      .dwattr $C$DW$89, DW_AT_TI_end_file("C:\Users\a0221343\Git\bootROM\f28004x_bootrom\F28004x_ROM_dev_PG
    1063                      .dwattr $C$DW$89, DW_AT_TI_end_line(0x369)
    1064                      .dwattr $C$DW$89, DW_AT_TI_end_column(0x01)
    1065                      .dwendentry
    1066                      .dwendtag $C$DW$89
    1067              
    1068 00000000               .sect   ".text:_SDFM_setComparatorFilterType"
    1069                      .clink
    1070              
    1071              $C$DW$98        .dwtag  DW_TAG_subprogram, DW_AT_name("SDFM_setComparatorFilterType")
    1072                      .dwattr $C$DW$98, DW_AT_low_pc(_SDFM_setComparatorFilterType)
    1073                      .dwattr $C$DW$98, DW_AT_high_pc(0x00)
TMS320C2000 Assembler PC v6.4.4 Tue Feb 14 14:43:16 2017

Tools Copyright (c) 1996-2015 Texas Instruments Incorporated
C:\Users\a0221343\AppData\Local\Temp\0924410                         PAGE   21

    1074                      .dwattr $C$DW$98, DW_AT_TI_symbol_name("_SDFM_setComparatorFilterType")
    1075                      .dwattr $C$DW$98, DW_AT_TI_begin_file("C:\Users\a0221343\Git\bootROM\f28004x_bootrom\F28004x_ROM_dev_
    1076                      .dwattr $C$DW$98, DW_AT_TI_begin_line(0x41f)
    1077                      .dwattr $C$DW$98, DW_AT_TI_begin_column(0x14)
    1078                      .dwattr $C$DW$98, DW_AT_TI_max_frame_size(-8)
    1079                      .dwpsn  file "C:\Users\a0221343\Git\bootROM\f28004x_bootrom\F28004x_ROM_dev_PG2.0\F28004x_ROM\driverl
    1080              
    1081                      .dwfde $C$DW$CIE, _SDFM_setComparatorFilterType
    1082              $C$DW$99        .dwtag  DW_TAG_formal_parameter, DW_AT_name("base")
    1083                      .dwattr $C$DW$99, DW_AT_TI_symbol_name("_base")
    1084                      .dwattr $C$DW$99, DW_AT_type(*$C$DW$T$29)
    1085                      .dwattr $C$DW$99, DW_AT_location[DW_OP_reg0]
    1086              $C$DW$100       .dwtag  DW_TAG_formal_parameter, DW_AT_name("filterNumber")
    1087                      .dwattr $C$DW$100, DW_AT_TI_symbol_name("_filterNumber")
    1088                      .dwattr $C$DW$100, DW_AT_type(*$C$DW$T$20)
    1089                      .dwattr $C$DW$100, DW_AT_location[DW_OP_reg12]
    1090              $C$DW$101       .dwtag  DW_TAG_formal_parameter, DW_AT_name("filterType")
    1091                      .dwattr $C$DW$101, DW_AT_TI_symbol_name("_filterType")
    1092                      .dwattr $C$DW$101, DW_AT_type(*$C$DW$T$22)
    1093                      .dwattr $C$DW$101, DW_AT_location[DW_OP_reg14]
    1094              
    1095              ;***************************************************************
    1096              ;* FNAME: _SDFM_setComparatorFilterType FR SIZE:   6           *
    1097              ;*                                                             *
    1098              ;* FUNCTION ENVIRONMENT                                        *
    1099              ;*                                                             *
    1100              ;* FUNCTION PROPERTIES                                         *
    1101              ;*                            0 Parameter,  5 Auto,  0 SOE     *
    1102              ;***************************************************************
    1103              
    1104 00000000       _SDFM_setComparatorFilterType:
    1105                      .dwcfi  cfa_offset, -2
    1106                      .dwcfi  save_reg_to_mem, 26, 0
    1107 00000000 FE06          ADDB      SP,#6                 ; [CPU_U] 
    1108                      .dwcfi  cfa_offset, -8
    1109              $C$DW$102       .dwtag  DW_TAG_variable, DW_AT_name("base")
    1110                      .dwattr $C$DW$102, DW_AT_TI_symbol_name("_base")
    1111                      .dwattr $C$DW$102, DW_AT_type(*$C$DW$T$29)
    1112                      .dwattr $C$DW$102, DW_AT_location[DW_OP_breg20 -2]
    1113              $C$DW$103       .dwtag  DW_TAG_variable, DW_AT_name("filterNumber")
    1114                      .dwattr $C$DW$103, DW_AT_TI_symbol_name("_filterNumber")
    1115                      .dwattr $C$DW$103, DW_AT_type(*$C$DW$T$20)
    1116                      .dwattr $C$DW$103, DW_AT_location[DW_OP_breg20 -3]
    1117              $C$DW$104       .dwtag  DW_TAG_variable, DW_AT_name("filterType")
    1118                      .dwattr $C$DW$104, DW_AT_TI_symbol_name("_filterType")
    1119                      .dwattr $C$DW$104, DW_AT_type(*$C$DW$T$22)
    1120                      .dwattr $C$DW$104, DW_AT_location[DW_OP_breg20 -4]
    1121              $C$DW$105       .dwtag  DW_TAG_variable, DW_AT_name("offset")
    1122                      .dwattr $C$DW$105, DW_AT_TI_symbol_name("_offset")
    1123                      .dwattr $C$DW$105, DW_AT_type(*$C$DW$T$38)
    1124                      .dwattr $C$DW$105, DW_AT_location[DW_OP_breg20 -5]
    1125 00000001 7D44          MOV       *-SP[4],AR5           ; [CPU_] |1058| 
    1126 00000002 7C43          MOV       *-SP[3],AR4           ; [CPU_] |1058| 
    1127 00000003 1E42          MOVL      *-SP[2],ACC           ; [CPU_] |1058| 
    1128                      .dwpsn  file "C:\Users\a0221343\Git\bootROM\f28004x_bootrom\F28004x_ROM_dev_PG2.0\F28004x_ROM\driverl
TMS320C2000 Assembler PC v6.4.4 Tue Feb 14 14:43:16 2017

Tools Copyright (c) 1996-2015 Texas Instruments Incorporated
C:\Users\a0221343\AppData\Local\Temp\0924410                         PAGE   22

    1129 00000004 5603          MOV       ACC,*-SP[3] << #4     ; [CPU_] |1063| 
         00000005 0443 
    1130 00000006 9C15          ADDB      AL,#21                ; [CPU_] |1063| 
    1131 00000007 9645          MOV       *-SP[5],AL            ; [CPU_] |1063| 
    1132                      .dwpsn  file "C:\Users\a0221343\Git\bootROM\f28004x_bootrom\F28004x_ROM_dev_PG2.0\F28004x_ROM\driverl
    1133 00000008 7622   EALLOW
    1134                      .dwpsn  file "C:\Users\a0221343\Git\bootROM\f28004x_bootrom\F28004x_ROM_dev_PG2.0\F28004x_ROM\driverl
    1135 00000009 5845          MOVZ      AR0,*-SP[5]           ; [CPU_] |1066| 
    1136 0000000a 8A42          MOVL      XAR4,*-SP[2]          ; [CPU_] |1066| 
    1137 0000000b CC94          AND       AL,*+XAR4[AR0],#0xfe7f ; [CPU_] |1066| 
         0000000c FE7F 
    1138 0000000d 88A9          MOVZ      AR6,AL                ; [CPU_] |1066| 
    1139 0000000e 5603          MOV       ACC,*-SP[4] << #3     ; [CPU_] |1066| 
         0000000f 0344 
    1140 00000010 CAA6          OR        AL,AR6                ; [CPU_] |1066| 
    1141 00000011 9694          MOV       *+XAR4[AR0],AL        ; [CPU_] |1066| 
    1142                      .dwpsn  file "C:\Users\a0221343\Git\bootROM\f28004x_bootrom\F28004x_ROM_dev_PG2.0\F28004x_ROM\driverl
    1143 00000012 761A   EDIS
    1144                      .dwpsn  file "C:\Users\a0221343\Git\bootROM\f28004x_bootrom\F28004x_ROM_dev_PG2.0\F28004x_ROM\driverl
    1145 00000013 FF69          SPM       #0                    ; [CPU_] 
    1146 00000014 FE86          SUBB      SP,#6                 ; [CPU_U] 
    1147                      .dwcfi  cfa_offset, -2
    1148              $C$DW$106       .dwtag  DW_TAG_TI_branch
    1149                      .dwattr $C$DW$106, DW_AT_low_pc(0x00)
    1150                      .dwattr $C$DW$106, DW_AT_TI_return
    1151 00000015 0006          LRETR     ; [CPU_] 
    1152                      ; return occurs ; [] 
    1153                      .dwattr $C$DW$98, DW_AT_TI_end_file("C:\Users\a0221343\Git\bootROM\f28004x_bootrom\F28004x_ROM_dev_PG
    1154                      .dwattr $C$DW$98, DW_AT_TI_end_line(0x42e)
    1155                      .dwattr $C$DW$98, DW_AT_TI_end_column(0x01)
    1156                      .dwendentry
    1157                      .dwendtag $C$DW$98
    1158              
    1159 00000000               .sect   ".text:_SDFM_setCompFilterOverSamplingRatio"
    1160                      .clink
    1161              
    1162              $C$DW$107       .dwtag  DW_TAG_subprogram, DW_AT_name("SDFM_setCompFilterOverSamplingRatio")
    1163                      .dwattr $C$DW$107, DW_AT_low_pc(_SDFM_setCompFilterOverSamplingRatio)
    1164                      .dwattr $C$DW$107, DW_AT_high_pc(0x00)
    1165                      .dwattr $C$DW$107, DW_AT_TI_symbol_name("_SDFM_setCompFilterOverSamplingRatio")
    1166                      .dwattr $C$DW$107, DW_AT_TI_begin_file("C:\Users\a0221343\Git\bootROM\f28004x_bootrom\F28004x_ROM_dev
    1167                      .dwattr $C$DW$107, DW_AT_TI_begin_line(0x43f)
    1168                      .dwattr $C$DW$107, DW_AT_TI_begin_column(0x14)
    1169                      .dwattr $C$DW$107, DW_AT_TI_max_frame_size(-8)
    1170                      .dwpsn  file "C:\Users\a0221343\Git\bootROM\f28004x_bootrom\F28004x_ROM_dev_PG2.0\F28004x_ROM\driverl
    1171              
    1172                      .dwfde $C$DW$CIE, _SDFM_setCompFilterOverSamplingRatio
    1173              $C$DW$108       .dwtag  DW_TAG_formal_parameter, DW_AT_name("base")
    1174                      .dwattr $C$DW$108, DW_AT_TI_symbol_name("_base")
    1175                      .dwattr $C$DW$108, DW_AT_type(*$C$DW$T$29)
    1176                      .dwattr $C$DW$108, DW_AT_location[DW_OP_reg0]
    1177              $C$DW$109       .dwtag  DW_TAG_formal_parameter, DW_AT_name("filterNumber")
    1178                      .dwattr $C$DW$109, DW_AT_TI_symbol_name("_filterNumber")
    1179                      .dwattr $C$DW$109, DW_AT_type(*$C$DW$T$20)
    1180                      .dwattr $C$DW$109, DW_AT_location[DW_OP_reg12]
TMS320C2000 Assembler PC v6.4.4 Tue Feb 14 14:43:16 2017

Tools Copyright (c) 1996-2015 Texas Instruments Incorporated
C:\Users\a0221343\AppData\Local\Temp\0924410                         PAGE   23

    1181              $C$DW$110       .dwtag  DW_TAG_formal_parameter, DW_AT_name("overSamplingRatio")
    1182                      .dwattr $C$DW$110, DW_AT_TI_symbol_name("_overSamplingRatio")
    1183                      .dwattr $C$DW$110, DW_AT_type(*$C$DW$T$38)
    1184                      .dwattr $C$DW$110, DW_AT_location[DW_OP_reg14]
    1185              
    1186              ;***************************************************************
    1187              ;* FNAME: _SDFM_setCompFilterOverSamplingRatio FR SIZE:   6           *
    1188              ;*                                                             *
    1189              ;* FUNCTION ENVIRONMENT                                        *
    1190              ;*                                                             *
    1191              ;* FUNCTION PROPERTIES                                         *
    1192              ;*                            0 Parameter,  5 Auto,  0 SOE     *
    1193              ;***************************************************************
    1194              
    1195 00000000       _SDFM_setCompFilterOverSamplingRatio:
    1196                      .dwcfi  cfa_offset, -2
    1197                      .dwcfi  save_reg_to_mem, 26, 0
    1198 00000000 FE06          ADDB      SP,#6                 ; [CPU_U] 
    1199                      .dwcfi  cfa_offset, -8
    1200              $C$DW$111       .dwtag  DW_TAG_variable, DW_AT_name("base")
    1201                      .dwattr $C$DW$111, DW_AT_TI_symbol_name("_base")
    1202                      .dwattr $C$DW$111, DW_AT_type(*$C$DW$T$29)
    1203                      .dwattr $C$DW$111, DW_AT_location[DW_OP_breg20 -2]
    1204              $C$DW$112       .dwtag  DW_TAG_variable, DW_AT_name("filterNumber")
    1205                      .dwattr $C$DW$112, DW_AT_TI_symbol_name("_filterNumber")
    1206                      .dwattr $C$DW$112, DW_AT_type(*$C$DW$T$20)
    1207                      .dwattr $C$DW$112, DW_AT_location[DW_OP_breg20 -3]
    1208              $C$DW$113       .dwtag  DW_TAG_variable, DW_AT_name("overSamplingRatio")
    1209                      .dwattr $C$DW$113, DW_AT_TI_symbol_name("_overSamplingRatio")
    1210                      .dwattr $C$DW$113, DW_AT_type(*$C$DW$T$38)
    1211                      .dwattr $C$DW$113, DW_AT_location[DW_OP_breg20 -4]
    1212              $C$DW$114       .dwtag  DW_TAG_variable, DW_AT_name("offset")
    1213                      .dwattr $C$DW$114, DW_AT_TI_symbol_name("_offset")
    1214                      .dwattr $C$DW$114, DW_AT_type(*$C$DW$T$38)
    1215                      .dwattr $C$DW$114, DW_AT_location[DW_OP_breg20 -5]
    1216 00000001 7D44          MOV       *-SP[4],AR5           ; [CPU_] |1090| 
    1217 00000002 7C43          MOV       *-SP[3],AR4           ; [CPU_] |1090| 
    1218 00000003 1E42          MOVL      *-SP[2],ACC           ; [CPU_] |1090| 
    1219                      .dwpsn  file "C:\Users\a0221343\Git\bootROM\f28004x_bootrom\F28004x_ROM_dev_PG2.0\F28004x_ROM\driverl
    1220 00000004 5603          MOV       ACC,*-SP[3] << #4     ; [CPU_] |1095| 
         00000005 0443 
    1221 00000006 9C15          ADDB      AL,#21                ; [CPU_] |1095| 
    1222 00000007 9645          MOV       *-SP[5],AL            ; [CPU_] |1095| 
    1223                      .dwpsn  file "C:\Users\a0221343\Git\bootROM\f28004x_bootrom\F28004x_ROM_dev_PG2.0\F28004x_ROM\driverl
    1224 00000008 7622   EALLOW
    1225                      .dwpsn  file "C:\Users\a0221343\Git\bootROM\f28004x_bootrom\F28004x_ROM_dev_PG2.0\F28004x_ROM\driverl
    1226 00000009 5845          MOVZ      AR0,*-SP[5]           ; [CPU_] |1101| 
    1227 0000000a 8A42          MOVL      XAR4,*-SP[2]          ; [CPU_] |1101| 
    1228 0000000b CC94          AND       AL,*+XAR4[AR0],#0xffe0 ; [CPU_] |1101| 
         0000000c FFE0 
    1229 0000000d CA44          OR        AL,*-SP[4]            ; [CPU_] |1101| 
    1230 0000000e 9694          MOV       *+XAR4[AR0],AL        ; [CPU_] |1101| 
    1231                      .dwpsn  file "C:\Users\a0221343\Git\bootROM\f28004x_bootrom\F28004x_ROM_dev_PG2.0\F28004x_ROM\driverl
    1232 0000000f 761A   EDIS
    1233                      .dwpsn  file "C:\Users\a0221343\Git\bootROM\f28004x_bootrom\F28004x_ROM_dev_PG2.0\F28004x_ROM\driverl
TMS320C2000 Assembler PC v6.4.4 Tue Feb 14 14:43:16 2017

Tools Copyright (c) 1996-2015 Texas Instruments Incorporated
C:\Users\a0221343\AppData\Local\Temp\0924410                         PAGE   24

    1234 00000010 FF69          SPM       #0                    ; [CPU_] 
    1235 00000011 FE86          SUBB      SP,#6                 ; [CPU_U] 
    1236                      .dwcfi  cfa_offset, -2
    1237              $C$DW$115       .dwtag  DW_TAG_TI_branch
    1238                      .dwattr $C$DW$115, DW_AT_low_pc(0x00)
    1239                      .dwattr $C$DW$115, DW_AT_TI_return
    1240 00000012 0006          LRETR     ; [CPU_] 
    1241                      ; return occurs ; [] 
    1242                      .dwattr $C$DW$107, DW_AT_TI_end_file("C:\Users\a0221343\Git\bootROM\f28004x_bootrom\F28004x_ROM_dev_P
    1243                      .dwattr $C$DW$107, DW_AT_TI_end_line(0x450)
    1244                      .dwattr $C$DW$107, DW_AT_TI_end_column(0x01)
    1245                      .dwendentry
    1246                      .dwendtag $C$DW$107
    1247              
    1248 00000000               .sect   ".text:_SDFM_setFIFOInterruptLevel"
    1249                      .clink
    1250              
    1251              $C$DW$116       .dwtag  DW_TAG_subprogram, DW_AT_name("SDFM_setFIFOInterruptLevel")
    1252                      .dwattr $C$DW$116, DW_AT_low_pc(_SDFM_setFIFOInterruptLevel)
    1253                      .dwattr $C$DW$116, DW_AT_high_pc(0x00)
    1254                      .dwattr $C$DW$116, DW_AT_TI_symbol_name("_SDFM_setFIFOInterruptLevel")
    1255                      .dwattr $C$DW$116, DW_AT_TI_begin_file("C:\Users\a0221343\Git\bootROM\f28004x_bootrom\F28004x_ROM_dev
    1256                      .dwattr $C$DW$116, DW_AT_TI_begin_line(0x5c6)
    1257                      .dwattr $C$DW$116, DW_AT_TI_begin_column(0x14)
    1258                      .dwattr $C$DW$116, DW_AT_TI_max_frame_size(-8)
    1259                      .dwpsn  file "C:\Users\a0221343\Git\bootROM\f28004x_bootrom\F28004x_ROM_dev_PG2.0\F28004x_ROM\driverl
    1260              
    1261                      .dwfde $C$DW$CIE, _SDFM_setFIFOInterruptLevel
    1262              $C$DW$117       .dwtag  DW_TAG_formal_parameter, DW_AT_name("base")
    1263                      .dwattr $C$DW$117, DW_AT_TI_symbol_name("_base")
    1264                      .dwattr $C$DW$117, DW_AT_type(*$C$DW$T$29)
    1265                      .dwattr $C$DW$117, DW_AT_location[DW_OP_reg0]
    1266              $C$DW$118       .dwtag  DW_TAG_formal_parameter, DW_AT_name("filterNumber")
    1267                      .dwattr $C$DW$118, DW_AT_TI_symbol_name("_filterNumber")
    1268                      .dwattr $C$DW$118, DW_AT_type(*$C$DW$T$20)
    1269                      .dwattr $C$DW$118, DW_AT_location[DW_OP_reg12]
    1270              $C$DW$119       .dwtag  DW_TAG_formal_parameter, DW_AT_name("fifoLevel")
    1271                      .dwattr $C$DW$119, DW_AT_TI_symbol_name("_fifoLevel")
    1272                      .dwattr $C$DW$119, DW_AT_type(*$C$DW$T$38)
    1273                      .dwattr $C$DW$119, DW_AT_location[DW_OP_reg14]
    1274              
    1275              ;***************************************************************
    1276              ;* FNAME: _SDFM_setFIFOInterruptLevel   FR SIZE:   6           *
    1277              ;*                                                             *
    1278              ;* FUNCTION ENVIRONMENT                                        *
    1279              ;*                                                             *
    1280              ;* FUNCTION PROPERTIES                                         *
    1281              ;*                            0 Parameter,  5 Auto,  0 SOE     *
    1282              ;***************************************************************
    1283              
    1284 00000000       _SDFM_setFIFOInterruptLevel:
    1285                      .dwcfi  cfa_offset, -2
    1286                      .dwcfi  save_reg_to_mem, 26, 0
    1287 00000000 FE06          ADDB      SP,#6                 ; [CPU_U] 
    1288                      .dwcfi  cfa_offset, -8
TMS320C2000 Assembler PC v6.4.4 Tue Feb 14 14:43:16 2017

Tools Copyright (c) 1996-2015 Texas Instruments Incorporated
C:\Users\a0221343\AppData\Local\Temp\0924410                         PAGE   25

    1289              $C$DW$120       .dwtag  DW_TAG_variable, DW_AT_name("base")
    1290                      .dwattr $C$DW$120, DW_AT_TI_symbol_name("_base")
    1291                      .dwattr $C$DW$120, DW_AT_type(*$C$DW$T$29)
    1292                      .dwattr $C$DW$120, DW_AT_location[DW_OP_breg20 -2]
    1293              $C$DW$121       .dwtag  DW_TAG_variable, DW_AT_name("filterNumber")
    1294                      .dwattr $C$DW$121, DW_AT_TI_symbol_name("_filterNumber")
    1295                      .dwattr $C$DW$121, DW_AT_type(*$C$DW$T$20)
    1296                      .dwattr $C$DW$121, DW_AT_location[DW_OP_breg20 -3]
    1297              $C$DW$122       .dwtag  DW_TAG_variable, DW_AT_name("fifoLevel")
    1298                      .dwattr $C$DW$122, DW_AT_TI_symbol_name("_fifoLevel")
    1299                      .dwattr $C$DW$122, DW_AT_type(*$C$DW$T$38)
    1300                      .dwattr $C$DW$122, DW_AT_location[DW_OP_breg20 -4]
    1301              $C$DW$123       .dwtag  DW_TAG_variable, DW_AT_name("offset")
    1302                      .dwattr $C$DW$123, DW_AT_TI_symbol_name("_offset")
    1303                      .dwattr $C$DW$123, DW_AT_type(*$C$DW$T$38)
    1304                      .dwattr $C$DW$123, DW_AT_location[DW_OP_breg20 -5]
    1305 00000001 7D44          MOV       *-SP[4],AR5           ; [CPU_] |1481| 
    1306 00000002 7C43          MOV       *-SP[3],AR4           ; [CPU_] |1481| 
    1307 00000003 1E42          MOVL      *-SP[2],ACC           ; [CPU_] |1481| 
    1308                      .dwpsn  file "C:\Users\a0221343\Git\bootROM\f28004x_bootrom\F28004x_ROM_dev_PG2.0\F28004x_ROM\driverl
    1309 00000004 5603          MOV       ACC,*-SP[3] << #4     ; [CPU_] |1488| 
         00000005 0443 
    1310 00000006 9C1D          ADDB      AL,#29                ; [CPU_] |1488| 
    1311 00000007 9645          MOV       *-SP[5],AL            ; [CPU_] |1488| 
    1312                      .dwpsn  file "C:\Users\a0221343\Git\bootROM\f28004x_bootrom\F28004x_ROM_dev_PG2.0\F28004x_ROM\driverl
    1313 00000008 7622   EALLOW
    1314                      .dwpsn  file "C:\Users\a0221343\Git\bootROM\f28004x_bootrom\F28004x_ROM_dev_PG2.0\F28004x_ROM\driverl
    1315 00000009 5845          MOVZ      AR0,*-SP[5]           ; [CPU_] |1492| 
    1316 0000000a 8A42          MOVL      XAR4,*-SP[2]          ; [CPU_] |1492| 
    1317 0000000b CC94          AND       AL,*+XAR4[AR0],#0xffe0 ; [CPU_] |1492| 
         0000000c FFE0 
    1318 0000000d CA44          OR        AL,*-SP[4]            ; [CPU_] |1492| 
    1319 0000000e 9694          MOV       *+XAR4[AR0],AL        ; [CPU_] |1492| 
    1320                      .dwpsn  file "C:\Users\a0221343\Git\bootROM\f28004x_bootrom\F28004x_ROM_dev_PG2.0\F28004x_ROM\driverl
    1321 0000000f 761A   EDIS
    1322                      .dwpsn  file "C:\Users\a0221343\Git\bootROM\f28004x_bootrom\F28004x_ROM_dev_PG2.0\F28004x_ROM\driverl
    1323 00000010 FF69          SPM       #0                    ; [CPU_] 
    1324 00000011 FE86          SUBB      SP,#6                 ; [CPU_U] 
    1325                      .dwcfi  cfa_offset, -2
    1326              $C$DW$124       .dwtag  DW_TAG_TI_branch
    1327                      .dwattr $C$DW$124, DW_AT_low_pc(0x00)
    1328                      .dwattr $C$DW$124, DW_AT_TI_return
    1329 00000012 0006          LRETR     ; [CPU_] 
    1330                      ; return occurs ; [] 
    1331                      .dwattr $C$DW$116, DW_AT_TI_end_file("C:\Users\a0221343\Git\bootROM\f28004x_bootrom\F28004x_ROM_dev_P
    1332                      .dwattr $C$DW$116, DW_AT_TI_end_line(0x5d7)
    1333                      .dwattr $C$DW$116, DW_AT_TI_end_column(0x01)
    1334                      .dwendentry
    1335                      .dwendtag $C$DW$116
    1336              
    1337 00000000               .sect   ".text:_SDFM_configComparator"
    1338                      .clink
    1339                      .global _SDFM_configComparator
    1340              
    1341              $C$DW$125       .dwtag  DW_TAG_subprogram, DW_AT_name("SDFM_configComparator")
TMS320C2000 Assembler PC v6.4.4 Tue Feb 14 14:43:16 2017

Tools Copyright (c) 1996-2015 Texas Instruments Incorporated
C:\Users\a0221343\AppData\Local\Temp\0924410                         PAGE   26

    1342                      .dwattr $C$DW$125, DW_AT_low_pc(_SDFM_configComparator)
    1343                      .dwattr $C$DW$125, DW_AT_high_pc(0x00)
    1344                      .dwattr $C$DW$125, DW_AT_TI_symbol_name("_SDFM_configComparator")
    1345                      .dwattr $C$DW$125, DW_AT_external
    1346                      .dwattr $C$DW$125, DW_AT_TI_begin_file("C:/Users/a0221343/Git/bootROM/f28004x_bootrom/F28004x_ROM_dev
    1347                      .dwattr $C$DW$125, DW_AT_TI_begin_line(0x28)
    1348                      .dwattr $C$DW$125, DW_AT_TI_begin_column(0x06)
    1349                      .dwattr $C$DW$125, DW_AT_TI_max_frame_size(-6)
    1350                      .dwpsn  file "C:/Users/a0221343/Git/bootROM/f28004x_bootrom/F28004x_ROM_dev_PG2.0/F28004x_ROM/driverl
    1351              
    1352                      .dwfde $C$DW$CIE, _SDFM_configComparator
    1353              $C$DW$126       .dwtag  DW_TAG_formal_parameter, DW_AT_name("base")
    1354                      .dwattr $C$DW$126, DW_AT_TI_symbol_name("_base")
    1355                      .dwattr $C$DW$126, DW_AT_type(*$C$DW$T$29)
    1356                      .dwattr $C$DW$126, DW_AT_location[DW_OP_reg0]
    1357              $C$DW$127       .dwtag  DW_TAG_formal_parameter, DW_AT_name("config1")
    1358                      .dwattr $C$DW$127, DW_AT_TI_symbol_name("_config1")
    1359                      .dwattr $C$DW$127, DW_AT_type(*$C$DW$T$38)
    1360                      .dwattr $C$DW$127, DW_AT_location[DW_OP_reg12]
    1361              $C$DW$128       .dwtag  DW_TAG_formal_parameter, DW_AT_name("config2")
    1362                      .dwattr $C$DW$128, DW_AT_TI_symbol_name("_config2")
    1363                      .dwattr $C$DW$128, DW_AT_type(*$C$DW$T$29)
    1364                      .dwattr $C$DW$128, DW_AT_location[DW_OP_breg20 -8]
    1365              
    1366              ;***************************************************************
    1367              ;* FNAME: _SDFM_configComparator        FR SIZE:   4           *
    1368              ;*                                                             *
    1369              ;* FUNCTION ENVIRONMENT                                        *
    1370              ;*                                                             *
    1371              ;* FUNCTION PROPERTIES                                         *
    1372              ;*                            0 Parameter,  4 Auto,  0 SOE     *
    1373              ;***************************************************************
    1374              
    1375 00000000       _SDFM_configComparator:
    1376                      .dwcfi  cfa_offset, -2
    1377                      .dwcfi  save_reg_to_mem, 26, 0
    1378 00000000 FE04          ADDB      SP,#4                 ; [CPU_U] 
    1379                      .dwcfi  cfa_offset, -6
    1380              $C$DW$129       .dwtag  DW_TAG_variable, DW_AT_name("base")
    1381                      .dwattr $C$DW$129, DW_AT_TI_symbol_name("_base")
    1382                      .dwattr $C$DW$129, DW_AT_type(*$C$DW$T$29)
    1383                      .dwattr $C$DW$129, DW_AT_location[DW_OP_breg20 -2]
    1384              $C$DW$130       .dwtag  DW_TAG_variable, DW_AT_name("config1")
    1385                      .dwattr $C$DW$130, DW_AT_TI_symbol_name("_config1")
    1386                      .dwattr $C$DW$130, DW_AT_type(*$C$DW$T$38)
    1387                      .dwattr $C$DW$130, DW_AT_location[DW_OP_breg20 -3]
    1388              $C$DW$131       .dwtag  DW_TAG_variable, DW_AT_name("oversamplingRatio")
    1389                      .dwattr $C$DW$131, DW_AT_TI_symbol_name("_oversamplingRatio")
    1390                      .dwattr $C$DW$131, DW_AT_type(*$C$DW$T$38)
    1391                      .dwattr $C$DW$131, DW_AT_location[DW_OP_breg20 -4]
    1392 00000001 7C43          MOV       *-SP[3],AR4           ; [CPU_] |41| 
    1393 00000002 1E42          MOVL      *-SP[2],ACC           ; [CPU_] |41| 
    1394                      .dwpsn  file "C:/Users/a0221343/Git/bootROM/f28004x_bootrom/F28004x_ROM_dev_PG2.0/F28004x_ROM/driverl
    1395 00000003 9243          MOV       AL,*-SP[3]            ; [CPU_] |45| 
    1396 00000004 9CFF          ADDB      AL,#-1                ; [CPU_] |45| 
TMS320C2000 Assembler PC v6.4.4 Tue Feb 14 14:43:16 2017

Tools Copyright (c) 1996-2015 Texas Instruments Incorporated
C:\Users\a0221343\AppData\Local\Temp\0924410                         PAGE   27

    1397 00000005 FFC7          LSR       AL,8                  ; [CPU_] |45| 
    1398 00000006 9644          MOV       *-SP[4],AL            ; [CPU_] |45| 
    1399                      .dwpsn  file "C:/Users/a0221343/Git/bootROM/f28004x_bootrom/F28004x_ROM_dev_PG2.0/F28004x_ROM/driverl
    1400 00000007 521F          CMPB      AL,#31                ; [CPU_] |48| 
    1401 00000008 56C9          BF        $C$L2,LOS             ; [CPU_] |48| 
         00000009 0004 
    1402                      ; branchcc occurs ; [] |48| 
    1403                      .dwpsn  file "C:/Users/a0221343/Git/bootROM/f28004x_bootrom/F28004x_ROM_dev_PG2.0/F28004x_ROM/driverl
    1404 0000000a 56BF          MOVB      *-SP[4],#31,UNC       ; [CPU_] |50| 
         0000000b 1F44 
    1405 0000000c       $C$L2:    
    1406                      .dwpsn  file "C:/Users/a0221343/Git/bootROM/f28004x_bootrom/F28004x_ROM_dev_PG2.0/F28004x_ROM/driverl
    1407 0000000c CC43          AND       AL,*-SP[3],#0x0003    ; [CPU_] |53| 
         0000000d 0003 
    1408 0000000e 5CA9          MOVZ      AR4,AL                ; [CPU_] |53| 
    1409 0000000f CC43          AND       AL,*-SP[3],#0x0030    ; [CPU_] |53| 
         00000010 0030 
    1410 00000011 5DA9          MOVZ      AR5,AL                ; [CPU_] |53| 
    1411 00000012 0642          MOVL      ACC,*-SP[2]           ; [CPU_] |53| 
    1412              $C$DW$132       .dwtag  DW_TAG_TI_branch
    1413                      .dwattr $C$DW$132, DW_AT_low_pc(0x00)
    1414                      .dwattr $C$DW$132, DW_AT_name("_SDFM_setComparatorFilterType")
    1415                      .dwattr $C$DW$132, DW_AT_TI_call
    1416 00000013 7640+         LCR       #_SDFM_setComparatorFilterType ; [CPU_] |53| 
         00000014 0000 
    1417                      ; call occurs [#_SDFM_setComparatorFilterType] ; [] |53| 
    1418                      .dwpsn  file "C:/Users/a0221343/Git/bootROM/f28004x_bootrom/F28004x_ROM_dev_PG2.0/F28004x_ROM/driverl
    1419 00000015 CC43          AND       AL,*-SP[3],#0x0003    ; [CPU_] |58| 
         00000016 0003 
    1420 00000017 5D44          MOVZ      AR5,*-SP[4]           ; [CPU_] |58| 
    1421 00000018 5CA9          MOVZ      AR4,AL                ; [CPU_] |58| 
    1422 00000019 0642          MOVL      ACC,*-SP[2]           ; [CPU_] |58| 
    1423              $C$DW$133       .dwtag  DW_TAG_TI_branch
    1424                      .dwattr $C$DW$133, DW_AT_low_pc(0x00)
    1425                      .dwattr $C$DW$133, DW_AT_name("_SDFM_setCompFilterOverSamplingRatio")
    1426                      .dwattr $C$DW$133, DW_AT_TI_call
    1427 0000001a 7640+         LCR       #_SDFM_setCompFilterOverSamplingRatio ; [CPU_] |58| 
         0000001b 0000 
    1428                      ; call occurs [#_SDFM_setCompFilterOverSamplingRatio] ; [] |58| 
    1429                      .dwpsn  file "C:/Users/a0221343/Git/bootROM/f28004x_bootrom/F28004x_ROM_dev_PG2.0/F28004x_ROM/driverl
    1430 0000001c CC43          AND       AL,*-SP[3],#0x0003    ; [CPU_] |63| 
         0000001d 0003 
    1431 0000001e 5CA9          MOVZ      AR4,AL                ; [CPU_] |63| 
    1432 0000001f 0648          MOVL      ACC,*-SP[8]           ; [CPU_] |63| 
    1433 00000020 0EA8          MOVU      ACC,AH                ; [CPU_] |63| 
    1434 00000021 5DA9          MOVZ      AR5,AL                ; [CPU_] |63| 
    1435 00000022 0642          MOVL      ACC,*-SP[2]           ; [CPU_] |63| 
    1436              $C$DW$134       .dwtag  DW_TAG_TI_branch
    1437                      .dwattr $C$DW$134, DW_AT_low_pc(0x00)
    1438                      .dwattr $C$DW$134, DW_AT_name("_SDFM_setCompFilterHighThreshold")
    1439                      .dwattr $C$DW$134, DW_AT_TI_call
    1440 00000023 7640+         LCR       #_SDFM_setCompFilterHighThreshold ; [CPU_] |63| 
         00000024 0000 
    1441                      ; call occurs [#_SDFM_setCompFilterHighThreshold] ; [] |63| 
    1442                      .dwpsn  file "C:/Users/a0221343/Git/bootROM/f28004x_bootrom/F28004x_ROM_dev_PG2.0/F28004x_ROM/driverl
TMS320C2000 Assembler PC v6.4.4 Tue Feb 14 14:43:16 2017

Tools Copyright (c) 1996-2015 Texas Instruments Incorporated
C:\Users\a0221343\AppData\Local\Temp\0924410                         PAGE   28

    1443 00000025 CC43          AND       AL,*-SP[3],#0x0003    ; [CPU_] |68| 
         00000026 0003 
    1444 00000027 5D48          MOVZ      AR5,*-SP[8]           ; [CPU_] |68| 
    1445 00000028 5CA9          MOVZ      AR4,AL                ; [CPU_] |68| 
    1446 00000029 0642          MOVL      ACC,*-SP[2]           ; [CPU_] |68| 
    1447              $C$DW$135       .dwtag  DW_TAG_TI_branch
    1448                      .dwattr $C$DW$135, DW_AT_low_pc(0x00)
    1449                      .dwattr $C$DW$135, DW_AT_name("_SDFM_setCompFilterLowThreshold")
    1450                      .dwattr $C$DW$135, DW_AT_TI_call
    1451 0000002a 7640+         LCR       #_SDFM_setCompFilterLowThreshold ; [CPU_] |68| 
         0000002b 0000 
    1452                      ; call occurs [#_SDFM_setCompFilterLowThreshold] ; [] |68| 
    1453                      .dwpsn  file "C:/Users/a0221343/Git/bootROM/f28004x_bootrom/F28004x_ROM_dev_PG2.0/F28004x_ROM/driverl
    1454 0000002c FE84          SUBB      SP,#4                 ; [CPU_U] 
    1455                      .dwcfi  cfa_offset, -2
    1456              $C$DW$136       .dwtag  DW_TAG_TI_branch
    1457                      .dwattr $C$DW$136, DW_AT_low_pc(0x00)
    1458                      .dwattr $C$DW$136, DW_AT_TI_return
    1459 0000002d 0006          LRETR     ; [CPU_] 
    1460                      ; return occurs ; [] 
    1461                      .dwattr $C$DW$125, DW_AT_TI_end_file("C:/Users/a0221343/Git/bootROM/f28004x_bootrom/F28004x_ROM_dev_P
    1462                      .dwattr $C$DW$125, DW_AT_TI_end_line(0x48)
    1463                      .dwattr $C$DW$125, DW_AT_TI_end_column(0x01)
    1464                      .dwendentry
    1465                      .dwendtag $C$DW$125
    1466              
    1467 00000000               .sect   ".text:_SDFM_configDataFilter"
    1468                      .clink
    1469                      .global _SDFM_configDataFilter
    1470              
    1471              $C$DW$137       .dwtag  DW_TAG_subprogram, DW_AT_name("SDFM_configDataFilter")
    1472                      .dwattr $C$DW$137, DW_AT_low_pc(_SDFM_configDataFilter)
    1473                      .dwattr $C$DW$137, DW_AT_high_pc(0x00)
    1474                      .dwattr $C$DW$137, DW_AT_TI_symbol_name("_SDFM_configDataFilter")
    1475                      .dwattr $C$DW$137, DW_AT_external
    1476                      .dwattr $C$DW$137, DW_AT_TI_begin_file("C:/Users/a0221343/Git/bootROM/f28004x_bootrom/F28004x_ROM_dev
    1477                      .dwattr $C$DW$137, DW_AT_TI_begin_line(0x4f)
    1478                      .dwattr $C$DW$137, DW_AT_TI_begin_column(0x06)
    1479                      .dwattr $C$DW$137, DW_AT_TI_max_frame_size(-8)
    1480                      .dwpsn  file "C:/Users/a0221343/Git/bootROM/f28004x_bootrom/F28004x_ROM_dev_PG2.0/F28004x_ROM/driverl
    1481              
    1482                      .dwfde $C$DW$CIE, _SDFM_configDataFilter
    1483              $C$DW$138       .dwtag  DW_TAG_formal_parameter, DW_AT_name("base")
    1484                      .dwattr $C$DW$138, DW_AT_TI_symbol_name("_base")
    1485                      .dwattr $C$DW$138, DW_AT_type(*$C$DW$T$29)
    1486                      .dwattr $C$DW$138, DW_AT_location[DW_OP_reg0]
    1487              $C$DW$139       .dwtag  DW_TAG_formal_parameter, DW_AT_name("config1")
    1488                      .dwattr $C$DW$139, DW_AT_TI_symbol_name("_config1")
    1489                      .dwattr $C$DW$139, DW_AT_type(*$C$DW$T$38)
    1490                      .dwattr $C$DW$139, DW_AT_location[DW_OP_reg12]
    1491              $C$DW$140       .dwtag  DW_TAG_formal_parameter, DW_AT_name("config2")
    1492                      .dwattr $C$DW$140, DW_AT_TI_symbol_name("_config2")
    1493                      .dwattr $C$DW$140, DW_AT_type(*$C$DW$T$38)
    1494                      .dwattr $C$DW$140, DW_AT_location[DW_OP_reg14]
    1495              
TMS320C2000 Assembler PC v6.4.4 Tue Feb 14 14:43:16 2017

Tools Copyright (c) 1996-2015 Texas Instruments Incorporated
C:\Users\a0221343\AppData\Local\Temp\0924410                         PAGE   29

    1496              ;***************************************************************
    1497              ;* FNAME: _SDFM_configDataFilter        FR SIZE:   6           *
    1498              ;*                                                             *
    1499              ;* FUNCTION ENVIRONMENT                                        *
    1500              ;*                                                             *
    1501              ;* FUNCTION PROPERTIES                                         *
    1502              ;*                            0 Parameter,  5 Auto,  0 SOE     *
    1503              ;***************************************************************
    1504              
    1505 00000000       _SDFM_configDataFilter:
    1506                      .dwcfi  cfa_offset, -2
    1507                      .dwcfi  save_reg_to_mem, 26, 0
    1508 00000000 FE06          ADDB      SP,#6                 ; [CPU_U] 
    1509                      .dwcfi  cfa_offset, -8
    1510              $C$DW$141       .dwtag  DW_TAG_variable, DW_AT_name("base")
    1511                      .dwattr $C$DW$141, DW_AT_TI_symbol_name("_base")
    1512                      .dwattr $C$DW$141, DW_AT_type(*$C$DW$T$29)
    1513                      .dwattr $C$DW$141, DW_AT_location[DW_OP_breg20 -2]
    1514              $C$DW$142       .dwtag  DW_TAG_variable, DW_AT_name("config1")
    1515                      .dwattr $C$DW$142, DW_AT_TI_symbol_name("_config1")
    1516                      .dwattr $C$DW$142, DW_AT_type(*$C$DW$T$38)
    1517                      .dwattr $C$DW$142, DW_AT_location[DW_OP_breg20 -3]
    1518              $C$DW$143       .dwtag  DW_TAG_variable, DW_AT_name("config2")
    1519                      .dwattr $C$DW$143, DW_AT_TI_symbol_name("_config2")
    1520                      .dwattr $C$DW$143, DW_AT_type(*$C$DW$T$38)
    1521                      .dwattr $C$DW$143, DW_AT_location[DW_OP_breg20 -4]
    1522              $C$DW$144       .dwtag  DW_TAG_variable, DW_AT_name("oversamplingRatio")
    1523                      .dwattr $C$DW$144, DW_AT_TI_symbol_name("_oversamplingRatio")
    1524                      .dwattr $C$DW$144, DW_AT_type(*$C$DW$T$38)
    1525                      .dwattr $C$DW$144, DW_AT_location[DW_OP_breg20 -5]
    1526 00000001 7D44          MOV       *-SP[4],AR5           ; [CPU_] |80| 
    1527 00000002 7C43          MOV       *-SP[3],AR4           ; [CPU_] |80| 
    1528 00000003 1E42          MOVL      *-SP[2],ACC           ; [CPU_] |80| 
    1529                      .dwpsn  file "C:/Users/a0221343/Git/bootROM/f28004x_bootrom/F28004x_ROM_dev_PG2.0/F28004x_ROM/driverl
    1530 00000004 9243          MOV       AL,*-SP[3]            ; [CPU_] |84| 
    1531 00000005 9CFF          ADDB      AL,#-1                ; [CPU_] |84| 
    1532 00000006 FFC7          LSR       AL,8                  ; [CPU_] |84| 
    1533 00000007 9645          MOV       *-SP[5],AL            ; [CPU_] |84| 
    1534                      .dwpsn  file "C:/Users/a0221343/Git/bootROM/f28004x_bootrom/F28004x_ROM_dev_PG2.0/F28004x_ROM/driverl
    1535 00000008 52FF          CMPB      AL,#255               ; [CPU_] |87| 
    1536 00000009 56C9          BF        $C$L3,LOS             ; [CPU_] |87| 
         0000000a 0004 
    1537                      ; branchcc occurs ; [] |87| 
    1538                      .dwpsn  file "C:/Users/a0221343/Git/bootROM/f28004x_bootrom/F28004x_ROM_dev_PG2.0/F28004x_ROM/driverl
    1539 0000000b 56BF          MOVB      *-SP[5],#255,UNC      ; [CPU_] |89| 
         0000000c FF45 
    1540 0000000d       $C$L3:    
    1541                      .dwpsn  file "C:/Users/a0221343/Git/bootROM/f28004x_bootrom/F28004x_ROM_dev_PG2.0/F28004x_ROM/driverl
    1542 0000000d CC43          AND       AL,*-SP[3],#0x0003    ; [CPU_] |92| 
         0000000e 0003 
    1543 0000000f 5CA9          MOVZ      AR4,AL                ; [CPU_] |92| 
    1544 00000010 CC43          AND       AL,*-SP[3],#0x0030    ; [CPU_] |92| 
         00000011 0030 
    1545 00000012 5DA9          MOVZ      AR5,AL                ; [CPU_] |92| 
    1546 00000013 0642          MOVL      ACC,*-SP[2]           ; [CPU_] |92| 
TMS320C2000 Assembler PC v6.4.4 Tue Feb 14 14:43:16 2017

Tools Copyright (c) 1996-2015 Texas Instruments Incorporated
C:\Users\a0221343\AppData\Local\Temp\0924410                         PAGE   30

    1547              $C$DW$145       .dwtag  DW_TAG_TI_branch
    1548                      .dwattr $C$DW$145, DW_AT_low_pc(0x00)
    1549                      .dwattr $C$DW$145, DW_AT_name("_SDFM_setFilterType")
    1550                      .dwattr $C$DW$145, DW_AT_TI_call
    1551 00000014 7640+         LCR       #_SDFM_setFilterType  ; [CPU_] |92| 
         00000015 0000 
    1552                      ; call occurs [#_SDFM_setFilterType] ; [] |92| 
    1553                      .dwpsn  file "C:/Users/a0221343/Git/bootROM/f28004x_bootrom/F28004x_ROM_dev_PG2.0/F28004x_ROM/driverl
    1554 00000016 CC43          AND       AL,*-SP[3],#0x0003    ; [CPU_] |95| 
         00000017 0003 
    1555 00000018 5D45          MOVZ      AR5,*-SP[5]           ; [CPU_] |95| 
    1556 00000019 5CA9          MOVZ      AR4,AL                ; [CPU_] |95| 
    1557 0000001a 0642          MOVL      ACC,*-SP[2]           ; [CPU_] |95| 
    1558              $C$DW$146       .dwtag  DW_TAG_TI_branch
    1559                      .dwattr $C$DW$146, DW_AT_low_pc(0x00)
    1560                      .dwattr $C$DW$146, DW_AT_name("_SDFM_setFilterOverSamplingRatio")
    1561                      .dwattr $C$DW$146, DW_AT_TI_call
    1562 0000001b 7640+         LCR       #_SDFM_setFilterOverSamplingRatio ; [CPU_] |95| 
         0000001c 0000 
    1563                      ; call occurs [#_SDFM_setFilterOverSamplingRatio] ; [] |95| 
    1564                      .dwpsn  file "C:/Users/a0221343/Git/bootROM/f28004x_bootrom/F28004x_ROM_dev_PG2.0/F28004x_ROM/driverl
    1565 0000001d 9244          MOV       AL,*-SP[4]            ; [CPU_] |100| 
    1566 0000001e 9002          ANDB      AL,#0x02              ; [CPU_] |100| 
    1567 0000001f 5202          CMPB      AL,#2                 ; [CPU_] |100| 
    1568 00000020 ED08          BF        $C$L4,NEQ             ; [CPU_] |100| 
    1569                      ; branchcc occurs ; [] |100| 
    1570                      .dwpsn  file "C:/Users/a0221343/Git/bootROM/f28004x_bootrom/F28004x_ROM_dev_PG2.0/F28004x_ROM/driverl
    1571 00000021 CC43          AND       AL,*-SP[3],#0x0003    ; [CPU_] |102| 
         00000022 0003 
    1572 00000023 5CA9          MOVZ      AR4,AL                ; [CPU_] |102| 
    1573 00000024 0642          MOVL      ACC,*-SP[2]           ; [CPU_] |102| 
    1574              $C$DW$147       .dwtag  DW_TAG_TI_branch
    1575                      .dwattr $C$DW$147, DW_AT_low_pc(0x00)
    1576                      .dwattr $C$DW$147, DW_AT_name("_SDFM_enableFilter")
    1577                      .dwattr $C$DW$147, DW_AT_TI_call
    1578 00000025 7640+         LCR       #_SDFM_enableFilter   ; [CPU_] |102| 
         00000026 0000 
    1579                      ; call occurs [#_SDFM_enableFilter] ; [] |102| 
    1580                      .dwpsn  file "C:/Users/a0221343/Git/bootROM/f28004x_bootrom/F28004x_ROM_dev_PG2.0/F28004x_ROM/driverl
    1581 00000027 6F07          B         $C$L5,UNC             ; [CPU_] |104| 
    1582                      ; branch occurs ; [] |104| 
    1583 00000028       $C$L4:    
    1584                      .dwpsn  file "C:/Users/a0221343/Git/bootROM/f28004x_bootrom/F28004x_ROM_dev_PG2.0/F28004x_ROM/driverl
    1585 00000028 CC43          AND       AL,*-SP[3],#0x0003    ; [CPU_] |107| 
         00000029 0003 
    1586 0000002a 5CA9          MOVZ      AR4,AL                ; [CPU_] |107| 
    1587 0000002b 0642          MOVL      ACC,*-SP[2]           ; [CPU_] |107| 
    1588              $C$DW$148       .dwtag  DW_TAG_TI_branch
    1589                      .dwattr $C$DW$148, DW_AT_low_pc(0x00)
    1590                      .dwattr $C$DW$148, DW_AT_name("_SDFM_disableFilter")
    1591                      .dwattr $C$DW$148, DW_AT_TI_call
    1592 0000002c 7640+         LCR       #_SDFM_disableFilter  ; [CPU_] |107| 
         0000002d 0000 
    1593                      ; call occurs [#_SDFM_disableFilter] ; [] |107| 
    1594 0000002e       $C$L5:    
TMS320C2000 Assembler PC v6.4.4 Tue Feb 14 14:43:16 2017

Tools Copyright (c) 1996-2015 Texas Instruments Incorporated
C:\Users\a0221343\AppData\Local\Temp\0924410                         PAGE   31

    1595                      .dwpsn  file "C:/Users/a0221343/Git/bootROM/f28004x_bootrom/F28004x_ROM_dev_PG2.0/F28004x_ROM/driverl
    1596 0000002e CC43          AND       AL,*-SP[3],#0x0003    ; [CPU_] |112| 
         0000002f 0003 
    1597 00000030 5CA9          MOVZ      AR4,AL                ; [CPU_] |112| 
    1598 00000031 CC44          AND       AL,*-SP[4],#0x0001    ; [CPU_] |112| 
         00000032 0001 
    1599 00000033 5DA9          MOVZ      AR5,AL                ; [CPU_] |112| 
    1600 00000034 0642          MOVL      ACC,*-SP[2]           ; [CPU_] |112| 
    1601              $C$DW$149       .dwtag  DW_TAG_TI_branch
    1602                      .dwattr $C$DW$149, DW_AT_low_pc(0x00)
    1603                      .dwattr $C$DW$149, DW_AT_name("_SDFM_setOutputDataFormat")
    1604                      .dwattr $C$DW$149, DW_AT_TI_call
    1605 00000035 7640+         LCR       #_SDFM_setOutputDataFormat ; [CPU_] |112| 
         00000036 0000 
    1606                      ; call occurs [#_SDFM_setOutputDataFormat] ; [] |112| 
    1607                      .dwpsn  file "C:/Users/a0221343/Git/bootROM/f28004x_bootrom/F28004x_ROM_dev_PG2.0/F28004x_ROM/driverl
    1608 00000037 4044          TBIT      *-SP[4],#0            ; [CPU_] |117| 
    1609 00000038 EE0B          BF        $C$L6,TC              ; [CPU_] |117| 
    1610                      ; branchcc occurs ; [] |117| 
    1611                      .dwpsn  file "C:/Users/a0221343/Git/bootROM/f28004x_bootrom/F28004x_ROM_dev_PG2.0/F28004x_ROM/driverl
    1612 00000039 CC43          AND       AL,*-SP[3],#0x0003    ; [CPU_] |119| 
         0000003a 0003 
    1613 0000003b 5CA9          MOVZ      AR4,AL                ; [CPU_] |119| 
    1614 0000003c CC44          AND       AL,*-SP[4],#0x007c    ; [CPU_] |119| 
         0000003d 007C 
    1615 0000003e FFC1          LSR       AL,2                  ; [CPU_] |119| 
    1616 0000003f 5DA9          MOVZ      AR5,AL                ; [CPU_] |119| 
    1617 00000040 0642          MOVL      ACC,*-SP[2]           ; [CPU_] |119| 
    1618              $C$DW$150       .dwtag  DW_TAG_TI_branch
    1619                      .dwattr $C$DW$150, DW_AT_low_pc(0x00)
    1620                      .dwattr $C$DW$150, DW_AT_name("_SDFM_setDataShiftValue")
    1621                      .dwattr $C$DW$150, DW_AT_TI_call
    1622 00000041 7640+         LCR       #_SDFM_setDataShiftValue ; [CPU_] |119| 
         00000042 0000 
    1623                      ; call occurs [#_SDFM_setDataShiftValue] ; [] |119| 
    1624                      .dwpsn  file "C:/Users/a0221343/Git/bootROM/f28004x_bootrom/F28004x_ROM_dev_PG2.0/F28004x_ROM/driverl
    1625 00000043       $C$L6:    
    1626 00000043 FE86          SUBB      SP,#6                 ; [CPU_U] 
    1627                      .dwcfi  cfa_offset, -2
    1628              $C$DW$151       .dwtag  DW_TAG_TI_branch
    1629                      .dwattr $C$DW$151, DW_AT_low_pc(0x00)
    1630                      .dwattr $C$DW$151, DW_AT_TI_return
    1631 00000044 0006          LRETR     ; [CPU_] 
    1632                      ; return occurs ; [] 
    1633                      .dwattr $C$DW$137, DW_AT_TI_end_file("C:/Users/a0221343/Git/bootROM/f28004x_bootrom/F28004x_ROM_dev_P
    1634                      .dwattr $C$DW$137, DW_AT_TI_end_line(0x7b)
    1635                      .dwattr $C$DW$137, DW_AT_TI_end_column(0x01)
    1636                      .dwendentry
    1637                      .dwendtag $C$DW$137
    1638              
    1639 00000000               .sect   ".text:_SDFM_configZeroCrossComparator"
    1640                      .clink
    1641                      .global _SDFM_configZeroCrossComparator
    1642              
    1643              $C$DW$152       .dwtag  DW_TAG_subprogram, DW_AT_name("SDFM_configZeroCrossComparator")
TMS320C2000 Assembler PC v6.4.4 Tue Feb 14 14:43:16 2017

Tools Copyright (c) 1996-2015 Texas Instruments Incorporated
C:\Users\a0221343\AppData\Local\Temp\0924410                         PAGE   32

    1644                      .dwattr $C$DW$152, DW_AT_low_pc(_SDFM_configZeroCrossComparator)
    1645                      .dwattr $C$DW$152, DW_AT_high_pc(0x00)
    1646                      .dwattr $C$DW$152, DW_AT_TI_symbol_name("_SDFM_configZeroCrossComparator")
    1647                      .dwattr $C$DW$152, DW_AT_external
    1648                      .dwattr $C$DW$152, DW_AT_TI_begin_file("C:/Users/a0221343/Git/bootROM/f28004x_bootrom/F28004x_ROM_dev
    1649                      .dwattr $C$DW$152, DW_AT_TI_begin_line(0x82)
    1650                      .dwattr $C$DW$152, DW_AT_TI_begin_column(0x06)
    1651                      .dwattr $C$DW$152, DW_AT_TI_max_frame_size(-8)
    1652                      .dwpsn  file "C:/Users/a0221343/Git/bootROM/f28004x_bootrom/F28004x_ROM_dev_PG2.0/F28004x_ROM/driverl
    1653              
    1654                      .dwfde $C$DW$CIE, _SDFM_configZeroCrossComparator
    1655              $C$DW$153       .dwtag  DW_TAG_formal_parameter, DW_AT_name("base")
    1656                      .dwattr $C$DW$153, DW_AT_TI_symbol_name("_base")
    1657                      .dwattr $C$DW$153, DW_AT_type(*$C$DW$T$29)
    1658                      .dwattr $C$DW$153, DW_AT_location[DW_OP_reg0]
    1659              $C$DW$154       .dwtag  DW_TAG_formal_parameter, DW_AT_name("config1")
    1660                      .dwattr $C$DW$154, DW_AT_TI_symbol_name("_config1")
    1661                      .dwattr $C$DW$154, DW_AT_type(*$C$DW$T$38)
    1662                      .dwattr $C$DW$154, DW_AT_location[DW_OP_reg12]
    1663              $C$DW$155       .dwtag  DW_TAG_formal_parameter, DW_AT_name("config2")
    1664                      .dwattr $C$DW$155, DW_AT_TI_symbol_name("_config2")
    1665                      .dwattr $C$DW$155, DW_AT_type(*$C$DW$T$38)
    1666                      .dwattr $C$DW$155, DW_AT_location[DW_OP_reg14]
    1667              
    1668              ;***************************************************************
    1669              ;* FNAME: _SDFM_configZeroCrossComparator FR SIZE:   6           *
    1670              ;*                                                             *
    1671              ;* FUNCTION ENVIRONMENT                                        *
    1672              ;*                                                             *
    1673              ;* FUNCTION PROPERTIES                                         *
    1674              ;*                            0 Parameter,  5 Auto,  0 SOE     *
    1675              ;***************************************************************
    1676              
    1677 00000000       _SDFM_configZeroCrossComparator:
    1678                      .dwcfi  cfa_offset, -2
    1679                      .dwcfi  save_reg_to_mem, 26, 0
    1680 00000000 FE06          ADDB      SP,#6                 ; [CPU_U] 
    1681                      .dwcfi  cfa_offset, -8
    1682              $C$DW$156       .dwtag  DW_TAG_variable, DW_AT_name("base")
    1683                      .dwattr $C$DW$156, DW_AT_TI_symbol_name("_base")
    1684                      .dwattr $C$DW$156, DW_AT_type(*$C$DW$T$29)
    1685                      .dwattr $C$DW$156, DW_AT_location[DW_OP_breg20 -2]
    1686              $C$DW$157       .dwtag  DW_TAG_variable, DW_AT_name("config1")
    1687                      .dwattr $C$DW$157, DW_AT_TI_symbol_name("_config1")
    1688                      .dwattr $C$DW$157, DW_AT_type(*$C$DW$T$38)
    1689                      .dwattr $C$DW$157, DW_AT_location[DW_OP_breg20 -3]
    1690              $C$DW$158       .dwtag  DW_TAG_variable, DW_AT_name("config2")
    1691                      .dwattr $C$DW$158, DW_AT_TI_symbol_name("_config2")
    1692                      .dwattr $C$DW$158, DW_AT_type(*$C$DW$T$38)
    1693                      .dwattr $C$DW$158, DW_AT_location[DW_OP_breg20 -4]
    1694              $C$DW$159       .dwtag  DW_TAG_variable, DW_AT_name("oversamplingRatio")
    1695                      .dwattr $C$DW$159, DW_AT_TI_symbol_name("_oversamplingRatio")
    1696                      .dwattr $C$DW$159, DW_AT_type(*$C$DW$T$38)
    1697                      .dwattr $C$DW$159, DW_AT_location[DW_OP_breg20 -5]
    1698 00000001 7D44          MOV       *-SP[4],AR5           ; [CPU_] |132| 
TMS320C2000 Assembler PC v6.4.4 Tue Feb 14 14:43:16 2017

Tools Copyright (c) 1996-2015 Texas Instruments Incorporated
C:\Users\a0221343\AppData\Local\Temp\0924410                         PAGE   33

    1699 00000002 7C43          MOV       *-SP[3],AR4           ; [CPU_] |132| 
    1700 00000003 1E42          MOVL      *-SP[2],ACC           ; [CPU_] |132| 
    1701                      .dwpsn  file "C:/Users/a0221343/Git/bootROM/f28004x_bootrom/F28004x_ROM_dev_PG2.0/F28004x_ROM/driverl
    1702 00000004 9243          MOV       AL,*-SP[3]            ; [CPU_] |135| 
    1703 00000005 9CFF          ADDB      AL,#-1                ; [CPU_] |135| 
    1704 00000006 FFC7          LSR       AL,8                  ; [CPU_] |135| 
    1705 00000007 9645          MOV       *-SP[5],AL            ; [CPU_] |135| 
    1706                      .dwpsn  file "C:/Users/a0221343/Git/bootROM/f28004x_bootrom/F28004x_ROM_dev_PG2.0/F28004x_ROM/driverl
    1707 00000008 521F          CMPB      AL,#31                ; [CPU_] |138| 
    1708 00000009 56C9          BF        $C$L7,LOS             ; [CPU_] |138| 
         0000000a 0004 
    1709                      ; branchcc occurs ; [] |138| 
    1710                      .dwpsn  file "C:/Users/a0221343/Git/bootROM/f28004x_bootrom/F28004x_ROM_dev_PG2.0/F28004x_ROM/driverl
    1711 0000000b 56BF          MOVB      *-SP[5],#31,UNC       ; [CPU_] |140| 
         0000000c 1F45 
    1712 0000000d       $C$L7:    
    1713                      .dwpsn  file "C:/Users/a0221343/Git/bootROM/f28004x_bootrom/F28004x_ROM_dev_PG2.0/F28004x_ROM/driverl
    1714 0000000d CC43          AND       AL,*-SP[3],#0x0003    ; [CPU_] |143| 
         0000000e 0003 
    1715 0000000f 5CA9          MOVZ      AR4,AL                ; [CPU_] |143| 
    1716 00000010 CC43          AND       AL,*-SP[3],#0x0030    ; [CPU_] |143| 
         00000011 0030 
    1717 00000012 5DA9          MOVZ      AR5,AL                ; [CPU_] |143| 
    1718 00000013 0642          MOVL      ACC,*-SP[2]           ; [CPU_] |143| 
    1719              $C$DW$160       .dwtag  DW_TAG_TI_branch
    1720                      .dwattr $C$DW$160, DW_AT_low_pc(0x00)
    1721                      .dwattr $C$DW$160, DW_AT_name("_SDFM_setComparatorFilterType")
    1722                      .dwattr $C$DW$160, DW_AT_TI_call
    1723 00000014 7640+         LCR       #_SDFM_setComparatorFilterType ; [CPU_] |143| 
         00000015 0000 
    1724                      ; call occurs [#_SDFM_setComparatorFilterType] ; [] |143| 
    1725                      .dwpsn  file "C:/Users/a0221343/Git/bootROM/f28004x_bootrom/F28004x_ROM_dev_PG2.0/F28004x_ROM/driverl
    1726 00000016 CC43          AND       AL,*-SP[3],#0x0003    ; [CPU_] |147| 
         00000017 0003 
    1727 00000018 5D45          MOVZ      AR5,*-SP[5]           ; [CPU_] |147| 
    1728 00000019 5CA9          MOVZ      AR4,AL                ; [CPU_] |147| 
    1729 0000001a 0642          MOVL      ACC,*-SP[2]           ; [CPU_] |147| 
    1730              $C$DW$161       .dwtag  DW_TAG_TI_branch
    1731                      .dwattr $C$DW$161, DW_AT_low_pc(0x00)
    1732                      .dwattr $C$DW$161, DW_AT_name("_SDFM_setCompFilterOverSamplingRatio")
    1733                      .dwattr $C$DW$161, DW_AT_TI_call
    1734 0000001b 7640+         LCR       #_SDFM_setCompFilterOverSamplingRatio ; [CPU_] |147| 
         0000001c 0000 
    1735                      ; call occurs [#_SDFM_setCompFilterOverSamplingRatio] ; [] |147| 
    1736                      .dwpsn  file "C:/Users/a0221343/Git/bootROM/f28004x_bootrom/F28004x_ROM_dev_PG2.0/F28004x_ROM/driverl
    1737 0000001d CC43          AND       AL,*-SP[3],#0x0003    ; [CPU_] |151| 
         0000001e 0003 
    1738 0000001f 5D44          MOVZ      AR5,*-SP[4]           ; [CPU_] |151| 
    1739 00000020 5CA9          MOVZ      AR4,AL                ; [CPU_] |151| 
    1740 00000021 0642          MOVL      ACC,*-SP[2]           ; [CPU_] |151| 
    1741              $C$DW$162       .dwtag  DW_TAG_TI_branch
    1742                      .dwattr $C$DW$162, DW_AT_low_pc(0x00)
    1743                      .dwattr $C$DW$162, DW_AT_name("_SDFM_setCompFilterZeroCrossThreshold")
    1744                      .dwattr $C$DW$162, DW_AT_TI_call
    1745 00000022 7640+         LCR       #_SDFM_setCompFilterZeroCrossThreshold ; [CPU_] |151| 
TMS320C2000 Assembler PC v6.4.4 Tue Feb 14 14:43:16 2017

Tools Copyright (c) 1996-2015 Texas Instruments Incorporated
C:\Users\a0221343\AppData\Local\Temp\0924410                         PAGE   34

         00000023 0000 
    1746                      ; call occurs [#_SDFM_setCompFilterZeroCrossThreshold] ; [] |151| 
    1747                      .dwpsn  file "C:/Users/a0221343/Git/bootROM/f28004x_bootrom/F28004x_ROM_dev_PG2.0/F28004x_ROM/driverl
    1748 00000024 FE86          SUBB      SP,#6                 ; [CPU_U] 
    1749                      .dwcfi  cfa_offset, -2
    1750              $C$DW$163       .dwtag  DW_TAG_TI_branch
    1751                      .dwattr $C$DW$163, DW_AT_low_pc(0x00)
    1752                      .dwattr $C$DW$163, DW_AT_TI_return
    1753 00000025 0006          LRETR     ; [CPU_] 
    1754                      ; return occurs ; [] 
    1755                      .dwattr $C$DW$152, DW_AT_TI_end_file("C:/Users/a0221343/Git/bootROM/f28004x_bootrom/F28004x_ROM_dev_P
    1756                      .dwattr $C$DW$152, DW_AT_TI_end_line(0x9a)
    1757                      .dwattr $C$DW$152, DW_AT_TI_end_column(0x01)
    1758                      .dwendentry
    1759                      .dwendtag $C$DW$152
    1760              
    1761 00000000               .sect   ".text:_SDFM_configDataFilterFIFO"
    1762                      .clink
    1763                      .global _SDFM_configDataFilterFIFO
    1764              
    1765              $C$DW$164       .dwtag  DW_TAG_subprogram, DW_AT_name("SDFM_configDataFilterFIFO")
    1766                      .dwattr $C$DW$164, DW_AT_low_pc(_SDFM_configDataFilterFIFO)
    1767                      .dwattr $C$DW$164, DW_AT_high_pc(0x00)
    1768                      .dwattr $C$DW$164, DW_AT_TI_symbol_name("_SDFM_configDataFilterFIFO")
    1769                      .dwattr $C$DW$164, DW_AT_external
    1770                      .dwattr $C$DW$164, DW_AT_TI_begin_file("C:/Users/a0221343/Git/bootROM/f28004x_bootrom/F28004x_ROM_dev
    1771                      .dwattr $C$DW$164, DW_AT_TI_begin_line(0xa1)
    1772                      .dwattr $C$DW$164, DW_AT_TI_begin_column(0x06)
    1773                      .dwattr $C$DW$164, DW_AT_TI_max_frame_size(-8)
    1774                      .dwpsn  file "C:/Users/a0221343/Git/bootROM/f28004x_bootrom/F28004x_ROM_dev_PG2.0/F28004x_ROM/driverl
    1775              
    1776                      .dwfde $C$DW$CIE, _SDFM_configDataFilterFIFO
    1777              $C$DW$165       .dwtag  DW_TAG_formal_parameter, DW_AT_name("base")
    1778                      .dwattr $C$DW$165, DW_AT_TI_symbol_name("_base")
    1779                      .dwattr $C$DW$165, DW_AT_type(*$C$DW$T$29)
    1780                      .dwattr $C$DW$165, DW_AT_location[DW_OP_reg0]
    1781              $C$DW$166       .dwtag  DW_TAG_formal_parameter, DW_AT_name("config1")
    1782                      .dwattr $C$DW$166, DW_AT_TI_symbol_name("_config1")
    1783                      .dwattr $C$DW$166, DW_AT_type(*$C$DW$T$38)
    1784                      .dwattr $C$DW$166, DW_AT_location[DW_OP_reg12]
    1785              $C$DW$167       .dwtag  DW_TAG_formal_parameter, DW_AT_name("config2")
    1786                      .dwattr $C$DW$167, DW_AT_TI_symbol_name("_config2")
    1787                      .dwattr $C$DW$167, DW_AT_type(*$C$DW$T$38)
    1788                      .dwattr $C$DW$167, DW_AT_location[DW_OP_reg14]
    1789              
    1790              ;***************************************************************
    1791              ;* FNAME: _SDFM_configDataFilterFIFO    FR SIZE:   6           *
    1792              ;*                                                             *
    1793              ;* FUNCTION ENVIRONMENT                                        *
    1794              ;*                                                             *
    1795              ;* FUNCTION PROPERTIES                                         *
    1796              ;*                            0 Parameter,  6 Auto,  0 SOE     *
    1797              ;***************************************************************
    1798              
    1799 00000000       _SDFM_configDataFilterFIFO:
TMS320C2000 Assembler PC v6.4.4 Tue Feb 14 14:43:16 2017

Tools Copyright (c) 1996-2015 Texas Instruments Incorporated
C:\Users\a0221343\AppData\Local\Temp\0924410                         PAGE   35

    1800                      .dwcfi  cfa_offset, -2
    1801                      .dwcfi  save_reg_to_mem, 26, 0
    1802 00000000 FE06          ADDB      SP,#6                 ; [CPU_U] 
    1803                      .dwcfi  cfa_offset, -8
    1804              $C$DW$168       .dwtag  DW_TAG_variable, DW_AT_name("base")
    1805                      .dwattr $C$DW$168, DW_AT_TI_symbol_name("_base")
    1806                      .dwattr $C$DW$168, DW_AT_type(*$C$DW$T$29)
    1807                      .dwattr $C$DW$168, DW_AT_location[DW_OP_breg20 -2]
    1808              $C$DW$169       .dwtag  DW_TAG_variable, DW_AT_name("config1")
    1809                      .dwattr $C$DW$169, DW_AT_TI_symbol_name("_config1")
    1810                      .dwattr $C$DW$169, DW_AT_type(*$C$DW$T$38)
    1811                      .dwattr $C$DW$169, DW_AT_location[DW_OP_breg20 -3]
    1812              $C$DW$170       .dwtag  DW_TAG_variable, DW_AT_name("config2")
    1813                      .dwattr $C$DW$170, DW_AT_TI_symbol_name("_config2")
    1814                      .dwattr $C$DW$170, DW_AT_type(*$C$DW$T$38)
    1815                      .dwattr $C$DW$170, DW_AT_location[DW_OP_breg20 -4]
    1816              $C$DW$171       .dwtag  DW_TAG_variable, DW_AT_name("oversamplingRatio")
    1817                      .dwattr $C$DW$171, DW_AT_TI_symbol_name("_oversamplingRatio")
    1818                      .dwattr $C$DW$171, DW_AT_type(*$C$DW$T$38)
    1819                      .dwattr $C$DW$171, DW_AT_location[DW_OP_breg20 -5]
    1820              $C$DW$172       .dwtag  DW_TAG_variable, DW_AT_name("fifoLevel")
    1821                      .dwattr $C$DW$172, DW_AT_TI_symbol_name("_fifoLevel")
    1822                      .dwattr $C$DW$172, DW_AT_type(*$C$DW$T$38)
    1823                      .dwattr $C$DW$172, DW_AT_location[DW_OP_breg20 -6]
    1824 00000001 7D44          MOV       *-SP[4],AR5           ; [CPU_] |163| 
    1825 00000002 7C43          MOV       *-SP[3],AR4           ; [CPU_] |163| 
    1826 00000003 1E42          MOVL      *-SP[2],ACC           ; [CPU_] |163| 
    1827                      .dwpsn  file "C:/Users/a0221343/Git/bootROM/f28004x_bootrom/F28004x_ROM_dev_PG2.0/F28004x_ROM/driverl
    1828 00000004 CC44          AND       AL,*-SP[4],#0x0800    ; [CPU_] |168| 
         00000005 0800 
    1829 00000006 FFC6          LSR       AL,7                  ; [CPU_] |168| 
    1830 00000007 9646          MOV       *-SP[6],AL            ; [CPU_] |168| 
    1831                      .dwpsn  file "C:/Users/a0221343/Git/bootROM/f28004x_bootrom/F28004x_ROM_dev_PG2.0/F28004x_ROM/driverl
    1832 00000008 9243          MOV       AL,*-SP[3]            ; [CPU_] |169| 
    1833 00000009 9CFF          ADDB      AL,#-1                ; [CPU_] |169| 
    1834 0000000a FFC7          LSR       AL,8                  ; [CPU_] |169| 
    1835 0000000b 9645          MOV       *-SP[5],AL            ; [CPU_] |169| 
    1836                      .dwpsn  file "C:/Users/a0221343/Git/bootROM/f28004x_bootrom/F28004x_ROM_dev_PG2.0/F28004x_ROM/driverl
    1837 0000000c 52FF          CMPB      AL,#255               ; [CPU_] |172| 
    1838 0000000d 56C9          BF        $C$L8,LOS             ; [CPU_] |172| 
         0000000e 0004 
    1839                      ; branchcc occurs ; [] |172| 
    1840                      .dwpsn  file "C:/Users/a0221343/Git/bootROM/f28004x_bootrom/F28004x_ROM_dev_PG2.0/F28004x_ROM/driverl
    1841 0000000f 56BF          MOVB      *-SP[5],#255,UNC      ; [CPU_] |174| 
         00000010 FF45 
    1842 00000011       $C$L8:    
    1843                      .dwpsn  file "C:/Users/a0221343/Git/bootROM/f28004x_bootrom/F28004x_ROM_dev_PG2.0/F28004x_ROM/driverl
    1844 00000011 CC43          AND       AL,*-SP[3],#0x0003    ; [CPU_] |177| 
         00000012 0003 
    1845 00000013 5CA9          MOVZ      AR4,AL                ; [CPU_] |177| 
    1846 00000014 CC43          AND       AL,*-SP[3],#0x0030    ; [CPU_] |177| 
         00000015 0030 
    1847 00000016 5DA9          MOVZ      AR5,AL                ; [CPU_] |177| 
    1848 00000017 0642          MOVL      ACC,*-SP[2]           ; [CPU_] |177| 
    1849              $C$DW$173       .dwtag  DW_TAG_TI_branch
TMS320C2000 Assembler PC v6.4.4 Tue Feb 14 14:43:16 2017

Tools Copyright (c) 1996-2015 Texas Instruments Incorporated
C:\Users\a0221343\AppData\Local\Temp\0924410                         PAGE   36

    1850                      .dwattr $C$DW$173, DW_AT_low_pc(0x00)
    1851                      .dwattr $C$DW$173, DW_AT_name("_SDFM_setFilterType")
    1852                      .dwattr $C$DW$173, DW_AT_TI_call
    1853 00000018 7640+         LCR       #_SDFM_setFilterType  ; [CPU_] |177| 
         00000019 0000 
    1854                      ; call occurs [#_SDFM_setFilterType] ; [] |177| 
    1855                      .dwpsn  file "C:/Users/a0221343/Git/bootROM/f28004x_bootrom/F28004x_ROM_dev_PG2.0/F28004x_ROM/driverl
    1856 0000001a CC43          AND       AL,*-SP[3],#0x0003    ; [CPU_] |180| 
         0000001b 0003 
    1857 0000001c 5D45          MOVZ      AR5,*-SP[5]           ; [CPU_] |180| 
    1858 0000001d 5CA9          MOVZ      AR4,AL                ; [CPU_] |180| 
    1859 0000001e 0642          MOVL      ACC,*-SP[2]           ; [CPU_] |180| 
    1860              $C$DW$174       .dwtag  DW_TAG_TI_branch
    1861                      .dwattr $C$DW$174, DW_AT_low_pc(0x00)
    1862                      .dwattr $C$DW$174, DW_AT_name("_SDFM_setFilterOverSamplingRatio")
    1863                      .dwattr $C$DW$174, DW_AT_TI_call
    1864 0000001f 7640+         LCR       #_SDFM_setFilterOverSamplingRatio ; [CPU_] |180| 
         00000020 0000 
    1865                      ; call occurs [#_SDFM_setFilterOverSamplingRatio] ; [] |180| 
    1866                      .dwpsn  file "C:/Users/a0221343/Git/bootROM/f28004x_bootrom/F28004x_ROM_dev_PG2.0/F28004x_ROM/driverl
    1867 00000021 9244          MOV       AL,*-SP[4]            ; [CPU_] |184| 
    1868 00000022 9002          ANDB      AL,#0x02              ; [CPU_] |184| 
    1869 00000023 5202          CMPB      AL,#2                 ; [CPU_] |184| 
    1870 00000024 ED08          BF        $C$L9,NEQ             ; [CPU_] |184| 
    1871                      ; branchcc occurs ; [] |184| 
    1872                      .dwpsn  file "C:/Users/a0221343/Git/bootROM/f28004x_bootrom/F28004x_ROM_dev_PG2.0/F28004x_ROM/driverl
    1873 00000025 CC43          AND       AL,*-SP[3],#0x0003    ; [CPU_] |186| 
         00000026 0003 
    1874 00000027 5CA9          MOVZ      AR4,AL                ; [CPU_] |186| 
    1875 00000028 0642          MOVL      ACC,*-SP[2]           ; [CPU_] |186| 
    1876              $C$DW$175       .dwtag  DW_TAG_TI_branch
    1877                      .dwattr $C$DW$175, DW_AT_low_pc(0x00)
    1878                      .dwattr $C$DW$175, DW_AT_name("_SDFM_enableFilter")
    1879                      .dwattr $C$DW$175, DW_AT_TI_call
    1880 00000029 7640+         LCR       #_SDFM_enableFilter   ; [CPU_] |186| 
         0000002a 0000 
    1881                      ; call occurs [#_SDFM_enableFilter] ; [] |186| 
    1882                      .dwpsn  file "C:/Users/a0221343/Git/bootROM/f28004x_bootrom/F28004x_ROM_dev_PG2.0/F28004x_ROM/driverl
    1883 0000002b 6F07          B         $C$L10,UNC            ; [CPU_] |188| 
    1884                      ; branch occurs ; [] |188| 
    1885 0000002c       $C$L9:    
    1886                      .dwpsn  file "C:/Users/a0221343/Git/bootROM/f28004x_bootrom/F28004x_ROM_dev_PG2.0/F28004x_ROM/driverl
    1887 0000002c CC43          AND       AL,*-SP[3],#0x0003    ; [CPU_] |191| 
         0000002d 0003 
    1888 0000002e 5CA9          MOVZ      AR4,AL                ; [CPU_] |191| 
    1889 0000002f 0642          MOVL      ACC,*-SP[2]           ; [CPU_] |191| 
    1890              $C$DW$176       .dwtag  DW_TAG_TI_branch
    1891                      .dwattr $C$DW$176, DW_AT_low_pc(0x00)
    1892                      .dwattr $C$DW$176, DW_AT_name("_SDFM_disableFilter")
    1893                      .dwattr $C$DW$176, DW_AT_TI_call
    1894 00000030 7640+         LCR       #_SDFM_disableFilter  ; [CPU_] |191| 
         00000031 0000 
    1895                      ; call occurs [#_SDFM_disableFilter] ; [] |191| 
    1896 00000032       $C$L10:    
    1897                      .dwpsn  file "C:/Users/a0221343/Git/bootROM/f28004x_bootrom/F28004x_ROM_dev_PG2.0/F28004x_ROM/driverl
TMS320C2000 Assembler PC v6.4.4 Tue Feb 14 14:43:16 2017

Tools Copyright (c) 1996-2015 Texas Instruments Incorporated
C:\Users\a0221343\AppData\Local\Temp\0924410                         PAGE   37

    1898 00000032 CC43          AND       AL,*-SP[3],#0x0003    ; [CPU_] |196| 
         00000033 0003 
    1899 00000034 5CA9          MOVZ      AR4,AL                ; [CPU_] |196| 
    1900 00000035 CC44          AND       AL,*-SP[4],#0x0001    ; [CPU_] |196| 
         00000036 0001 
    1901 00000037 5DA9          MOVZ      AR5,AL                ; [CPU_] |196| 
    1902 00000038 0642          MOVL      ACC,*-SP[2]           ; [CPU_] |196| 
    1903              $C$DW$177       .dwtag  DW_TAG_TI_branch
    1904                      .dwattr $C$DW$177, DW_AT_low_pc(0x00)
    1905                      .dwattr $C$DW$177, DW_AT_name("_SDFM_setOutputDataFormat")
    1906                      .dwattr $C$DW$177, DW_AT_TI_call
    1907 00000039 7640+         LCR       #_SDFM_setOutputDataFormat ; [CPU_] |196| 
         0000003a 0000 
    1908                      ; call occurs [#_SDFM_setOutputDataFormat] ; [] |196| 
    1909                      .dwpsn  file "C:/Users/a0221343/Git/bootROM/f28004x_bootrom/F28004x_ROM_dev_PG2.0/F28004x_ROM/driverl
    1910 0000003b 4044          TBIT      *-SP[4],#0            ; [CPU_] |201| 
    1911 0000003c EE0B          BF        $C$L11,TC             ; [CPU_] |201| 
    1912                      ; branchcc occurs ; [] |201| 
    1913                      .dwpsn  file "C:/Users/a0221343/Git/bootROM/f28004x_bootrom/F28004x_ROM_dev_PG2.0/F28004x_ROM/driverl
    1914 0000003d CC43          AND       AL,*-SP[3],#0x0003    ; [CPU_] |203| 
         0000003e 0003 
    1915 0000003f 5CA9          MOVZ      AR4,AL                ; [CPU_] |203| 
    1916 00000040 CC44          AND       AL,*-SP[4],#0x007c    ; [CPU_] |203| 
         00000041 007C 
    1917 00000042 FFC1          LSR       AL,2                  ; [CPU_] |203| 
    1918 00000043 5DA9          MOVZ      AR5,AL                ; [CPU_] |203| 
    1919 00000044 0642          MOVL      ACC,*-SP[2]           ; [CPU_] |203| 
    1920              $C$DW$178       .dwtag  DW_TAG_TI_branch
    1921                      .dwattr $C$DW$178, DW_AT_low_pc(0x00)
    1922                      .dwattr $C$DW$178, DW_AT_name("_SDFM_setDataShiftValue")
    1923                      .dwattr $C$DW$178, DW_AT_TI_call
    1924 00000045 7640+         LCR       #_SDFM_setDataShiftValue ; [CPU_] |203| 
         00000046 0000 
    1925                      ; call occurs [#_SDFM_setDataShiftValue] ; [] |203| 
    1926 00000047       $C$L11:    
    1927                      .dwpsn  file "C:/Users/a0221343/Git/bootROM/f28004x_bootrom/F28004x_ROM_dev_PG2.0/F28004x_ROM/driverl
    1928 00000047 9246          MOV       AL,*-SP[6]            ; [CPU_] |208| 
    1929 00000048 EC0E          BF        $C$L12,EQ             ; [CPU_] |208| 
    1930                      ; branchcc occurs ; [] |208| 
    1931                      .dwpsn  file "C:/Users/a0221343/Git/bootROM/f28004x_bootrom/F28004x_ROM_dev_PG2.0/F28004x_ROM/driverl
    1932 00000049 CC43          AND       AL,*-SP[3],#0x0003    ; [CPU_] |210| 
         0000004a 0003 
    1933 0000004b 5D46          MOVZ      AR5,*-SP[6]           ; [CPU_] |210| 
    1934 0000004c 5CA9          MOVZ      AR4,AL                ; [CPU_] |210| 
    1935 0000004d 0642          MOVL      ACC,*-SP[2]           ; [CPU_] |210| 
    1936              $C$DW$179       .dwtag  DW_TAG_TI_branch
    1937                      .dwattr $C$DW$179, DW_AT_low_pc(0x00)
    1938                      .dwattr $C$DW$179, DW_AT_name("_SDFM_setFIFOInterruptLevel")
    1939                      .dwattr $C$DW$179, DW_AT_TI_call
    1940 0000004e 7640+         LCR       #_SDFM_setFIFOInterruptLevel ; [CPU_] |210| 
         0000004f 0000 
    1941                      ; call occurs [#_SDFM_setFIFOInterruptLevel] ; [] |210| 
    1942                      .dwpsn  file "C:/Users/a0221343/Git/bootROM/f28004x_bootrom/F28004x_ROM_dev_PG2.0/F28004x_ROM/driverl
    1943 00000050 CC43          AND       AL,*-SP[3],#0x0003    ; [CPU_] |213| 
         00000051 0003 
TMS320C2000 Assembler PC v6.4.4 Tue Feb 14 14:43:16 2017

Tools Copyright (c) 1996-2015 Texas Instruments Incorporated
C:\Users\a0221343\AppData\Local\Temp\0924410                         PAGE   38

    1944 00000052 5CA9          MOVZ      AR4,AL                ; [CPU_] |213| 
    1945 00000053 0642          MOVL      ACC,*-SP[2]           ; [CPU_] |213| 
    1946              $C$DW$180       .dwtag  DW_TAG_TI_branch
    1947                      .dwattr $C$DW$180, DW_AT_low_pc(0x00)
    1948                      .dwattr $C$DW$180, DW_AT_name("_SDFM_enableFIFOBuffer")
    1949                      .dwattr $C$DW$180, DW_AT_TI_call
    1950 00000054 7640+         LCR       #_SDFM_enableFIFOBuffer ; [CPU_] |213| 
         00000055 0000 
    1951                      ; call occurs [#_SDFM_enableFIFOBuffer] ; [] |213| 
    1952                      .dwpsn  file "C:/Users/a0221343/Git/bootROM/f28004x_bootrom/F28004x_ROM_dev_PG2.0/F28004x_ROM/driverl
    1953 00000056       $C$L12:    
    1954 00000056 FE86          SUBB      SP,#6                 ; [CPU_U] 
    1955                      .dwcfi  cfa_offset, -2
    1956              $C$DW$181       .dwtag  DW_TAG_TI_branch
    1957                      .dwattr $C$DW$181, DW_AT_low_pc(0x00)
    1958                      .dwattr $C$DW$181, DW_AT_TI_return
    1959 00000057 0006          LRETR     ; [CPU_] 
    1960                      ; return occurs ; [] 
    1961                      .dwattr $C$DW$164, DW_AT_TI_end_file("C:/Users/a0221343/Git/bootROM/f28004x_bootrom/F28004x_ROM_dev_P
    1962                      .dwattr $C$DW$164, DW_AT_TI_end_line(0xd8)
    1963                      .dwattr $C$DW$164, DW_AT_TI_end_column(0x01)
    1964                      .dwendentry
    1965                      .dwendtag $C$DW$164
    1966              
    1967 00000000               .sect   ".text:_SDFM_getIntNumber"
    1968                      .clink
    1969              
    1970              $C$DW$182       .dwtag  DW_TAG_subprogram, DW_AT_name("SDFM_getIntNumber")
    1971                      .dwattr $C$DW$182, DW_AT_low_pc(_SDFM_getIntNumber)
    1972                      .dwattr $C$DW$182, DW_AT_high_pc(0x00)
    1973                      .dwattr $C$DW$182, DW_AT_TI_symbol_name("_SDFM_getIntNumber")
    1974                      .dwattr $C$DW$182, DW_AT_type(*$C$DW$T$29)
    1975                      .dwattr $C$DW$182, DW_AT_TI_begin_file("C:/Users/a0221343/Git/bootROM/f28004x_bootrom/F28004x_ROM_dev
    1976                      .dwattr $C$DW$182, DW_AT_TI_begin_line(0xe8)
    1977                      .dwattr $C$DW$182, DW_AT_TI_begin_column(0x11)
    1978                      .dwattr $C$DW$182, DW_AT_TI_max_frame_size(-8)
    1979                      .dwpsn  file "C:/Users/a0221343/Git/bootROM/f28004x_bootrom/F28004x_ROM_dev_PG2.0/F28004x_ROM/driverl
    1980              
    1981                      .dwfde $C$DW$CIE, _SDFM_getIntNumber
    1982              $C$DW$183       .dwtag  DW_TAG_formal_parameter, DW_AT_name("base")
    1983                      .dwattr $C$DW$183, DW_AT_TI_symbol_name("_base")
    1984                      .dwattr $C$DW$183, DW_AT_type(*$C$DW$T$29)
    1985                      .dwattr $C$DW$183, DW_AT_location[DW_OP_reg0]
    1986              $C$DW$184       .dwtag  DW_TAG_formal_parameter, DW_AT_name("interruptType")
    1987                      .dwattr $C$DW$184, DW_AT_TI_symbol_name("_interruptType")
    1988                      .dwattr $C$DW$184, DW_AT_type(*$C$DW$T$26)
    1989                      .dwattr $C$DW$184, DW_AT_location[DW_OP_reg12]
    1990              
    1991              ;***************************************************************
    1992              ;* FNAME: _SDFM_getIntNumber            FR SIZE:   6           *
    1993              ;*                                                             *
    1994              ;* FUNCTION ENVIRONMENT                                        *
    1995              ;*                                                             *
    1996              ;* FUNCTION PROPERTIES                                         *
    1997              ;*                            0 Parameter,  6 Auto,  0 SOE     *
TMS320C2000 Assembler PC v6.4.4 Tue Feb 14 14:43:16 2017

Tools Copyright (c) 1996-2015 Texas Instruments Incorporated
C:\Users\a0221343\AppData\Local\Temp\0924410                         PAGE   39

    1998              ;***************************************************************
    1999              
    2000 00000000       _SDFM_getIntNumber:
    2001                      .dwcfi  cfa_offset, -2
    2002                      .dwcfi  save_reg_to_mem, 26, 0
    2003 00000000 FE06          ADDB      SP,#6                 ; [CPU_U] 
    2004                      .dwcfi  cfa_offset, -8
    2005              $C$DW$185       .dwtag  DW_TAG_variable, DW_AT_name("base")
    2006                      .dwattr $C$DW$185, DW_AT_TI_symbol_name("_base")
    2007                      .dwattr $C$DW$185, DW_AT_type(*$C$DW$T$29)
    2008                      .dwattr $C$DW$185, DW_AT_location[DW_OP_breg20 -2]
    2009              $C$DW$186       .dwtag  DW_TAG_variable, DW_AT_name("interruptType")
    2010                      .dwattr $C$DW$186, DW_AT_TI_symbol_name("_interruptType")
    2011                      .dwattr $C$DW$186, DW_AT_type(*$C$DW$T$26)
    2012                      .dwattr $C$DW$186, DW_AT_location[DW_OP_breg20 -3]
    2013              $C$DW$187       .dwtag  DW_TAG_variable, DW_AT_name("intNumber")
    2014                      .dwattr $C$DW$187, DW_AT_TI_symbol_name("_intNumber")
    2015                      .dwattr $C$DW$187, DW_AT_type(*$C$DW$T$29)
    2016                      .dwattr $C$DW$187, DW_AT_location[DW_OP_breg20 -6]
    2017 00000001 7C43          MOV       *-SP[3],AR4           ; [CPU_] |234| 
    2018 00000002 1E42          MOVL      *-SP[2],ACC           ; [CPU_] |234| 
    2019                      .dwpsn  file "C:/Users/a0221343/Git/bootROM/f28004x_bootrom/F28004x_ROM_dev_PG2.0/F28004x_ROM/driverl
    2020 00000003 6F1D          B         $C$L19,UNC            ; [CPU_] |239| 
    2021                      ; branch occurs ; [] |239| 
    2022 00000004       $C$L13:    
    2023                      .dwpsn  file "C:/Users/a0221343/Git/bootROM/f28004x_bootrom/F28004x_ROM_dev_PG2.0/F28004x_ROM/driverl
    2024 00000004 28A9          MOV       AL,#1289              ; [CPU_] |242| 
         00000005 0509 
    2025 00000006 9BA0          MOV       AH,#160               ; [CPU_] |242| 
    2026 00000007 1E46          MOVL      *-SP[6],ACC           ; [CPU_] |242| 
    2027                      .dwpsn  file "C:/Users/a0221343/Git/bootROM/f28004x_bootrom/F28004x_ROM_dev_PG2.0/F28004x_ROM/driverl
    2028 00000008 6F28          B         $C$L21,UNC            ; [CPU_] |243| 
    2029                      ; branch occurs ; [] |243| 
    2030 00000009       $C$L14:    
    2031                      .dwpsn  file "C:/Users/a0221343/Git/bootROM/f28004x_bootrom/F28004x_ROM_dev_PG2.0/F28004x_ROM/driverl
    2032 00000009 28A9          MOV       AL,#1293              ; [CPU_] |246| 
         0000000a 050D 
    2033 0000000b 9BA4          MOV       AH,#164               ; [CPU_] |246| 
    2034 0000000c 1E46          MOVL      *-SP[6],ACC           ; [CPU_] |246| 
    2035                      .dwpsn  file "C:/Users/a0221343/Git/bootROM/f28004x_bootrom/F28004x_ROM_dev_PG2.0/F28004x_ROM/driverl
    2036 0000000d 6F23          B         $C$L21,UNC            ; [CPU_] |247| 
    2037                      ; branch occurs ; [] |247| 
    2038 0000000e       $C$L15:    
    2039                      .dwpsn  file "C:/Users/a0221343/Git/bootROM/f28004x_bootrom/F28004x_ROM_dev_PG2.0/F28004x_ROM/driverl
    2040 0000000e 28A9          MOV       AL,#1294              ; [CPU_] |250| 
         0000000f 050E 
    2041 00000010 9BA5          MOV       AH,#165               ; [CPU_] |250| 
    2042 00000011 1E46          MOVL      *-SP[6],ACC           ; [CPU_] |250| 
    2043                      .dwpsn  file "C:/Users/a0221343/Git/bootROM/f28004x_bootrom/F28004x_ROM_dev_PG2.0/F28004x_ROM/driverl
    2044 00000012 6F1E          B         $C$L21,UNC            ; [CPU_] |251| 
    2045                      ; branch occurs ; [] |251| 
    2046 00000013       $C$L16:    
    2047                      .dwpsn  file "C:/Users/a0221343/Git/bootROM/f28004x_bootrom/F28004x_ROM_dev_PG2.0/F28004x_ROM/driverl
    2048 00000013 28A9          MOV       AL,#1295              ; [CPU_] |254| 
         00000014 050F 
TMS320C2000 Assembler PC v6.4.4 Tue Feb 14 14:43:16 2017

Tools Copyright (c) 1996-2015 Texas Instruments Incorporated
C:\Users\a0221343\AppData\Local\Temp\0924410                         PAGE   40

    2049 00000015 9BA6          MOV       AH,#166               ; [CPU_] |254| 
    2050 00000016 1E46          MOVL      *-SP[6],ACC           ; [CPU_] |254| 
    2051                      .dwpsn  file "C:/Users/a0221343/Git/bootROM/f28004x_bootrom/F28004x_ROM_dev_PG2.0/F28004x_ROM/driverl
    2052 00000017 6F19          B         $C$L21,UNC            ; [CPU_] |255| 
    2053                      ; branch occurs ; [] |255| 
    2054 00000018       $C$L17:    
    2055                      .dwpsn  file "C:/Users/a0221343/Git/bootROM/f28004x_bootrom/F28004x_ROM_dev_PG2.0/F28004x_ROM/driverl
    2056 00000018 28A9          MOV       AL,#1296              ; [CPU_] |258| 
         00000019 0510 
    2057 0000001a 9BA7          MOV       AH,#167               ; [CPU_] |258| 
    2058 0000001b 1E46          MOVL      *-SP[6],ACC           ; [CPU_] |258| 
    2059                      .dwpsn  file "C:/Users/a0221343/Git/bootROM/f28004x_bootrom/F28004x_ROM_dev_PG2.0/F28004x_ROM/driverl
    2060 0000001c 6F14          B         $C$L21,UNC            ; [CPU_] |259| 
    2061                      ; branch occurs ; [] |259| 
    2062 0000001d       $C$L18:    
    2063                      .dwpsn  file "C:/Users/a0221343/Git/bootROM/f28004x_bootrom/F28004x_ROM_dev_PG2.0/F28004x_ROM/driverl
    2064 0000001d 0200          MOVB      ACC,#0                ; [CPU_] |262| 
    2065 0000001e 1E46          MOVL      *-SP[6],ACC           ; [CPU_] |262| 
    2066                      .dwpsn  file "C:/Users/a0221343/Git/bootROM/f28004x_bootrom/F28004x_ROM_dev_PG2.0/F28004x_ROM/driverl
    2067 0000001f 6F11          B         $C$L21,UNC            ; [CPU_] |263| 
    2068                      ; branch occurs ; [] |263| 
    2069 00000020       $C$L19:    
    2070                      .dwpsn  file "C:/Users/a0221343/Git/bootROM/f28004x_bootrom/F28004x_ROM_dev_PG2.0/F28004x_ROM/driverl
    2071 00000020 9243          MOV       AL,*-SP[3]            ; [CPU_] |239| 
    2072 00000021 5202          CMPB      AL,#2                 ; [CPU_] |239| 
    2073 00000022 56C2          BF        $C$L20,GT             ; [CPU_] |239| 
         00000023 0009 
    2074                      ; branchcc occurs ; [] |239| 
    2075 00000024 5202          CMPB      AL,#2                 ; [CPU_] |239| 
    2076 00000025 ECE9          BF        $C$L15,EQ             ; [CPU_] |239| 
    2077                      ; branchcc occurs ; [] |239| 
    2078 00000026 5200          CMPB      AL,#0                 ; [CPU_] |239| 
    2079 00000027 ECDD          BF        $C$L13,EQ             ; [CPU_] |239| 
    2080                      ; branchcc occurs ; [] |239| 
    2081 00000028 5201          CMPB      AL,#1                 ; [CPU_] |239| 
    2082 00000029 ECE0          BF        $C$L14,EQ             ; [CPU_] |239| 
    2083                      ; branchcc occurs ; [] |239| 
    2084 0000002a 6FF3          B         $C$L18,UNC            ; [CPU_] |239| 
    2085                      ; branch occurs ; [] |239| 
    2086 0000002b       $C$L20:    
    2087 0000002b 5203          CMPB      AL,#3                 ; [CPU_] |239| 
    2088 0000002c ECE7          BF        $C$L16,EQ             ; [CPU_] |239| 
    2089                      ; branchcc occurs ; [] |239| 
    2090 0000002d 5204          CMPB      AL,#4                 ; [CPU_] |239| 
    2091 0000002e ECEA          BF        $C$L17,EQ             ; [CPU_] |239| 
    2092                      ; branchcc occurs ; [] |239| 
    2093 0000002f 6FEE          B         $C$L18,UNC            ; [CPU_] |239| 
    2094                      ; branch occurs ; [] |239| 
    2095 00000030       $C$L21:    
    2096                      .dwpsn  file "C:/Users/a0221343/Git/bootROM/f28004x_bootrom/F28004x_ROM_dev_PG2.0/F28004x_ROM/driverl
    2097                      .dwpsn  file "C:/Users/a0221343/Git/bootROM/f28004x_bootrom/F28004x_ROM_dev_PG2.0/F28004x_ROM/driverl
    2098 00000030 FE86          SUBB      SP,#6                 ; [CPU_U] 
    2099                      .dwcfi  cfa_offset, -2
    2100              $C$DW$188       .dwtag  DW_TAG_TI_branch
    2101                      .dwattr $C$DW$188, DW_AT_low_pc(0x00)
TMS320C2000 Assembler PC v6.4.4 Tue Feb 14 14:43:16 2017

Tools Copyright (c) 1996-2015 Texas Instruments Incorporated
C:\Users\a0221343\AppData\Local\Temp\0924410                         PAGE   41

    2102                      .dwattr $C$DW$188, DW_AT_TI_return
    2103 00000031 0006          LRETR     ; [CPU_] 
    2104                      ; return occurs ; [] 
    2105                      .dwattr $C$DW$182, DW_AT_TI_end_file("C:/Users/a0221343/Git/bootROM/f28004x_bootrom/F28004x_ROM_dev_P
    2106                      .dwattr $C$DW$182, DW_AT_TI_end_line(0x10b)
    2107                      .dwattr $C$DW$182, DW_AT_TI_end_column(0x01)
    2108                      .dwendentry
    2109                      .dwendtag $C$DW$182
    2110              
    2111 00000000               .sect   ".text:_SDFM_registerInterrupt"
    2112                      .clink
    2113                      .global _SDFM_registerInterrupt
    2114              
    2115              $C$DW$189       .dwtag  DW_TAG_subprogram, DW_AT_name("SDFM_registerInterrupt")
    2116                      .dwattr $C$DW$189, DW_AT_low_pc(_SDFM_registerInterrupt)
    2117                      .dwattr $C$DW$189, DW_AT_high_pc(0x00)
    2118                      .dwattr $C$DW$189, DW_AT_TI_symbol_name("_SDFM_registerInterrupt")
    2119                      .dwattr $C$DW$189, DW_AT_external
    2120                      .dwattr $C$DW$189, DW_AT_TI_begin_file("C:/Users/a0221343/Git/bootROM/f28004x_bootrom/F28004x_ROM_dev
    2121                      .dwattr $C$DW$189, DW_AT_TI_begin_line(0x112)
    2122                      .dwattr $C$DW$189, DW_AT_TI_begin_column(0x06)
    2123                      .dwattr $C$DW$189, DW_AT_TI_max_frame_size(-10)
    2124                      .dwpsn  file "C:/Users/a0221343/Git/bootROM/f28004x_bootrom/F28004x_ROM_dev_PG2.0/F28004x_ROM/driverl
    2125              
    2126                      .dwfde $C$DW$CIE, _SDFM_registerInterrupt
    2127              $C$DW$190       .dwtag  DW_TAG_formal_parameter, DW_AT_name("base")
    2128                      .dwattr $C$DW$190, DW_AT_TI_symbol_name("_base")
    2129                      .dwattr $C$DW$190, DW_AT_type(*$C$DW$T$29)
    2130                      .dwattr $C$DW$190, DW_AT_location[DW_OP_reg0]
    2131              $C$DW$191       .dwtag  DW_TAG_formal_parameter, DW_AT_name("interruptType")
    2132                      .dwattr $C$DW$191, DW_AT_TI_symbol_name("_interruptType")
    2133                      .dwattr $C$DW$191, DW_AT_type(*$C$DW$T$26)
    2134                      .dwattr $C$DW$191, DW_AT_location[DW_OP_reg14]
    2135              $C$DW$192       .dwtag  DW_TAG_formal_parameter, DW_AT_name("handler")
    2136                      .dwattr $C$DW$192, DW_AT_TI_symbol_name("_handler")
    2137                      .dwattr $C$DW$192, DW_AT_type(*$C$DW$T$28)
    2138                      .dwattr $C$DW$192, DW_AT_location[DW_OP_reg12]
    2139              
    2140              ;***************************************************************
    2141              ;* FNAME: _SDFM_registerInterrupt       FR SIZE:   8           *
    2142              ;*                                                             *
    2143              ;* FUNCTION ENVIRONMENT                                        *
    2144              ;*                                                             *
    2145              ;* FUNCTION PROPERTIES                                         *
    2146              ;*                            0 Parameter,  8 Auto,  0 SOE     *
    2147              ;***************************************************************
    2148              
    2149 00000000       _SDFM_registerInterrupt:
    2150                      .dwcfi  cfa_offset, -2
    2151                      .dwcfi  save_reg_to_mem, 26, 0
    2152 00000000 FE08          ADDB      SP,#8                 ; [CPU_U] 
    2153                      .dwcfi  cfa_offset, -10
    2154              $C$DW$193       .dwtag  DW_TAG_variable, DW_AT_name("base")
    2155                      .dwattr $C$DW$193, DW_AT_TI_symbol_name("_base")
    2156                      .dwattr $C$DW$193, DW_AT_type(*$C$DW$T$29)
TMS320C2000 Assembler PC v6.4.4 Tue Feb 14 14:43:16 2017

Tools Copyright (c) 1996-2015 Texas Instruments Incorporated
C:\Users\a0221343\AppData\Local\Temp\0924410                         PAGE   42

    2157                      .dwattr $C$DW$193, DW_AT_location[DW_OP_breg20 -2]
    2158              $C$DW$194       .dwtag  DW_TAG_variable, DW_AT_name("interruptType")
    2159                      .dwattr $C$DW$194, DW_AT_TI_symbol_name("_interruptType")
    2160                      .dwattr $C$DW$194, DW_AT_type(*$C$DW$T$26)
    2161                      .dwattr $C$DW$194, DW_AT_location[DW_OP_breg20 -3]
    2162              $C$DW$195       .dwtag  DW_TAG_variable, DW_AT_name("handler")
    2163                      .dwattr $C$DW$195, DW_AT_TI_symbol_name("_handler")
    2164                      .dwattr $C$DW$195, DW_AT_type(*$C$DW$T$28)
    2165                      .dwattr $C$DW$195, DW_AT_location[DW_OP_breg20 -6]
    2166              $C$DW$196       .dwtag  DW_TAG_variable, DW_AT_name("intNumber")
    2167                      .dwattr $C$DW$196, DW_AT_TI_symbol_name("_intNumber")
    2168                      .dwattr $C$DW$196, DW_AT_type(*$C$DW$T$29)
    2169                      .dwattr $C$DW$196, DW_AT_location[DW_OP_breg20 -8]
    2170 00000001 7D43          MOV       *-SP[3],AR5           ; [CPU_] |277| 
    2171 00000002 A846          MOVL      *-SP[6],XAR4          ; [CPU_] |277| 
    2172 00000003 1E42          MOVL      *-SP[2],ACC           ; [CPU_] |277| 
    2173                      .dwpsn  file "C:/Users/a0221343/Git/bootROM/f28004x_bootrom/F28004x_ROM_dev_PG2.0/F28004x_ROM/driverl
    2174 00000004 5C43          MOVZ      AR4,*-SP[3]           ; [CPU_] |282| 
    2175              $C$DW$197       .dwtag  DW_TAG_TI_branch
    2176                      .dwattr $C$DW$197, DW_AT_low_pc(0x00)
    2177                      .dwattr $C$DW$197, DW_AT_name("_SDFM_getIntNumber")
    2178                      .dwattr $C$DW$197, DW_AT_TI_call
    2179 00000005 7640+         LCR       #_SDFM_getIntNumber   ; [CPU_] |282| 
         00000006 0000 
    2180                      ; call occurs [#_SDFM_getIntNumber] ; [] |282| 
    2181 00000007 1E48          MOVL      *-SP[8],ACC           ; [CPU_] |282| 
    2182                      .dwpsn  file "C:/Users/a0221343/Git/bootROM/f28004x_bootrom/F28004x_ROM_dev_PG2.0/F28004x_ROM/driverl
    2183 00000008 8A46          MOVL      XAR4,*-SP[6]          ; [CPU_] |289| 
    2184              $C$DW$198       .dwtag  DW_TAG_TI_branch
    2185                      .dwattr $C$DW$198, DW_AT_low_pc(0x00)
    2186                      .dwattr $C$DW$198, DW_AT_name("_Interrupt_register")
    2187                      .dwattr $C$DW$198, DW_AT_TI_call
    2188 00000009 7640+         LCR       #_Interrupt_register  ; [CPU_] |289| 
         0000000a 0000 
    2189                      ; call occurs [#_Interrupt_register] ; [] |289| 
    2190                      .dwpsn  file "C:/Users/a0221343/Git/bootROM/f28004x_bootrom/F28004x_ROM_dev_PG2.0/F28004x_ROM/driverl
    2191 0000000b 0648          MOVL      ACC,*-SP[8]           ; [CPU_] |294| 
    2192              $C$DW$199       .dwtag  DW_TAG_TI_branch
    2193                      .dwattr $C$DW$199, DW_AT_low_pc(0x00)
    2194                      .dwattr $C$DW$199, DW_AT_name("_Interrupt_enable")
    2195                      .dwattr $C$DW$199, DW_AT_TI_call
    2196 0000000c 7640!         LCR       #_Interrupt_enable    ; [CPU_] |294| 
         0000000d 0000 
    2197                      ; call occurs [#_Interrupt_enable] ; [] |294| 
    2198                      .dwpsn  file "C:/Users/a0221343/Git/bootROM/f28004x_bootrom/F28004x_ROM_dev_PG2.0/F28004x_ROM/driverl
    2199 0000000e FE88          SUBB      SP,#8                 ; [CPU_U] 
    2200                      .dwcfi  cfa_offset, -2
    2201              $C$DW$200       .dwtag  DW_TAG_TI_branch
    2202                      .dwattr $C$DW$200, DW_AT_low_pc(0x00)
    2203                      .dwattr $C$DW$200, DW_AT_TI_return
    2204 0000000f 0006          LRETR     ; [CPU_] 
    2205                      ; return occurs ; [] 
    2206                      .dwattr $C$DW$189, DW_AT_TI_end_file("C:/Users/a0221343/Git/bootROM/f28004x_bootrom/F28004x_ROM_dev_P
    2207                      .dwattr $C$DW$189, DW_AT_TI_end_line(0x128)
    2208                      .dwattr $C$DW$189, DW_AT_TI_end_column(0x01)
TMS320C2000 Assembler PC v6.4.4 Tue Feb 14 14:43:16 2017

Tools Copyright (c) 1996-2015 Texas Instruments Incorporated
C:\Users\a0221343\AppData\Local\Temp\0924410                         PAGE   43

    2209                      .dwendentry
    2210                      .dwendtag $C$DW$189
    2211              
    2212 00000000               .sect   ".text:_SDFM_unregisterInterrupt"
    2213                      .clink
    2214                      .global _SDFM_unregisterInterrupt
    2215              
    2216              $C$DW$201       .dwtag  DW_TAG_subprogram, DW_AT_name("SDFM_unregisterInterrupt")
    2217                      .dwattr $C$DW$201, DW_AT_low_pc(_SDFM_unregisterInterrupt)
    2218                      .dwattr $C$DW$201, DW_AT_high_pc(0x00)
    2219                      .dwattr $C$DW$201, DW_AT_TI_symbol_name("_SDFM_unregisterInterrupt")
    2220                      .dwattr $C$DW$201, DW_AT_external
    2221                      .dwattr $C$DW$201, DW_AT_TI_begin_file("C:/Users/a0221343/Git/bootROM/f28004x_bootrom/F28004x_ROM_dev
    2222                      .dwattr $C$DW$201, DW_AT_TI_begin_line(0x12f)
    2223                      .dwattr $C$DW$201, DW_AT_TI_begin_column(0x06)
    2224                      .dwattr $C$DW$201, DW_AT_TI_max_frame_size(-8)
    2225                      .dwpsn  file "C:/Users/a0221343/Git/bootROM/f28004x_bootrom/F28004x_ROM_dev_PG2.0/F28004x_ROM/driverl
    2226              
    2227                      .dwfde $C$DW$CIE, _SDFM_unregisterInterrupt
    2228              $C$DW$202       .dwtag  DW_TAG_formal_parameter, DW_AT_name("base")
    2229                      .dwattr $C$DW$202, DW_AT_TI_symbol_name("_base")
    2230                      .dwattr $C$DW$202, DW_AT_type(*$C$DW$T$29)
    2231                      .dwattr $C$DW$202, DW_AT_location[DW_OP_reg0]
    2232              $C$DW$203       .dwtag  DW_TAG_formal_parameter, DW_AT_name("interruptType")
    2233                      .dwattr $C$DW$203, DW_AT_TI_symbol_name("_interruptType")
    2234                      .dwattr $C$DW$203, DW_AT_type(*$C$DW$T$26)
    2235                      .dwattr $C$DW$203, DW_AT_location[DW_OP_reg12]
    2236              
    2237              ;***************************************************************
    2238              ;* FNAME: _SDFM_unregisterInterrupt     FR SIZE:   6           *
    2239              ;*                                                             *
    2240              ;* FUNCTION ENVIRONMENT                                        *
    2241              ;*                                                             *
    2242              ;* FUNCTION PROPERTIES                                         *
    2243              ;*                            0 Parameter,  6 Auto,  0 SOE     *
    2244              ;***************************************************************
    2245              
    2246 00000000       _SDFM_unregisterInterrupt:
    2247                      .dwcfi  cfa_offset, -2
    2248                      .dwcfi  save_reg_to_mem, 26, 0
    2249 00000000 FE06          ADDB      SP,#6                 ; [CPU_U] 
    2250                      .dwcfi  cfa_offset, -8
    2251              $C$DW$204       .dwtag  DW_TAG_variable, DW_AT_name("base")
    2252                      .dwattr $C$DW$204, DW_AT_TI_symbol_name("_base")
    2253                      .dwattr $C$DW$204, DW_AT_type(*$C$DW$T$29)
    2254                      .dwattr $C$DW$204, DW_AT_location[DW_OP_breg20 -2]
    2255              $C$DW$205       .dwtag  DW_TAG_variable, DW_AT_name("interruptType")
    2256                      .dwattr $C$DW$205, DW_AT_TI_symbol_name("_interruptType")
    2257                      .dwattr $C$DW$205, DW_AT_type(*$C$DW$T$26)
    2258                      .dwattr $C$DW$205, DW_AT_location[DW_OP_breg20 -3]
    2259              $C$DW$206       .dwtag  DW_TAG_variable, DW_AT_name("intNumber")
    2260                      .dwattr $C$DW$206, DW_AT_TI_symbol_name("_intNumber")
    2261                      .dwattr $C$DW$206, DW_AT_type(*$C$DW$T$29)
    2262                      .dwattr $C$DW$206, DW_AT_location[DW_OP_breg20 -6]
    2263 00000001 7C43          MOV       *-SP[3],AR4           ; [CPU_] |304| 
TMS320C2000 Assembler PC v6.4.4 Tue Feb 14 14:43:16 2017

Tools Copyright (c) 1996-2015 Texas Instruments Incorporated
C:\Users\a0221343\AppData\Local\Temp\0924410                         PAGE   44

    2264 00000002 1E42          MOVL      *-SP[2],ACC           ; [CPU_] |304| 
    2265                      .dwpsn  file "C:/Users/a0221343/Git/bootROM/f28004x_bootrom/F28004x_ROM_dev_PG2.0/F28004x_ROM/driverl
    2266              $C$DW$207       .dwtag  DW_TAG_TI_branch
    2267                      .dwattr $C$DW$207, DW_AT_low_pc(0x00)
    2268                      .dwattr $C$DW$207, DW_AT_name("_SDFM_getIntNumber")
    2269                      .dwattr $C$DW$207, DW_AT_TI_call
    2270 00000003 7640+         LCR       #_SDFM_getIntNumber   ; [CPU_] |312| 
         00000004 0000 
    2271                      ; call occurs [#_SDFM_getIntNumber] ; [] |312| 
    2272 00000005 1E46          MOVL      *-SP[6],ACC           ; [CPU_] |312| 
    2273                      .dwpsn  file "C:/Users/a0221343/Git/bootROM/f28004x_bootrom/F28004x_ROM_dev_PG2.0/F28004x_ROM/driverl
    2274              $C$DW$208       .dwtag  DW_TAG_TI_branch
    2275                      .dwattr $C$DW$208, DW_AT_low_pc(0x00)
    2276                      .dwattr $C$DW$208, DW_AT_name("_Interrupt_disable")
    2277                      .dwattr $C$DW$208, DW_AT_TI_call
    2278 00000006 7640!         LCR       #_Interrupt_disable   ; [CPU_] |319| 
         00000007 0000 
    2279                      ; call occurs [#_Interrupt_disable] ; [] |319| 
    2280                      .dwpsn  file "C:/Users/a0221343/Git/bootROM/f28004x_bootrom/F28004x_ROM_dev_PG2.0/F28004x_ROM/driverl
    2281 00000008 0646          MOVL      ACC,*-SP[6]           ; [CPU_] |324| 
    2282              $C$DW$209       .dwtag  DW_TAG_TI_branch
    2283                      .dwattr $C$DW$209, DW_AT_low_pc(0x00)
    2284                      .dwattr $C$DW$209, DW_AT_name("_Interrupt_unregister")
    2285                      .dwattr $C$DW$209, DW_AT_TI_call
    2286 00000009 7640+         LCR       #_Interrupt_unregister ; [CPU_] |324| 
         0000000a 0000 
    2287                      ; call occurs [#_Interrupt_unregister] ; [] |324| 
    2288                      .dwpsn  file "C:/Users/a0221343/Git/bootROM/f28004x_bootrom/F28004x_ROM_dev_PG2.0/F28004x_ROM/driverl
    2289 0000000b FE86          SUBB      SP,#6                 ; [CPU_U] 
    2290                      .dwcfi  cfa_offset, -2
    2291              $C$DW$210       .dwtag  DW_TAG_TI_branch
    2292                      .dwattr $C$DW$210, DW_AT_low_pc(0x00)
    2293                      .dwattr $C$DW$210, DW_AT_TI_return
    2294 0000000c 0006          LRETR     ; [CPU_] 
    2295                      ; return occurs ; [] 
    2296                      .dwattr $C$DW$201, DW_AT_TI_end_file("C:/Users/a0221343/Git/bootROM/f28004x_bootrom/F28004x_ROM_dev_P
    2297                      .dwattr $C$DW$201, DW_AT_TI_end_line(0x145)
    2298                      .dwattr $C$DW$201, DW_AT_TI_end_column(0x01)
    2299                      .dwendentry
    2300                      .dwendtag $C$DW$201
    2301              
    2302              ;**************************************************************
    2303              ;* UNDEFINED EXTERNAL REFERENCES                              *
    2304              ;**************************************************************
    2305                      .global _Interrupt_disable
    2306                      .global _Interrupt_enable
    2307              
    2308              ;***************************************************************
    2309              ;* TYPE INFORMATION                                            *
    2310              ;***************************************************************
    2311              
    2312              $C$DW$T$19      .dwtag  DW_TAG_enumeration_type
    2313                      .dwattr $C$DW$T$19, DW_AT_byte_size(0x01)
    2314              $C$DW$211       .dwtag  DW_TAG_enumerator, DW_AT_name("SDFM_FILTER_1"), DW_AT_const_value(0x00)
    2315              $C$DW$212       .dwtag  DW_TAG_enumerator, DW_AT_name("SDFM_FILTER_2"), DW_AT_const_value(0x01)
TMS320C2000 Assembler PC v6.4.4 Tue Feb 14 14:43:16 2017

Tools Copyright (c) 1996-2015 Texas Instruments Incorporated
C:\Users\a0221343\AppData\Local\Temp\0924410                         PAGE   45

    2316              $C$DW$213       .dwtag  DW_TAG_enumerator, DW_AT_name("SDFM_FILTER_3"), DW_AT_const_value(0x02)
    2317              $C$DW$214       .dwtag  DW_TAG_enumerator, DW_AT_name("SDFM_FILTER_4"), DW_AT_const_value(0x03)
    2318                      .dwendtag $C$DW$T$19
    2319              
    2320              $C$DW$T$20      .dwtag  DW_TAG_typedef, DW_AT_name("SDFM_FilterNumber")
    2321                      .dwattr $C$DW$T$20, DW_AT_type(*$C$DW$T$19)
    2322                      .dwattr $C$DW$T$20, DW_AT_language(DW_LANG_C)
    2323              
    2324              $C$DW$T$21      .dwtag  DW_TAG_enumeration_type
    2325                      .dwattr $C$DW$T$21, DW_AT_byte_size(0x01)
    2326              $C$DW$215       .dwtag  DW_TAG_enumerator, DW_AT_name("SDFM_FILTER_SINC_FAST"), DW_AT_const_value(0x00)
    2327              $C$DW$216       .dwtag  DW_TAG_enumerator, DW_AT_name("SDFM_FILTER_SINC_1"), DW_AT_const_value(0x10)
    2328              $C$DW$217       .dwtag  DW_TAG_enumerator, DW_AT_name("SDFM_FILTER_SINC_2"), DW_AT_const_value(0x20)
    2329              $C$DW$218       .dwtag  DW_TAG_enumerator, DW_AT_name("SDFM_FILTER_SINC_3"), DW_AT_const_value(0x30)
    2330                      .dwendtag $C$DW$T$21
    2331              
    2332              $C$DW$T$22      .dwtag  DW_TAG_typedef, DW_AT_name("SDFM_FilterType")
    2333                      .dwattr $C$DW$T$22, DW_AT_type(*$C$DW$T$21)
    2334                      .dwattr $C$DW$T$22, DW_AT_language(DW_LANG_C)
    2335              
    2336              $C$DW$T$23      .dwtag  DW_TAG_enumeration_type
    2337                      .dwattr $C$DW$T$23, DW_AT_byte_size(0x01)
    2338              $C$DW$219       .dwtag  DW_TAG_enumerator, DW_AT_name("SDFM_DATA_FORMAT_16_BIT"), DW_AT_const_value(0x00)
    2339              $C$DW$220       .dwtag  DW_TAG_enumerator, DW_AT_name("SDFM_DATA_FORMAT_32_BIT"), DW_AT_const_value(0x01)
    2340                      .dwendtag $C$DW$T$23
    2341              
    2342              $C$DW$T$24      .dwtag  DW_TAG_typedef, DW_AT_name("SDFM_OutputDataFormat")
    2343                      .dwattr $C$DW$T$24, DW_AT_type(*$C$DW$T$23)
    2344                      .dwattr $C$DW$T$24, DW_AT_language(DW_LANG_C)
    2345              
    2346              $C$DW$T$25      .dwtag  DW_TAG_enumeration_type
    2347                      .dwattr $C$DW$T$25, DW_AT_byte_size(0x01)
    2348              $C$DW$221       .dwtag  DW_TAG_enumerator, DW_AT_name("SDFM_INTERRUPT"), DW_AT_const_value(0x00)
    2349              $C$DW$222       .dwtag  DW_TAG_enumerator, DW_AT_name("SDFM_FILTER_1_DATA_READY_INTERRUPT"), DW_AT_const_valu
    2350              $C$DW$223       .dwtag  DW_TAG_enumerator, DW_AT_name("SDFM_FILTER_2_DATA_READY_INTERRUPT"), DW_AT_const_valu
    2351              $C$DW$224       .dwtag  DW_TAG_enumerator, DW_AT_name("SDFM_FILTER_3_DATA_READY_INTERRUPT"), DW_AT_const_valu
    2352              $C$DW$225       .dwtag  DW_TAG_enumerator, DW_AT_name("SDFM_FILTER_4_DATA_READY_INTERRUPT"), DW_AT_const_valu
    2353                      .dwendtag $C$DW$T$25
    2354              
    2355              $C$DW$T$26      .dwtag  DW_TAG_typedef, DW_AT_name("SDFM_InterruptType")
    2356                      .dwattr $C$DW$T$26, DW_AT_type(*$C$DW$T$25)
    2357                      .dwattr $C$DW$T$26, DW_AT_language(DW_LANG_C)
    2358              $C$DW$T$2       .dwtag  DW_TAG_unspecified_type
    2359                      .dwattr $C$DW$T$2, DW_AT_name("void")
    2360              
    2361              $C$DW$T$27      .dwtag  DW_TAG_subroutine_type
    2362                      .dwattr $C$DW$T$27, DW_AT_language(DW_LANG_C)
    2363              $C$DW$T$28      .dwtag  DW_TAG_pointer_type
    2364                      .dwattr $C$DW$T$28, DW_AT_type(*$C$DW$T$27)
    2365                      .dwattr $C$DW$T$28, DW_AT_address_class(0x20)
    2366              $C$DW$T$4       .dwtag  DW_TAG_base_type
    2367                      .dwattr $C$DW$T$4, DW_AT_encoding(DW_ATE_boolean)
    2368                      .dwattr $C$DW$T$4, DW_AT_name("bool")
    2369                      .dwattr $C$DW$T$4, DW_AT_byte_size(0x01)
    2370              $C$DW$T$5       .dwtag  DW_TAG_base_type
TMS320C2000 Assembler PC v6.4.4 Tue Feb 14 14:43:16 2017

Tools Copyright (c) 1996-2015 Texas Instruments Incorporated
C:\Users\a0221343\AppData\Local\Temp\0924410                         PAGE   46

    2371                      .dwattr $C$DW$T$5, DW_AT_encoding(DW_ATE_signed_char)
    2372                      .dwattr $C$DW$T$5, DW_AT_name("signed char")
    2373                      .dwattr $C$DW$T$5, DW_AT_byte_size(0x01)
    2374              $C$DW$T$6       .dwtag  DW_TAG_base_type
    2375                      .dwattr $C$DW$T$6, DW_AT_encoding(DW_ATE_unsigned_char)
    2376                      .dwattr $C$DW$T$6, DW_AT_name("unsigned char")
    2377                      .dwattr $C$DW$T$6, DW_AT_byte_size(0x01)
    2378              $C$DW$T$7       .dwtag  DW_TAG_base_type
    2379                      .dwattr $C$DW$T$7, DW_AT_encoding(DW_ATE_signed_char)
    2380                      .dwattr $C$DW$T$7, DW_AT_name("wchar_t")
    2381                      .dwattr $C$DW$T$7, DW_AT_byte_size(0x01)
    2382              $C$DW$T$8       .dwtag  DW_TAG_base_type
    2383                      .dwattr $C$DW$T$8, DW_AT_encoding(DW_ATE_signed)
    2384                      .dwattr $C$DW$T$8, DW_AT_name("short")
    2385                      .dwattr $C$DW$T$8, DW_AT_byte_size(0x01)
    2386              $C$DW$T$9       .dwtag  DW_TAG_base_type
    2387                      .dwattr $C$DW$T$9, DW_AT_encoding(DW_ATE_unsigned)
    2388                      .dwattr $C$DW$T$9, DW_AT_name("unsigned short")
    2389                      .dwattr $C$DW$T$9, DW_AT_byte_size(0x01)
    2390              $C$DW$T$10      .dwtag  DW_TAG_base_type
    2391                      .dwattr $C$DW$T$10, DW_AT_encoding(DW_ATE_signed)
    2392                      .dwattr $C$DW$T$10, DW_AT_name("int")
    2393                      .dwattr $C$DW$T$10, DW_AT_byte_size(0x01)
    2394              $C$DW$T$11      .dwtag  DW_TAG_base_type
    2395                      .dwattr $C$DW$T$11, DW_AT_encoding(DW_ATE_unsigned)
    2396                      .dwattr $C$DW$T$11, DW_AT_name("unsigned int")
    2397                      .dwattr $C$DW$T$11, DW_AT_byte_size(0x01)
    2398              $C$DW$T$38      .dwtag  DW_TAG_typedef, DW_AT_name("uint16_t")
    2399                      .dwattr $C$DW$T$38, DW_AT_type(*$C$DW$T$11)
    2400                      .dwattr $C$DW$T$38, DW_AT_language(DW_LANG_C)
    2401              $C$DW$T$12      .dwtag  DW_TAG_base_type
    2402                      .dwattr $C$DW$T$12, DW_AT_encoding(DW_ATE_signed)
    2403                      .dwattr $C$DW$T$12, DW_AT_name("long")
    2404                      .dwattr $C$DW$T$12, DW_AT_byte_size(0x02)
    2405              $C$DW$T$13      .dwtag  DW_TAG_base_type
    2406                      .dwattr $C$DW$T$13, DW_AT_encoding(DW_ATE_unsigned)
    2407                      .dwattr $C$DW$T$13, DW_AT_name("unsigned long")
    2408                      .dwattr $C$DW$T$13, DW_AT_byte_size(0x02)
    2409              $C$DW$T$29      .dwtag  DW_TAG_typedef, DW_AT_name("uint32_t")
    2410                      .dwattr $C$DW$T$29, DW_AT_type(*$C$DW$T$13)
    2411                      .dwattr $C$DW$T$29, DW_AT_language(DW_LANG_C)
    2412              $C$DW$T$14      .dwtag  DW_TAG_base_type
    2413                      .dwattr $C$DW$T$14, DW_AT_encoding(DW_ATE_signed)
    2414                      .dwattr $C$DW$T$14, DW_AT_name("long long")
    2415                      .dwattr $C$DW$T$14, DW_AT_byte_size(0x04)
    2416              $C$DW$T$15      .dwtag  DW_TAG_base_type
    2417                      .dwattr $C$DW$T$15, DW_AT_encoding(DW_ATE_unsigned)
    2418                      .dwattr $C$DW$T$15, DW_AT_name("unsigned long long")
    2419                      .dwattr $C$DW$T$15, DW_AT_byte_size(0x04)
    2420              $C$DW$T$16      .dwtag  DW_TAG_base_type
    2421                      .dwattr $C$DW$T$16, DW_AT_encoding(DW_ATE_float)
    2422                      .dwattr $C$DW$T$16, DW_AT_name("float")
    2423                      .dwattr $C$DW$T$16, DW_AT_byte_size(0x02)
    2424              $C$DW$T$17      .dwtag  DW_TAG_base_type
    2425                      .dwattr $C$DW$T$17, DW_AT_encoding(DW_ATE_float)
TMS320C2000 Assembler PC v6.4.4 Tue Feb 14 14:43:16 2017

Tools Copyright (c) 1996-2015 Texas Instruments Incorporated
C:\Users\a0221343\AppData\Local\Temp\0924410                         PAGE   47

    2426                      .dwattr $C$DW$T$17, DW_AT_name("double")
    2427                      .dwattr $C$DW$T$17, DW_AT_byte_size(0x02)
    2428              $C$DW$T$18      .dwtag  DW_TAG_base_type
    2429                      .dwattr $C$DW$T$18, DW_AT_encoding(DW_ATE_float)
    2430                      .dwattr $C$DW$T$18, DW_AT_name("long double")
    2431                      .dwattr $C$DW$T$18, DW_AT_byte_size(0x04)
    2432                      .dwattr $C$DW$CU, DW_AT_language(DW_LANG_C)
    2433              
    2434              ;***************************************************************
    2435              ;* DWARF CIE ENTRIES                                           *
    2436              ;***************************************************************
    2437              
    2438              $C$DW$CIE       .dwcie 26
    2439                      .dwcfi  cfa_register, 20
    2440                      .dwcfi  cfa_offset, 0
    2441                      .dwcfi  undefined, 0
    2442                      .dwcfi  undefined, 1
    2443                      .dwcfi  undefined, 2
    2444                      .dwcfi  undefined, 3
    2445                      .dwcfi  undefined, 20
    2446                      .dwcfi  undefined, 21
    2447                      .dwcfi  undefined, 22
    2448                      .dwcfi  undefined, 23
    2449                      .dwcfi  undefined, 24
    2450                      .dwcfi  undefined, 25
    2451                      .dwcfi  undefined, 26
    2452                      .dwcfi  same_value, 28
    2453                      .dwcfi  undefined, 29
    2454                      .dwcfi  undefined, 30
    2455                      .dwcfi  undefined, 31
    2456                      .dwcfi  undefined, 32
    2457                      .dwcfi  undefined, 33
    2458                      .dwcfi  undefined, 34
    2459                      .dwcfi  undefined, 35
    2460                      .dwcfi  undefined, 36
    2461                      .dwcfi  undefined, 37
    2462                      .dwcfi  undefined, 38
    2463                      .dwcfi  undefined, 75
    2464                      .dwcfi  undefined, 76
    2465                      .dwcfi  undefined, 77
    2466                      .dwcfi  undefined, 4
    2467                      .dwcfi  undefined, 5
    2468                      .dwcfi  same_value, 6
    2469                      .dwcfi  same_value, 7
    2470                      .dwcfi  same_value, 8
    2471                      .dwcfi  same_value, 9
    2472                      .dwcfi  same_value, 10
    2473                      .dwcfi  same_value, 11
    2474                      .dwcfi  undefined, 12
    2475                      .dwcfi  undefined, 13
    2476                      .dwcfi  undefined, 14
    2477                      .dwcfi  undefined, 15
    2478                      .dwcfi  undefined, 16
    2479                      .dwcfi  undefined, 17
    2480                      .dwcfi  undefined, 18
TMS320C2000 Assembler PC v6.4.4 Tue Feb 14 14:43:16 2017

Tools Copyright (c) 1996-2015 Texas Instruments Incorporated
C:\Users\a0221343\AppData\Local\Temp\0924410                         PAGE   48

    2481                      .dwcfi  undefined, 19
    2482                      .dwcfi  undefined, 43
    2483                      .dwcfi  undefined, 44
    2484                      .dwcfi  undefined, 47
    2485                      .dwcfi  undefined, 48
    2486                      .dwcfi  undefined, 51
    2487                      .dwcfi  undefined, 52
    2488                      .dwcfi  undefined, 55
    2489                      .dwcfi  undefined, 56
    2490                      .dwcfi  same_value, 59
    2491                      .dwcfi  same_value, 60
    2492                      .dwcfi  same_value, 63
    2493                      .dwcfi  same_value, 64
    2494                      .dwcfi  same_value, 67
    2495                      .dwcfi  same_value, 68
    2496                      .dwcfi  same_value, 71
    2497                      .dwcfi  same_value, 72
    2498                      .dwcfi  undefined, 73
    2499                      .dwcfi  undefined, 74
    2500                      .dwcfi  undefined, 39
    2501                      .dwcfi  undefined, 40
    2502                      .dwcfi  undefined, 27
    2503                      .dwendentry
    2504              
    2505              ;***************************************************************
    2506              ;* DWARF REGISTER MAP                                          *
    2507              ;***************************************************************
    2508              
    2509              $C$DW$226       .dwtag  DW_TAG_TI_assign_register, DW_AT_name("AL")
    2510                      .dwattr $C$DW$226, DW_AT_location[DW_OP_reg0]
    2511              $C$DW$227       .dwtag  DW_TAG_TI_assign_register, DW_AT_name("AH")
    2512                      .dwattr $C$DW$227, DW_AT_location[DW_OP_reg1]
    2513              $C$DW$228       .dwtag  DW_TAG_TI_assign_register, DW_AT_name("PL")
    2514                      .dwattr $C$DW$228, DW_AT_location[DW_OP_reg2]
    2515              $C$DW$229       .dwtag  DW_TAG_TI_assign_register, DW_AT_name("PH")
    2516                      .dwattr $C$DW$229, DW_AT_location[DW_OP_reg3]
    2517              $C$DW$230       .dwtag  DW_TAG_TI_assign_register, DW_AT_name("SP")
    2518                      .dwattr $C$DW$230, DW_AT_location[DW_OP_reg20]
    2519              $C$DW$231       .dwtag  DW_TAG_TI_assign_register, DW_AT_name("XT")
    2520                      .dwattr $C$DW$231, DW_AT_location[DW_OP_reg21]
    2521              $C$DW$232       .dwtag  DW_TAG_TI_assign_register, DW_AT_name("T")
    2522                      .dwattr $C$DW$232, DW_AT_location[DW_OP_reg22]
    2523              $C$DW$233       .dwtag  DW_TAG_TI_assign_register, DW_AT_name("ST0")
    2524                      .dwattr $C$DW$233, DW_AT_location[DW_OP_reg23]
    2525              $C$DW$234       .dwtag  DW_TAG_TI_assign_register, DW_AT_name("ST1")
    2526                      .dwattr $C$DW$234, DW_AT_location[DW_OP_reg24]
    2527              $C$DW$235       .dwtag  DW_TAG_TI_assign_register, DW_AT_name("PC")
    2528                      .dwattr $C$DW$235, DW_AT_location[DW_OP_reg25]
    2529              $C$DW$236       .dwtag  DW_TAG_TI_assign_register, DW_AT_name("RPC")
    2530                      .dwattr $C$DW$236, DW_AT_location[DW_OP_reg26]
    2531              $C$DW$237       .dwtag  DW_TAG_TI_assign_register, DW_AT_name("FP")
    2532                      .dwattr $C$DW$237, DW_AT_location[DW_OP_reg28]
    2533              $C$DW$238       .dwtag  DW_TAG_TI_assign_register, DW_AT_name("DP")
    2534                      .dwattr $C$DW$238, DW_AT_location[DW_OP_reg29]
    2535              $C$DW$239       .dwtag  DW_TAG_TI_assign_register, DW_AT_name("SXM")
TMS320C2000 Assembler PC v6.4.4 Tue Feb 14 14:43:16 2017

Tools Copyright (c) 1996-2015 Texas Instruments Incorporated
C:\Users\a0221343\AppData\Local\Temp\0924410                         PAGE   49

    2536                      .dwattr $C$DW$239, DW_AT_location[DW_OP_reg30]
    2537              $C$DW$240       .dwtag  DW_TAG_TI_assign_register, DW_AT_name("PM")
    2538                      .dwattr $C$DW$240, DW_AT_location[DW_OP_reg31]
    2539              $C$DW$241       .dwtag  DW_TAG_TI_assign_register, DW_AT_name("OVM")
    2540                      .dwattr $C$DW$241, DW_AT_location[DW_OP_regx 0x20]
    2541              $C$DW$242       .dwtag  DW_TAG_TI_assign_register, DW_AT_name("PAGE0")
    2542                      .dwattr $C$DW$242, DW_AT_location[DW_OP_regx 0x21]
    2543              $C$DW$243       .dwtag  DW_TAG_TI_assign_register, DW_AT_name("AMODE")
    2544                      .dwattr $C$DW$243, DW_AT_location[DW_OP_regx 0x22]
    2545              $C$DW$244       .dwtag  DW_TAG_TI_assign_register, DW_AT_name("INTM")
    2546                      .dwattr $C$DW$244, DW_AT_location[DW_OP_regx 0x23]
    2547              $C$DW$245       .dwtag  DW_TAG_TI_assign_register, DW_AT_name("IFR")
    2548                      .dwattr $C$DW$245, DW_AT_location[DW_OP_regx 0x24]
    2549              $C$DW$246       .dwtag  DW_TAG_TI_assign_register, DW_AT_name("IER")
    2550                      .dwattr $C$DW$246, DW_AT_location[DW_OP_regx 0x25]
    2551              $C$DW$247       .dwtag  DW_TAG_TI_assign_register, DW_AT_name("V")
    2552                      .dwattr $C$DW$247, DW_AT_location[DW_OP_regx 0x26]
    2553              $C$DW$248       .dwtag  DW_TAG_TI_assign_register, DW_AT_name("PSEUDOH")
    2554                      .dwattr $C$DW$248, DW_AT_location[DW_OP_regx 0x4c]
    2555              $C$DW$249       .dwtag  DW_TAG_TI_assign_register, DW_AT_name("VOL")
    2556                      .dwattr $C$DW$249, DW_AT_location[DW_OP_regx 0x4d]
    2557              $C$DW$250       .dwtag  DW_TAG_TI_assign_register, DW_AT_name("AR0")
    2558                      .dwattr $C$DW$250, DW_AT_location[DW_OP_reg4]
    2559              $C$DW$251       .dwtag  DW_TAG_TI_assign_register, DW_AT_name("XAR0")
    2560                      .dwattr $C$DW$251, DW_AT_location[DW_OP_reg5]
    2561              $C$DW$252       .dwtag  DW_TAG_TI_assign_register, DW_AT_name("AR1")
    2562                      .dwattr $C$DW$252, DW_AT_location[DW_OP_reg6]
    2563              $C$DW$253       .dwtag  DW_TAG_TI_assign_register, DW_AT_name("XAR1")
    2564                      .dwattr $C$DW$253, DW_AT_location[DW_OP_reg7]
    2565              $C$DW$254       .dwtag  DW_TAG_TI_assign_register, DW_AT_name("AR2")
    2566                      .dwattr $C$DW$254, DW_AT_location[DW_OP_reg8]
    2567              $C$DW$255       .dwtag  DW_TAG_TI_assign_register, DW_AT_name("XAR2")
    2568                      .dwattr $C$DW$255, DW_AT_location[DW_OP_reg9]
    2569              $C$DW$256       .dwtag  DW_TAG_TI_assign_register, DW_AT_name("AR3")
    2570                      .dwattr $C$DW$256, DW_AT_location[DW_OP_reg10]
    2571              $C$DW$257       .dwtag  DW_TAG_TI_assign_register, DW_AT_name("XAR3")
    2572                      .dwattr $C$DW$257, DW_AT_location[DW_OP_reg11]
    2573              $C$DW$258       .dwtag  DW_TAG_TI_assign_register, DW_AT_name("AR4")
    2574                      .dwattr $C$DW$258, DW_AT_location[DW_OP_reg12]
    2575              $C$DW$259       .dwtag  DW_TAG_TI_assign_register, DW_AT_name("XAR4")
    2576                      .dwattr $C$DW$259, DW_AT_location[DW_OP_reg13]
    2577              $C$DW$260       .dwtag  DW_TAG_TI_assign_register, DW_AT_name("AR5")
    2578                      .dwattr $C$DW$260, DW_AT_location[DW_OP_reg14]
    2579              $C$DW$261       .dwtag  DW_TAG_TI_assign_register, DW_AT_name("XAR5")
    2580                      .dwattr $C$DW$261, DW_AT_location[DW_OP_reg15]
    2581              $C$DW$262       .dwtag  DW_TAG_TI_assign_register, DW_AT_name("AR6")
    2582                      .dwattr $C$DW$262, DW_AT_location[DW_OP_reg16]
    2583              $C$DW$263       .dwtag  DW_TAG_TI_assign_register, DW_AT_name("XAR6")
    2584                      .dwattr $C$DW$263, DW_AT_location[DW_OP_reg17]
    2585              $C$DW$264       .dwtag  DW_TAG_TI_assign_register, DW_AT_name("AR7")
    2586                      .dwattr $C$DW$264, DW_AT_location[DW_OP_reg18]
    2587              $C$DW$265       .dwtag  DW_TAG_TI_assign_register, DW_AT_name("XAR7")
    2588                      .dwattr $C$DW$265, DW_AT_location[DW_OP_reg19]
    2589              $C$DW$266       .dwtag  DW_TAG_TI_assign_register, DW_AT_name("R0HL")
    2590                      .dwattr $C$DW$266, DW_AT_location[DW_OP_regx 0x2b]
TMS320C2000 Assembler PC v6.4.4 Tue Feb 14 14:43:16 2017

Tools Copyright (c) 1996-2015 Texas Instruments Incorporated
C:\Users\a0221343\AppData\Local\Temp\0924410                         PAGE   50

    2591              $C$DW$267       .dwtag  DW_TAG_TI_assign_register, DW_AT_name("R0H")
    2592                      .dwattr $C$DW$267, DW_AT_location[DW_OP_regx 0x2c]
    2593              $C$DW$268       .dwtag  DW_TAG_TI_assign_register, DW_AT_name("R1HL")
    2594                      .dwattr $C$DW$268, DW_AT_location[DW_OP_regx 0x2f]
    2595              $C$DW$269       .dwtag  DW_TAG_TI_assign_register, DW_AT_name("R1H")
    2596                      .dwattr $C$DW$269, DW_AT_location[DW_OP_regx 0x30]
    2597              $C$DW$270       .dwtag  DW_TAG_TI_assign_register, DW_AT_name("R2HL")
    2598                      .dwattr $C$DW$270, DW_AT_location[DW_OP_regx 0x33]
    2599              $C$DW$271       .dwtag  DW_TAG_TI_assign_register, DW_AT_name("R2H")
    2600                      .dwattr $C$DW$271, DW_AT_location[DW_OP_regx 0x34]
    2601              $C$DW$272       .dwtag  DW_TAG_TI_assign_register, DW_AT_name("R3HL")
    2602                      .dwattr $C$DW$272, DW_AT_location[DW_OP_regx 0x37]
    2603              $C$DW$273       .dwtag  DW_TAG_TI_assign_register, DW_AT_name("R3H")
    2604                      .dwattr $C$DW$273, DW_AT_location[DW_OP_regx 0x38]
    2605              $C$DW$274       .dwtag  DW_TAG_TI_assign_register, DW_AT_name("R4HL")
    2606                      .dwattr $C$DW$274, DW_AT_location[DW_OP_regx 0x3b]
    2607              $C$DW$275       .dwtag  DW_TAG_TI_assign_register, DW_AT_name("R4H")
    2608                      .dwattr $C$DW$275, DW_AT_location[DW_OP_regx 0x3c]
    2609              $C$DW$276       .dwtag  DW_TAG_TI_assign_register, DW_AT_name("R5HL")
    2610                      .dwattr $C$DW$276, DW_AT_location[DW_OP_regx 0x3f]
    2611              $C$DW$277       .dwtag  DW_TAG_TI_assign_register, DW_AT_name("R5H")
    2612                      .dwattr $C$DW$277, DW_AT_location[DW_OP_regx 0x40]
    2613              $C$DW$278       .dwtag  DW_TAG_TI_assign_register, DW_AT_name("R6HL")
    2614                      .dwattr $C$DW$278, DW_AT_location[DW_OP_regx 0x43]
    2615              $C$DW$279       .dwtag  DW_TAG_TI_assign_register, DW_AT_name("R6H")
    2616                      .dwattr $C$DW$279, DW_AT_location[DW_OP_regx 0x44]
    2617              $C$DW$280       .dwtag  DW_TAG_TI_assign_register, DW_AT_name("R7HL")
    2618                      .dwattr $C$DW$280, DW_AT_location[DW_OP_regx 0x47]
    2619              $C$DW$281       .dwtag  DW_TAG_TI_assign_register, DW_AT_name("R7H")
    2620                      .dwattr $C$DW$281, DW_AT_location[DW_OP_regx 0x48]
    2621              $C$DW$282       .dwtag  DW_TAG_TI_assign_register, DW_AT_name("RBL")
    2622                      .dwattr $C$DW$282, DW_AT_location[DW_OP_regx 0x49]
    2623              $C$DW$283       .dwtag  DW_TAG_TI_assign_register, DW_AT_name("RB")
    2624                      .dwattr $C$DW$283, DW_AT_location[DW_OP_regx 0x4a]
    2625              $C$DW$284       .dwtag  DW_TAG_TI_assign_register, DW_AT_name("STFL")
    2626                      .dwattr $C$DW$284, DW_AT_location[DW_OP_regx 0x27]
    2627              $C$DW$285       .dwtag  DW_TAG_TI_assign_register, DW_AT_name("STF")
    2628                      .dwattr $C$DW$285, DW_AT_location[DW_OP_regx 0x28]
    2629              $C$DW$286       .dwtag  DW_TAG_TI_assign_register, DW_AT_name("FPUHAZ")
    2630                      .dwattr $C$DW$286, DW_AT_location[DW_OP_reg27]
    2631                      .dwendtag $C$DW$CU
    2632              

No Assembly Errors, No Assembly Warnings
